; Listing generated by Microsoft (R) Optimizing Compiler Version 16.00.40219.01 

	TITLE	C:\workspaces\newagent2\runtime.tools\src\ibmras\monitoring\plugins\jni\CFacade.cpp
	.686P
	.XMM
	include listing.inc
	.model	flat

INCLUDELIB MSVCRT
INCLUDELIB OLDNAMES

PUBLIC	?jvmF@jni@plugins@monitoring@ibmras@@3PAUjvmFunctions@@A ; ibmras::monitoring::plugins::jni::jvmF
PUBLIC	?tm_stt@jni@plugins@monitoring@ibmras@@3_KA	; ibmras::monitoring::plugins::jni::tm_stt
PUBLIC	?value@?$integral_constant@_N$0A@@tr1@std@@2_NB	; std::tr1::integral_constant<bool,0>::value
PUBLIC	?value@?$integral_constant@_N$00@tr1@std@@2_NB	; std::tr1::integral_constant<bool,1>::value
PUBLIC	?value@?$integral_constant@I$0A@@tr1@std@@2IB	; std::tr1::integral_constant<unsigned int,0>::value
PUBLIC	?_Rank@?$_Arithmetic_traits@_N@std@@2HB		; std::_Arithmetic_traits<bool>::_Rank
PUBLIC	?_Rank@?$_Arithmetic_traits@D@std@@2HB		; std::_Arithmetic_traits<char>::_Rank
PUBLIC	?_Rank@?$_Arithmetic_traits@C@std@@2HB		; std::_Arithmetic_traits<signed char>::_Rank
PUBLIC	?_Rank@?$_Arithmetic_traits@E@std@@2HB		; std::_Arithmetic_traits<unsigned char>::_Rank
PUBLIC	?_Rank@?$_Arithmetic_traits@F@std@@2HB		; std::_Arithmetic_traits<short>::_Rank
PUBLIC	?_Rank@?$_Arithmetic_traits@G@std@@2HB		; std::_Arithmetic_traits<unsigned short>::_Rank
PUBLIC	?_Rank@?$_Arithmetic_traits@H@std@@2HB		; std::_Arithmetic_traits<int>::_Rank
PUBLIC	?_Rank@?$_Arithmetic_traits@I@std@@2HB		; std::_Arithmetic_traits<unsigned int>::_Rank
PUBLIC	?_Rank@?$_Arithmetic_traits@J@std@@2HB		; std::_Arithmetic_traits<long>::_Rank
PUBLIC	?_Rank@?$_Arithmetic_traits@K@std@@2HB		; std::_Arithmetic_traits<unsigned long>::_Rank
PUBLIC	?_Rank@?$_Arithmetic_traits@_J@std@@2HB		; std::_Arithmetic_traits<__int64>::_Rank
PUBLIC	?_Rank@?$_Arithmetic_traits@_K@std@@2HB		; std::_Arithmetic_traits<unsigned __int64>::_Rank
PUBLIC	?_Rank@?$_Arithmetic_traits@M@std@@2HB		; std::_Arithmetic_traits<float>::_Rank
PUBLIC	?_Rank@?$_Arithmetic_traits@N@std@@2HB		; std::_Arithmetic_traits<double>::_Rank
PUBLIC	?_Rank@?$_Arithmetic_traits@O@std@@2HB		; std::_Arithmetic_traits<long double>::_Rank
PUBLIC	?collate@?$_Locbase@H@std@@2HB			; std::_Locbase<int>::collate
PUBLIC	?ctype@?$_Locbase@H@std@@2HB			; std::_Locbase<int>::ctype
PUBLIC	?monetary@?$_Locbase@H@std@@2HB			; std::_Locbase<int>::monetary
PUBLIC	?numeric@?$_Locbase@H@std@@2HB			; std::_Locbase<int>::numeric
PUBLIC	?time@?$_Locbase@H@std@@2HB			; std::_Locbase<int>::time
PUBLIC	?messages@?$_Locbase@H@std@@2HB			; std::_Locbase<int>::messages
PUBLIC	?all@?$_Locbase@H@std@@2HB			; std::_Locbase<int>::all
PUBLIC	?none@?$_Locbase@H@std@@2HB			; std::_Locbase<int>::none
PUBLIC	?skipws@?$_Iosb@H@std@@2W4_Fmtflags@12@B	; std::_Iosb<int>::skipws
PUBLIC	?unitbuf@?$_Iosb@H@std@@2W4_Fmtflags@12@B	; std::_Iosb<int>::unitbuf
PUBLIC	?uppercase@?$_Iosb@H@std@@2W4_Fmtflags@12@B	; std::_Iosb<int>::uppercase
PUBLIC	?showbase@?$_Iosb@H@std@@2W4_Fmtflags@12@B	; std::_Iosb<int>::showbase
PUBLIC	?showpoint@?$_Iosb@H@std@@2W4_Fmtflags@12@B	; std::_Iosb<int>::showpoint
PUBLIC	?showpos@?$_Iosb@H@std@@2W4_Fmtflags@12@B	; std::_Iosb<int>::showpos
PUBLIC	?left@?$_Iosb@H@std@@2W4_Fmtflags@12@B		; std::_Iosb<int>::left
PUBLIC	?right@?$_Iosb@H@std@@2W4_Fmtflags@12@B		; std::_Iosb<int>::right
PUBLIC	?internal@?$_Iosb@H@std@@2W4_Fmtflags@12@B	; std::_Iosb<int>::internal
PUBLIC	?dec@?$_Iosb@H@std@@2W4_Fmtflags@12@B		; std::_Iosb<int>::dec
PUBLIC	?oct@?$_Iosb@H@std@@2W4_Fmtflags@12@B		; std::_Iosb<int>::oct
PUBLIC	?hex@?$_Iosb@H@std@@2W4_Fmtflags@12@B		; std::_Iosb<int>::hex
PUBLIC	?scientific@?$_Iosb@H@std@@2W4_Fmtflags@12@B	; std::_Iosb<int>::scientific
PUBLIC	?fixed@?$_Iosb@H@std@@2W4_Fmtflags@12@B		; std::_Iosb<int>::fixed
PUBLIC	?hexfloat@?$_Iosb@H@std@@2W4_Fmtflags@12@B	; std::_Iosb<int>::hexfloat
PUBLIC	?boolalpha@?$_Iosb@H@std@@2W4_Fmtflags@12@B	; std::_Iosb<int>::boolalpha
PUBLIC	?_Stdio@?$_Iosb@H@std@@2W4_Fmtflags@12@B	; std::_Iosb<int>::_Stdio
PUBLIC	?adjustfield@?$_Iosb@H@std@@2W4_Fmtflags@12@B	; std::_Iosb<int>::adjustfield
PUBLIC	?basefield@?$_Iosb@H@std@@2W4_Fmtflags@12@B	; std::_Iosb<int>::basefield
PUBLIC	?floatfield@?$_Iosb@H@std@@2W4_Fmtflags@12@B	; std::_Iosb<int>::floatfield
PUBLIC	?goodbit@?$_Iosb@H@std@@2W4_Iostate@12@B	; std::_Iosb<int>::goodbit
PUBLIC	?eofbit@?$_Iosb@H@std@@2W4_Iostate@12@B		; std::_Iosb<int>::eofbit
PUBLIC	?failbit@?$_Iosb@H@std@@2W4_Iostate@12@B	; std::_Iosb<int>::failbit
PUBLIC	?badbit@?$_Iosb@H@std@@2W4_Iostate@12@B		; std::_Iosb<int>::badbit
PUBLIC	?_Hardfail@?$_Iosb@H@std@@2W4_Iostate@12@B	; std::_Iosb<int>::_Hardfail
PUBLIC	?in@?$_Iosb@H@std@@2W4_Openmode@12@B		; std::_Iosb<int>::in
PUBLIC	?out@?$_Iosb@H@std@@2W4_Openmode@12@B		; std::_Iosb<int>::out
PUBLIC	?ate@?$_Iosb@H@std@@2W4_Openmode@12@B		; std::_Iosb<int>::ate
PUBLIC	?app@?$_Iosb@H@std@@2W4_Openmode@12@B		; std::_Iosb<int>::app
PUBLIC	?trunc@?$_Iosb@H@std@@2W4_Openmode@12@B		; std::_Iosb<int>::trunc
PUBLIC	?_Nocreate@?$_Iosb@H@std@@2W4_Openmode@12@B	; std::_Iosb<int>::_Nocreate
PUBLIC	?_Noreplace@?$_Iosb@H@std@@2W4_Openmode@12@B	; std::_Iosb<int>::_Noreplace
PUBLIC	?binary@?$_Iosb@H@std@@2W4_Openmode@12@B	; std::_Iosb<int>::binary
PUBLIC	?beg@?$_Iosb@H@std@@2W4_Seekdir@12@B		; std::_Iosb<int>::beg
PUBLIC	?cur@?$_Iosb@H@std@@2W4_Seekdir@12@B		; std::_Iosb<int>::cur
PUBLIC	?end@?$_Iosb@H@std@@2W4_Seekdir@12@B		; std::_Iosb<int>::end
PUBLIC	?vm@jni@plugins@monitoring@ibmras@@3PAUJavaVM_@@A ; ibmras::monitoring::plugins::jni::vm
_BSS	SEGMENT
?jvmF@jni@plugins@monitoring@ibmras@@3PAUjvmFunctions@@A DD 01H DUP (?) ; ibmras::monitoring::plugins::jni::jvmF
	ALIGN	8

?tm_stt@jni@plugins@monitoring@ibmras@@3_KA DQ 01H DUP (?) ; ibmras::monitoring::plugins::jni::tm_stt
?vm@jni@plugins@monitoring@ibmras@@3PAUJavaVM_@@A DD 01H DUP (?) ; ibmras::monitoring::plugins::jni::vm
_BSS	ENDS
CONST	SEGMENT
$SG99264 DB	'DataProviderSources', 00H
$SG99274 DB	'Registering pull sources', 00H
$SG99335 DB	00H
$SG99340 DB	00H
	ORG $+1
$SG99283 DB	'Starting', 00H
	ORG $+3
$SG99294 DB	'Stopping', 00H
	ORG $+3
$SG99328 DB	'>>getString', 00H
$SG99330 DB	'Retrieving class', 00H
	ORG $+3
$SG99334 DB	'Failed to find class', 00H
	ORG $+3
$SG99339 DB	'Failed to get %s method ID', 00H
	ORG $+1
$SG99347 DB	'<<getString', 00H
$SG99352 DB	'>>CFacade''s generateData()', 00H
	ORG $+1
$SG99356 DB	'Attaching thread %s', 00H
$SG99362 DB	'Attached thread %s', 00H
	ORG $+1
$SG99365 DB	'<<CFacade''s generateData() [DATA]', 00H
	ORG $+2
$SG99376 DB	'Detaching thread %s', 00H
$SG99396 DB	'JNI data providers', 00H
	ORG $+1
$SG99402 DB	'JNI exception:', 00H
	ORG $+1
$SG99488 DB	'NULL', 00H
CONST	ENDS
;	COMDAT ?end@?$_Iosb@H@std@@2W4_Seekdir@12@B
CONST	SEGMENT
?end@?$_Iosb@H@std@@2W4_Seekdir@12@B DD 02H		; std::_Iosb<int>::end
CONST	ENDS
;	COMDAT ?cur@?$_Iosb@H@std@@2W4_Seekdir@12@B
CONST	SEGMENT
?cur@?$_Iosb@H@std@@2W4_Seekdir@12@B DD 01H		; std::_Iosb<int>::cur
CONST	ENDS
;	COMDAT ?beg@?$_Iosb@H@std@@2W4_Seekdir@12@B
CONST	SEGMENT
?beg@?$_Iosb@H@std@@2W4_Seekdir@12@B DD 00H		; std::_Iosb<int>::beg
CONST	ENDS
;	COMDAT ?binary@?$_Iosb@H@std@@2W4_Openmode@12@B
CONST	SEGMENT
?binary@?$_Iosb@H@std@@2W4_Openmode@12@B DD 020H	; std::_Iosb<int>::binary
CONST	ENDS
;	COMDAT ?_Noreplace@?$_Iosb@H@std@@2W4_Openmode@12@B
CONST	SEGMENT
?_Noreplace@?$_Iosb@H@std@@2W4_Openmode@12@B DD 080H	; std::_Iosb<int>::_Noreplace
CONST	ENDS
;	COMDAT ?_Nocreate@?$_Iosb@H@std@@2W4_Openmode@12@B
CONST	SEGMENT
?_Nocreate@?$_Iosb@H@std@@2W4_Openmode@12@B DD 040H	; std::_Iosb<int>::_Nocreate
CONST	ENDS
;	COMDAT ?trunc@?$_Iosb@H@std@@2W4_Openmode@12@B
CONST	SEGMENT
?trunc@?$_Iosb@H@std@@2W4_Openmode@12@B DD 010H		; std::_Iosb<int>::trunc
CONST	ENDS
;	COMDAT ?app@?$_Iosb@H@std@@2W4_Openmode@12@B
CONST	SEGMENT
?app@?$_Iosb@H@std@@2W4_Openmode@12@B DD 08H		; std::_Iosb<int>::app
CONST	ENDS
;	COMDAT ?ate@?$_Iosb@H@std@@2W4_Openmode@12@B
CONST	SEGMENT
?ate@?$_Iosb@H@std@@2W4_Openmode@12@B DD 04H		; std::_Iosb<int>::ate
CONST	ENDS
;	COMDAT ?out@?$_Iosb@H@std@@2W4_Openmode@12@B
CONST	SEGMENT
?out@?$_Iosb@H@std@@2W4_Openmode@12@B DD 02H		; std::_Iosb<int>::out
CONST	ENDS
;	COMDAT ?in@?$_Iosb@H@std@@2W4_Openmode@12@B
CONST	SEGMENT
?in@?$_Iosb@H@std@@2W4_Openmode@12@B DD 01H		; std::_Iosb<int>::in
CONST	ENDS
;	COMDAT ?_Hardfail@?$_Iosb@H@std@@2W4_Iostate@12@B
CONST	SEGMENT
?_Hardfail@?$_Iosb@H@std@@2W4_Iostate@12@B DD 010H	; std::_Iosb<int>::_Hardfail
CONST	ENDS
;	COMDAT ?badbit@?$_Iosb@H@std@@2W4_Iostate@12@B
CONST	SEGMENT
?badbit@?$_Iosb@H@std@@2W4_Iostate@12@B DD 04H		; std::_Iosb<int>::badbit
CONST	ENDS
;	COMDAT ?failbit@?$_Iosb@H@std@@2W4_Iostate@12@B
CONST	SEGMENT
?failbit@?$_Iosb@H@std@@2W4_Iostate@12@B DD 02H		; std::_Iosb<int>::failbit
CONST	ENDS
;	COMDAT ?eofbit@?$_Iosb@H@std@@2W4_Iostate@12@B
CONST	SEGMENT
?eofbit@?$_Iosb@H@std@@2W4_Iostate@12@B DD 01H		; std::_Iosb<int>::eofbit
CONST	ENDS
;	COMDAT ?goodbit@?$_Iosb@H@std@@2W4_Iostate@12@B
CONST	SEGMENT
?goodbit@?$_Iosb@H@std@@2W4_Iostate@12@B DD 00H		; std::_Iosb<int>::goodbit
CONST	ENDS
;	COMDAT ?floatfield@?$_Iosb@H@std@@2W4_Fmtflags@12@B
CONST	SEGMENT
?floatfield@?$_Iosb@H@std@@2W4_Fmtflags@12@B DD 03000H	; std::_Iosb<int>::floatfield
CONST	ENDS
;	COMDAT ?basefield@?$_Iosb@H@std@@2W4_Fmtflags@12@B
CONST	SEGMENT
?basefield@?$_Iosb@H@std@@2W4_Fmtflags@12@B DD 0e00H	; std::_Iosb<int>::basefield
CONST	ENDS
;	COMDAT ?adjustfield@?$_Iosb@H@std@@2W4_Fmtflags@12@B
CONST	SEGMENT
?adjustfield@?$_Iosb@H@std@@2W4_Fmtflags@12@B DD 01c0H	; std::_Iosb<int>::adjustfield
CONST	ENDS
;	COMDAT ?_Stdio@?$_Iosb@H@std@@2W4_Fmtflags@12@B
CONST	SEGMENT
?_Stdio@?$_Iosb@H@std@@2W4_Fmtflags@12@B DD 08000H	; std::_Iosb<int>::_Stdio
CONST	ENDS
;	COMDAT ?boolalpha@?$_Iosb@H@std@@2W4_Fmtflags@12@B
CONST	SEGMENT
?boolalpha@?$_Iosb@H@std@@2W4_Fmtflags@12@B DD 04000H	; std::_Iosb<int>::boolalpha
CONST	ENDS
;	COMDAT ?hexfloat@?$_Iosb@H@std@@2W4_Fmtflags@12@B
CONST	SEGMENT
?hexfloat@?$_Iosb@H@std@@2W4_Fmtflags@12@B DD 03000H	; std::_Iosb<int>::hexfloat
CONST	ENDS
;	COMDAT ?fixed@?$_Iosb@H@std@@2W4_Fmtflags@12@B
CONST	SEGMENT
?fixed@?$_Iosb@H@std@@2W4_Fmtflags@12@B DD 02000H	; std::_Iosb<int>::fixed
CONST	ENDS
;	COMDAT ?scientific@?$_Iosb@H@std@@2W4_Fmtflags@12@B
CONST	SEGMENT
?scientific@?$_Iosb@H@std@@2W4_Fmtflags@12@B DD 01000H	; std::_Iosb<int>::scientific
CONST	ENDS
;	COMDAT ?hex@?$_Iosb@H@std@@2W4_Fmtflags@12@B
CONST	SEGMENT
?hex@?$_Iosb@H@std@@2W4_Fmtflags@12@B DD 0800H		; std::_Iosb<int>::hex
CONST	ENDS
;	COMDAT ?oct@?$_Iosb@H@std@@2W4_Fmtflags@12@B
CONST	SEGMENT
?oct@?$_Iosb@H@std@@2W4_Fmtflags@12@B DD 0400H		; std::_Iosb<int>::oct
CONST	ENDS
;	COMDAT ?dec@?$_Iosb@H@std@@2W4_Fmtflags@12@B
CONST	SEGMENT
?dec@?$_Iosb@H@std@@2W4_Fmtflags@12@B DD 0200H		; std::_Iosb<int>::dec
CONST	ENDS
;	COMDAT ?internal@?$_Iosb@H@std@@2W4_Fmtflags@12@B
CONST	SEGMENT
?internal@?$_Iosb@H@std@@2W4_Fmtflags@12@B DD 0100H	; std::_Iosb<int>::internal
CONST	ENDS
;	COMDAT ?right@?$_Iosb@H@std@@2W4_Fmtflags@12@B
CONST	SEGMENT
?right@?$_Iosb@H@std@@2W4_Fmtflags@12@B DD 080H		; std::_Iosb<int>::right
CONST	ENDS
;	COMDAT ?left@?$_Iosb@H@std@@2W4_Fmtflags@12@B
CONST	SEGMENT
?left@?$_Iosb@H@std@@2W4_Fmtflags@12@B DD 040H		; std::_Iosb<int>::left
CONST	ENDS
;	COMDAT ?showpos@?$_Iosb@H@std@@2W4_Fmtflags@12@B
CONST	SEGMENT
?showpos@?$_Iosb@H@std@@2W4_Fmtflags@12@B DD 020H	; std::_Iosb<int>::showpos
CONST	ENDS
;	COMDAT ?showpoint@?$_Iosb@H@std@@2W4_Fmtflags@12@B
CONST	SEGMENT
?showpoint@?$_Iosb@H@std@@2W4_Fmtflags@12@B DD 010H	; std::_Iosb<int>::showpoint
CONST	ENDS
;	COMDAT ?showbase@?$_Iosb@H@std@@2W4_Fmtflags@12@B
CONST	SEGMENT
?showbase@?$_Iosb@H@std@@2W4_Fmtflags@12@B DD 08H	; std::_Iosb<int>::showbase
CONST	ENDS
;	COMDAT ?uppercase@?$_Iosb@H@std@@2W4_Fmtflags@12@B
CONST	SEGMENT
?uppercase@?$_Iosb@H@std@@2W4_Fmtflags@12@B DD 04H	; std::_Iosb<int>::uppercase
CONST	ENDS
;	COMDAT ?unitbuf@?$_Iosb@H@std@@2W4_Fmtflags@12@B
CONST	SEGMENT
?unitbuf@?$_Iosb@H@std@@2W4_Fmtflags@12@B DD 02H	; std::_Iosb<int>::unitbuf
CONST	ENDS
;	COMDAT ?skipws@?$_Iosb@H@std@@2W4_Fmtflags@12@B
CONST	SEGMENT
?skipws@?$_Iosb@H@std@@2W4_Fmtflags@12@B DD 01H		; std::_Iosb<int>::skipws
CONST	ENDS
;	COMDAT ?none@?$_Locbase@H@std@@2HB
CONST	SEGMENT
?none@?$_Locbase@H@std@@2HB DD 00H			; std::_Locbase<int>::none
CONST	ENDS
;	COMDAT ?all@?$_Locbase@H@std@@2HB
CONST	SEGMENT
?all@?$_Locbase@H@std@@2HB DD 03fH			; std::_Locbase<int>::all
CONST	ENDS
;	COMDAT ?messages@?$_Locbase@H@std@@2HB
CONST	SEGMENT
?messages@?$_Locbase@H@std@@2HB DD 020H			; std::_Locbase<int>::messages
CONST	ENDS
;	COMDAT ?time@?$_Locbase@H@std@@2HB
CONST	SEGMENT
?time@?$_Locbase@H@std@@2HB DD 010H			; std::_Locbase<int>::time
CONST	ENDS
;	COMDAT ?numeric@?$_Locbase@H@std@@2HB
CONST	SEGMENT
?numeric@?$_Locbase@H@std@@2HB DD 08H			; std::_Locbase<int>::numeric
CONST	ENDS
;	COMDAT ?monetary@?$_Locbase@H@std@@2HB
CONST	SEGMENT
?monetary@?$_Locbase@H@std@@2HB DD 04H			; std::_Locbase<int>::monetary
CONST	ENDS
;	COMDAT ?ctype@?$_Locbase@H@std@@2HB
CONST	SEGMENT
?ctype@?$_Locbase@H@std@@2HB DD 02H			; std::_Locbase<int>::ctype
CONST	ENDS
;	COMDAT ?collate@?$_Locbase@H@std@@2HB
CONST	SEGMENT
?collate@?$_Locbase@H@std@@2HB DD 01H			; std::_Locbase<int>::collate
CONST	ENDS
;	COMDAT ?_Rank@?$_Arithmetic_traits@O@std@@2HB
CONST	SEGMENT
?_Rank@?$_Arithmetic_traits@O@std@@2HB DD 09H		; std::_Arithmetic_traits<long double>::_Rank
CONST	ENDS
;	COMDAT ?_Rank@?$_Arithmetic_traits@N@std@@2HB
CONST	SEGMENT
?_Rank@?$_Arithmetic_traits@N@std@@2HB DD 08H		; std::_Arithmetic_traits<double>::_Rank
CONST	ENDS
;	COMDAT ?_Rank@?$_Arithmetic_traits@M@std@@2HB
CONST	SEGMENT
?_Rank@?$_Arithmetic_traits@M@std@@2HB DD 07H		; std::_Arithmetic_traits<float>::_Rank
CONST	ENDS
;	COMDAT ?_Rank@?$_Arithmetic_traits@_K@std@@2HB
CONST	SEGMENT
?_Rank@?$_Arithmetic_traits@_K@std@@2HB DD 06H		; std::_Arithmetic_traits<unsigned __int64>::_Rank
CONST	ENDS
;	COMDAT ?_Rank@?$_Arithmetic_traits@_J@std@@2HB
CONST	SEGMENT
?_Rank@?$_Arithmetic_traits@_J@std@@2HB DD 06H		; std::_Arithmetic_traits<__int64>::_Rank
CONST	ENDS
;	COMDAT ?_Rank@?$_Arithmetic_traits@K@std@@2HB
CONST	SEGMENT
?_Rank@?$_Arithmetic_traits@K@std@@2HB DD 05H		; std::_Arithmetic_traits<unsigned long>::_Rank
CONST	ENDS
;	COMDAT ?_Rank@?$_Arithmetic_traits@J@std@@2HB
CONST	SEGMENT
?_Rank@?$_Arithmetic_traits@J@std@@2HB DD 05H		; std::_Arithmetic_traits<long>::_Rank
CONST	ENDS
;	COMDAT ?_Rank@?$_Arithmetic_traits@I@std@@2HB
CONST	SEGMENT
?_Rank@?$_Arithmetic_traits@I@std@@2HB DD 04H		; std::_Arithmetic_traits<unsigned int>::_Rank
CONST	ENDS
;	COMDAT ?_Rank@?$_Arithmetic_traits@H@std@@2HB
CONST	SEGMENT
?_Rank@?$_Arithmetic_traits@H@std@@2HB DD 04H		; std::_Arithmetic_traits<int>::_Rank
CONST	ENDS
;	COMDAT ?_Rank@?$_Arithmetic_traits@G@std@@2HB
CONST	SEGMENT
?_Rank@?$_Arithmetic_traits@G@std@@2HB DD 03H		; std::_Arithmetic_traits<unsigned short>::_Rank
CONST	ENDS
;	COMDAT ?_Rank@?$_Arithmetic_traits@F@std@@2HB
CONST	SEGMENT
?_Rank@?$_Arithmetic_traits@F@std@@2HB DD 03H		; std::_Arithmetic_traits<short>::_Rank
CONST	ENDS
;	COMDAT ?_Rank@?$_Arithmetic_traits@E@std@@2HB
CONST	SEGMENT
?_Rank@?$_Arithmetic_traits@E@std@@2HB DD 02H		; std::_Arithmetic_traits<unsigned char>::_Rank
CONST	ENDS
;	COMDAT ?_Rank@?$_Arithmetic_traits@C@std@@2HB
CONST	SEGMENT
?_Rank@?$_Arithmetic_traits@C@std@@2HB DD 02H		; std::_Arithmetic_traits<signed char>::_Rank
CONST	ENDS
;	COMDAT ?_Rank@?$_Arithmetic_traits@D@std@@2HB
CONST	SEGMENT
?_Rank@?$_Arithmetic_traits@D@std@@2HB DD 02H		; std::_Arithmetic_traits<char>::_Rank
CONST	ENDS
;	COMDAT ?_Rank@?$_Arithmetic_traits@_N@std@@2HB
CONST	SEGMENT
?_Rank@?$_Arithmetic_traits@_N@std@@2HB DD 01H		; std::_Arithmetic_traits<bool>::_Rank
CONST	ENDS
;	COMDAT ?value@?$integral_constant@I$0A@@tr1@std@@2IB
CONST	SEGMENT
?value@?$integral_constant@I$0A@@tr1@std@@2IB DD 00H	; std::tr1::integral_constant<unsigned int,0>::value
CONST	ENDS
;	COMDAT ?value@?$integral_constant@_N$00@tr1@std@@2_NB
CONST	SEGMENT
?value@?$integral_constant@_N$00@tr1@std@@2_NB DB 01H	; std::tr1::integral_constant<bool,1>::value
CONST	ENDS
;	COMDAT ?value@?$integral_constant@_N$0A@@tr1@std@@2_NB
CONST	SEGMENT
?value@?$integral_constant@_N$0A@@tr1@std@@2_NB DB 00H	; std::tr1::integral_constant<bool,0>::value
CONST	ENDS
PUBLIC	??4Lock@port@common@ibmras@@QAEAAV0123@ABV0123@@Z ; ibmras::common::port::Lock::operator=
; Function compile flags: /Odtp
;	COMDAT ??4Lock@port@common@ibmras@@QAEAAV0123@ABV0123@@Z
_TEXT	SEGMENT
_this$ = -4						; size = 4
___that$ = 8						; size = 4
??4Lock@port@common@ibmras@@QAEAAV0123@ABV0123@@Z PROC	; ibmras::common::port::Lock::operator=, COMDAT
; _this$ = ecx
	push	ebp
	mov	ebp, esp
	push	ecx
	mov	DWORD PTR _this$[ebp], ecx
	mov	eax, DWORD PTR ___that$[ebp]
	mov	ecx, DWORD PTR [eax]
	mov	edx, DWORD PTR _this$[ebp]
	mov	DWORD PTR [edx], ecx
	mov	eax, DWORD PTR _this$[ebp]
	mov	esp, ebp
	pop	ebp
	ret	4
??4Lock@port@common@ibmras@@QAEAAV0123@ABV0123@@Z ENDP	; ibmras::common::port::Lock::operator=
_TEXT	ENDS
PUBLIC	??0?$basic_string@DU?$char_traits@D@std@@V?$allocator@D@2@@std@@QAE@ABV01@@Z ; std::basic_string<char,std::char_traits<char>,std::allocator<char> >::basic_string<char,std::char_traits<char>,std::allocator<char> >
PUBLIC	??_7Logger@common@ibmras@@6B@			; ibmras::common::Logger::`vftable'
PUBLIC	??0Logger@common@ibmras@@QAE@ABV012@@Z		; ibmras::common::Logger::Logger
PUBLIC	??_R4Logger@common@ibmras@@6B@			; ibmras::common::Logger::`RTTI Complete Object Locator'
PUBLIC	??_R0?AVLogger@common@ibmras@@@8		; ibmras::common::Logger `RTTI Type Descriptor'
PUBLIC	??_R3Logger@common@ibmras@@8			; ibmras::common::Logger::`RTTI Class Hierarchy Descriptor'
PUBLIC	??_R2Logger@common@ibmras@@8			; ibmras::common::Logger::`RTTI Base Class Array'
PUBLIC	??_R1A@?0A@EA@Logger@common@ibmras@@8		; ibmras::common::Logger::`RTTI Base Class Descriptor at (0,-1,0,64)'
PUBLIC	??_ELogger@common@ibmras@@UAEPAXI@Z		; ibmras::common::Logger::`vector deleting destructor'
EXTRN	??_7type_info@@6B@:QWORD			; type_info::`vftable'
;	COMDAT ??_R1A@?0A@EA@Logger@common@ibmras@@8
rdata$r	SEGMENT
??_R1A@?0A@EA@Logger@common@ibmras@@8 DD FLAT:??_R0?AVLogger@common@ibmras@@@8 ; ibmras::common::Logger::`RTTI Base Class Descriptor at (0,-1,0,64)'
	DD	00H
	DD	00H
	DD	0ffffffffH
	DD	00H
	DD	040H
	DD	FLAT:??_R3Logger@common@ibmras@@8
rdata$r	ENDS
;	COMDAT ??_R2Logger@common@ibmras@@8
rdata$r	SEGMENT
??_R2Logger@common@ibmras@@8 DD FLAT:??_R1A@?0A@EA@Logger@common@ibmras@@8 ; ibmras::common::Logger::`RTTI Base Class Array'
rdata$r	ENDS
;	COMDAT ??_R3Logger@common@ibmras@@8
rdata$r	SEGMENT
??_R3Logger@common@ibmras@@8 DD 00H			; ibmras::common::Logger::`RTTI Class Hierarchy Descriptor'
	DD	00H
	DD	01H
	DD	FLAT:??_R2Logger@common@ibmras@@8
rdata$r	ENDS
;	COMDAT ??_R0?AVLogger@common@ibmras@@@8
_DATA	SEGMENT
??_R0?AVLogger@common@ibmras@@@8 DD FLAT:??_7type_info@@6B@ ; ibmras::common::Logger `RTTI Type Descriptor'
	DD	00H
	DB	'.?AVLogger@common@ibmras@@', 00H
_DATA	ENDS
;	COMDAT ??_R4Logger@common@ibmras@@6B@
rdata$r	SEGMENT
??_R4Logger@common@ibmras@@6B@ DD 00H			; ibmras::common::Logger::`RTTI Complete Object Locator'
	DD	00H
	DD	00H
	DD	FLAT:??_R0?AVLogger@common@ibmras@@@8
	DD	FLAT:??_R3Logger@common@ibmras@@8
rdata$r	ENDS
;	COMDAT ??_7Logger@common@ibmras@@6B@
CONST	SEGMENT
??_7Logger@common@ibmras@@6B@ DD FLAT:??_R4Logger@common@ibmras@@6B@ ; ibmras::common::Logger::`vftable'
	DD	FLAT:??_ELogger@common@ibmras@@UAEPAXI@Z
; Function compile flags: /Odtp
CONST	ENDS
;	COMDAT ??0Logger@common@ibmras@@QAE@ABV012@@Z
_TEXT	SEGMENT
_this$ = -4						; size = 4
___that$ = 8						; size = 4
??0Logger@common@ibmras@@QAE@ABV012@@Z PROC		; ibmras::common::Logger::Logger, COMDAT
; _this$ = ecx
	push	ebp
	mov	ebp, esp
	push	ecx
	mov	DWORD PTR _this$[ebp], ecx
	mov	eax, DWORD PTR _this$[ebp]
	mov	DWORD PTR [eax], OFFSET ??_7Logger@common@ibmras@@6B@
	mov	ecx, DWORD PTR _this$[ebp]
	mov	edx, DWORD PTR ___that$[ebp]
	mov	eax, DWORD PTR [edx+4]
	mov	DWORD PTR [ecx+4], eax
	mov	ecx, DWORD PTR _this$[ebp]
	mov	edx, DWORD PTR ___that$[ebp]
	mov	eax, DWORD PTR [edx+8]
	mov	DWORD PTR [ecx+8], eax
	mov	ecx, DWORD PTR ___that$[ebp]
	add	ecx, 12					; 0000000cH
	push	ecx
	mov	ecx, DWORD PTR _this$[ebp]
	add	ecx, 12					; 0000000cH
	call	??0?$basic_string@DU?$char_traits@D@std@@V?$allocator@D@2@@std@@QAE@ABV01@@Z ; std::basic_string<char,std::char_traits<char>,std::allocator<char> >::basic_string<char,std::char_traits<char>,std::allocator<char> >
	mov	edx, DWORD PTR _this$[ebp]
	mov	eax, DWORD PTR ___that$[ebp]
	mov	ecx, DWORD PTR [eax+40]
	mov	DWORD PTR [edx+40], ecx
	mov	eax, DWORD PTR _this$[ebp]
	mov	esp, ebp
	pop	ebp
	ret	4
??0Logger@common@ibmras@@QAE@ABV012@@Z ENDP		; ibmras::common::Logger::Logger
_TEXT	ENDS
PUBLIC	??4?$basic_string@DU?$char_traits@D@std@@V?$allocator@D@2@@std@@QAEAAV01@ABV01@@Z ; std::basic_string<char,std::char_traits<char>,std::allocator<char> >::operator=
PUBLIC	??4Logger@common@ibmras@@QAEAAV012@ABV012@@Z	; ibmras::common::Logger::operator=
; Function compile flags: /Odtp
;	COMDAT ??4Logger@common@ibmras@@QAEAAV012@ABV012@@Z
_TEXT	SEGMENT
_this$ = -4						; size = 4
___that$ = 8						; size = 4
??4Logger@common@ibmras@@QAEAAV012@ABV012@@Z PROC	; ibmras::common::Logger::operator=, COMDAT
; _this$ = ecx
	push	ebp
	mov	ebp, esp
	push	ecx
	mov	DWORD PTR _this$[ebp], ecx
	mov	eax, DWORD PTR _this$[ebp]
	mov	ecx, DWORD PTR ___that$[ebp]
	mov	edx, DWORD PTR [ecx+4]
	mov	DWORD PTR [eax+4], edx
	mov	eax, DWORD PTR _this$[ebp]
	mov	ecx, DWORD PTR ___that$[ebp]
	mov	edx, DWORD PTR [ecx+8]
	mov	DWORD PTR [eax+8], edx
	mov	eax, DWORD PTR ___that$[ebp]
	add	eax, 12					; 0000000cH
	push	eax
	mov	ecx, DWORD PTR _this$[ebp]
	add	ecx, 12					; 0000000cH
	call	??4?$basic_string@DU?$char_traits@D@std@@V?$allocator@D@2@@std@@QAEAAV01@ABV01@@Z ; std::basic_string<char,std::char_traits<char>,std::allocator<char> >::operator=
	mov	ecx, DWORD PTR _this$[ebp]
	mov	edx, DWORD PTR ___that$[ebp]
	mov	eax, DWORD PTR [edx+40]
	mov	DWORD PTR [ecx+40], eax
	mov	eax, DWORD PTR _this$[ebp]
	mov	esp, ebp
	pop	ebp
	ret	4
??4Logger@common@ibmras@@QAEAAV012@ABV012@@Z ENDP	; ibmras::common::Logger::operator=
_TEXT	ENDS
PUBLIC	??_GLogger@common@ibmras@@UAEPAXI@Z		; ibmras::common::Logger::`scalar deleting destructor'
EXTRN	??3@YAXPAX@Z:PROC				; operator delete
EXTRN	??1Logger@common@ibmras@@UAE@XZ:PROC		; ibmras::common::Logger::~Logger
; Function compile flags: /Odtp
;	COMDAT ??_GLogger@common@ibmras@@UAEPAXI@Z
_TEXT	SEGMENT
_this$ = -4						; size = 4
___flags$ = 8						; size = 4
??_GLogger@common@ibmras@@UAEPAXI@Z PROC		; ibmras::common::Logger::`scalar deleting destructor', COMDAT
; _this$ = ecx
	push	ebp
	mov	ebp, esp
	push	ecx
	mov	DWORD PTR _this$[ebp], ecx
	mov	ecx, DWORD PTR _this$[ebp]
	call	??1Logger@common@ibmras@@UAE@XZ		; ibmras::common::Logger::~Logger
	mov	eax, DWORD PTR ___flags$[ebp]
	and	eax, 1
	je	SHORT $LN1@scalar
	mov	ecx, DWORD PTR _this$[ebp]
	push	ecx
	call	??3@YAXPAX@Z				; operator delete
	add	esp, 4
$LN1@scalar:
	mov	eax, DWORD PTR _this$[ebp]
	mov	esp, ebp
	pop	ebp
	ret	4
??_GLogger@common@ibmras@@UAEPAXI@Z ENDP		; ibmras::common::Logger::`scalar deleting destructor'
_TEXT	ENDS
EXTRN	??_V@YAXPAX@Z:PROC				; operator delete[]
EXTRN	??_M@YGXPAXIHP6EX0@Z@Z:PROC			; `eh vector destructor iterator'
; Function compile flags: /Odtp
;	COMDAT ??_ELogger@common@ibmras@@UAEPAXI@Z
_TEXT	SEGMENT
_this$ = -4						; size = 4
___flags$ = 8						; size = 4
??_ELogger@common@ibmras@@UAEPAXI@Z PROC		; ibmras::common::Logger::`vector deleting destructor', COMDAT
; _this$ = ecx
	push	ebp
	mov	ebp, esp
	push	ecx
	mov	DWORD PTR _this$[ebp], ecx
	mov	eax, DWORD PTR ___flags$[ebp]
	and	eax, 2
	je	SHORT $LN3@vector
	push	OFFSET ??1Logger@common@ibmras@@UAE@XZ	; ibmras::common::Logger::~Logger
	mov	ecx, DWORD PTR _this$[ebp]
	mov	edx, DWORD PTR [ecx-4]
	push	edx
	push	44					; 0000002cH
	mov	eax, DWORD PTR _this$[ebp]
	push	eax
	call	??_M@YGXPAXIHP6EX0@Z@Z
	mov	ecx, DWORD PTR ___flags$[ebp]
	and	ecx, 1
	je	SHORT $LN2@vector
	mov	edx, DWORD PTR _this$[ebp]
	sub	edx, 4
	push	edx
	call	??_V@YAXPAX@Z				; operator delete[]
	add	esp, 4
$LN2@vector:
	mov	eax, DWORD PTR _this$[ebp]
	sub	eax, 4
	jmp	SHORT $LN4@vector
$LN3@vector:
	mov	ecx, DWORD PTR _this$[ebp]
	call	??1Logger@common@ibmras@@UAE@XZ		; ibmras::common::Logger::~Logger
	mov	eax, DWORD PTR ___flags$[ebp]
	and	eax, 1
	je	SHORT $LN1@vector
	mov	ecx, DWORD PTR _this$[ebp]
	push	ecx
	call	??3@YAXPAX@Z				; operator delete
	add	esp, 4
$LN1@vector:
	mov	eax, DWORD PTR _this$[ebp]
$LN4@vector:
	mov	esp, ebp
	pop	ebp
	ret	4
??_ELogger@common@ibmras@@UAEPAXI@Z ENDP		; ibmras::common::Logger::`vector deleting destructor'
_TEXT	ENDS
PUBLIC	??1?$vector@PAVLogger@common@ibmras@@V?$allocator@PAVLogger@common@ibmras@@@std@@@std@@QAE@XZ ; std::vector<ibmras::common::Logger *,std::allocator<ibmras::common::Logger *> >::~vector<ibmras::common::Logger *,std::allocator<ibmras::common::Logger *> >
PUBLIC	??1LogManager@common@ibmras@@QAE@XZ		; ibmras::common::LogManager::~LogManager
; Function compile flags: /Odtp
;	COMDAT ??1LogManager@common@ibmras@@QAE@XZ
_TEXT	SEGMENT
_this$ = -4						; size = 4
??1LogManager@common@ibmras@@QAE@XZ PROC		; ibmras::common::LogManager::~LogManager, COMDAT
; _this$ = ecx
	push	ebp
	mov	ebp, esp
	push	ecx
	mov	DWORD PTR _this$[ebp], ecx
	mov	ecx, DWORD PTR _this$[ebp]
	add	ecx, 8
	call	??1?$vector@PAVLogger@common@ibmras@@V?$allocator@PAVLogger@common@ibmras@@@std@@@std@@QAE@XZ ; std::vector<ibmras::common::Logger *,std::allocator<ibmras::common::Logger *> >::~vector<ibmras::common::Logger *,std::allocator<ibmras::common::Logger *> >
	mov	esp, ebp
	pop	ebp
	ret	0
??1LogManager@common@ibmras@@QAE@XZ ENDP		; ibmras::common::LogManager::~LogManager
_TEXT	ENDS
PUBLIC	??0?$vector@PAVLogger@common@ibmras@@V?$allocator@PAVLogger@common@ibmras@@@std@@@std@@QAE@ABV01@@Z ; std::vector<ibmras::common::Logger *,std::allocator<ibmras::common::Logger *> >::vector<ibmras::common::Logger *,std::allocator<ibmras::common::Logger *> >
PUBLIC	??0LogManager@common@ibmras@@QAE@ABV012@@Z	; ibmras::common::LogManager::LogManager
; Function compile flags: /Odtp
;	COMDAT ??0LogManager@common@ibmras@@QAE@ABV012@@Z
_TEXT	SEGMENT
_this$ = -4						; size = 4
___that$ = 8						; size = 4
??0LogManager@common@ibmras@@QAE@ABV012@@Z PROC		; ibmras::common::LogManager::LogManager, COMDAT
; _this$ = ecx
	push	ebp
	mov	ebp, esp
	push	ecx
	mov	DWORD PTR _this$[ebp], ecx
	mov	eax, DWORD PTR _this$[ebp]
	mov	ecx, DWORD PTR ___that$[ebp]
	mov	edx, DWORD PTR [ecx]
	mov	DWORD PTR [eax], edx
	mov	eax, DWORD PTR _this$[ebp]
	mov	ecx, DWORD PTR ___that$[ebp]
	mov	dl, BYTE PTR [ecx+4]
	mov	BYTE PTR [eax+4], dl
	mov	eax, DWORD PTR ___that$[ebp]
	add	eax, 8
	push	eax
	mov	ecx, DWORD PTR _this$[ebp]
	add	ecx, 8
	call	??0?$vector@PAVLogger@common@ibmras@@V?$allocator@PAVLogger@common@ibmras@@@std@@@std@@QAE@ABV01@@Z ; std::vector<ibmras::common::Logger *,std::allocator<ibmras::common::Logger *> >::vector<ibmras::common::Logger *,std::allocator<ibmras::common::Logger *> >
	mov	ecx, DWORD PTR _this$[ebp]
	mov	edx, DWORD PTR ___that$[ebp]
	mov	eax, DWORD PTR [edx+24]
	mov	DWORD PTR [ecx+24], eax
	mov	eax, DWORD PTR _this$[ebp]
	mov	esp, ebp
	pop	ebp
	ret	4
??0LogManager@common@ibmras@@QAE@ABV012@@Z ENDP		; ibmras::common::LogManager::LogManager
_TEXT	ENDS
PUBLIC	??4?$vector@PAVLogger@common@ibmras@@V?$allocator@PAVLogger@common@ibmras@@@std@@@std@@QAEAAV01@ABV01@@Z ; std::vector<ibmras::common::Logger *,std::allocator<ibmras::common::Logger *> >::operator=
PUBLIC	??4LogManager@common@ibmras@@QAEAAV012@ABV012@@Z ; ibmras::common::LogManager::operator=
; Function compile flags: /Odtp
;	COMDAT ??4LogManager@common@ibmras@@QAEAAV012@ABV012@@Z
_TEXT	SEGMENT
_this$ = -4						; size = 4
___that$ = 8						; size = 4
??4LogManager@common@ibmras@@QAEAAV012@ABV012@@Z PROC	; ibmras::common::LogManager::operator=, COMDAT
; _this$ = ecx
	push	ebp
	mov	ebp, esp
	push	ecx
	mov	DWORD PTR _this$[ebp], ecx
	mov	eax, DWORD PTR _this$[ebp]
	mov	ecx, DWORD PTR ___that$[ebp]
	mov	edx, DWORD PTR [ecx]
	mov	DWORD PTR [eax], edx
	mov	eax, DWORD PTR _this$[ebp]
	mov	ecx, DWORD PTR ___that$[ebp]
	mov	dl, BYTE PTR [ecx+4]
	mov	BYTE PTR [eax+4], dl
	mov	eax, DWORD PTR ___that$[ebp]
	add	eax, 8
	push	eax
	mov	ecx, DWORD PTR _this$[ebp]
	add	ecx, 8
	call	??4?$vector@PAVLogger@common@ibmras@@V?$allocator@PAVLogger@common@ibmras@@@std@@@std@@QAEAAV01@ABV01@@Z ; std::vector<ibmras::common::Logger *,std::allocator<ibmras::common::Logger *> >::operator=
	mov	ecx, DWORD PTR _this$[ebp]
	mov	edx, DWORD PTR ___that$[ebp]
	mov	eax, DWORD PTR [edx+24]
	mov	DWORD PTR [ecx+24], eax
	mov	eax, DWORD PTR _this$[ebp]
	mov	esp, ebp
	pop	ebp
	ret	4
??4LogManager@common@ibmras@@QAEAAV012@ABV012@@Z ENDP	; ibmras::common::LogManager::operator=
_TEXT	ENDS
PUBLIC	?rdtsc@jni@plugins@monitoring@ibmras@@YA_KXZ	; ibmras::monitoring::plugins::jni::rdtsc
; Function compile flags: /Odtp
_TEXT	SEGMENT
?rdtsc@jni@plugins@monitoring@ibmras@@YA_KXZ PROC	; ibmras::monitoring::plugins::jni::rdtsc
; File c:\workspaces\newagent2\runtime.tools\src\ibmras\monitoring\plugins\jni\cfacade.cpp
; Line 47
	push	ebp
	mov	ebp, esp
; Line 48
	rdtsc
; Line 49
	pop	ebp
	ret	0
?rdtsc@jni@plugins@monitoring@ibmras@@YA_KXZ ENDP	; ibmras::monitoring::plugins::jni::rdtsc
_TEXT	ENDS
PUBLIC	?registerPullSource@SourceManager@jni@plugins@monitoring@ibmras@@QAEPAUpullsource@@I@Z ; ibmras::monitoring::plugins::jni::SourceManager::registerPullSource
PUBLIC	_registerPullSourcejni
; Function compile flags: /Odtp
_TEXT	SEGMENT
_provID$ = 8						; size = 4
_registerPullSourcejni PROC
; Line 81
	push	ebp
	mov	ebp, esp
; Line 82
	mov	eax, DWORD PTR _provID$[ebp]
	push	eax
	mov	ecx, DWORD PTR ?mgr@jni@plugins@monitoring@ibmras@@3PAVSourceManager@1234@A ; ibmras::monitoring::plugins::jni::mgr
	call	?registerPullSource@SourceManager@jni@plugins@monitoring@ibmras@@QAEPAUpullsource@@I@Z ; ibmras::monitoring::plugins::jni::SourceManager::registerPullSource
; Line 83
	pop	ebp
	ret	0
_registerPullSourcejni ENDP
_TEXT	ENDS
PUBLIC	?start@SourceManager@jni@plugins@monitoring@ibmras@@QAEHXZ ; ibmras::monitoring::plugins::jni::SourceManager::start
PUBLIC	_startjni
; Function compile flags: /Odtp
_TEXT	SEGMENT
_startjni PROC
; Line 85
	push	ebp
	mov	ebp, esp
; Line 86
	mov	ecx, DWORD PTR ?mgr@jni@plugins@monitoring@ibmras@@3PAVSourceManager@1234@A ; ibmras::monitoring::plugins::jni::mgr
	call	?start@SourceManager@jni@plugins@monitoring@ibmras@@QAEHXZ ; ibmras::monitoring::plugins::jni::SourceManager::start
; Line 87
	pop	ebp
	ret	0
_startjni ENDP
_TEXT	ENDS
PUBLIC	?stop@SourceManager@jni@plugins@monitoring@ibmras@@QAEHXZ ; ibmras::monitoring::plugins::jni::SourceManager::stop
PUBLIC	_stopjni
; Function compile flags: /Odtp
_TEXT	SEGMENT
_stopjni PROC
; Line 89
	push	ebp
	mov	ebp, esp
; Line 90
	mov	ecx, DWORD PTR ?mgr@jni@plugins@monitoring@ibmras@@3PAVSourceManager@1234@A ; ibmras::monitoring::plugins::jni::mgr
	call	?stop@SourceManager@jni@plugins@monitoring@ibmras@@QAEHXZ ; ibmras::monitoring::plugins::jni::SourceManager::stop
; Line 91
	pop	ebp
	ret	0
_stopjni ENDP
_TEXT	ENDS
PUBLIC	??0SourceManager@jni@plugins@monitoring@ibmras@@QAE@XZ ; ibmras::monitoring::plugins::jni::SourceManager::SourceManager
; Function compile flags: /Odtp
_TEXT	SEGMENT
_this$ = -4						; size = 4
??0SourceManager@jni@plugins@monitoring@ibmras@@QAE@XZ PROC ; ibmras::monitoring::plugins::jni::SourceManager::SourceManager
; _this$ = ecx
; Line 101
	push	ebp
	mov	ebp, esp
	push	ecx
	mov	DWORD PTR _this$[ebp], ecx
; Line 102
	mov	eax, DWORD PTR _this$[ebp]
	mov	BYTE PTR [eax+4], 0
; Line 103
	mov	ecx, DWORD PTR _this$[ebp]
	mov	DWORD PTR [ecx], -1
; Line 104
	mov	edx, DWORD PTR _this$[ebp]
	mov	DWORD PTR [edx+8], 0
; Line 105
	mov	DWORD PTR ?vm@jni@plugins@monitoring@ibmras@@3PAUJavaVM_@@A, 0 ; ibmras::monitoring::plugins::jni::vm
; Line 106
	mov	eax, DWORD PTR _this$[ebp]
	mov	esp, ebp
	pop	ebp
	ret	0
??0SourceManager@jni@plugins@monitoring@ibmras@@QAE@XZ ENDP ; ibmras::monitoring::plugins::jni::SourceManager::SourceManager
_TEXT	ENDS
EXTRN	?getJLAPullSource@locking@jni@plugins@monitoring@ibmras@@YAPAVPullSource@2345@I@Z:PROC ; ibmras::monitoring::plugins::jni::locking::getJLAPullSource
EXTRN	?getMCPullSource@memorycounter@jni@plugins@monitoring@ibmras@@YAPAVPullSource@2345@I@Z:PROC ; ibmras::monitoring::plugins::jni::memorycounter::getMCPullSource
EXTRN	?getMEMPullSource@memory@jni@plugins@monitoring@ibmras@@YAPAVPullSource@2345@I@Z:PROC ; ibmras::monitoring::plugins::jni::memory::getMEMPullSource
EXTRN	?getTDPullSource@threads@jni@plugins@monitoring@ibmras@@YAPAVPullSource@2345@I@Z:PROC ; ibmras::monitoring::plugins::jni::threads::getTDPullSource
EXTRN	?getENVPullSource@env@jni@plugins@monitoring@ibmras@@YAPAVPullSource@2345@I@Z:PROC ; ibmras::monitoring::plugins::jni::env::getENVPullSource
EXTRN	??_U@YAPAXI@Z:PROC				; operator new[]
EXTRN	?debug@Logger@common@ibmras@@QAAXW4Level@logging@23@PBDZZ:PROC ; ibmras::common::Logger::debug
; Function compile flags: /Odtp
_TEXT	SEGMENT
_this$ = -16						; size = 4
$T105842 = -12						; size = 4
_src$ = -8						; size = 4
_curr$ = -4						; size = 4
_provID$ = 8						; size = 4
?registerPullSource@SourceManager@jni@plugins@monitoring@ibmras@@QAEPAUpullsource@@I@Z PROC ; ibmras::monitoring::plugins::jni::SourceManager::registerPullSource
; _this$ = ecx
; Line 108
	push	ebp
	mov	ebp, esp
	sub	esp, 16					; 00000010H
	mov	DWORD PTR _this$[ebp], ecx
; Line 109
	mov	eax, DWORD PTR ?logger@jni@plugins@monitoring@ibmras@@3PAVLogger@common@4@A ; ibmras::monitoring::plugins::jni::logger
	cmp	DWORD PTR [eax+8], 3
	jl	SHORT $LN1@registerPu
	push	OFFSET $SG99274
	push	3
	mov	ecx, DWORD PTR ?logger@jni@plugins@monitoring@ibmras@@3PAVLogger@common@4@A ; ibmras::monitoring::plugins::jni::logger
	push	ecx
	call	?debug@Logger@common@ibmras@@QAAXW4Level@logging@23@PBDZZ ; ibmras::common::Logger::debug
	add	esp, 12					; 0000000cH
$LN1@registerPu:
; Line 110
	mov	edx, DWORD PTR _this$[ebp]
	mov	eax, DWORD PTR _provID$[ebp]
	mov	DWORD PTR [edx], eax
; Line 111
	push	20					; 00000014H
	call	??_U@YAPAXI@Z				; operator new[]
	add	esp, 4
	mov	DWORD PTR $T105842[ebp], eax
	mov	ecx, DWORD PTR _this$[ebp]
	mov	edx, DWORD PTR $T105842[ebp]
	mov	DWORD PTR [ecx+8], edx
; Line 114
	mov	eax, DWORD PTR _this$[ebp]
	mov	ecx, DWORD PTR [eax]
	push	ecx
	call	?getENVPullSource@env@jni@plugins@monitoring@ibmras@@YAPAVPullSource@2345@I@Z ; ibmras::monitoring::plugins::jni::env::getENVPullSource
	add	esp, 4
	mov	edx, DWORD PTR _this$[ebp]
	mov	ecx, DWORD PTR [edx+8]
	mov	DWORD PTR [ecx], eax
; Line 115
	mov	edx, DWORD PTR _this$[ebp]
	mov	eax, DWORD PTR [edx+8]
	mov	ecx, DWORD PTR [eax]
	mov	edx, DWORD PTR _this$[ebp]
	mov	eax, DWORD PTR [edx+8]
	mov	edx, DWORD PTR [eax]
	mov	eax, DWORD PTR [ecx]
	mov	ecx, edx
	mov	edx, DWORD PTR [eax+4]
	call	edx
	mov	DWORD PTR _src$[ebp], eax
; Line 116
	mov	eax, DWORD PTR _src$[ebp]
	mov	DWORD PTR _curr$[ebp], eax
; Line 119
	mov	ecx, DWORD PTR _this$[ebp]
	mov	edx, DWORD PTR [ecx]
	push	edx
	call	?getTDPullSource@threads@jni@plugins@monitoring@ibmras@@YAPAVPullSource@2345@I@Z ; ibmras::monitoring::plugins::jni::threads::getTDPullSource
	add	esp, 4
	mov	ecx, DWORD PTR _this$[ebp]
	mov	edx, DWORD PTR [ecx+8]
	mov	DWORD PTR [edx+4], eax
; Line 120
	mov	eax, DWORD PTR _this$[ebp]
	mov	ecx, DWORD PTR [eax+8]
	mov	edx, DWORD PTR [ecx+4]
	mov	eax, DWORD PTR _this$[ebp]
	mov	ecx, DWORD PTR [eax+8]
	mov	ecx, DWORD PTR [ecx+4]
	mov	edx, DWORD PTR [edx]
	mov	eax, DWORD PTR [edx+4]
	call	eax
	mov	ecx, DWORD PTR _curr$[ebp]
	mov	DWORD PTR [ecx+16], eax
; Line 121
	mov	edx, DWORD PTR _curr$[ebp]
	mov	eax, DWORD PTR [edx+16]
	mov	DWORD PTR _curr$[ebp], eax
; Line 124
	mov	ecx, DWORD PTR _this$[ebp]
	mov	edx, DWORD PTR [ecx]
	push	edx
	call	?getMEMPullSource@memory@jni@plugins@monitoring@ibmras@@YAPAVPullSource@2345@I@Z ; ibmras::monitoring::plugins::jni::memory::getMEMPullSource
	add	esp, 4
	mov	ecx, DWORD PTR _this$[ebp]
	mov	edx, DWORD PTR [ecx+8]
	mov	DWORD PTR [edx+8], eax
; Line 125
	mov	eax, DWORD PTR _this$[ebp]
	mov	ecx, DWORD PTR [eax+8]
	mov	edx, DWORD PTR [ecx+8]
	mov	eax, DWORD PTR _this$[ebp]
	mov	ecx, DWORD PTR [eax+8]
	mov	ecx, DWORD PTR [ecx+8]
	mov	edx, DWORD PTR [edx]
	mov	eax, DWORD PTR [edx+4]
	call	eax
	mov	ecx, DWORD PTR _curr$[ebp]
	mov	DWORD PTR [ecx+16], eax
; Line 126
	mov	edx, DWORD PTR _curr$[ebp]
	mov	eax, DWORD PTR [edx+16]
	mov	DWORD PTR _curr$[ebp], eax
; Line 130
	mov	ecx, DWORD PTR _this$[ebp]
	mov	edx, DWORD PTR [ecx]
	push	edx
	call	?getMCPullSource@memorycounter@jni@plugins@monitoring@ibmras@@YAPAVPullSource@2345@I@Z ; ibmras::monitoring::plugins::jni::memorycounter::getMCPullSource
	add	esp, 4
	mov	ecx, DWORD PTR _this$[ebp]
	mov	edx, DWORD PTR [ecx+8]
	mov	DWORD PTR [edx+12], eax
; Line 131
	mov	eax, DWORD PTR _this$[ebp]
	mov	ecx, DWORD PTR [eax+8]
	mov	edx, DWORD PTR [ecx+12]
	mov	eax, DWORD PTR _this$[ebp]
	mov	ecx, DWORD PTR [eax+8]
	mov	ecx, DWORD PTR [ecx+12]
	mov	edx, DWORD PTR [edx]
	mov	eax, DWORD PTR [edx+4]
	call	eax
	mov	ecx, DWORD PTR _curr$[ebp]
	mov	DWORD PTR [ecx+16], eax
; Line 132
	mov	edx, DWORD PTR _curr$[ebp]
	mov	eax, DWORD PTR [edx+16]
	mov	DWORD PTR _curr$[ebp], eax
; Line 135
	mov	ecx, DWORD PTR _this$[ebp]
	mov	edx, DWORD PTR [ecx]
	push	edx
	call	?getJLAPullSource@locking@jni@plugins@monitoring@ibmras@@YAPAVPullSource@2345@I@Z ; ibmras::monitoring::plugins::jni::locking::getJLAPullSource
	add	esp, 4
	mov	ecx, DWORD PTR _this$[ebp]
	mov	edx, DWORD PTR [ecx+8]
	mov	DWORD PTR [edx+16], eax
; Line 136
	mov	eax, DWORD PTR _this$[ebp]
	mov	ecx, DWORD PTR [eax+8]
	mov	edx, DWORD PTR [ecx+16]
	mov	eax, DWORD PTR _this$[ebp]
	mov	ecx, DWORD PTR [eax+8]
	mov	ecx, DWORD PTR [ecx+16]
	mov	edx, DWORD PTR [edx]
	mov	eax, DWORD PTR [edx+4]
	call	eax
	mov	ecx, DWORD PTR _curr$[ebp]
	mov	DWORD PTR [ecx+16], eax
; Line 137
	mov	edx, DWORD PTR _curr$[ebp]
	mov	eax, DWORD PTR [edx+16]
	mov	DWORD PTR _curr$[ebp], eax
; Line 139
	mov	eax, DWORD PTR _src$[ebp]
; Line 140
	mov	esp, ebp
	pop	ebp
	ret	4
?registerPullSource@SourceManager@jni@plugins@monitoring@ibmras@@QAEPAUpullsource@@I@Z ENDP ; ibmras::monitoring::plugins::jni::SourceManager::registerPullSource
_TEXT	ENDS
PUBLIC	?read_cycles_on_processor@jni@plugins@monitoring@ibmras@@YA_KH@Z ; ibmras::monitoring::plugins::jni::read_cycles_on_processor
; Function compile flags: /Odtp
_TEXT	SEGMENT
_this$ = -12						; size = 4
_p$99288 = -8						; size = 4
_i$99284 = -4						; size = 4
?start@SourceManager@jni@plugins@monitoring@ibmras@@QAEHXZ PROC ; ibmras::monitoring::plugins::jni::SourceManager::start
; _this$ = ecx
; Line 142
	push	ebp
	mov	ebp, esp
	sub	esp, 12					; 0000000cH
	mov	DWORD PTR _this$[ebp], ecx
; Line 143
	mov	eax, DWORD PTR ?logger@jni@plugins@monitoring@ibmras@@3PAVLogger@common@4@A ; ibmras::monitoring::plugins::jni::logger
	cmp	DWORD PTR [eax+8], 2
	jl	SHORT $LN5@start
	push	OFFSET $SG99283
	push	2
	mov	ecx, DWORD PTR ?logger@jni@plugins@monitoring@ibmras@@3PAVLogger@common@4@A ; ibmras::monitoring::plugins::jni::logger
	push	ecx
	call	?debug@Logger@common@ibmras@@QAAXW4Level@logging@23@PBDZZ ; ibmras::common::Logger::debug
	add	esp, 12					; 0000000cH
$LN5@start:
; Line 145
	mov	DWORD PTR _i$99284[ebp], 0
	jmp	SHORT $LN4@start
$LN3@start:
	mov	edx, DWORD PTR _i$99284[ebp]
	add	edx, 1
	mov	DWORD PTR _i$99284[ebp], edx
$LN4@start:
	cmp	DWORD PTR _i$99284[ebp], 5
	jae	SHORT $LN2@start
; Line 146
	mov	eax, DWORD PTR _this$[ebp]
	mov	ecx, DWORD PTR [eax+8]
	mov	edx, DWORD PTR _i$99284[ebp]
	mov	eax, DWORD PTR [ecx+edx*4]
	mov	DWORD PTR _p$99288[ebp], eax
; Line 147
	cmp	DWORD PTR _p$99288[ebp], 0
	je	SHORT $LN1@start
; Line 148
	mov	ecx, DWORD PTR _p$99288[ebp]
	mov	edx, DWORD PTR [ecx]
	mov	ecx, DWORD PTR _p$99288[ebp]
	mov	eax, DWORD PTR [edx+12]
	call	eax
$LN1@start:
; Line 150
	jmp	SHORT $LN3@start
$LN2@start:
; Line 153
	push	0
	call	?read_cycles_on_processor@jni@plugins@monitoring@ibmras@@YA_KH@Z ; ibmras::monitoring::plugins::jni::read_cycles_on_processor
	add	esp, 4
	mov	DWORD PTR ?tm_stt@jni@plugins@monitoring@ibmras@@3_KA, eax
	mov	DWORD PTR ?tm_stt@jni@plugins@monitoring@ibmras@@3_KA+4, edx
; Line 155
	push	1
	mov	ecx, DWORD PTR ?jvmF@jni@plugins@monitoring@ibmras@@3PAUjvmFunctions@@A ; ibmras::monitoring::plugins::jni::jvmF
	mov	edx, DWORD PTR [ecx+64]
	push	edx
	mov	eax, DWORD PTR ?jvmF@jni@plugins@monitoring@ibmras@@3PAUjvmFunctions@@A ; ibmras::monitoring::plugins::jni::jvmF
	mov	ecx, DWORD PTR [eax+48]
	call	ecx
	add	esp, 8
; Line 158
	xor	eax, eax
; Line 159
	mov	esp, ebp
	pop	ebp
	ret	0
?start@SourceManager@jni@plugins@monitoring@ibmras@@QAEHXZ ENDP ; ibmras::monitoring::plugins::jni::SourceManager::start
; Function compile flags: /Odtp
tv81 = -24						; size = 4
_this$ = -20						; size = 4
$T105846 = -16						; size = 4
$T105845 = -12						; size = 4
_p$99299 = -8						; size = 4
_i$99295 = -4						; size = 4
?stop@SourceManager@jni@plugins@monitoring@ibmras@@QAEHXZ PROC ; ibmras::monitoring::plugins::jni::SourceManager::stop
; _this$ = ecx
; Line 161
	push	ebp
	mov	ebp, esp
	sub	esp, 24					; 00000018H
	mov	DWORD PTR _this$[ebp], ecx
; Line 162
	mov	eax, DWORD PTR ?logger@jni@plugins@monitoring@ibmras@@3PAVLogger@common@4@A ; ibmras::monitoring::plugins::jni::logger
	cmp	DWORD PTR [eax+8], 2
	jl	SHORT $LN5@stop
	push	OFFSET $SG99294
	push	2
	mov	ecx, DWORD PTR ?logger@jni@plugins@monitoring@ibmras@@3PAVLogger@common@4@A ; ibmras::monitoring::plugins::jni::logger
	push	ecx
	call	?debug@Logger@common@ibmras@@QAAXW4Level@logging@23@PBDZZ ; ibmras::common::Logger::debug
	add	esp, 12					; 0000000cH
$LN5@stop:
; Line 163
	mov	DWORD PTR _i$99295[ebp], 0
	jmp	SHORT $LN4@stop
$LN3@stop:
	mov	edx, DWORD PTR _i$99295[ebp]
	add	edx, 1
	mov	DWORD PTR _i$99295[ebp], edx
$LN4@stop:
	cmp	DWORD PTR _i$99295[ebp], 5
	jae	SHORT $LN2@stop
; Line 164
	mov	eax, DWORD PTR _this$[ebp]
	mov	ecx, DWORD PTR [eax+8]
	mov	edx, DWORD PTR _i$99295[ebp]
	mov	eax, DWORD PTR [ecx+edx*4]
	mov	DWORD PTR _p$99299[ebp], eax
; Line 165
	cmp	DWORD PTR _p$99299[ebp], 0
	je	SHORT $LN1@stop
; Line 166
	mov	ecx, DWORD PTR _p$99299[ebp]
	mov	DWORD PTR $T105846[ebp], ecx
	mov	edx, DWORD PTR $T105846[ebp]
	mov	DWORD PTR $T105845[ebp], edx
	cmp	DWORD PTR $T105845[ebp], 0
	je	SHORT $LN8@stop
	push	1
	mov	eax, DWORD PTR $T105845[ebp]
	mov	edx, DWORD PTR [eax]
	mov	ecx, DWORD PTR $T105845[ebp]
	mov	eax, DWORD PTR [edx]
	call	eax
	mov	DWORD PTR tv81[ebp], eax
	jmp	SHORT $LN1@stop
$LN8@stop:
	mov	DWORD PTR tv81[ebp], 0
$LN1@stop:
; Line 168
	jmp	SHORT $LN3@stop
$LN2@stop:
; Line 169
	xor	eax, eax
; Line 170
	mov	esp, ebp
	pop	ebp
	ret	0
?stop@SourceManager@jni@plugins@monitoring@ibmras@@QAEHXZ ENDP ; ibmras::monitoring::plugins::jni::SourceManager::stop
_TEXT	ENDS
PUBLIC	?getProvID@SourceManager@jni@plugins@monitoring@ibmras@@QAEIXZ ; ibmras::monitoring::plugins::jni::SourceManager::getProvID
; Function compile flags: /Odtp
_TEXT	SEGMENT
_this$ = -4						; size = 4
?getProvID@SourceManager@jni@plugins@monitoring@ibmras@@QAEIXZ PROC ; ibmras::monitoring::plugins::jni::SourceManager::getProvID
; _this$ = ecx
; Line 172
	push	ebp
	mov	ebp, esp
	push	ecx
	mov	DWORD PTR _this$[ebp], ecx
; Line 173
	mov	eax, DWORD PTR _this$[ebp]
	mov	eax, DWORD PTR [eax]
; Line 174
	mov	esp, ebp
	pop	ebp
	ret	0
?getProvID@SourceManager@jni@plugins@monitoring@ibmras@@QAEIXZ ENDP ; ibmras::monitoring::plugins::jni::SourceManager::getProvID
_TEXT	ENDS
PUBLIC	?setTDPP@jni@plugins@monitoring@ibmras@@YAXPAUjvmFunctions@@@Z ; ibmras::monitoring::plugins::jni::setTDPP
; Function compile flags: /Odtp
_TEXT	SEGMENT
_tdpp$ = 8						; size = 4
?setTDPP@jni@plugins@monitoring@ibmras@@YAXPAUjvmFunctions@@@Z PROC ; ibmras::monitoring::plugins::jni::setTDPP
; Line 176
	push	ebp
	mov	ebp, esp
; Line 177
	mov	eax, DWORD PTR _tdpp$[ebp]
	mov	ecx, DWORD PTR [eax+68]
	mov	DWORD PTR ?vm@jni@plugins@monitoring@ibmras@@3PAUJavaVM_@@A, ecx ; ibmras::monitoring::plugins::jni::vm
; Line 178
	mov	edx, DWORD PTR _tdpp$[ebp]
	mov	DWORD PTR ?jvmF@jni@plugins@monitoring@ibmras@@3PAUjvmFunctions@@A, edx ; ibmras::monitoring::plugins::jni::jvmF
; Line 179
	pop	ebp
	ret	0
?setTDPP@jni@plugins@monitoring@ibmras@@YAXPAUjvmFunctions@@@Z ENDP ; ibmras::monitoring::plugins::jni::setTDPP
_TEXT	ENDS
PUBLIC	?getJVM@jni@plugins@monitoring@ibmras@@YAPAUJavaVM_@@XZ ; ibmras::monitoring::plugins::jni::getJVM
; Function compile flags: /Odtp
_TEXT	SEGMENT
?getJVM@jni@plugins@monitoring@ibmras@@YAPAUJavaVM_@@XZ PROC ; ibmras::monitoring::plugins::jni::getJVM
; Line 181
	push	ebp
	mov	ebp, esp
; Line 182
	mov	eax, DWORD PTR ?vm@jni@plugins@monitoring@ibmras@@3PAUJavaVM_@@A ; ibmras::monitoring::plugins::jni::vm
; Line 183
	pop	ebp
	ret	0
?getJVM@jni@plugins@monitoring@ibmras@@YAPAUJavaVM_@@XZ ENDP ; ibmras::monitoring::plugins::jni::getJVM
_TEXT	ENDS
PUBLIC	?getTDPP@jni@plugins@monitoring@ibmras@@YAPAUjvmFunctions@@XZ ; ibmras::monitoring::plugins::jni::getTDPP
; Function compile flags: /Odtp
_TEXT	SEGMENT
?getTDPP@jni@plugins@monitoring@ibmras@@YAPAUjvmFunctions@@XZ PROC ; ibmras::monitoring::plugins::jni::getTDPP
; Line 185
	push	ebp
	mov	ebp, esp
; Line 186
	mov	eax, DWORD PTR ?jvmF@jni@plugins@monitoring@ibmras@@3PAUjvmFunctions@@A ; ibmras::monitoring::plugins::jni::jvmF
; Line 187
	pop	ebp
	ret	0
?getTDPP@jni@plugins@monitoring@ibmras@@YAPAUjvmFunctions@@XZ ENDP ; ibmras::monitoring::plugins::jni::getTDPP
_TEXT	ENDS
PUBLIC	?getProvID@PullSource@jni@plugins@monitoring@ibmras@@QAEIXZ ; ibmras::monitoring::plugins::jni::PullSource::getProvID
PUBLIC	?generateError@PullSource@jni@plugins@monitoring@ibmras@@QAEPAUmonitordata@@PAD@Z ; ibmras::monitoring::plugins::jni::PullSource::generateError
EXTRN	_strlen:PROC
EXTRN	??2@YAPAXI@Z:PROC				; operator new
; Function compile flags: /Odtp
_TEXT	SEGMENT
_this$ = -12						; size = 4
$T105854 = -8						; size = 4
_data$ = -4						; size = 4
_msg$ = 8						; size = 4
?generateError@PullSource@jni@plugins@monitoring@ibmras@@QAEPAUmonitordata@@PAD@Z PROC ; ibmras::monitoring::plugins::jni::PullSource::generateError
; _this$ = ecx
; Line 189
	push	ebp
	mov	ebp, esp
	sub	esp, 12					; 0000000cH
	mov	DWORD PTR _this$[ebp], ecx
; Line 190
	push	20					; 00000014H
	call	??2@YAPAXI@Z				; operator new
	add	esp, 4
	mov	DWORD PTR $T105854[ebp], eax
	mov	eax, DWORD PTR $T105854[ebp]
	mov	DWORD PTR _data$[ebp], eax
; Line 191
	mov	ecx, DWORD PTR _data$[ebp]
	mov	BYTE PTR [ecx+16], 0
; Line 192
	mov	ecx, DWORD PTR _this$[ebp]
	call	?getProvID@PullSource@jni@plugins@monitoring@ibmras@@QAEIXZ ; ibmras::monitoring::plugins::jni::PullSource::getProvID
	mov	edx, DWORD PTR _data$[ebp]
	mov	DWORD PTR [edx], eax
; Line 193
	mov	eax, DWORD PTR _this$[ebp]
	mov	edx, DWORD PTR [eax]
	mov	ecx, DWORD PTR _this$[ebp]
	mov	eax, DWORD PTR [edx+8]
	call	eax
	mov	ecx, DWORD PTR _data$[ebp]
	mov	DWORD PTR [ecx+4], eax
; Line 194
	mov	edx, DWORD PTR _msg$[ebp]
	push	edx
	call	_strlen
	add	esp, 4
	mov	ecx, DWORD PTR _data$[ebp]
	mov	DWORD PTR [ecx+8], eax
; Line 195
	mov	edx, DWORD PTR _data$[ebp]
	mov	eax, DWORD PTR _msg$[ebp]
	mov	DWORD PTR [edx+12], eax
; Line 196
	mov	eax, DWORD PTR _data$[ebp]
; Line 197
	mov	esp, ebp
	pop	ebp
	ret	4
?generateError@PullSource@jni@plugins@monitoring@ibmras@@QAEPAUmonitordata@@PAD@Z ENDP ; ibmras::monitoring::plugins::jni::PullSource::generateError
; Function compile flags: /Odtp
_TEXT	ENDS
;	COMDAT ?getProvID@PullSource@jni@plugins@monitoring@ibmras@@QAEIXZ
_TEXT	SEGMENT
_this$ = -4						; size = 4
?getProvID@PullSource@jni@plugins@monitoring@ibmras@@QAEIXZ PROC ; ibmras::monitoring::plugins::jni::PullSource::getProvID, COMDAT
; _this$ = ecx
; File c:\workspaces\newagent2\runtime.tools\src\ibmras\monitoring\plugins\jni\cfacade.h
; Line 62
	push	ebp
	mov	ebp, esp
	push	ecx
	mov	DWORD PTR _this$[ebp], ecx
	mov	eax, DWORD PTR _this$[ebp]
	mov	eax, DWORD PTR [eax+4]
	mov	esp, ebp
	pop	ebp
	ret	0
?getProvID@PullSource@jni@plugins@monitoring@ibmras@@QAEIXZ ENDP ; ibmras::monitoring::plugins::jni::PullSource::getProvID
_TEXT	ENDS
PUBLIC	??1?$basic_string@DU?$char_traits@D@std@@V?$allocator@D@2@@std@@QAE@XZ ; std::basic_string<char,std::char_traits<char>,std::allocator<char> >::~basic_string<char,std::char_traits<char>,std::allocator<char> >
PUBLIC	??0?$basic_string@DU?$char_traits@D@std@@V?$allocator@D@2@@std@@QAE@$$QAV01@@Z ; std::basic_string<char,std::char_traits<char>,std::allocator<char> >::basic_string<char,std::char_traits<char>,std::allocator<char> >
PUBLIC	?DeleteLocalRef@JNIEnv_@@QAEXPAV_jobject@@@Z	; JNIEnv_::DeleteLocalRef
PUBLIC	?ReleaseStringUTFChars@JNIEnv_@@QAEXPAV_jstring@@PBD@Z ; JNIEnv_::ReleaseStringUTFChars
PUBLIC	?ExceptionDescribe@JNIEnv_@@QAEXXZ		; JNIEnv_::ExceptionDescribe
PUBLIC	?ExceptionOccurred@JNIEnv_@@QAEPAV_jthrowable@@XZ ; JNIEnv_::ExceptionOccurred
PUBLIC	?GetStringUTFChars@JNIEnv_@@QAEPBDPAV_jstring@@PAE@Z ; JNIEnv_::GetStringUTFChars
PUBLIC	?CallStaticObjectMethod@JNIEnv_@@QAAPAV_jobject@@PAV_jclass@@PAU_jmethodID@@ZZ ; JNIEnv_::CallStaticObjectMethod
PUBLIC	?GetStaticMethodID@JNIEnv_@@QAEPAU_jmethodID@@PAV_jclass@@PBD1@Z ; JNIEnv_::GetStaticMethodID
PUBLIC	??0?$basic_string@DU?$char_traits@D@std@@V?$allocator@D@2@@std@@QAE@PBD@Z ; std::basic_string<char,std::char_traits<char>,std::allocator<char> >::basic_string<char,std::char_traits<char>,std::allocator<char> >
PUBLIC	?FindClass@JNIEnv_@@QAEPAV_jclass@@PBD@Z	; JNIEnv_::FindClass
PUBLIC	__$ArrayPad$
PUBLIC	?getString@jni@plugins@monitoring@ibmras@@YA?AV?$basic_string@DU?$char_traits@D@std@@V?$allocator@D@2@@std@@PAUJNIEnv_@@PBD11@Z ; ibmras::monitoring::plugins::jni::getString
EXTRN	___security_cookie:DWORD
EXTRN	___CxxFrameHandler3:PROC
EXTRN	@__security_check_cookie@4:PROC
xdata$x	SEGMENT
__unwindtable$?getString@jni@plugins@monitoring@ibmras@@YA?AV?$basic_string@DU?$char_traits@D@std@@V?$allocator@D@2@@std@@PAUJNIEnv_@@PBD11@Z DD 0ffffffffH
	DD	FLAT:__unwindfunclet$?getString@jni@plugins@monitoring@ibmras@@YA?AV?$basic_string@DU?$char_traits@D@std@@V?$allocator@D@2@@std@@PAUJNIEnv_@@PBD11@Z$0
	DD	00H
	DD	FLAT:__unwindfunclet$?getString@jni@plugins@monitoring@ibmras@@YA?AV?$basic_string@DU?$char_traits@D@std@@V?$allocator@D@2@@std@@PAUJNIEnv_@@PBD11@Z$1
__ehfuncinfo$?getString@jni@plugins@monitoring@ibmras@@YA?AV?$basic_string@DU?$char_traits@D@std@@V?$allocator@D@2@@std@@PAUJNIEnv_@@PBD11@Z DD 019930522H
	DD	02H
	DD	FLAT:__unwindtable$?getString@jni@plugins@monitoring@ibmras@@YA?AV?$basic_string@DU?$char_traits@D@std@@V?$allocator@D@2@@std@@PAUJNIEnv_@@PBD11@Z
	DD	2 DUP(00H)
	DD	2 DUP(00H)
	DD	00H
	DD	01H
; Function compile flags: /Odtp
xdata$x	ENDS
_TEXT	SEGMENT
$T105860 = -64						; size = 4
_clazz$ = -60						; size = 4
_jobj$ = -56						; size = 4
_sval$ = -52						; size = 28
__$ArrayPad$ = -24					; size = 4
_method$ = -20						; size = 4
_value$ = -16						; size = 4
__$EHRec$ = -12						; size = 12
___$ReturnUdt$ = 8					; size = 4
_env$ = 12						; size = 4
_cname$ = 16						; size = 4
_mname$ = 20						; size = 4
_signature$ = 24					; size = 4
?getString@jni@plugins@monitoring@ibmras@@YA?AV?$basic_string@DU?$char_traits@D@std@@V?$allocator@D@2@@std@@PAUJNIEnv_@@PBD11@Z PROC ; ibmras::monitoring::plugins::jni::getString
; File c:\workspaces\newagent2\runtime.tools\src\ibmras\monitoring\plugins\jni\cfacade.cpp
; Line 200
	push	ebp
	mov	ebp, esp
	push	-1
	push	__ehhandler$?getString@jni@plugins@monitoring@ibmras@@YA?AV?$basic_string@DU?$char_traits@D@std@@V?$allocator@D@2@@std@@PAUJNIEnv_@@PBD11@Z
	mov	eax, DWORD PTR fs:0
	push	eax
	sub	esp, 52					; 00000034H
	mov	eax, DWORD PTR ___security_cookie
	xor	eax, ebp
	mov	DWORD PTR __$ArrayPad$[ebp], eax
	push	eax
	lea	eax, DWORD PTR __$EHRec$[ebp]
	mov	DWORD PTR fs:0, eax
	mov	DWORD PTR $T105860[ebp], 0
; Line 202
	mov	eax, DWORD PTR ?logger@jni@plugins@monitoring@ibmras@@3PAVLogger@common@4@A ; ibmras::monitoring::plugins::jni::logger
	cmp	DWORD PTR [eax+8], 5
	jl	SHORT $LN8@getString
	push	OFFSET $SG99328
	push	5
	mov	ecx, DWORD PTR ?logger@jni@plugins@monitoring@ibmras@@3PAVLogger@common@4@A ; ibmras::monitoring::plugins::jni::logger
	push	ecx
	call	?debug@Logger@common@ibmras@@QAAXW4Level@logging@23@PBDZZ ; ibmras::common::Logger::debug
	add	esp, 12					; 0000000cH
$LN8@getString:
; Line 204
	mov	edx, DWORD PTR ?logger@jni@plugins@monitoring@ibmras@@3PAVLogger@common@4@A ; ibmras::monitoring::plugins::jni::logger
	cmp	DWORD PTR [edx+8], 5
	jl	SHORT $LN7@getString
	push	OFFSET $SG99330
	push	5
	mov	eax, DWORD PTR ?logger@jni@plugins@monitoring@ibmras@@3PAVLogger@common@4@A ; ibmras::monitoring::plugins::jni::logger
	push	eax
	call	?debug@Logger@common@ibmras@@QAAXW4Level@logging@23@PBDZZ ; ibmras::common::Logger::debug
	add	esp, 12					; 0000000cH
$LN7@getString:
; Line 205
	mov	ecx, DWORD PTR _cname$[ebp]
	push	ecx
	mov	ecx, DWORD PTR _env$[ebp]
	call	?FindClass@JNIEnv_@@QAEPAV_jclass@@PBD@Z ; JNIEnv_::FindClass
	mov	DWORD PTR _clazz$[ebp], eax
; Line 206
	cmp	DWORD PTR _clazz$[ebp], 0
	jne	SHORT $LN6@getString
; Line 207
	mov	edx, DWORD PTR ?logger@jni@plugins@monitoring@ibmras@@3PAVLogger@common@4@A ; ibmras::monitoring::plugins::jni::logger
	cmp	DWORD PTR [edx+8], 1
	jl	SHORT $LN5@getString
	push	OFFSET $SG99334
	push	1
	mov	eax, DWORD PTR ?logger@jni@plugins@monitoring@ibmras@@3PAVLogger@common@4@A ; ibmras::monitoring::plugins::jni::logger
	push	eax
	call	?debug@Logger@common@ibmras@@QAAXW4Level@logging@23@PBDZZ ; ibmras::common::Logger::debug
	add	esp, 12					; 0000000cH
$LN5@getString:
; Line 208
	push	OFFSET $SG99335
	mov	ecx, DWORD PTR ___$ReturnUdt$[ebp]
	call	??0?$basic_string@DU?$char_traits@D@std@@V?$allocator@D@2@@std@@QAE@PBD@Z ; std::basic_string<char,std::char_traits<char>,std::allocator<char> >::basic_string<char,std::char_traits<char>,std::allocator<char> >
	mov	DWORD PTR __$EHRec$[ebp+8], 0
	mov	ecx, DWORD PTR $T105860[ebp]
	or	ecx, 1
	mov	DWORD PTR $T105860[ebp], ecx
	mov	eax, DWORD PTR ___$ReturnUdt$[ebp]
	jmp	$LN9@getString
$LN6@getString:
; Line 211
	mov	edx, DWORD PTR _signature$[ebp]
	push	edx
	mov	eax, DWORD PTR _mname$[ebp]
	push	eax
	mov	ecx, DWORD PTR _clazz$[ebp]
	push	ecx
	mov	ecx, DWORD PTR _env$[ebp]
	call	?GetStaticMethodID@JNIEnv_@@QAEPAU_jmethodID@@PAV_jclass@@PBD1@Z ; JNIEnv_::GetStaticMethodID
	mov	DWORD PTR _method$[ebp], eax
; Line 212
	cmp	DWORD PTR _method$[ebp], 0
	jne	SHORT $LN4@getString
; Line 213
	mov	edx, DWORD PTR ?logger@jni@plugins@monitoring@ibmras@@3PAVLogger@common@4@A ; ibmras::monitoring::plugins::jni::logger
	cmp	DWORD PTR [edx+8], 1
	jl	SHORT $LN3@getString
	push	OFFSET $SG99339
	push	1
	mov	eax, DWORD PTR ?logger@jni@plugins@monitoring@ibmras@@3PAVLogger@common@4@A ; ibmras::monitoring::plugins::jni::logger
	push	eax
	call	?debug@Logger@common@ibmras@@QAAXW4Level@logging@23@PBDZZ ; ibmras::common::Logger::debug
	add	esp, 12					; 0000000cH
$LN3@getString:
; Line 214
	push	OFFSET $SG99340
	mov	ecx, DWORD PTR ___$ReturnUdt$[ebp]
	call	??0?$basic_string@DU?$char_traits@D@std@@V?$allocator@D@2@@std@@QAE@PBD@Z ; std::basic_string<char,std::char_traits<char>,std::allocator<char> >::basic_string<char,std::char_traits<char>,std::allocator<char> >
	mov	DWORD PTR __$EHRec$[ebp+8], 0
	mov	ecx, DWORD PTR $T105860[ebp]
	or	ecx, 1
	mov	DWORD PTR $T105860[ebp], ecx
	mov	eax, DWORD PTR ___$ReturnUdt$[ebp]
	jmp	$LN9@getString
$LN4@getString:
; Line 217
	push	0
	mov	edx, DWORD PTR _method$[ebp]
	push	edx
	mov	eax, DWORD PTR _clazz$[ebp]
	push	eax
	mov	ecx, DWORD PTR _env$[ebp]
	push	ecx
	call	?CallStaticObjectMethod@JNIEnv_@@QAAPAV_jobject@@PAV_jclass@@PAU_jmethodID@@ZZ ; JNIEnv_::CallStaticObjectMethod
	add	esp, 16					; 00000010H
	mov	DWORD PTR _jobj$[ebp], eax
; Line 219
	push	0
	mov	edx, DWORD PTR _jobj$[ebp]
	push	edx
	mov	ecx, DWORD PTR _env$[ebp]
	call	?GetStringUTFChars@JNIEnv_@@QAEPBDPAV_jstring@@PAE@Z ; JNIEnv_::GetStringUTFChars
	mov	DWORD PTR _value$[ebp], eax
; Line 220
	mov	ecx, DWORD PTR _env$[ebp]
	call	?ExceptionOccurred@JNIEnv_@@QAEPAV_jthrowable@@XZ ; JNIEnv_::ExceptionOccurred
	test	eax, eax
	je	SHORT $LN2@getString
; Line 221
	mov	ecx, DWORD PTR _env$[ebp]
	call	?ExceptionDescribe@JNIEnv_@@QAEXXZ	; JNIEnv_::ExceptionDescribe
$LN2@getString:
; Line 224
	mov	eax, DWORD PTR _value$[ebp]
	push	eax
	lea	ecx, DWORD PTR _sval$[ebp]
	call	??0?$basic_string@DU?$char_traits@D@std@@V?$allocator@D@2@@std@@QAE@PBD@Z ; std::basic_string<char,std::char_traits<char>,std::allocator<char> >::basic_string<char,std::char_traits<char>,std::allocator<char> >
	mov	DWORD PTR __$EHRec$[ebp+8], 1
; Line 226
	mov	ecx, DWORD PTR _value$[ebp]
	push	ecx
	mov	edx, DWORD PTR _jobj$[ebp]
	push	edx
	mov	ecx, DWORD PTR _env$[ebp]
	call	?ReleaseStringUTFChars@JNIEnv_@@QAEXPAV_jstring@@PBD@Z ; JNIEnv_::ReleaseStringUTFChars
; Line 227
	mov	eax, DWORD PTR _jobj$[ebp]
	push	eax
	mov	ecx, DWORD PTR _env$[ebp]
	call	?DeleteLocalRef@JNIEnv_@@QAEXPAV_jobject@@@Z ; JNIEnv_::DeleteLocalRef
; Line 229
	mov	ecx, DWORD PTR ?logger@jni@plugins@monitoring@ibmras@@3PAVLogger@common@4@A ; ibmras::monitoring::plugins::jni::logger
	cmp	DWORD PTR [ecx+8], 5
	jl	SHORT $LN1@getString
	push	OFFSET $SG99347
	push	5
	mov	edx, DWORD PTR ?logger@jni@plugins@monitoring@ibmras@@3PAVLogger@common@4@A ; ibmras::monitoring::plugins::jni::logger
	push	edx
	call	?debug@Logger@common@ibmras@@QAAXW4Level@logging@23@PBDZZ ; ibmras::common::Logger::debug
	add	esp, 12					; 0000000cH
$LN1@getString:
; Line 230
	lea	eax, DWORD PTR _sval$[ebp]
	push	eax
	mov	ecx, DWORD PTR ___$ReturnUdt$[ebp]
	call	??0?$basic_string@DU?$char_traits@D@std@@V?$allocator@D@2@@std@@QAE@$$QAV01@@Z ; std::basic_string<char,std::char_traits<char>,std::allocator<char> >::basic_string<char,std::char_traits<char>,std::allocator<char> >
	mov	ecx, DWORD PTR $T105860[ebp]
	or	ecx, 1
	mov	DWORD PTR $T105860[ebp], ecx
	mov	BYTE PTR __$EHRec$[ebp+8], 0
	lea	ecx, DWORD PTR _sval$[ebp]
	call	??1?$basic_string@DU?$char_traits@D@std@@V?$allocator@D@2@@std@@QAE@XZ ; std::basic_string<char,std::char_traits<char>,std::allocator<char> >::~basic_string<char,std::char_traits<char>,std::allocator<char> >
	mov	eax, DWORD PTR ___$ReturnUdt$[ebp]
$LN9@getString:
; Line 231
	mov	ecx, DWORD PTR __$EHRec$[ebp]
	mov	DWORD PTR fs:0, ecx
	pop	ecx
	mov	ecx, DWORD PTR __$ArrayPad$[ebp]
	xor	ecx, ebp
	call	@__security_check_cookie@4
	mov	esp, ebp
	pop	ebp
	ret	0
_TEXT	ENDS
text$x	SEGMENT
__unwindfunclet$?getString@jni@plugins@monitoring@ibmras@@YA?AV?$basic_string@DU?$char_traits@D@std@@V?$allocator@D@2@@std@@PAUJNIEnv_@@PBD11@Z$0:
	mov	eax, DWORD PTR $T105860[ebp]
	and	eax, 1
	je	$LN12@getString
	and	DWORD PTR $T105860[ebp], -2		; fffffffeH
	mov	ecx, DWORD PTR ___$ReturnUdt$[ebp]
	jmp	??1?$basic_string@DU?$char_traits@D@std@@V?$allocator@D@2@@std@@QAE@XZ ; std::basic_string<char,std::char_traits<char>,std::allocator<char> >::~basic_string<char,std::char_traits<char>,std::allocator<char> >
$LN12@getString:
	ret	0
__unwindfunclet$?getString@jni@plugins@monitoring@ibmras@@YA?AV?$basic_string@DU?$char_traits@D@std@@V?$allocator@D@2@@std@@PAUJNIEnv_@@PBD11@Z$1:
	lea	ecx, DWORD PTR _sval$[ebp]
	jmp	??1?$basic_string@DU?$char_traits@D@std@@V?$allocator@D@2@@std@@QAE@XZ ; std::basic_string<char,std::char_traits<char>,std::allocator<char> >::~basic_string<char,std::char_traits<char>,std::allocator<char> >
__ehhandler$?getString@jni@plugins@monitoring@ibmras@@YA?AV?$basic_string@DU?$char_traits@D@std@@V?$allocator@D@2@@std@@PAUJNIEnv_@@PBD11@Z:
	mov	edx, DWORD PTR [esp+8]
	lea	eax, DWORD PTR [edx+12]
	mov	ecx, DWORD PTR [edx-56]
	xor	ecx, eax
	call	@__security_check_cookie@4
	mov	ecx, DWORD PTR [edx-12]
	xor	ecx, eax
	call	@__security_check_cookie@4
	mov	eax, OFFSET __ehfuncinfo$?getString@jni@plugins@monitoring@ibmras@@YA?AV?$basic_string@DU?$char_traits@D@std@@V?$allocator@D@2@@std@@PAUJNIEnv_@@PBD11@Z
	jmp	___CxxFrameHandler3
text$x	ENDS
?getString@jni@plugins@monitoring@ibmras@@YA?AV?$basic_string@DU?$char_traits@D@std@@V?$allocator@D@2@@std@@PAUJNIEnv_@@PBD11@Z ENDP ; ibmras::monitoring::plugins::jni::getString
; Function compile flags: /Odtp
;	COMDAT ?FindClass@JNIEnv_@@QAEPAV_jclass@@PBD@Z
_TEXT	SEGMENT
_this$ = -4						; size = 4
_name$ = 8						; size = 4
?FindClass@JNIEnv_@@QAEPAV_jclass@@PBD@Z PROC		; JNIEnv_::FindClass, COMDAT
; _this$ = ecx
; File c:\javabuilds\javademo\sdk\include\jni.h
; Line 427
	push	ebp
	mov	ebp, esp
	push	ecx
	mov	DWORD PTR _this$[ebp], ecx
	mov	eax, DWORD PTR _name$[ebp]
	push	eax
	mov	ecx, DWORD PTR _this$[ebp]
	push	ecx
	mov	edx, DWORD PTR _this$[ebp]
	mov	eax, DWORD PTR [edx]
	mov	ecx, DWORD PTR [eax+24]
	call	ecx
	mov	esp, ebp
	pop	ebp
	ret	4
?FindClass@JNIEnv_@@QAEPAV_jclass@@PBD@Z ENDP		; JNIEnv_::FindClass
; Function compile flags: /Odtp
_TEXT	ENDS
;	COMDAT ?ExceptionOccurred@JNIEnv_@@QAEPAV_jthrowable@@XZ
_TEXT	SEGMENT
_this$ = -4						; size = 4
?ExceptionOccurred@JNIEnv_@@QAEPAV_jthrowable@@XZ PROC	; JNIEnv_::ExceptionOccurred, COMDAT
; _this$ = ecx
; Line 436
	push	ebp
	mov	ebp, esp
	push	ecx
	mov	DWORD PTR _this$[ebp], ecx
	mov	eax, DWORD PTR _this$[ebp]
	push	eax
	mov	ecx, DWORD PTR _this$[ebp]
	mov	edx, DWORD PTR [ecx]
	mov	eax, DWORD PTR [edx+60]
	call	eax
	mov	esp, ebp
	pop	ebp
	ret	0
?ExceptionOccurred@JNIEnv_@@QAEPAV_jthrowable@@XZ ENDP	; JNIEnv_::ExceptionOccurred
; Function compile flags: /Odtp
_TEXT	ENDS
;	COMDAT ?ExceptionDescribe@JNIEnv_@@QAEXXZ
_TEXT	SEGMENT
_this$ = -4						; size = 4
?ExceptionDescribe@JNIEnv_@@QAEXXZ PROC			; JNIEnv_::ExceptionDescribe, COMDAT
; _this$ = ecx
; Line 437
	push	ebp
	mov	ebp, esp
	push	ecx
	mov	DWORD PTR _this$[ebp], ecx
	mov	eax, DWORD PTR _this$[ebp]
	push	eax
	mov	ecx, DWORD PTR _this$[ebp]
	mov	edx, DWORD PTR [ecx]
	mov	eax, DWORD PTR [edx+64]
	call	eax
	mov	esp, ebp
	pop	ebp
	ret	0
?ExceptionDescribe@JNIEnv_@@QAEXXZ ENDP			; JNIEnv_::ExceptionDescribe
; Function compile flags: /Odtp
_TEXT	ENDS
;	COMDAT ?DeleteLocalRef@JNIEnv_@@QAEXPAV_jobject@@@Z
_TEXT	SEGMENT
_this$ = -4						; size = 4
_localRef$ = 8						; size = 4
?DeleteLocalRef@JNIEnv_@@QAEXPAV_jobject@@@Z PROC	; JNIEnv_::DeleteLocalRef, COMDAT
; _this$ = ecx
; Line 444
	push	ebp
	mov	ebp, esp
	push	ecx
	mov	DWORD PTR _this$[ebp], ecx
	mov	eax, DWORD PTR _localRef$[ebp]
	push	eax
	mov	ecx, DWORD PTR _this$[ebp]
	push	ecx
	mov	edx, DWORD PTR _this$[ebp]
	mov	eax, DWORD PTR [edx]
	mov	ecx, DWORD PTR [eax+92]
	call	ecx
	mov	esp, ebp
	pop	ebp
	ret	4
?DeleteLocalRef@JNIEnv_@@QAEXPAV_jobject@@@Z ENDP	; JNIEnv_::DeleteLocalRef
; Function compile flags: /Odtp
_TEXT	ENDS
;	COMDAT ?GetStaticMethodID@JNIEnv_@@QAEPAU_jmethodID@@PAV_jclass@@PBD1@Z
_TEXT	SEGMENT
_this$ = -4						; size = 4
_clazz$ = 8						; size = 4
_name$ = 12						; size = 4
_sig$ = 16						; size = 4
?GetStaticMethodID@JNIEnv_@@QAEPAU_jmethodID@@PAV_jclass@@PBD1@Z PROC ; JNIEnv_::GetStaticMethodID, COMDAT
; _this$ = ecx
; Line 534
	push	ebp
	mov	ebp, esp
	push	ecx
	mov	DWORD PTR _this$[ebp], ecx
	mov	eax, DWORD PTR _sig$[ebp]
	push	eax
	mov	ecx, DWORD PTR _name$[ebp]
	push	ecx
	mov	edx, DWORD PTR _clazz$[ebp]
	push	edx
	mov	eax, DWORD PTR _this$[ebp]
	push	eax
	mov	ecx, DWORD PTR _this$[ebp]
	mov	edx, DWORD PTR [ecx]
	mov	eax, DWORD PTR [edx+452]
	call	eax
	mov	esp, ebp
	pop	ebp
	ret	12					; 0000000cH
?GetStaticMethodID@JNIEnv_@@QAEPAU_jmethodID@@PAV_jclass@@PBD1@Z ENDP ; JNIEnv_::GetStaticMethodID
; Function compile flags: /Odtp
_TEXT	ENDS
;	COMDAT ?CallStaticObjectMethod@JNIEnv_@@QAAPAV_jobject@@PAV_jclass@@PAU_jmethodID@@ZZ
_TEXT	SEGMENT
_parms$ = -8						; size = 4
_retval$ = -4						; size = 4
_this$ = 8						; size = 4
_clazz$ = 12						; size = 4
_methodID$ = 16						; size = 4
?CallStaticObjectMethod@JNIEnv_@@QAAPAV_jobject@@PAV_jclass@@PAU_jmethodID@@ZZ PROC ; JNIEnv_::CallStaticObjectMethod, COMDAT
; Line 535
	push	ebp
	mov	ebp, esp
	sub	esp, 8
	lea	eax, DWORD PTR _methodID$[ebp+4]
	mov	DWORD PTR _parms$[ebp], eax
	mov	ecx, DWORD PTR _parms$[ebp]
	push	ecx
	mov	edx, DWORD PTR _methodID$[ebp]
	push	edx
	mov	eax, DWORD PTR _clazz$[ebp]
	push	eax
	mov	ecx, DWORD PTR _this$[ebp]
	push	ecx
	mov	edx, DWORD PTR _this$[ebp]
	mov	eax, DWORD PTR [edx]
	mov	ecx, DWORD PTR [eax+460]
	call	ecx
	mov	DWORD PTR _retval$[ebp], eax
	mov	DWORD PTR _parms$[ebp], 0
	mov	eax, DWORD PTR _retval$[ebp]
	mov	esp, ebp
	pop	ebp
	ret	0
?CallStaticObjectMethod@JNIEnv_@@QAAPAV_jobject@@PAV_jclass@@PAU_jmethodID@@ZZ ENDP ; JNIEnv_::CallStaticObjectMethod
; Function compile flags: /Odtp
_TEXT	ENDS
;	COMDAT ?GetStringUTFChars@JNIEnv_@@QAEPBDPAV_jstring@@PAE@Z
_TEXT	SEGMENT
_this$ = -4						; size = 4
_string$ = 8						; size = 4
_isCopy$ = 12						; size = 4
?GetStringUTFChars@JNIEnv_@@QAEPBDPAV_jstring@@PAE@Z PROC ; JNIEnv_::GetStringUTFChars, COMDAT
; _this$ = ecx
; Line 590
	push	ebp
	mov	ebp, esp
	push	ecx
	mov	DWORD PTR _this$[ebp], ecx
	mov	eax, DWORD PTR _isCopy$[ebp]
	push	eax
	mov	ecx, DWORD PTR _string$[ebp]
	push	ecx
	mov	edx, DWORD PTR _this$[ebp]
	push	edx
	mov	eax, DWORD PTR _this$[ebp]
	mov	ecx, DWORD PTR [eax]
	mov	edx, DWORD PTR [ecx+676]
	call	edx
	mov	esp, ebp
	pop	ebp
	ret	8
?GetStringUTFChars@JNIEnv_@@QAEPBDPAV_jstring@@PAE@Z ENDP ; JNIEnv_::GetStringUTFChars
; Function compile flags: /Odtp
_TEXT	ENDS
;	COMDAT ?ReleaseStringUTFChars@JNIEnv_@@QAEXPAV_jstring@@PBD@Z
_TEXT	SEGMENT
_this$ = -4						; size = 4
_string$ = 8						; size = 4
_utf$ = 12						; size = 4
?ReleaseStringUTFChars@JNIEnv_@@QAEXPAV_jstring@@PBD@Z PROC ; JNIEnv_::ReleaseStringUTFChars, COMDAT
; _this$ = ecx
; Line 591
	push	ebp
	mov	ebp, esp
	push	ecx
	mov	DWORD PTR _this$[ebp], ecx
	mov	eax, DWORD PTR _utf$[ebp]
	push	eax
	mov	ecx, DWORD PTR _string$[ebp]
	push	ecx
	mov	edx, DWORD PTR _this$[ebp]
	push	edx
	mov	eax, DWORD PTR _this$[ebp]
	mov	ecx, DWORD PTR [eax]
	mov	edx, DWORD PTR [ecx+680]
	call	edx
	mov	esp, ebp
	pop	ebp
	ret	8
?ReleaseStringUTFChars@JNIEnv_@@QAEXPAV_jstring@@PBD@Z ENDP ; JNIEnv_::ReleaseStringUTFChars
_TEXT	ENDS
PUBLIC	?AttachCurrentThreadAsDaemon@JavaVM_@@QAEHPAPAXPAX@Z ; JavaVM_::AttachCurrentThreadAsDaemon
PUBLIC	?c_str@?$basic_string@DU?$char_traits@D@std@@V?$allocator@D@2@@std@@QBEPBDXZ ; std::basic_string<char,std::char_traits<char>,std::allocator<char> >::c_str
PUBLIC	?generateData@PullSource@jni@plugins@monitoring@ibmras@@QAEPAUmonitordata@@XZ ; ibmras::monitoring::plugins::jni::PullSource::generateData
EXTRN	?deallocate@memory@common@ibmras@@YAXPAPAE@Z:PROC ; ibmras::common::memory::deallocate
EXTRN	?createAsciiString@util@common@ibmras@@YAPADPBD@Z:PROC ; ibmras::common::util::createAsciiString
EXTRN	_memset:PROC
; Function compile flags: /Odtp
_TEXT	SEGMENT
_this$ = -24						; size = 4
_errcode$99357 = -20					; size = 4
_threadArgs$99354 = -16					; size = 12
_data$ = -4						; size = 4
?generateData@PullSource@jni@plugins@monitoring@ibmras@@QAEPAUmonitordata@@XZ PROC ; ibmras::monitoring::plugins::jni::PullSource::generateData
; _this$ = ecx
; File c:\workspaces\newagent2\runtime.tools\src\ibmras\monitoring\plugins\jni\cfacade.cpp
; Line 233
	push	ebp
	mov	ebp, esp
	sub	esp, 24					; 00000018H
	mov	DWORD PTR _this$[ebp], ecx
; Line 235
	mov	eax, DWORD PTR ?logger@jni@plugins@monitoring@ibmras@@3PAVLogger@common@4@A ; ibmras::monitoring::plugins::jni::logger
	cmp	DWORD PTR [eax+8], 5
	jl	SHORT $LN6@generateDa
	push	OFFSET $SG99352
	push	5
	mov	ecx, DWORD PTR ?logger@jni@plugins@monitoring@ibmras@@3PAVLogger@common@4@A ; ibmras::monitoring::plugins::jni::logger
	push	ecx
	call	?debug@Logger@common@ibmras@@QAAXW4Level@logging@23@PBDZZ ; ibmras::common::Logger::debug
	add	esp, 12					; 0000000cH
$LN6@generateDa:
; Line 237
	mov	edx, DWORD PTR _this$[ebp]
	cmp	DWORD PTR [edx+8], 0
	jne	$LN5@generateDa
; Line 240
	push	12					; 0000000cH
	push	0
	lea	eax, DWORD PTR _threadArgs$99354[ebp]
	push	eax
	call	_memset
	add	esp, 12					; 0000000cH
; Line 241
	mov	DWORD PTR _threadArgs$99354[ebp], 65542	; 00010006H
; Line 242
	mov	ecx, DWORD PTR _this$[ebp]
	add	ecx, 12					; 0000000cH
	call	?c_str@?$basic_string@DU?$char_traits@D@std@@V?$allocator@D@2@@std@@QBEPBDXZ ; std::basic_string<char,std::char_traits<char>,std::allocator<char> >::c_str
	push	eax
	call	?createAsciiString@util@common@ibmras@@YAPADPBD@Z ; ibmras::common::util::createAsciiString
	add	esp, 4
	mov	DWORD PTR _threadArgs$99354[ebp+4], eax
; Line 243
	mov	DWORD PTR _threadArgs$99354[ebp+8], 0
; Line 244
	mov	ecx, DWORD PTR ?logger@jni@plugins@monitoring@ibmras@@3PAVLogger@common@4@A ; ibmras::monitoring::plugins::jni::logger
	cmp	DWORD PTR [ecx+8], 5
	jl	SHORT $LN4@generateDa
	mov	ecx, DWORD PTR _this$[ebp]
	add	ecx, 12					; 0000000cH
	call	?c_str@?$basic_string@DU?$char_traits@D@std@@V?$allocator@D@2@@std@@QBEPBDXZ ; std::basic_string<char,std::char_traits<char>,std::allocator<char> >::c_str
	push	eax
	push	OFFSET $SG99356
	push	5
	mov	edx, DWORD PTR ?logger@jni@plugins@monitoring@ibmras@@3PAVLogger@common@4@A ; ibmras::monitoring::plugins::jni::logger
	push	edx
	call	?debug@Logger@common@ibmras@@QAAXW4Level@logging@23@PBDZZ ; ibmras::common::Logger::debug
	add	esp, 16					; 00000010H
$LN4@generateDa:
; Line 245
	lea	eax, DWORD PTR _threadArgs$99354[ebp]
	push	eax
	mov	ecx, DWORD PTR _this$[ebp]
	add	ecx, 8
	push	ecx
	mov	ecx, DWORD PTR ?vm@jni@plugins@monitoring@ibmras@@3PAUJavaVM_@@A ; ibmras::monitoring::plugins::jni::vm
	call	?AttachCurrentThreadAsDaemon@JavaVM_@@QAEHPAPAXPAX@Z ; JavaVM_::AttachCurrentThreadAsDaemon
	mov	DWORD PTR _errcode$99357[ebp], eax
; Line 246
	lea	edx, DWORD PTR _threadArgs$99354[ebp+4]
	push	edx
	call	?deallocate@memory@common@ibmras@@YAXPAPAE@Z ; ibmras::common::memory::deallocate
	add	esp, 4
; Line 247
	cmp	DWORD PTR _errcode$99357[ebp], 0
	je	SHORT $LN3@generateDa
; Line 248
	xor	eax, eax
	jmp	SHORT $LN7@generateDa
$LN3@generateDa:
; Line 251
	mov	eax, DWORD PTR ?logger@jni@plugins@monitoring@ibmras@@3PAVLogger@common@4@A ; ibmras::monitoring::plugins::jni::logger
	cmp	DWORD PTR [eax+8], 5
	jl	SHORT $LN5@generateDa
	mov	ecx, DWORD PTR _this$[ebp]
	add	ecx, 12					; 0000000cH
	call	?c_str@?$basic_string@DU?$char_traits@D@std@@V?$allocator@D@2@@std@@QBEPBDXZ ; std::basic_string<char,std::char_traits<char>,std::allocator<char> >::c_str
	push	eax
	push	OFFSET $SG99362
	push	5
	mov	ecx, DWORD PTR ?logger@jni@plugins@monitoring@ibmras@@3PAVLogger@common@4@A ; ibmras::monitoring::plugins::jni::logger
	push	ecx
	call	?debug@Logger@common@ibmras@@QAAXW4Level@logging@23@PBDZZ ; ibmras::common::Logger::debug
	add	esp, 16					; 00000010H
$LN5@generateDa:
; Line 254
	mov	edx, DWORD PTR _this$[ebp]
	mov	eax, DWORD PTR [edx+8]
	push	eax
	mov	ecx, DWORD PTR ?jvmF@jni@plugins@monitoring@ibmras@@3PAUjvmFunctions@@A ; ibmras::monitoring::plugins::jni::jvmF
	push	ecx
	mov	edx, DWORD PTR _this$[ebp]
	mov	eax, DWORD PTR [edx]
	mov	ecx, DWORD PTR _this$[ebp]
	mov	edx, DWORD PTR [eax+16]
	call	edx
	mov	DWORD PTR _data$[ebp], eax
; Line 255
	mov	eax, DWORD PTR ?logger@jni@plugins@monitoring@ibmras@@3PAVLogger@common@4@A ; ibmras::monitoring::plugins::jni::logger
	cmp	DWORD PTR [eax+8], 5
	jl	SHORT $LN1@generateDa
	push	OFFSET $SG99365
	push	5
	mov	ecx, DWORD PTR ?logger@jni@plugins@monitoring@ibmras@@3PAVLogger@common@4@A ; ibmras::monitoring::plugins::jni::logger
	push	ecx
	call	?debug@Logger@common@ibmras@@QAAXW4Level@logging@23@PBDZZ ; ibmras::common::Logger::debug
	add	esp, 12					; 0000000cH
$LN1@generateDa:
; Line 257
	mov	eax, DWORD PTR _data$[ebp]
$LN7@generateDa:
; Line 258
	mov	esp, ebp
	pop	ebp
	ret	0
?generateData@PullSource@jni@plugins@monitoring@ibmras@@QAEPAUmonitordata@@XZ ENDP ; ibmras::monitoring::plugins::jni::PullSource::generateData
; Function compile flags: /Odtp
_TEXT	ENDS
;	COMDAT ?AttachCurrentThreadAsDaemon@JavaVM_@@QAEHPAPAXPAX@Z
_TEXT	SEGMENT
_this$ = -4						; size = 4
_p_env$ = 8						; size = 4
_args$ = 12						; size = 4
?AttachCurrentThreadAsDaemon@JavaVM_@@QAEHPAPAXPAX@Z PROC ; JavaVM_::AttachCurrentThreadAsDaemon, COMDAT
; _this$ = ecx
; File c:\javabuilds\javademo\sdk\include\jni.h
; Line 720
	push	ebp
	mov	ebp, esp
	push	ecx
	mov	DWORD PTR _this$[ebp], ecx
	mov	eax, DWORD PTR _args$[ebp]
	push	eax
	mov	ecx, DWORD PTR _p_env$[ebp]
	push	ecx
	mov	edx, DWORD PTR _this$[ebp]
	push	edx
	mov	eax, DWORD PTR _this$[ebp]
	mov	ecx, DWORD PTR [eax]
	mov	edx, DWORD PTR [ecx+28]
	call	edx
	mov	esp, ebp
	pop	ebp
	ret	8
?AttachCurrentThreadAsDaemon@JavaVM_@@QAEHPAPAXPAX@Z ENDP ; JavaVM_::AttachCurrentThreadAsDaemon
_TEXT	ENDS
PUBLIC	?DetachCurrentThread@JavaVM_@@QAEHXZ		; JavaVM_::DetachCurrentThread
PUBLIC	?hc_dealloc@jni@plugins@monitoring@ibmras@@YAXPAPAE@Z ; ibmras::monitoring::plugins::jni::hc_dealloc
PUBLIC	?pullComplete@PullSource@jni@plugins@monitoring@ibmras@@QAEXPAUmonitordata@@@Z ; ibmras::monitoring::plugins::jni::PullSource::pullComplete
; Function compile flags: /Odtp
_TEXT	SEGMENT
_this$ = -8						; size = 4
$T105892 = -4						; size = 4
_mdata$ = 8						; size = 4
?pullComplete@PullSource@jni@plugins@monitoring@ibmras@@QAEXPAUmonitordata@@@Z PROC ; ibmras::monitoring::plugins::jni::PullSource::pullComplete
; _this$ = ecx
; File c:\workspaces\newagent2\runtime.tools\src\ibmras\monitoring\plugins\jni\cfacade.cpp
; Line 260
	push	ebp
	mov	ebp, esp
	sub	esp, 8
	mov	DWORD PTR _this$[ebp], ecx
; Line 261
	cmp	DWORD PTR _mdata$[ebp], 0
	je	SHORT $LN4@pullComple
; Line 262
	mov	eax, DWORD PTR _mdata$[ebp]
	add	eax, 12					; 0000000cH
	push	eax
	call	?hc_dealloc@jni@plugins@monitoring@ibmras@@YAXPAPAE@Z ; ibmras::monitoring::plugins::jni::hc_dealloc
	add	esp, 4
; Line 263
	mov	ecx, DWORD PTR _mdata$[ebp]
	mov	DWORD PTR $T105892[ebp], ecx
	mov	edx, DWORD PTR $T105892[ebp]
	push	edx
	call	??3@YAXPAX@Z				; operator delete
	add	esp, 4
; Line 264
	jmp	SHORT $LN5@pullComple
$LN4@pullComple:
; Line 265
	mov	eax, DWORD PTR _this$[ebp]
	cmp	DWORD PTR [eax+8], 0
	je	SHORT $LN5@pullComple
; Line 266
	mov	ecx, DWORD PTR ?logger@jni@plugins@monitoring@ibmras@@3PAVLogger@common@4@A ; ibmras::monitoring::plugins::jni::logger
	cmp	DWORD PTR [ecx+8], 5
	jl	SHORT $LN1@pullComple
	mov	ecx, DWORD PTR _this$[ebp]
	add	ecx, 12					; 0000000cH
	call	?c_str@?$basic_string@DU?$char_traits@D@std@@V?$allocator@D@2@@std@@QBEPBDXZ ; std::basic_string<char,std::char_traits<char>,std::allocator<char> >::c_str
	push	eax
	push	OFFSET $SG99376
	push	5
	mov	edx, DWORD PTR ?logger@jni@plugins@monitoring@ibmras@@3PAVLogger@common@4@A ; ibmras::monitoring::plugins::jni::logger
	push	edx
	call	?debug@Logger@common@ibmras@@QAAXW4Level@logging@23@PBDZZ ; ibmras::common::Logger::debug
	add	esp, 16					; 00000010H
$LN1@pullComple:
; Line 267
	mov	ecx, DWORD PTR ?vm@jni@plugins@monitoring@ibmras@@3PAUJavaVM_@@A ; ibmras::monitoring::plugins::jni::vm
	call	?DetachCurrentThread@JavaVM_@@QAEHXZ	; JavaVM_::DetachCurrentThread
; Line 268
	mov	eax, DWORD PTR _this$[ebp]
	mov	DWORD PTR [eax+8], 0
$LN5@pullComple:
; Line 271
	mov	esp, ebp
	pop	ebp
	ret	4
?pullComplete@PullSource@jni@plugins@monitoring@ibmras@@QAEXPAUmonitordata@@@Z ENDP ; ibmras::monitoring::plugins::jni::PullSource::pullComplete
; Function compile flags: /Odtp
_TEXT	ENDS
;	COMDAT ?DetachCurrentThread@JavaVM_@@QAEHXZ
_TEXT	SEGMENT
_this$ = -4						; size = 4
?DetachCurrentThread@JavaVM_@@QAEHXZ PROC		; JavaVM_::DetachCurrentThread, COMDAT
; _this$ = ecx
; File c:\javabuilds\javademo\sdk\include\jni.h
; Line 718
	push	ebp
	mov	ebp, esp
	push	ecx
	mov	DWORD PTR _this$[ebp], ecx
	mov	eax, DWORD PTR _this$[ebp]
	push	eax
	mov	ecx, DWORD PTR _this$[ebp]
	mov	edx, DWORD PTR [ecx]
	mov	eax, DWORD PTR [edx+20]
	call	eax
	mov	esp, ebp
	pop	ebp
	ret	0
?DetachCurrentThread@JavaVM_@@QAEHXZ ENDP		; JavaVM_::DetachCurrentThread
_TEXT	ENDS
PUBLIC	??_7PullSource@jni@plugins@monitoring@ibmras@@6B@ ; ibmras::monitoring::plugins::jni::PullSource::`vftable'
PUBLIC	??0PullSource@jni@plugins@monitoring@ibmras@@QAE@IABV?$basic_string@DU?$char_traits@D@std@@V?$allocator@D@2@@std@@@Z ; ibmras::monitoring::plugins::jni::PullSource::PullSource
PUBLIC	??_R4PullSource@jni@plugins@monitoring@ibmras@@6B@ ; ibmras::monitoring::plugins::jni::PullSource::`RTTI Complete Object Locator'
PUBLIC	??_R0?AVPullSource@jni@plugins@monitoring@ibmras@@@8 ; ibmras::monitoring::plugins::jni::PullSource `RTTI Type Descriptor'
PUBLIC	??_R3PullSource@jni@plugins@monitoring@ibmras@@8 ; ibmras::monitoring::plugins::jni::PullSource::`RTTI Class Hierarchy Descriptor'
PUBLIC	??_R2PullSource@jni@plugins@monitoring@ibmras@@8 ; ibmras::monitoring::plugins::jni::PullSource::`RTTI Base Class Array'
PUBLIC	??_R1A@?0A@EA@PullSource@jni@plugins@monitoring@ibmras@@8 ; ibmras::monitoring::plugins::jni::PullSource::`RTTI Base Class Descriptor at (0,-1,0,64)'
PUBLIC	?getDescriptor@PullSource@jni@plugins@monitoring@ibmras@@UAEPAUpullsource@@XZ ; ibmras::monitoring::plugins::jni::PullSource::getDescriptor
EXTRN	??_EPullSource@jni@plugins@monitoring@ibmras@@UAEPAXI@Z:PROC ; ibmras::monitoring::plugins::jni::PullSource::`vector deleting destructor'
EXTRN	__purecall:PROC
;	COMDAT ??_R1A@?0A@EA@PullSource@jni@plugins@monitoring@ibmras@@8
; File c:\workspaces\newagent2\runtime.tools\src\ibmras\monitoring\plugins\jni\cfacade.cpp
rdata$r	SEGMENT
??_R1A@?0A@EA@PullSource@jni@plugins@monitoring@ibmras@@8 DD FLAT:??_R0?AVPullSource@jni@plugins@monitoring@ibmras@@@8 ; ibmras::monitoring::plugins::jni::PullSource::`RTTI Base Class Descriptor at (0,-1,0,64)'
	DD	00H
	DD	00H
	DD	0ffffffffH
	DD	00H
	DD	040H
	DD	FLAT:??_R3PullSource@jni@plugins@monitoring@ibmras@@8
rdata$r	ENDS
;	COMDAT ??_R2PullSource@jni@plugins@monitoring@ibmras@@8
rdata$r	SEGMENT
??_R2PullSource@jni@plugins@monitoring@ibmras@@8 DD FLAT:??_R1A@?0A@EA@PullSource@jni@plugins@monitoring@ibmras@@8 ; ibmras::monitoring::plugins::jni::PullSource::`RTTI Base Class Array'
rdata$r	ENDS
;	COMDAT ??_R3PullSource@jni@plugins@monitoring@ibmras@@8
rdata$r	SEGMENT
??_R3PullSource@jni@plugins@monitoring@ibmras@@8 DD 00H	; ibmras::monitoring::plugins::jni::PullSource::`RTTI Class Hierarchy Descriptor'
	DD	00H
	DD	01H
	DD	FLAT:??_R2PullSource@jni@plugins@monitoring@ibmras@@8
rdata$r	ENDS
;	COMDAT ??_R0?AVPullSource@jni@plugins@monitoring@ibmras@@@8
_DATA	SEGMENT
??_R0?AVPullSource@jni@plugins@monitoring@ibmras@@@8 DD FLAT:??_7type_info@@6B@ ; ibmras::monitoring::plugins::jni::PullSource `RTTI Type Descriptor'
	DD	00H
	DB	'.?AVPullSource@jni@plugins@monitoring@ibmras@@', 00H
_DATA	ENDS
;	COMDAT ??_R4PullSource@jni@plugins@monitoring@ibmras@@6B@
rdata$r	SEGMENT
??_R4PullSource@jni@plugins@monitoring@ibmras@@6B@ DD 00H ; ibmras::monitoring::plugins::jni::PullSource::`RTTI Complete Object Locator'
	DD	00H
	DD	00H
	DD	FLAT:??_R0?AVPullSource@jni@plugins@monitoring@ibmras@@@8
	DD	FLAT:??_R3PullSource@jni@plugins@monitoring@ibmras@@8
rdata$r	ENDS
;	COMDAT ??_7PullSource@jni@plugins@monitoring@ibmras@@6B@
CONST	SEGMENT
??_7PullSource@jni@plugins@monitoring@ibmras@@6B@ DD FLAT:??_R4PullSource@jni@plugins@monitoring@ibmras@@6B@ ; ibmras::monitoring::plugins::jni::PullSource::`vftable'
	DD	FLAT:??_EPullSource@jni@plugins@monitoring@ibmras@@UAEPAXI@Z
	DD	FLAT:?getDescriptor@PullSource@jni@plugins@monitoring@ibmras@@UAEPAUpullsource@@XZ
	DD	FLAT:__purecall
	DD	FLAT:__purecall
	DD	FLAT:__purecall
; Function compile flags: /Odtp
CONST	ENDS
_TEXT	SEGMENT
_this$ = -4						; size = 4
_id$ = 8						; size = 4
_providerName$ = 12					; size = 4
??0PullSource@jni@plugins@monitoring@ibmras@@QAE@IABV?$basic_string@DU?$char_traits@D@std@@V?$allocator@D@2@@std@@@Z PROC ; ibmras::monitoring::plugins::jni::PullSource::PullSource
; _this$ = ecx
; Line 274
	push	ebp
	mov	ebp, esp
	push	ecx
	mov	DWORD PTR _this$[ebp], ecx
	mov	eax, DWORD PTR _this$[ebp]
	mov	DWORD PTR [eax], OFFSET ??_7PullSource@jni@plugins@monitoring@ibmras@@6B@
	mov	ecx, DWORD PTR _this$[ebp]
	mov	edx, DWORD PTR _id$[ebp]
	mov	DWORD PTR [ecx+4], edx
	mov	eax, DWORD PTR _this$[ebp]
	mov	DWORD PTR [eax+8], 0
	mov	ecx, DWORD PTR _providerName$[ebp]
	push	ecx
	mov	ecx, DWORD PTR _this$[ebp]
	add	ecx, 12					; 0000000cH
	call	??0?$basic_string@DU?$char_traits@D@std@@V?$allocator@D@2@@std@@QAE@ABV01@@Z ; std::basic_string<char,std::char_traits<char>,std::allocator<char> >::basic_string<char,std::char_traits<char>,std::allocator<char> >
; Line 275
	mov	eax, DWORD PTR _this$[ebp]
	mov	esp, ebp
	pop	ebp
	ret	8
??0PullSource@jni@plugins@monitoring@ibmras@@QAE@IABV?$basic_string@DU?$char_traits@D@std@@V?$allocator@D@2@@std@@@Z ENDP ; ibmras::monitoring::plugins::jni::PullSource::PullSource
; Function compile flags: /Odtp
_TEXT	ENDS
;	COMDAT ?getDescriptor@PullSource@jni@plugins@monitoring@ibmras@@UAEPAUpullsource@@XZ
_TEXT	SEGMENT
_this$ = -4						; size = 4
?getDescriptor@PullSource@jni@plugins@monitoring@ibmras@@UAEPAUpullsource@@XZ PROC ; ibmras::monitoring::plugins::jni::PullSource::getDescriptor, COMDAT
; _this$ = ecx
; File c:\workspaces\newagent2\runtime.tools\src\ibmras\monitoring\plugins\jni\cfacade.h
; Line 61
	push	ebp
	mov	ebp, esp
	push	ecx
	mov	DWORD PTR _this$[ebp], ecx
	xor	eax, eax
	mov	esp, ebp
	pop	ebp
	ret	0
?getDescriptor@PullSource@jni@plugins@monitoring@ibmras@@UAEPAUpullsource@@XZ ENDP ; ibmras::monitoring::plugins::jni::PullSource::getDescriptor
_TEXT	ENDS
PUBLIC	??1PullSource@jni@plugins@monitoring@ibmras@@UAE@XZ ; ibmras::monitoring::plugins::jni::PullSource::~PullSource
; Function compile flags: /Odtp
;	COMDAT ??_GPullSource@jni@plugins@monitoring@ibmras@@UAEPAXI@Z
_TEXT	SEGMENT
_this$ = -4						; size = 4
___flags$ = 8						; size = 4
??_GPullSource@jni@plugins@monitoring@ibmras@@UAEPAXI@Z PROC ; ibmras::monitoring::plugins::jni::PullSource::`scalar deleting destructor', COMDAT
; _this$ = ecx
	push	ebp
	mov	ebp, esp
	push	ecx
	mov	DWORD PTR _this$[ebp], ecx
	mov	ecx, DWORD PTR _this$[ebp]
	call	??1PullSource@jni@plugins@monitoring@ibmras@@UAE@XZ ; ibmras::monitoring::plugins::jni::PullSource::~PullSource
	mov	eax, DWORD PTR ___flags$[ebp]
	and	eax, 1
	je	SHORT $LN1@scalar@2
	mov	ecx, DWORD PTR _this$[ebp]
	push	ecx
	call	??3@YAXPAX@Z				; operator delete
	add	esp, 4
$LN1@scalar@2:
	mov	eax, DWORD PTR _this$[ebp]
	mov	esp, ebp
	pop	ebp
	ret	4
??_GPullSource@jni@plugins@monitoring@ibmras@@UAEPAXI@Z ENDP ; ibmras::monitoring::plugins::jni::PullSource::`scalar deleting destructor'
; Function compile flags: /Odtp
_TEXT	ENDS
_TEXT	SEGMENT
_this$ = -4						; size = 4
??1PullSource@jni@plugins@monitoring@ibmras@@UAE@XZ PROC ; ibmras::monitoring::plugins::jni::PullSource::~PullSource
; _this$ = ecx
; File c:\workspaces\newagent2\runtime.tools\src\ibmras\monitoring\plugins\jni\cfacade.cpp
; Line 277
	push	ebp
	mov	ebp, esp
	push	ecx
	mov	DWORD PTR _this$[ebp], ecx
	mov	eax, DWORD PTR _this$[ebp]
	mov	DWORD PTR [eax], OFFSET ??_7PullSource@jni@plugins@monitoring@ibmras@@6B@
; Line 278
	mov	ecx, DWORD PTR _this$[ebp]
	add	ecx, 12					; 0000000cH
	call	??1?$basic_string@DU?$char_traits@D@std@@V?$allocator@D@2@@std@@QAE@XZ ; std::basic_string<char,std::char_traits<char>,std::allocator<char> >::~basic_string<char,std::char_traits<char>,std::allocator<char> >
	mov	esp, ebp
	pop	ebp
	ret	0
??1PullSource@jni@plugins@monitoring@ibmras@@UAE@XZ ENDP ; ibmras::monitoring::plugins::jni::PullSource::~PullSource
_TEXT	ENDS
PUBLIC	??4?$basic_string@DU?$char_traits@D@std@@V?$allocator@D@2@@std@@QAEAAV01@PBD@Z ; std::basic_string<char,std::char_traits<char>,std::allocator<char> >::operator=
PUBLIC	?getPlugin@jni@plugins@monitoring@ibmras@@YAPAVPlugin@34@XZ ; ibmras::monitoring::plugins::jni::getPlugin
EXTRN	??0Plugin@monitoring@ibmras@@QAE@XZ:PROC	; ibmras::monitoring::Plugin::Plugin
xdata$x	SEGMENT
__unwindtable$?getPlugin@jni@plugins@monitoring@ibmras@@YAPAVPlugin@34@XZ DD 0ffffffffH
	DD	FLAT:__unwindfunclet$?getPlugin@jni@plugins@monitoring@ibmras@@YAPAVPlugin@34@XZ$0
__ehfuncinfo$?getPlugin@jni@plugins@monitoring@ibmras@@YAPAVPlugin@34@XZ DD 019930522H
	DD	01H
	DD	FLAT:__unwindtable$?getPlugin@jni@plugins@monitoring@ibmras@@YAPAVPlugin@34@XZ
	DD	2 DUP(00H)
	DD	2 DUP(00H)
	DD	00H
	DD	01H
; Function compile flags: /Odtp
xdata$x	ENDS
_TEXT	SEGMENT
tv71 = -28						; size = 4
$T105905 = -24						; size = 4
$T105904 = -20						; size = 4
_plugin$ = -16						; size = 4
__$EHRec$ = -12						; size = 12
?getPlugin@jni@plugins@monitoring@ibmras@@YAPAVPlugin@34@XZ PROC ; ibmras::monitoring::plugins::jni::getPlugin
; Line 280
	push	ebp
	mov	ebp, esp
	push	-1
	push	__ehhandler$?getPlugin@jni@plugins@monitoring@ibmras@@YAPAVPlugin@34@XZ
	mov	eax, DWORD PTR fs:0
	push	eax
	sub	esp, 16					; 00000010H
	mov	eax, DWORD PTR ___security_cookie
	xor	eax, ebp
	push	eax
	lea	eax, DWORD PTR __$EHRec$[ebp]
	mov	DWORD PTR fs:0, eax
; Line 281
	push	68					; 00000044H
	call	??2@YAPAXI@Z				; operator new
	add	esp, 4
	mov	DWORD PTR $T105905[ebp], eax
	mov	DWORD PTR __$EHRec$[ebp+8], 0
	cmp	DWORD PTR $T105905[ebp], 0
	je	SHORT $LN3@getPlugin
	mov	ecx, DWORD PTR $T105905[ebp]
	call	??0Plugin@monitoring@ibmras@@QAE@XZ	; ibmras::monitoring::Plugin::Plugin
	mov	DWORD PTR tv71[ebp], eax
	jmp	SHORT $LN4@getPlugin
$LN3@getPlugin:
	mov	DWORD PTR tv71[ebp], 0
$LN4@getPlugin:
	mov	eax, DWORD PTR tv71[ebp]
	mov	DWORD PTR $T105904[ebp], eax
	mov	DWORD PTR __$EHRec$[ebp+8], -1
	mov	ecx, DWORD PTR $T105904[ebp]
	mov	DWORD PTR _plugin$[ebp], ecx
; Line 282
	push	OFFSET $SG99396
	mov	ecx, DWORD PTR _plugin$[ebp]
	add	ecx, 4
	call	??4?$basic_string@DU?$char_traits@D@std@@V?$allocator@D@2@@std@@QAEAAV01@PBD@Z ; std::basic_string<char,std::char_traits<char>,std::allocator<char> >::operator=
; Line 283
	mov	edx, DWORD PTR _plugin$[ebp]
	mov	DWORD PTR [edx+40], OFFSET _registerPullSourcejni
; Line 284
	mov	eax, DWORD PTR _plugin$[ebp]
	mov	DWORD PTR [eax+36], 0
; Line 285
	mov	ecx, DWORD PTR _plugin$[ebp]
	mov	DWORD PTR [ecx+44], OFFSET _startjni
; Line 286
	mov	edx, DWORD PTR _plugin$[ebp]
	mov	DWORD PTR [edx+48], OFFSET _stopjni
; Line 287
	mov	eax, DWORD PTR _plugin$[ebp]
	mov	DWORD PTR [eax+64], 1
; Line 288
	mov	ecx, DWORD PTR _plugin$[ebp]
	mov	DWORD PTR [ecx+56], 0
; Line 289
	mov	edx, DWORD PTR _plugin$[ebp]
	mov	DWORD PTR [edx+52], 0
; Line 290
	mov	eax, DWORD PTR _plugin$[ebp]
; Line 291
	mov	ecx, DWORD PTR __$EHRec$[ebp]
	mov	DWORD PTR fs:0, ecx
	pop	ecx
	mov	esp, ebp
	pop	ebp
	ret	0
_TEXT	ENDS
text$x	SEGMENT
__unwindfunclet$?getPlugin@jni@plugins@monitoring@ibmras@@YAPAVPlugin@34@XZ$0:
	mov	eax, DWORD PTR $T105905[ebp]
	push	eax
	call	??3@YAXPAX@Z				; operator delete
	pop	ecx
	ret	0
__ehhandler$?getPlugin@jni@plugins@monitoring@ibmras@@YAPAVPlugin@34@XZ:
	mov	edx, DWORD PTR [esp+8]
	lea	eax, DWORD PTR [edx+12]
	mov	ecx, DWORD PTR [edx-20]
	xor	ecx, eax
	call	@__security_check_cookie@4
	mov	eax, OFFSET __ehfuncinfo$?getPlugin@jni@plugins@monitoring@ibmras@@YAPAVPlugin@34@XZ
	jmp	___CxxFrameHandler3
text$x	ENDS
?getPlugin@jni@plugins@monitoring@ibmras@@YAPAVPlugin@34@XZ ENDP ; ibmras::monitoring::plugins::jni::getPlugin
PUBLIC	?ExceptionClear@JNIEnv_@@QAEXXZ			; JNIEnv_::ExceptionClear
PUBLIC	?ExceptionCheck@JNIEnv_@@QAEEXZ			; JNIEnv_::ExceptionCheck
PUBLIC	?ExceptionCheck@jni@plugins@monitoring@ibmras@@YAHPAUJNIEnv_@@@Z ; ibmras::monitoring::plugins::jni::ExceptionCheck
; Function compile flags: /Odtp
_TEXT	SEGMENT
_env$ = 8						; size = 4
?ExceptionCheck@jni@plugins@monitoring@ibmras@@YAHPAUJNIEnv_@@@Z PROC ; ibmras::monitoring::plugins::jni::ExceptionCheck
; Line 297
	push	ebp
	mov	ebp, esp
; Line 298
	mov	ecx, DWORD PTR _env$[ebp]
	call	?ExceptionCheck@JNIEnv_@@QAEEXZ		; JNIEnv_::ExceptionCheck
	movzx	eax, al
	test	eax, eax
	je	SHORT $LN3@ExceptionC
; Line 299
	mov	ecx, DWORD PTR ?logger@jni@plugins@monitoring@ibmras@@3PAVLogger@common@4@A ; ibmras::monitoring::plugins::jni::logger
	cmp	DWORD PTR [ecx+8], 1
	jl	SHORT $LN2@ExceptionC
	push	OFFSET $SG99402
	push	1
	mov	edx, DWORD PTR ?logger@jni@plugins@monitoring@ibmras@@3PAVLogger@common@4@A ; ibmras::monitoring::plugins::jni::logger
	push	edx
	call	?debug@Logger@common@ibmras@@QAAXW4Level@logging@23@PBDZZ ; ibmras::common::Logger::debug
	add	esp, 12					; 0000000cH
$LN2@ExceptionC:
; Line 300
	mov	ecx, DWORD PTR _env$[ebp]
	call	?ExceptionDescribe@JNIEnv_@@QAEXXZ	; JNIEnv_::ExceptionDescribe
; Line 301
	mov	ecx, DWORD PTR _env$[ebp]
	call	?ExceptionClear@JNIEnv_@@QAEXXZ		; JNIEnv_::ExceptionClear
; Line 302
	mov	eax, 1
	jmp	SHORT $LN4@ExceptionC
; Line 303
	jmp	SHORT $LN4@ExceptionC
$LN3@ExceptionC:
; Line 304
	xor	eax, eax
$LN4@ExceptionC:
; Line 306
	pop	ebp
	ret	0
?ExceptionCheck@jni@plugins@monitoring@ibmras@@YAHPAUJNIEnv_@@@Z ENDP ; ibmras::monitoring::plugins::jni::ExceptionCheck
; Function compile flags: /Odtp
_TEXT	ENDS
;	COMDAT ?ExceptionClear@JNIEnv_@@QAEXXZ
_TEXT	SEGMENT
_this$ = -4						; size = 4
?ExceptionClear@JNIEnv_@@QAEXXZ PROC			; JNIEnv_::ExceptionClear, COMDAT
; _this$ = ecx
; File c:\javabuilds\javademo\sdk\include\jni.h
; Line 438
	push	ebp
	mov	ebp, esp
	push	ecx
	mov	DWORD PTR _this$[ebp], ecx
	mov	eax, DWORD PTR _this$[ebp]
	push	eax
	mov	ecx, DWORD PTR _this$[ebp]
	mov	edx, DWORD PTR [ecx]
	mov	eax, DWORD PTR [edx+68]
	call	eax
	mov	esp, ebp
	pop	ebp
	ret	0
?ExceptionClear@JNIEnv_@@QAEXXZ ENDP			; JNIEnv_::ExceptionClear
; Function compile flags: /Odtp
_TEXT	ENDS
;	COMDAT ?ExceptionCheck@JNIEnv_@@QAEEXZ
_TEXT	SEGMENT
_this$ = -4						; size = 4
?ExceptionCheck@JNIEnv_@@QAEEXZ PROC			; JNIEnv_::ExceptionCheck, COMDAT
; _this$ = ecx
; Line 649
	push	ebp
	mov	ebp, esp
	push	ecx
	mov	DWORD PTR _this$[ebp], ecx
	mov	eax, DWORD PTR _this$[ebp]
	push	eax
	mov	ecx, DWORD PTR _this$[ebp]
	mov	edx, DWORD PTR [ecx]
	mov	eax, DWORD PTR [edx+912]
	call	eax
	mov	esp, ebp
	pop	ebp
	ret	0
?ExceptionCheck@JNIEnv_@@QAEEXZ ENDP			; JNIEnv_::ExceptionCheck
_TEXT	ENDS
PUBLIC	?dump_read@jni@plugins@monitoring@ibmras@@YAXPAX0H@Z ; ibmras::monitoring::plugins::jni::dump_read
EXTRN	_memcpy:PROC
; Function compile flags: /Odtp
_TEXT	SEGMENT
_dp$ = 8						; size = 4
_res$ = 12						; size = 4
_size$ = 16						; size = 4
?dump_read@jni@plugins@monitoring@ibmras@@YAXPAX0H@Z PROC ; ibmras::monitoring::plugins::jni::dump_read
; File c:\workspaces\newagent2\runtime.tools\src\ibmras\monitoring\plugins\jni\cfacade.cpp
; Line 308
	push	ebp
	mov	ebp, esp
; Line 309
	mov	eax, DWORD PTR _size$[ebp]
	push	eax
	mov	ecx, DWORD PTR _dp$[ebp]
	push	ecx
	mov	edx, DWORD PTR _res$[ebp]
	push	edx
	call	_memcpy
	add	esp, 12					; 0000000cH
; Line 311
	pop	ebp
	ret	0
?dump_read@jni@plugins@monitoring@ibmras@@YAXPAX0H@Z ENDP ; ibmras::monitoring::plugins::jni::dump_read
_TEXT	ENDS
PUBLIC	?dump_read_u4@jni@plugins@monitoring@ibmras@@YAIPAD@Z ; ibmras::monitoring::plugins::jni::dump_read_u4
EXTRN	_ntohl@4:PROC
; Function compile flags: /Odtp
_TEXT	SEGMENT
_temp$ = -4						; size = 4
_dp$ = 8						; size = 4
?dump_read_u4@jni@plugins@monitoring@ibmras@@YAIPAD@Z PROC ; ibmras::monitoring::plugins::jni::dump_read_u4
; Line 313
	push	ebp
	mov	ebp, esp
	push	ecx
; Line 316
	push	4
	lea	eax, DWORD PTR _temp$[ebp]
	push	eax
	mov	ecx, DWORD PTR _dp$[ebp]
	push	ecx
	call	?dump_read@jni@plugins@monitoring@ibmras@@YAXPAX0H@Z ; ibmras::monitoring::plugins::jni::dump_read
	add	esp, 12					; 0000000cH
; Line 317
	mov	edx, DWORD PTR _temp$[ebp]
	push	edx
	call	_ntohl@4
	mov	DWORD PTR _temp$[ebp], eax
; Line 318
	mov	eax, DWORD PTR _temp$[ebp]
; Line 319
	mov	esp, ebp
	pop	ebp
	ret	0
?dump_read_u4@jni@plugins@monitoring@ibmras@@YAIPAD@Z ENDP ; ibmras::monitoring::plugins::jni::dump_read_u4
_TEXT	ENDS
PUBLIC	?getCycles@jni@plugins@monitoring@ibmras@@YAXPA_K@Z ; ibmras::monitoring::plugins::jni::getCycles
; Function compile flags: /Odtp
_TEXT	SEGMENT
_cycles$ = -8						; size = 8
_cpu$ = 8						; size = 4
?read_cycles_on_processor@jni@plugins@monitoring@ibmras@@YA_KH@Z PROC ; ibmras::monitoring::plugins::jni::read_cycles_on_processor
; Line 321
	push	ebp
	mov	ebp, esp
	sub	esp, 8
; Line 322
	mov	DWORD PTR _cycles$[ebp], 0
	mov	DWORD PTR _cycles$[ebp+4], 0
; Line 330
	lea	eax, DWORD PTR _cycles$[ebp]
	push	eax
	call	?getCycles@jni@plugins@monitoring@ibmras@@YAXPA_K@Z ; ibmras::monitoring::plugins::jni::getCycles
	add	esp, 4
; Line 334
	mov	eax, DWORD PTR _cycles$[ebp]
	mov	edx, DWORD PTR _cycles$[ebp+4]
; Line 335
	mov	esp, ebp
	pop	ebp
	ret	0
?read_cycles_on_processor@jni@plugins@monitoring@ibmras@@YA_KH@Z ENDP ; ibmras::monitoring::plugins::jni::read_cycles_on_processor
_TEXT	ENDS
PUBLIC	?getPlatformCycles@jni@plugins@monitoring@ibmras@@YA_KXZ ; ibmras::monitoring::plugins::jni::getPlatformCycles
; Function compile flags: /Odtp
_TEXT	SEGMENT
_time$ = -8						; size = 8
?getPlatformCycles@jni@plugins@monitoring@ibmras@@YA_KXZ PROC ; ibmras::monitoring::plugins::jni::getPlatformCycles
; Line 408
	push	ebp
	mov	ebp, esp
	sub	esp, 8
; Line 415
	call	?rdtsc@jni@plugins@monitoring@ibmras@@YA_KXZ ; ibmras::monitoring::plugins::jni::rdtsc
	jmp	SHORT $LN1@getPlatfor
; Line 460
	mov	eax, DWORD PTR _time$[ebp]
	mov	edx, DWORD PTR _time$[ebp+4]
$LN1@getPlatfor:
; Line 461
	mov	esp, ebp
	pop	ebp
	ret	0
?getPlatformCycles@jni@plugins@monitoring@ibmras@@YA_KXZ ENDP ; ibmras::monitoring::plugins::jni::getPlatformCycles
; Function compile flags: /Odtp
_t$ = 8						; size = 4
?getCycles@jni@plugins@monitoring@ibmras@@YAXPA_K@Z PROC ; ibmras::monitoring::plugins::jni::getCycles
; Line 464
	push	ebp
	mov	ebp, esp
; Line 465
	call	?getPlatformCycles@jni@plugins@monitoring@ibmras@@YA_KXZ ; ibmras::monitoring::plugins::jni::getPlatformCycles
	mov	ecx, DWORD PTR _t$[ebp]
	mov	DWORD PTR [ecx], eax
	mov	DWORD PTR [ecx+4], edx
; Line 466
	pop	ebp
	ret	0
?getCycles@jni@plugins@monitoring@ibmras@@YAXPA_K@Z ENDP ; ibmras::monitoring::plugins::jni::getCycles
_TEXT	ENDS
PUBLIC	?qcmp_jlm@jni@plugins@monitoring@ibmras@@YAHPBX0@Z ; ibmras::monitoring::plugins::jni::qcmp_jlm
; Function compile flags: /Odtp
_TEXT	SEGMENT
_r$ = -8						; size = 4
_s$ = -4						; size = 4
_p1$ = 8						; size = 4
_p2$ = 12						; size = 4
?qcmp_jlm@jni@plugins@monitoring@ibmras@@YAHPBX0@Z PROC	; ibmras::monitoring::plugins::jni::qcmp_jlm
; Line 468
	push	ebp
	mov	ebp, esp
	sub	esp, 8
; Line 472
	mov	eax, DWORD PTR _p1$[ebp]
	mov	ecx, DWORD PTR [eax]
	mov	DWORD PTR _r$[ebp], ecx
; Line 473
	mov	edx, DWORD PTR _p2$[ebp]
	mov	eax, DWORD PTR [edx]
	mov	DWORD PTR _s$[ebp], eax
; Line 475
	mov	ecx, DWORD PTR _r$[ebp]
	mov	edx, DWORD PTR _s$[ebp]
	mov	eax, DWORD PTR [ecx+24]
	cmp	eax, DWORD PTR [edx+24]
	jle	SHORT $LN2@qcmp_jlm
; Line 476
	or	eax, -1
	jmp	SHORT $LN3@qcmp_jlm
$LN2@qcmp_jlm:
; Line 478
	mov	ecx, DWORD PTR _r$[ebp]
	mov	edx, DWORD PTR _s$[ebp]
	mov	eax, DWORD PTR [ecx+24]
	cmp	eax, DWORD PTR [edx+24]
	jge	SHORT $LN1@qcmp_jlm
; Line 479
	mov	eax, 1
	jmp	SHORT $LN3@qcmp_jlm
$LN1@qcmp_jlm:
; Line 482
	xor	eax, eax
$LN3@qcmp_jlm:
; Line 483
	mov	esp, ebp
	pop	ebp
	ret	0
?qcmp_jlm@jni@plugins@monitoring@ibmras@@YAHPBX0@Z ENDP	; ibmras::monitoring::plugins::jni::qcmp_jlm
_TEXT	ENDS
PUBLIC	?hc_alloc@jni@plugins@monitoring@ibmras@@YAPAEH@Z ; ibmras::monitoring::plugins::jni::hc_alloc
EXTRN	?allocate@memory@common@ibmras@@YAPAEI@Z:PROC	; ibmras::common::memory::allocate
; Function compile flags: /Odtp
_TEXT	SEGMENT
_size$ = 8						; size = 4
?hc_alloc@jni@plugins@monitoring@ibmras@@YAPAEH@Z PROC	; ibmras::monitoring::plugins::jni::hc_alloc
; Line 489
	push	ebp
	mov	ebp, esp
; Line 490
	mov	eax, DWORD PTR _size$[ebp]
	push	eax
	call	?allocate@memory@common@ibmras@@YAPAEI@Z ; ibmras::common::memory::allocate
	add	esp, 4
; Line 491
	pop	ebp
	ret	0
?hc_alloc@jni@plugins@monitoring@ibmras@@YAPAEH@Z ENDP	; ibmras::monitoring::plugins::jni::hc_alloc
; Function compile flags: /Odtp
_buffer$ = 8						; size = 4
?hc_dealloc@jni@plugins@monitoring@ibmras@@YAXPAPAE@Z PROC ; ibmras::monitoring::plugins::jni::hc_dealloc
; Line 493
	push	ebp
	mov	ebp, esp
; Line 494
	mov	eax, DWORD PTR _buffer$[ebp]
	push	eax
	call	?deallocate@memory@common@ibmras@@YAXPAPAE@Z ; ibmras::common::memory::deallocate
	add	esp, 4
; Line 495
	pop	ebp
	ret	0
?hc_dealloc@jni@plugins@monitoring@ibmras@@YAXPAPAE@Z ENDP ; ibmras::monitoring::plugins::jni::hc_dealloc
_TEXT	ENDS
PUBLIC	?dealloc_report_lines@jni@plugins@monitoring@ibmras@@YAXQAPADH@Z ; ibmras::monitoring::plugins::jni::dealloc_report_lines
; Function compile flags: /Odtp
_TEXT	SEGMENT
_i$ = -4						; size = 4
_lines$ = 8						; size = 4
_count$ = 12						; size = 4
?dealloc_report_lines@jni@plugins@monitoring@ibmras@@YAXQAPADH@Z PROC ; ibmras::monitoring::plugins::jni::dealloc_report_lines
; Line 500
	push	ebp
	mov	ebp, esp
	push	ecx
; Line 504
	cmp	DWORD PTR _lines$[ebp], 0
	je	SHORT $LN5@dealloc_re
; Line 506
	mov	DWORD PTR _i$[ebp], 0
	jmp	SHORT $LN3@dealloc_re
$LN2@dealloc_re:
	mov	eax, DWORD PTR _i$[ebp]
	add	eax, 1
	mov	DWORD PTR _i$[ebp], eax
$LN3@dealloc_re:
	mov	ecx, DWORD PTR _i$[ebp]
	cmp	ecx, DWORD PTR _count$[ebp]
	jge	SHORT $LN5@dealloc_re
; Line 507
	mov	edx, DWORD PTR _i$[ebp]
	mov	eax, DWORD PTR _lines$[ebp]
	lea	ecx, DWORD PTR [eax+edx*4]
	push	ecx
	call	?hc_dealloc@jni@plugins@monitoring@ibmras@@YAXPAPAE@Z ; ibmras::monitoring::plugins::jni::hc_dealloc
	add	esp, 4
; Line 508
	jmp	SHORT $LN2@dealloc_re
$LN5@dealloc_re:
; Line 511
	mov	esp, ebp
	pop	ebp
	ret	0
?dealloc_report_lines@jni@plugins@monitoring@ibmras@@YAXQAPADH@Z ENDP ; ibmras::monitoring::plugins::jni::dealloc_report_lines
_TEXT	ENDS
PUBLIC	?hc_realloc_ptr_array@jni@plugins@monitoring@ibmras@@YAPAXQAPAPADHH@Z ; ibmras::monitoring::plugins::jni::hc_realloc_ptr_array
; Function compile flags: /Odtp
_TEXT	SEGMENT
_buffer$ = -8						; size = 4
_i$ = -4						; size = 4
_source$ = 8						; size = 4
_currentSize$ = 12					; size = 4
_newSize$ = 16						; size = 4
?hc_realloc_ptr_array@jni@plugins@monitoring@ibmras@@YAPAXQAPAPADHH@Z PROC ; ibmras::monitoring::plugins::jni::hc_realloc_ptr_array
; Line 514
	push	ebp
	mov	ebp, esp
	sub	esp, 8
	push	esi
; Line 515
	mov	DWORD PTR _buffer$[ebp], 0
; Line 518
	mov	eax, DWORD PTR _currentSize$[ebp]
	cmp	eax, DWORD PTR _newSize$[ebp]
	jl	SHORT $LN5@hc_realloc
; Line 519
	mov	ecx, DWORD PTR _source$[ebp]
	mov	eax, DWORD PTR [ecx]
	jmp	SHORT $LN6@hc_realloc
$LN5@hc_realloc:
; Line 522
	mov	edx, DWORD PTR _newSize$[ebp]
	shl	edx, 2
	push	edx
	call	?hc_alloc@jni@plugins@monitoring@ibmras@@YAPAEH@Z ; ibmras::monitoring::plugins::jni::hc_alloc
	add	esp, 4
	mov	DWORD PTR _buffer$[ebp], eax
; Line 523
	cmp	DWORD PTR _buffer$[ebp], 0
	je	SHORT $LN4@hc_realloc
; Line 524
	mov	DWORD PTR _i$[ebp], 0
	jmp	SHORT $LN3@hc_realloc
$LN2@hc_realloc:
	mov	eax, DWORD PTR _i$[ebp]
	add	eax, 1
	mov	DWORD PTR _i$[ebp], eax
$LN3@hc_realloc:
	mov	ecx, DWORD PTR _i$[ebp]
	cmp	ecx, DWORD PTR _currentSize$[ebp]
	jge	SHORT $LN4@hc_realloc
; Line 525
	mov	edx, DWORD PTR _source$[ebp]
	mov	eax, DWORD PTR [edx]
	mov	ecx, DWORD PTR _i$[ebp]
	mov	edx, DWORD PTR _buffer$[ebp]
	mov	esi, DWORD PTR _i$[ebp]
	mov	eax, DWORD PTR [eax+esi*4]
	mov	DWORD PTR [edx+ecx*4], eax
; Line 526
	jmp	SHORT $LN2@hc_realloc
$LN4@hc_realloc:
; Line 528
	mov	ecx, DWORD PTR _source$[ebp]
	push	ecx
	call	?hc_dealloc@jni@plugins@monitoring@ibmras@@YAXPAPAE@Z ; ibmras::monitoring::plugins::jni::hc_dealloc
	add	esp, 4
; Line 529
	mov	edx, DWORD PTR _source$[ebp]
	mov	eax, DWORD PTR _buffer$[ebp]
	mov	DWORD PTR [edx], eax
; Line 530
	mov	eax, DWORD PTR _buffer$[ebp]
$LN6@hc_realloc:
; Line 531
	pop	esi
	mov	esp, ebp
	pop	ebp
	ret	0
?hc_realloc_ptr_array@jni@plugins@monitoring@ibmras@@YAPAXQAPAPADHH@Z ENDP ; ibmras::monitoring::plugins::jni::hc_realloc_ptr_array
_TEXT	ENDS
PUBLIC	?force2Native@jni@plugins@monitoring@ibmras@@YAXPBD@Z ; ibmras::monitoring::plugins::jni::force2Native
; Function compile flags: /Odtp
_TEXT	SEGMENT
_p$ = -4						; size = 4
_str$ = 8						; size = 4
?force2Native@jni@plugins@monitoring@ibmras@@YAXPBD@Z PROC ; ibmras::monitoring::plugins::jni::force2Native
; Line 537
	push	ebp
	mov	ebp, esp
	push	ecx
; Line 538
	mov	eax, DWORD PTR _str$[ebp]
	mov	DWORD PTR _p$[ebp], eax
; Line 540
	cmp	DWORD PTR _str$[ebp], 0
	je	SHORT $LN5@force2Nati
$LN3@force2Nati:
; Line 541
	mov	ecx, DWORD PTR _p$[ebp]
	movsx	edx, BYTE PTR [ecx]
	test	edx, edx
	je	SHORT $LN5@force2Nati
; Line 542
	mov	eax, DWORD PTR _p$[ebp]
	movsx	ecx, BYTE PTR [eax]
	and	ecx, 128				; 00000080H
	je	SHORT $LN1@force2Nati
; Line 543
	mov	DWORD PTR _p$[ebp], 0
; Line 544
	jmp	SHORT $LN5@force2Nati
$LN1@force2Nati:
; Line 546
	mov	edx, DWORD PTR _p$[ebp]
	add	edx, 1
	mov	DWORD PTR _p$[ebp], edx
; Line 547
	jmp	SHORT $LN3@force2Nati
$LN5@force2Nati:
; Line 555
	mov	esp, ebp
	pop	ebp
	ret	0
?force2Native@jni@plugins@monitoring@ibmras@@YAXPBD@Z ENDP ; ibmras::monitoring::plugins::jni::force2Native
_TEXT	ENDS
PUBLIC	?dupJavaStr@jni@plugins@monitoring@ibmras@@YAPADPBD@Z ; ibmras::monitoring::plugins::jni::dupJavaStr
EXTRN	_strcpy:PROC
; Function compile flags: /Odtp
_TEXT	SEGMENT
_cp$ = -4						; size = 4
_jnm$ = 8						; size = 4
?dupJavaStr@jni@plugins@monitoring@ibmras@@YAPADPBD@Z PROC ; ibmras::monitoring::plugins::jni::dupJavaStr
; Line 561
	push	ebp
	mov	ebp, esp
	push	ecx
; Line 562
	mov	DWORD PTR _cp$[ebp], 0
; Line 563
	cmp	DWORD PTR _jnm$[ebp], 0
	je	SHORT $LN5@dupJavaStr
; Line 565
	mov	eax, DWORD PTR _jnm$[ebp]
	push	eax
	call	_strlen
	add	esp, 4
	add	eax, 1
	push	eax
	call	?hc_alloc@jni@plugins@monitoring@ibmras@@YAPAEH@Z ; ibmras::monitoring::plugins::jni::hc_alloc
	add	esp, 4
	mov	DWORD PTR _cp$[ebp], eax
; Line 566
	cmp	DWORD PTR _cp$[ebp], 0
	jne	SHORT $LN4@dupJavaStr
; Line 567
	xor	eax, eax
	jmp	SHORT $LN6@dupJavaStr
; Line 568
	jmp	SHORT $LN3@dupJavaStr
$LN4@dupJavaStr:
; Line 570
	mov	ecx, DWORD PTR _jnm$[ebp]
	push	ecx
	mov	edx, DWORD PTR _cp$[ebp]
	push	edx
	call	_strcpy
	add	esp, 8
; Line 571
	mov	eax, DWORD PTR _cp$[ebp]
	push	eax
	call	?force2Native@jni@plugins@monitoring@ibmras@@YAXPBD@Z ; ibmras::monitoring::plugins::jni::force2Native
	add	esp, 4
$LN3@dupJavaStr:
; Line 573
	jmp	SHORT $LN2@dupJavaStr
$LN5@dupJavaStr:
; Line 576
	push	5
	call	?hc_alloc@jni@plugins@monitoring@ibmras@@YAPAEH@Z ; ibmras::monitoring::plugins::jni::hc_alloc
	add	esp, 4
	mov	DWORD PTR _cp$[ebp], eax
; Line 577
	cmp	DWORD PTR _cp$[ebp], 0
	jne	SHORT $LN1@dupJavaStr
; Line 578
	xor	eax, eax
	jmp	SHORT $LN6@dupJavaStr
$LN1@dupJavaStr:
; Line 580
	push	OFFSET $SG99488
	mov	ecx, DWORD PTR _cp$[ebp]
	push	ecx
	call	_strcpy
	add	esp, 8
$LN2@dupJavaStr:
; Line 582
	mov	eax, DWORD PTR _cp$[ebp]
$LN6@dupJavaStr:
; Line 583
	mov	esp, ebp
	pop	ebp
	ret	0
?dupJavaStr@jni@plugins@monitoring@ibmras@@YAPADPBD@Z ENDP ; ibmras::monitoring::plugins::jni::dupJavaStr
_TEXT	ENDS
PUBLIC	?join_strings@jni@plugins@monitoring@ibmras@@YAPADQAPADH@Z ; ibmras::monitoring::plugins::jni::join_strings
EXTRN	_strcat:PROC
; Function compile flags: /Odtp
_TEXT	SEGMENT
_str$ = -16						; size = 4
_total_length$ = -12					; size = 4
_i$ = -8						; size = 4
_length$ = -4						; size = 4
_strings$ = 8						; size = 4
_count$ = 12						; size = 4
?join_strings@jni@plugins@monitoring@ibmras@@YAPADQAPADH@Z PROC ; ibmras::monitoring::plugins::jni::join_strings
; Line 589
	push	ebp
	mov	ebp, esp
	sub	esp, 16					; 00000010H
; Line 590
	mov	DWORD PTR _str$[ebp], 0
; Line 591
	mov	DWORD PTR _total_length$[ebp], 0
; Line 592
	mov	DWORD PTR _length$[ebp], 0
; Line 593
	mov	DWORD PTR _i$[ebp], 0
; Line 596
	mov	DWORD PTR _i$[ebp], 0
	jmp	SHORT $LN9@join_strin
$LN8@join_strin:
	mov	eax, DWORD PTR _i$[ebp]
	add	eax, 1
	mov	DWORD PTR _i$[ebp], eax
$LN9@join_strin:
	mov	ecx, DWORD PTR _i$[ebp]
	cmp	ecx, DWORD PTR _count$[ebp]
	jge	SHORT $LN7@join_strin
; Line 597
	mov	edx, DWORD PTR _i$[ebp]
	mov	eax, DWORD PTR _strings$[ebp]
	cmp	DWORD PTR [eax+edx*4], 0
	je	SHORT $LN6@join_strin
; Line 598
	mov	ecx, DWORD PTR _i$[ebp]
	mov	edx, DWORD PTR _strings$[ebp]
	mov	eax, DWORD PTR [edx+ecx*4]
	push	eax
	call	_strlen
	add	esp, 4
	add	eax, DWORD PTR _total_length$[ebp]
	mov	DWORD PTR _total_length$[ebp], eax
$LN6@join_strin:
; Line 600
	jmp	SHORT $LN8@join_strin
$LN7@join_strin:
; Line 601
	mov	ecx, DWORD PTR _total_length$[ebp]
	add	ecx, 1
	mov	DWORD PTR _total_length$[ebp], ecx
; Line 603
	mov	edx, DWORD PTR _total_length$[ebp]
	push	edx
	call	?hc_alloc@jni@plugins@monitoring@ibmras@@YAPAEH@Z ; ibmras::monitoring::plugins::jni::hc_alloc
	add	esp, 4
	mov	DWORD PTR _str$[ebp], eax
; Line 604
	cmp	DWORD PTR _str$[ebp], 0
	jne	SHORT $LN5@join_strin
; Line 605
	xor	eax, eax
	jmp	SHORT $LN10@join_strin
$LN5@join_strin:
; Line 607
	mov	eax, DWORD PTR _str$[ebp]
	mov	BYTE PTR [eax], 0
; Line 610
	mov	DWORD PTR _i$[ebp], 0
	jmp	SHORT $LN4@join_strin
$LN3@join_strin:
	mov	ecx, DWORD PTR _i$[ebp]
	add	ecx, 1
	mov	DWORD PTR _i$[ebp], ecx
$LN4@join_strin:
	mov	edx, DWORD PTR _i$[ebp]
	cmp	edx, DWORD PTR _count$[ebp]
	jge	SHORT $LN2@join_strin
; Line 611
	mov	eax, DWORD PTR _i$[ebp]
	mov	ecx, DWORD PTR _strings$[ebp]
	cmp	DWORD PTR [ecx+eax*4], 0
	je	SHORT $LN1@join_strin
; Line 612
	mov	edx, DWORD PTR _i$[ebp]
	mov	eax, DWORD PTR _strings$[ebp]
	mov	ecx, DWORD PTR [eax+edx*4]
	push	ecx
	mov	edx, DWORD PTR _str$[ebp]
	push	edx
	call	_strcat
	add	esp, 8
; Line 613
	mov	eax, DWORD PTR _str$[ebp]
	push	eax
	call	_strlen
	add	esp, 4
	mov	DWORD PTR _length$[ebp], eax
$LN1@join_strin:
; Line 615
	jmp	SHORT $LN3@join_strin
$LN2@join_strin:
; Line 617
	mov	eax, DWORD PTR _str$[ebp]
$LN10@join_strin:
; Line 618
	mov	esp, ebp
	pop	ebp
	ret	0
?join_strings@jni@plugins@monitoring@ibmras@@YAPADQAPADH@Z ENDP ; ibmras::monitoring::plugins::jni::join_strings
_TEXT	ENDS
PUBLIC	??1?$_String_val@DV?$allocator@D@std@@@std@@QAE@XZ ; std::_String_val<char,std::allocator<char> >::~_String_val<char,std::allocator<char> >
PUBLIC	?assign@?$basic_string@DU?$char_traits@D@std@@V?$allocator@D@2@@std@@QAEAAV12@ABV12@II@Z ; std::basic_string<char,std::char_traits<char>,std::allocator<char> >::assign
PUBLIC	?npos@?$basic_string@DU?$char_traits@D@std@@V?$allocator@D@2@@std@@2IB ; std::basic_string<char,std::char_traits<char>,std::allocator<char> >::npos
PUBLIC	?_Tidy@?$basic_string@DU?$char_traits@D@std@@V?$allocator@D@2@@std@@QAEX_NI@Z ; std::basic_string<char,std::char_traits<char>,std::allocator<char> >::_Tidy
PUBLIC	??0?$_String_val@DV?$allocator@D@std@@@std@@QAE@V?$allocator@D@1@@Z ; std::_String_val<char,std::allocator<char> >::_String_val<char,std::allocator<char> >
PUBLIC	??0?$allocator@D@std@@QAE@ABV01@@Z		; std::allocator<char>::allocator<char>
;	COMDAT ?npos@?$basic_string@DU?$char_traits@D@std@@V?$allocator@D@2@@std@@2IB
; File c:\program files (x86)\microsoft visual studio 10.0\vc\include\xstring
CONST	SEGMENT
?npos@?$basic_string@DU?$char_traits@D@std@@V?$allocator@D@2@@std@@2IB DD 0ffffffffH ; std::basic_string<char,std::char_traits<char>,std::allocator<char> >::npos
CONST	ENDS
;	COMDAT xdata$x
xdata$x	SEGMENT
__unwindtable$??0?$basic_string@DU?$char_traits@D@std@@V?$allocator@D@2@@std@@QAE@ABV01@@Z DD 0ffffffffH
	DD	FLAT:__unwindfunclet$??0?$basic_string@DU?$char_traits@D@std@@V?$allocator@D@2@@std@@QAE@ABV01@@Z$0
__ehfuncinfo$??0?$basic_string@DU?$char_traits@D@std@@V?$allocator@D@2@@std@@QAE@ABV01@@Z DD 019930522H
	DD	01H
	DD	FLAT:__unwindtable$??0?$basic_string@DU?$char_traits@D@std@@V?$allocator@D@2@@std@@QAE@ABV01@@Z
	DD	2 DUP(00H)
	DD	2 DUP(00H)
	DD	00H
	DD	01H
; Function compile flags: /Odtp
xdata$x	ENDS
;	COMDAT ??0?$basic_string@DU?$char_traits@D@std@@V?$allocator@D@2@@std@@QAE@ABV01@@Z
_TEXT	SEGMENT
_this$ = -20						; size = 4
$T105932 = -16						; size = 4
__$EHRec$ = -12						; size = 12
__Right$ = 8						; size = 4
??0?$basic_string@DU?$char_traits@D@std@@V?$allocator@D@2@@std@@QAE@ABV01@@Z PROC ; std::basic_string<char,std::char_traits<char>,std::allocator<char> >::basic_string<char,std::char_traits<char>,std::allocator<char> >, COMDAT
; _this$ = ecx
; Line 543
	push	ebp
	mov	ebp, esp
	push	-1
	push	__ehhandler$??0?$basic_string@DU?$char_traits@D@std@@V?$allocator@D@2@@std@@QAE@ABV01@@Z
	mov	eax, DWORD PTR fs:0
	push	eax
	sub	esp, 8
	mov	eax, DWORD PTR ___security_cookie
	xor	eax, ebp
	push	eax
	lea	eax, DWORD PTR __$EHRec$[ebp]
	mov	DWORD PTR fs:0, eax
	mov	DWORD PTR _this$[ebp], ecx
	mov	eax, DWORD PTR __Right$[ebp]
	add	eax, 24					; 00000018H
	push	ecx
	mov	ecx, esp
	mov	DWORD PTR $T105932[ebp], esp
	push	eax
	call	??0?$allocator@D@std@@QAE@ABV01@@Z	; std::allocator<char>::allocator<char>
	mov	ecx, DWORD PTR _this$[ebp]
	call	??0?$_String_val@DV?$allocator@D@std@@@std@@QAE@V?$allocator@D@1@@Z ; std::_String_val<char,std::allocator<char> >::_String_val<char,std::allocator<char> >
	mov	DWORD PTR __$EHRec$[ebp+8], 0
; Line 544
	push	0
	push	0
	mov	ecx, DWORD PTR _this$[ebp]
	call	?_Tidy@?$basic_string@DU?$char_traits@D@std@@V?$allocator@D@2@@std@@QAEX_NI@Z ; std::basic_string<char,std::char_traits<char>,std::allocator<char> >::_Tidy
; Line 545
	mov	ecx, DWORD PTR ?npos@?$basic_string@DU?$char_traits@D@std@@V?$allocator@D@2@@std@@2IB ; std::basic_string<char,std::char_traits<char>,std::allocator<char> >::npos
	push	ecx
	push	0
	mov	edx, DWORD PTR __Right$[ebp]
	push	edx
	mov	ecx, DWORD PTR _this$[ebp]
	call	?assign@?$basic_string@DU?$char_traits@D@std@@V?$allocator@D@2@@std@@QAEAAV12@ABV12@II@Z ; std::basic_string<char,std::char_traits<char>,std::allocator<char> >::assign
; Line 546
	mov	DWORD PTR __$EHRec$[ebp+8], -1
	mov	eax, DWORD PTR _this$[ebp]
	mov	ecx, DWORD PTR __$EHRec$[ebp]
	mov	DWORD PTR fs:0, ecx
	pop	ecx
	mov	esp, ebp
	pop	ebp
	ret	4
_TEXT	ENDS
;	COMDAT text$x
text$x	SEGMENT
__unwindfunclet$??0?$basic_string@DU?$char_traits@D@std@@V?$allocator@D@2@@std@@QAE@ABV01@@Z$0:
	mov	ecx, DWORD PTR _this$[ebp]
	jmp	??1?$_String_val@DV?$allocator@D@std@@@std@@QAE@XZ ; std::_String_val<char,std::allocator<char> >::~_String_val<char,std::allocator<char> >
__ehhandler$??0?$basic_string@DU?$char_traits@D@std@@V?$allocator@D@2@@std@@QAE@ABV01@@Z:
	mov	edx, DWORD PTR [esp+8]
	lea	eax, DWORD PTR [edx+12]
	mov	ecx, DWORD PTR [edx-12]
	xor	ecx, eax
	call	@__security_check_cookie@4
	mov	eax, OFFSET __ehfuncinfo$??0?$basic_string@DU?$char_traits@D@std@@V?$allocator@D@2@@std@@QAE@ABV01@@Z
	jmp	___CxxFrameHandler3
text$x	ENDS
??0?$basic_string@DU?$char_traits@D@std@@V?$allocator@D@2@@std@@QAE@ABV01@@Z ENDP ; std::basic_string<char,std::char_traits<char>,std::allocator<char> >::basic_string<char,std::char_traits<char>,std::allocator<char> >
PUBLIC	?assign@?$basic_string@DU?$char_traits@D@std@@V?$allocator@D@2@@std@@QAEAAV12@PBD@Z ; std::basic_string<char,std::char_traits<char>,std::allocator<char> >::assign
PUBLIC	??0?$allocator@D@std@@QAE@XZ			; std::allocator<char>::allocator<char>
;	COMDAT xdata$x
xdata$x	SEGMENT
__unwindtable$??0?$basic_string@DU?$char_traits@D@std@@V?$allocator@D@2@@std@@QAE@PBD@Z DD 0ffffffffH
	DD	FLAT:__unwindfunclet$??0?$basic_string@DU?$char_traits@D@std@@V?$allocator@D@2@@std@@QAE@PBD@Z$0
__ehfuncinfo$??0?$basic_string@DU?$char_traits@D@std@@V?$allocator@D@2@@std@@QAE@PBD@Z DD 019930522H
	DD	01H
	DD	FLAT:__unwindtable$??0?$basic_string@DU?$char_traits@D@std@@V?$allocator@D@2@@std@@QAE@PBD@Z
	DD	2 DUP(00H)
	DD	2 DUP(00H)
	DD	00H
	DD	01H
; Function compile flags: /Odtp
xdata$x	ENDS
;	COMDAT ??0?$basic_string@DU?$char_traits@D@std@@V?$allocator@D@2@@std@@QAE@PBD@Z
_TEXT	SEGMENT
_this$ = -20						; size = 4
$T105942 = -16						; size = 4
__$EHRec$ = -12						; size = 12
__Ptr$ = 8						; size = 4
??0?$basic_string@DU?$char_traits@D@std@@V?$allocator@D@2@@std@@QAE@PBD@Z PROC ; std::basic_string<char,std::char_traits<char>,std::allocator<char> >::basic_string<char,std::char_traits<char>,std::allocator<char> >, COMDAT
; _this$ = ecx
; Line 592
	push	ebp
	mov	ebp, esp
	push	-1
	push	__ehhandler$??0?$basic_string@DU?$char_traits@D@std@@V?$allocator@D@2@@std@@QAE@PBD@Z
	mov	eax, DWORD PTR fs:0
	push	eax
	sub	esp, 8
	mov	eax, DWORD PTR ___security_cookie
	xor	eax, ebp
	push	eax
	lea	eax, DWORD PTR __$EHRec$[ebp]
	mov	DWORD PTR fs:0, eax
	mov	DWORD PTR _this$[ebp], ecx
	push	ecx
	mov	ecx, esp
	mov	DWORD PTR $T105942[ebp], esp
	call	??0?$allocator@D@std@@QAE@XZ		; std::allocator<char>::allocator<char>
	mov	ecx, DWORD PTR _this$[ebp]
	call	??0?$_String_val@DV?$allocator@D@std@@@std@@QAE@V?$allocator@D@1@@Z ; std::_String_val<char,std::allocator<char> >::_String_val<char,std::allocator<char> >
	mov	DWORD PTR __$EHRec$[ebp+8], 0
; Line 593
	push	0
	push	0
	mov	ecx, DWORD PTR _this$[ebp]
	call	?_Tidy@?$basic_string@DU?$char_traits@D@std@@V?$allocator@D@2@@std@@QAEX_NI@Z ; std::basic_string<char,std::char_traits<char>,std::allocator<char> >::_Tidy
; Line 594
	mov	eax, DWORD PTR __Ptr$[ebp]
	push	eax
	mov	ecx, DWORD PTR _this$[ebp]
	call	?assign@?$basic_string@DU?$char_traits@D@std@@V?$allocator@D@2@@std@@QAEAAV12@PBD@Z ; std::basic_string<char,std::char_traits<char>,std::allocator<char> >::assign
; Line 595
	mov	DWORD PTR __$EHRec$[ebp+8], -1
	mov	eax, DWORD PTR _this$[ebp]
	mov	ecx, DWORD PTR __$EHRec$[ebp]
	mov	DWORD PTR fs:0, ecx
	pop	ecx
	mov	esp, ebp
	pop	ebp
	ret	4
_TEXT	ENDS
;	COMDAT text$x
text$x	SEGMENT
__unwindfunclet$??0?$basic_string@DU?$char_traits@D@std@@V?$allocator@D@2@@std@@QAE@PBD@Z$0:
	mov	ecx, DWORD PTR _this$[ebp]
	jmp	??1?$_String_val@DV?$allocator@D@std@@@std@@QAE@XZ ; std::_String_val<char,std::allocator<char> >::~_String_val<char,std::allocator<char> >
__ehhandler$??0?$basic_string@DU?$char_traits@D@std@@V?$allocator@D@2@@std@@QAE@PBD@Z:
	mov	edx, DWORD PTR [esp+8]
	lea	eax, DWORD PTR [edx+12]
	mov	ecx, DWORD PTR [edx-12]
	xor	ecx, eax
	call	@__security_check_cookie@4
	mov	eax, OFFSET __ehfuncinfo$??0?$basic_string@DU?$char_traits@D@std@@V?$allocator@D@2@@std@@QAE@PBD@Z
	jmp	___CxxFrameHandler3
text$x	ENDS
??0?$basic_string@DU?$char_traits@D@std@@V?$allocator@D@2@@std@@QAE@PBD@Z ENDP ; std::basic_string<char,std::char_traits<char>,std::allocator<char> >::basic_string<char,std::char_traits<char>,std::allocator<char> >
PUBLIC	?assign@?$basic_string@DU?$char_traits@D@std@@V?$allocator@D@2@@std@@QAEAAV12@$$QAV12@@Z ; std::basic_string<char,std::char_traits<char>,std::allocator<char> >::assign
PUBLIC	??$forward@V?$basic_string@DU?$char_traits@D@std@@V?$allocator@D@2@@std@@@std@@YA$$QAV?$basic_string@DU?$char_traits@D@std@@V?$allocator@D@2@@0@AAV10@@Z ; std::forward<std::basic_string<char,std::char_traits<char>,std::allocator<char> > >
PUBLIC	??$forward@V?$allocator@D@std@@@std@@YA$$QAV?$allocator@D@0@AAV10@@Z ; std::forward<std::allocator<char> >
;	COMDAT xdata$x
xdata$x	SEGMENT
__unwindtable$??0?$basic_string@DU?$char_traits@D@std@@V?$allocator@D@2@@std@@QAE@$$QAV01@@Z DD 0ffffffffH
	DD	FLAT:__unwindfunclet$??0?$basic_string@DU?$char_traits@D@std@@V?$allocator@D@2@@std@@QAE@$$QAV01@@Z$0
__ehfuncinfo$??0?$basic_string@DU?$char_traits@D@std@@V?$allocator@D@2@@std@@QAE@$$QAV01@@Z DD 019930522H
	DD	01H
	DD	FLAT:__unwindtable$??0?$basic_string@DU?$char_traits@D@std@@V?$allocator@D@2@@std@@QAE@$$QAV01@@Z
	DD	2 DUP(00H)
	DD	2 DUP(00H)
	DD	00H
	DD	01H
; Function compile flags: /Odtp
xdata$x	ENDS
;	COMDAT ??0?$basic_string@DU?$char_traits@D@std@@V?$allocator@D@2@@std@@QAE@$$QAV01@@Z
_TEXT	SEGMENT
_this$ = -20						; size = 4
$T105952 = -16						; size = 4
__$EHRec$ = -12						; size = 12
__Right$ = 8						; size = 4
??0?$basic_string@DU?$char_traits@D@std@@V?$allocator@D@2@@std@@QAE@$$QAV01@@Z PROC ; std::basic_string<char,std::char_traits<char>,std::allocator<char> >::basic_string<char,std::char_traits<char>,std::allocator<char> >, COMDAT
; _this$ = ecx
; Line 702
	push	ebp
	mov	ebp, esp
	push	-1
	push	__ehhandler$??0?$basic_string@DU?$char_traits@D@std@@V?$allocator@D@2@@std@@QAE@$$QAV01@@Z
	mov	eax, DWORD PTR fs:0
	push	eax
	sub	esp, 8
	mov	eax, DWORD PTR ___security_cookie
	xor	eax, ebp
	push	eax
	lea	eax, DWORD PTR __$EHRec$[ebp]
	mov	DWORD PTR fs:0, eax
	mov	DWORD PTR _this$[ebp], ecx
	mov	eax, DWORD PTR __Right$[ebp]
	add	eax, 24					; 00000018H
	push	eax
	call	??$forward@V?$allocator@D@std@@@std@@YA$$QAV?$allocator@D@0@AAV10@@Z ; std::forward<std::allocator<char> >
	mov	ecx, esp
	mov	DWORD PTR $T105952[ebp], esp
	push	eax
	call	??0?$allocator@D@std@@QAE@ABV01@@Z	; std::allocator<char>::allocator<char>
	mov	ecx, DWORD PTR _this$[ebp]
	call	??0?$_String_val@DV?$allocator@D@std@@@std@@QAE@V?$allocator@D@1@@Z ; std::_String_val<char,std::allocator<char> >::_String_val<char,std::allocator<char> >
	mov	DWORD PTR __$EHRec$[ebp+8], 0
; Line 703
	push	0
	push	0
	mov	ecx, DWORD PTR _this$[ebp]
	call	?_Tidy@?$basic_string@DU?$char_traits@D@std@@V?$allocator@D@2@@std@@QAEX_NI@Z ; std::basic_string<char,std::char_traits<char>,std::allocator<char> >::_Tidy
; Line 704
	mov	ecx, DWORD PTR __Right$[ebp]
	push	ecx
	call	??$forward@V?$basic_string@DU?$char_traits@D@std@@V?$allocator@D@2@@std@@@std@@YA$$QAV?$basic_string@DU?$char_traits@D@std@@V?$allocator@D@2@@0@AAV10@@Z ; std::forward<std::basic_string<char,std::char_traits<char>,std::allocator<char> > >
	add	esp, 4
	push	eax
	mov	ecx, DWORD PTR _this$[ebp]
	call	?assign@?$basic_string@DU?$char_traits@D@std@@V?$allocator@D@2@@std@@QAEAAV12@$$QAV12@@Z ; std::basic_string<char,std::char_traits<char>,std::allocator<char> >::assign
; Line 705
	mov	DWORD PTR __$EHRec$[ebp+8], -1
	mov	eax, DWORD PTR _this$[ebp]
	mov	ecx, DWORD PTR __$EHRec$[ebp]
	mov	DWORD PTR fs:0, ecx
	pop	ecx
	mov	esp, ebp
	pop	ebp
	ret	4
_TEXT	ENDS
;	COMDAT text$x
text$x	SEGMENT
__unwindfunclet$??0?$basic_string@DU?$char_traits@D@std@@V?$allocator@D@2@@std@@QAE@$$QAV01@@Z$0:
	mov	ecx, DWORD PTR _this$[ebp]
	jmp	??1?$_String_val@DV?$allocator@D@std@@@std@@QAE@XZ ; std::_String_val<char,std::allocator<char> >::~_String_val<char,std::allocator<char> >
__ehhandler$??0?$basic_string@DU?$char_traits@D@std@@V?$allocator@D@2@@std@@QAE@$$QAV01@@Z:
	mov	edx, DWORD PTR [esp+8]
	lea	eax, DWORD PTR [edx+12]
	mov	ecx, DWORD PTR [edx-12]
	xor	ecx, eax
	call	@__security_check_cookie@4
	mov	eax, OFFSET __ehfuncinfo$??0?$basic_string@DU?$char_traits@D@std@@V?$allocator@D@2@@std@@QAE@$$QAV01@@Z
	jmp	___CxxFrameHandler3
text$x	ENDS
??0?$basic_string@DU?$char_traits@D@std@@V?$allocator@D@2@@std@@QAE@$$QAV01@@Z ENDP ; std::basic_string<char,std::char_traits<char>,std::allocator<char> >::basic_string<char,std::char_traits<char>,std::allocator<char> >
;	COMDAT xdata$x
xdata$x	SEGMENT
__unwindtable$??1?$basic_string@DU?$char_traits@D@std@@V?$allocator@D@2@@std@@QAE@XZ DD 0ffffffffH
	DD	FLAT:__unwindfunclet$??1?$basic_string@DU?$char_traits@D@std@@V?$allocator@D@2@@std@@QAE@XZ$0
__ehfuncinfo$??1?$basic_string@DU?$char_traits@D@std@@V?$allocator@D@2@@std@@QAE@XZ DD 019930522H
	DD	01H
	DD	FLAT:__unwindtable$??1?$basic_string@DU?$char_traits@D@std@@V?$allocator@D@2@@std@@QAE@XZ
	DD	2 DUP(00H)
	DD	2 DUP(00H)
	DD	00H
	DD	01H
; Function compile flags: /Odtp
xdata$x	ENDS
;	COMDAT ??1?$basic_string@DU?$char_traits@D@std@@V?$allocator@D@2@@std@@QAE@XZ
_TEXT	SEGMENT
_this$ = -16						; size = 4
__$EHRec$ = -12						; size = 12
??1?$basic_string@DU?$char_traits@D@std@@V?$allocator@D@2@@std@@QAE@XZ PROC ; std::basic_string<char,std::char_traits<char>,std::allocator<char> >::~basic_string<char,std::char_traits<char>,std::allocator<char> >, COMDAT
; _this$ = ecx
; Line 752
	push	ebp
	mov	ebp, esp
	push	-1
	push	__ehhandler$??1?$basic_string@DU?$char_traits@D@std@@V?$allocator@D@2@@std@@QAE@XZ
	mov	eax, DWORD PTR fs:0
	push	eax
	push	ecx
	mov	eax, DWORD PTR ___security_cookie
	xor	eax, ebp
	push	eax
	lea	eax, DWORD PTR __$EHRec$[ebp]
	mov	DWORD PTR fs:0, eax
	mov	DWORD PTR _this$[ebp], ecx
	mov	DWORD PTR __$EHRec$[ebp+8], 0
; Line 753
	push	0
	push	1
	mov	ecx, DWORD PTR _this$[ebp]
	call	?_Tidy@?$basic_string@DU?$char_traits@D@std@@V?$allocator@D@2@@std@@QAEX_NI@Z ; std::basic_string<char,std::char_traits<char>,std::allocator<char> >::_Tidy
; Line 754
	mov	DWORD PTR __$EHRec$[ebp+8], -1
	mov	ecx, DWORD PTR _this$[ebp]
	call	??1?$_String_val@DV?$allocator@D@std@@@std@@QAE@XZ ; std::_String_val<char,std::allocator<char> >::~_String_val<char,std::allocator<char> >
	mov	ecx, DWORD PTR __$EHRec$[ebp]
	mov	DWORD PTR fs:0, ecx
	pop	ecx
	mov	esp, ebp
	pop	ebp
	ret	0
_TEXT	ENDS
;	COMDAT text$x
text$x	SEGMENT
__unwindfunclet$??1?$basic_string@DU?$char_traits@D@std@@V?$allocator@D@2@@std@@QAE@XZ$0:
	mov	ecx, DWORD PTR _this$[ebp]
	jmp	??1?$_String_val@DV?$allocator@D@std@@@std@@QAE@XZ ; std::_String_val<char,std::allocator<char> >::~_String_val<char,std::allocator<char> >
__ehhandler$??1?$basic_string@DU?$char_traits@D@std@@V?$allocator@D@2@@std@@QAE@XZ:
	mov	edx, DWORD PTR [esp+8]
	lea	eax, DWORD PTR [edx+12]
	mov	ecx, DWORD PTR [edx-8]
	xor	ecx, eax
	call	@__security_check_cookie@4
	mov	eax, OFFSET __ehfuncinfo$??1?$basic_string@DU?$char_traits@D@std@@V?$allocator@D@2@@std@@QAE@XZ
	jmp	___CxxFrameHandler3
text$x	ENDS
??1?$basic_string@DU?$char_traits@D@std@@V?$allocator@D@2@@std@@QAE@XZ ENDP ; std::basic_string<char,std::char_traits<char>,std::allocator<char> >::~basic_string<char,std::char_traits<char>,std::allocator<char> >
PUBLIC	?assign@?$basic_string@DU?$char_traits@D@std@@V?$allocator@D@2@@std@@QAEAAV12@ABV12@@Z ; std::basic_string<char,std::char_traits<char>,std::allocator<char> >::assign
; Function compile flags: /Odtp
;	COMDAT ??4?$basic_string@DU?$char_traits@D@std@@V?$allocator@D@2@@std@@QAEAAV01@ABV01@@Z
_TEXT	SEGMENT
_this$ = -4						; size = 4
__Right$ = 8						; size = 4
??4?$basic_string@DU?$char_traits@D@std@@V?$allocator@D@2@@std@@QAEAAV01@ABV01@@Z PROC ; std::basic_string<char,std::char_traits<char>,std::allocator<char> >::operator=, COMDAT
; _this$ = ecx
; Line 762
	push	ebp
	mov	ebp, esp
	push	ecx
	mov	DWORD PTR _this$[ebp], ecx
; Line 763
	mov	eax, DWORD PTR __Right$[ebp]
	push	eax
	mov	ecx, DWORD PTR _this$[ebp]
	call	?assign@?$basic_string@DU?$char_traits@D@std@@V?$allocator@D@2@@std@@QAEAAV12@ABV12@@Z ; std::basic_string<char,std::char_traits<char>,std::allocator<char> >::assign
; Line 764
	mov	esp, ebp
	pop	ebp
	ret	4
??4?$basic_string@DU?$char_traits@D@std@@V?$allocator@D@2@@std@@QAEAAV01@ABV01@@Z ENDP ; std::basic_string<char,std::char_traits<char>,std::allocator<char> >::operator=
; Function compile flags: /Odtp
_TEXT	ENDS
;	COMDAT ??4?$basic_string@DU?$char_traits@D@std@@V?$allocator@D@2@@std@@QAEAAV01@PBD@Z
_TEXT	SEGMENT
_this$ = -4						; size = 4
__Ptr$ = 8						; size = 4
??4?$basic_string@DU?$char_traits@D@std@@V?$allocator@D@2@@std@@QAEAAV01@PBD@Z PROC ; std::basic_string<char,std::char_traits<char>,std::allocator<char> >::operator=, COMDAT
; _this$ = ecx
; Line 767
	push	ebp
	mov	ebp, esp
	push	ecx
	mov	DWORD PTR _this$[ebp], ecx
; Line 768
	mov	eax, DWORD PTR __Ptr$[ebp]
	push	eax
	mov	ecx, DWORD PTR _this$[ebp]
	call	?assign@?$basic_string@DU?$char_traits@D@std@@V?$allocator@D@2@@std@@QAEAAV12@PBD@Z ; std::basic_string<char,std::char_traits<char>,std::allocator<char> >::assign
; Line 769
	mov	esp, ebp
	pop	ebp
	ret	4
??4?$basic_string@DU?$char_traits@D@std@@V?$allocator@D@2@@std@@QAEAAV01@PBD@Z ENDP ; std::basic_string<char,std::char_traits<char>,std::allocator<char> >::operator=
_TEXT	ENDS
PUBLIC	?_Myptr@?$basic_string@DU?$char_traits@D@std@@V?$allocator@D@2@@std@@QBEPBDXZ ; std::basic_string<char,std::char_traits<char>,std::allocator<char> >::_Myptr
; Function compile flags: /Odtp
;	COMDAT ?c_str@?$basic_string@DU?$char_traits@D@std@@V?$allocator@D@2@@std@@QBEPBDXZ
_TEXT	SEGMENT
_this$ = -4						; size = 4
?c_str@?$basic_string@DU?$char_traits@D@std@@V?$allocator@D@2@@std@@QBEPBDXZ PROC ; std::basic_string<char,std::char_traits<char>,std::allocator<char> >::c_str, COMDAT
; _this$ = ecx
; Line 1495
	push	ebp
	mov	ebp, esp
	push	ecx
	mov	DWORD PTR _this$[ebp], ecx
; Line 1496
	mov	ecx, DWORD PTR _this$[ebp]
	call	?_Myptr@?$basic_string@DU?$char_traits@D@std@@V?$allocator@D@2@@std@@QBEPBDXZ ; std::basic_string<char,std::char_traits<char>,std::allocator<char> >::_Myptr
; Line 1497
	mov	esp, ebp
	pop	ebp
	ret	0
?c_str@?$basic_string@DU?$char_traits@D@std@@V?$allocator@D@2@@std@@QBEPBDXZ ENDP ; std::basic_string<char,std::char_traits<char>,std::allocator<char> >::c_str
_TEXT	ENDS
PUBLIC	??1?$_Vector_val@PAVLogger@common@ibmras@@V?$allocator@PAVLogger@common@ibmras@@@std@@@std@@QAE@XZ ; std::_Vector_val<ibmras::common::Logger *,std::allocator<ibmras::common::Logger *> >::~_Vector_val<ibmras::common::Logger *,std::allocator<ibmras::common::Logger *> >
PUBLIC	?_Tidy@?$vector@PAVLogger@common@ibmras@@V?$allocator@PAVLogger@common@ibmras@@@std@@@std@@IAEXXZ ; std::vector<ibmras::common::Logger *,std::allocator<ibmras::common::Logger *> >::_Tidy
PUBLIC	??$_Ucopy@V?$_Vector_const_iterator@V?$_Vector_val@PAVLogger@common@ibmras@@V?$allocator@PAVLogger@common@ibmras@@@std@@@std@@@std@@@?$vector@PAVLogger@common@ibmras@@V?$allocator@PAVLogger@common@ibmras@@@std@@@std@@IAEPAPAVLogger@common@ibmras@@V?$_Vector_const_iterator@V?$_Vector_val@PAVLogger@common@ibmras@@V?$allocator@PAVLogger@common@ibmras@@@std@@@std@@@1@0PAPAV234@@Z ; std::vector<ibmras::common::Logger *,std::allocator<ibmras::common::Logger *> >::_Ucopy<std::_Vector_const_iterator<std::_Vector_val<ibmras::common::Logger *,std::allocator<ibmras::common::Logger *> > > >
PUBLIC	?begin@?$vector@PAVLogger@common@ibmras@@V?$allocator@PAVLogger@common@ibmras@@@std@@@std@@QBE?AV?$_Vector_const_iterator@V?$_Vector_val@PAVLogger@common@ibmras@@V?$allocator@PAVLogger@common@ibmras@@@std@@@std@@@2@XZ ; std::vector<ibmras::common::Logger *,std::allocator<ibmras::common::Logger *> >::begin
PUBLIC	?end@?$vector@PAVLogger@common@ibmras@@V?$allocator@PAVLogger@common@ibmras@@@std@@@std@@QBE?AV?$_Vector_const_iterator@V?$_Vector_val@PAVLogger@common@ibmras@@V?$allocator@PAVLogger@common@ibmras@@@std@@@std@@@2@XZ ; std::vector<ibmras::common::Logger *,std::allocator<ibmras::common::Logger *> >::end
PUBLIC	?_Buy@?$vector@PAVLogger@common@ibmras@@V?$allocator@PAVLogger@common@ibmras@@@std@@@std@@IAE_NI@Z ; std::vector<ibmras::common::Logger *,std::allocator<ibmras::common::Logger *> >::_Buy
PUBLIC	?size@?$vector@PAVLogger@common@ibmras@@V?$allocator@PAVLogger@common@ibmras@@@std@@@std@@QBEIXZ ; std::vector<ibmras::common::Logger *,std::allocator<ibmras::common::Logger *> >::size
PUBLIC	??0?$_Vector_val@PAVLogger@common@ibmras@@V?$allocator@PAVLogger@common@ibmras@@@std@@@std@@QAE@V?$allocator@PAVLogger@common@ibmras@@@1@@Z ; std::_Vector_val<ibmras::common::Logger *,std::allocator<ibmras::common::Logger *> >::_Vector_val<ibmras::common::Logger *,std::allocator<ibmras::common::Logger *> >
PUBLIC	??0?$allocator@PAVLogger@common@ibmras@@@std@@QAE@ABV01@@Z ; std::allocator<ibmras::common::Logger *>::allocator<ibmras::common::Logger *>
EXTRN	__CxxThrowException@8:PROC
;	COMDAT xdata$x
; File c:\program files (x86)\microsoft visual studio 10.0\vc\include\vector
xdata$x	SEGMENT
__catchsym$??0?$vector@PAVLogger@common@ibmras@@V?$allocator@PAVLogger@common@ibmras@@@std@@@std@@QAE@ABV01@@Z$3 DD 040H
	DD	00H
	DD	00H
	DD	FLAT:__catch$??0?$vector@PAVLogger@common@ibmras@@V?$allocator@PAVLogger@common@ibmras@@@std@@@std@@QAE@ABV01@@Z$0
__tryblocktable$??0?$vector@PAVLogger@common@ibmras@@V?$allocator@PAVLogger@common@ibmras@@@std@@@std@@QAE@ABV01@@Z DD 01H
	DD	01H
	DD	02H
	DD	01H
	DD	FLAT:__catchsym$??0?$vector@PAVLogger@common@ibmras@@V?$allocator@PAVLogger@common@ibmras@@@std@@@std@@QAE@ABV01@@Z$3
__unwindtable$??0?$vector@PAVLogger@common@ibmras@@V?$allocator@PAVLogger@common@ibmras@@@std@@@std@@QAE@ABV01@@Z DD 0ffffffffH
	DD	FLAT:__unwindfunclet$??0?$vector@PAVLogger@common@ibmras@@V?$allocator@PAVLogger@common@ibmras@@@std@@@std@@QAE@ABV01@@Z$2
	DD	00H
	DD	00H
	DD	00H
	DD	00H
__ehfuncinfo$??0?$vector@PAVLogger@common@ibmras@@V?$allocator@PAVLogger@common@ibmras@@@std@@@std@@QAE@ABV01@@Z DD 019930522H
	DD	03H
	DD	FLAT:__unwindtable$??0?$vector@PAVLogger@common@ibmras@@V?$allocator@PAVLogger@common@ibmras@@@std@@@std@@QAE@ABV01@@Z
	DD	01H
	DD	FLAT:__tryblocktable$??0?$vector@PAVLogger@common@ibmras@@V?$allocator@PAVLogger@common@ibmras@@@std@@@std@@QAE@ABV01@@Z
	DD	2 DUP(00H)
	DD	00H
	DD	01H
; Function compile flags: /Odtp
xdata$x	ENDS
;	COMDAT ??0?$vector@PAVLogger@common@ibmras@@V?$allocator@PAVLogger@common@ibmras@@@std@@@std@@QAE@ABV01@@Z
_TEXT	SEGMENT
tv157 = -44						; size = 4
tv156 = -40						; size = 4
tv69 = -36						; size = 4
_this$ = -32						; size = 4
$T105979 = -28						; size = 4
$T105978 = -24						; size = 4
$T105977 = -20						; size = 4
__$EHRec$ = -16						; size = 16
__Right$ = 8						; size = 4
??0?$vector@PAVLogger@common@ibmras@@V?$allocator@PAVLogger@common@ibmras@@@std@@@std@@QAE@ABV01@@Z PROC ; std::vector<ibmras::common::Logger *,std::allocator<ibmras::common::Logger *> >::vector<ibmras::common::Logger *,std::allocator<ibmras::common::Logger *> >, COMDAT
; _this$ = ecx
; Line 535
	push	ebp
	mov	ebp, esp
	push	-1
	push	__ehhandler$??0?$vector@PAVLogger@common@ibmras@@V?$allocator@PAVLogger@common@ibmras@@@std@@@std@@QAE@ABV01@@Z
	mov	eax, DWORD PTR fs:0
	push	eax
	push	ecx
	sub	esp, 28					; 0000001cH
	push	ebx
	push	esi
	push	edi
	mov	eax, DWORD PTR ___security_cookie
	xor	eax, ebp
	push	eax
	lea	eax, DWORD PTR __$EHRec$[ebp+4]
	mov	DWORD PTR fs:0, eax
	mov	DWORD PTR __$EHRec$[ebp], esp
	mov	DWORD PTR _this$[ebp], ecx
	mov	eax, DWORD PTR __Right$[ebp]
	add	eax, 12					; 0000000cH
	push	ecx
	mov	ecx, esp
	mov	DWORD PTR $T105977[ebp], esp
	push	eax
	call	??0?$allocator@PAVLogger@common@ibmras@@@std@@QAE@ABV01@@Z ; std::allocator<ibmras::common::Logger *>::allocator<ibmras::common::Logger *>
	mov	ecx, DWORD PTR _this$[ebp]
	call	??0?$_Vector_val@PAVLogger@common@ibmras@@V?$allocator@PAVLogger@common@ibmras@@@std@@@std@@QAE@V?$allocator@PAVLogger@common@ibmras@@@1@@Z ; std::_Vector_val<ibmras::common::Logger *,std::allocator<ibmras::common::Logger *> >::_Vector_val<ibmras::common::Logger *,std::allocator<ibmras::common::Logger *> >
	mov	DWORD PTR __$EHRec$[ebp+12], 0
; Line 536
	mov	ecx, DWORD PTR __Right$[ebp]
	call	?size@?$vector@PAVLogger@common@ibmras@@V?$allocator@PAVLogger@common@ibmras@@@std@@@std@@QBEIXZ ; std::vector<ibmras::common::Logger *,std::allocator<ibmras::common::Logger *> >::size
	push	eax
	mov	ecx, DWORD PTR _this$[ebp]
	call	?_Buy@?$vector@PAVLogger@common@ibmras@@V?$allocator@PAVLogger@common@ibmras@@@std@@@std@@IAE_NI@Z ; std::vector<ibmras::common::Logger *,std::allocator<ibmras::common::Logger *> >::_Buy
	movzx	ecx, al
	test	ecx, ecx
	je	SHORT $LN3@vector@2
; Line 537
	mov	BYTE PTR __$EHRec$[ebp+12], 1
; Line 539
	lea	edx, DWORD PTR $T105978[ebp]
	push	edx
	mov	ecx, DWORD PTR __Right$[ebp]
	call	?end@?$vector@PAVLogger@common@ibmras@@V?$allocator@PAVLogger@common@ibmras@@@std@@@std@@QBE?AV?$_Vector_const_iterator@V?$_Vector_val@PAVLogger@common@ibmras@@V?$allocator@PAVLogger@common@ibmras@@@std@@@std@@@2@XZ ; std::vector<ibmras::common::Logger *,std::allocator<ibmras::common::Logger *> >::end
	mov	DWORD PTR tv69[ebp], eax
	lea	eax, DWORD PTR $T105979[ebp]
	push	eax
	mov	ecx, DWORD PTR __Right$[ebp]
	call	?begin@?$vector@PAVLogger@common@ibmras@@V?$allocator@PAVLogger@common@ibmras@@@std@@@std@@QBE?AV?$_Vector_const_iterator@V?$_Vector_val@PAVLogger@common@ibmras@@V?$allocator@PAVLogger@common@ibmras@@@std@@@std@@@2@XZ ; std::vector<ibmras::common::Logger *,std::allocator<ibmras::common::Logger *> >::begin
	mov	DWORD PTR tv156[ebp], eax
	mov	ecx, DWORD PTR _this$[ebp]
	mov	edx, DWORD PTR [ecx]
	push	edx
	mov	eax, DWORD PTR tv69[ebp]
	mov	ecx, DWORD PTR [eax]
	push	ecx
	mov	edx, DWORD PTR tv156[ebp]
	mov	eax, DWORD PTR [edx]
	push	eax
	mov	ecx, DWORD PTR _this$[ebp]
	call	??$_Ucopy@V?$_Vector_const_iterator@V?$_Vector_val@PAVLogger@common@ibmras@@V?$allocator@PAVLogger@common@ibmras@@@std@@@std@@@std@@@?$vector@PAVLogger@common@ibmras@@V?$allocator@PAVLogger@common@ibmras@@@std@@@std@@IAEPAPAVLogger@common@ibmras@@V?$_Vector_const_iterator@V?$_Vector_val@PAVLogger@common@ibmras@@V?$allocator@PAVLogger@common@ibmras@@@std@@@std@@@1@0PAPAV234@@Z ; std::vector<ibmras::common::Logger *,std::allocator<ibmras::common::Logger *> >::_Ucopy<std::_Vector_const_iterator<std::_Vector_val<ibmras::common::Logger *,std::allocator<ibmras::common::Logger *> > > >
	mov	DWORD PTR tv157[ebp], eax
	mov	ecx, DWORD PTR _this$[ebp]
	mov	edx, DWORD PTR tv157[ebp]
	mov	DWORD PTR [ecx+4], edx
	jmp	SHORT $LN5@vector@2
__catch$??0?$vector@PAVLogger@common@ibmras@@V?$allocator@PAVLogger@common@ibmras@@@std@@@std@@QAE@ABV01@@Z$0:
; Line 541
	mov	ecx, DWORD PTR _this$[ebp]
	call	?_Tidy@?$vector@PAVLogger@common@ibmras@@V?$allocator@PAVLogger@common@ibmras@@@std@@@std@@IAEXXZ ; std::vector<ibmras::common::Logger *,std::allocator<ibmras::common::Logger *> >::_Tidy
; Line 542
	push	0
	push	0
	call	__CxxThrowException@8
; Line 543
	mov	DWORD PTR __$EHRec$[ebp+12], 0
	mov	eax, $LN3@vector@2
	ret	0
$LN5@vector@2:
	mov	DWORD PTR __$EHRec$[ebp+12], 0
$LN3@vector@2:
; Line 544
	mov	DWORD PTR __$EHRec$[ebp+12], -1
	mov	eax, DWORD PTR _this$[ebp]
$LN4@vector@2:
	mov	ecx, DWORD PTR __$EHRec$[ebp+4]
	mov	DWORD PTR fs:0, ecx
	pop	ecx
	pop	edi
	pop	esi
	pop	ebx
	mov	esp, ebp
	pop	ebp
	ret	4
_TEXT	ENDS
;	COMDAT text$x
text$x	SEGMENT
__unwindfunclet$??0?$vector@PAVLogger@common@ibmras@@V?$allocator@PAVLogger@common@ibmras@@@std@@@std@@QAE@ABV01@@Z$2:
	mov	ecx, DWORD PTR _this$[ebp]
	jmp	??1?$_Vector_val@PAVLogger@common@ibmras@@V?$allocator@PAVLogger@common@ibmras@@@std@@@std@@QAE@XZ ; std::_Vector_val<ibmras::common::Logger *,std::allocator<ibmras::common::Logger *> >::~_Vector_val<ibmras::common::Logger *,std::allocator<ibmras::common::Logger *> >
__ehhandler$??0?$vector@PAVLogger@common@ibmras@@V?$allocator@PAVLogger@common@ibmras@@@std@@@std@@QAE@ABV01@@Z:
	mov	edx, DWORD PTR [esp+8]
	lea	eax, DWORD PTR [edx+12]
	mov	ecx, DWORD PTR [edx-48]
	xor	ecx, eax
	call	@__security_check_cookie@4
	mov	eax, OFFSET __ehfuncinfo$??0?$vector@PAVLogger@common@ibmras@@V?$allocator@PAVLogger@common@ibmras@@@std@@@std@@QAE@ABV01@@Z
	jmp	___CxxFrameHandler3
text$x	ENDS
??0?$vector@PAVLogger@common@ibmras@@V?$allocator@PAVLogger@common@ibmras@@@std@@@std@@QAE@ABV01@@Z ENDP ; std::vector<ibmras::common::Logger *,std::allocator<ibmras::common::Logger *> >::vector<ibmras::common::Logger *,std::allocator<ibmras::common::Logger *> >
;	COMDAT xdata$x
xdata$x	SEGMENT
__unwindtable$??1?$vector@PAVLogger@common@ibmras@@V?$allocator@PAVLogger@common@ibmras@@@std@@@std@@QAE@XZ DD 0ffffffffH
	DD	FLAT:__unwindfunclet$??1?$vector@PAVLogger@common@ibmras@@V?$allocator@PAVLogger@common@ibmras@@@std@@@std@@QAE@XZ$0
__ehfuncinfo$??1?$vector@PAVLogger@common@ibmras@@V?$allocator@PAVLogger@common@ibmras@@@std@@@std@@QAE@XZ DD 019930522H
	DD	01H
	DD	FLAT:__unwindtable$??1?$vector@PAVLogger@common@ibmras@@V?$allocator@PAVLogger@common@ibmras@@@std@@@std@@QAE@XZ
	DD	2 DUP(00H)
	DD	2 DUP(00H)
	DD	00H
	DD	01H
; Function compile flags: /Odtp
xdata$x	ENDS
;	COMDAT ??1?$vector@PAVLogger@common@ibmras@@V?$allocator@PAVLogger@common@ibmras@@@std@@@std@@QAE@XZ
_TEXT	SEGMENT
_this$ = -16						; size = 4
__$EHRec$ = -12						; size = 12
??1?$vector@PAVLogger@common@ibmras@@V?$allocator@PAVLogger@common@ibmras@@@std@@@std@@QAE@XZ PROC ; std::vector<ibmras::common::Logger *,std::allocator<ibmras::common::Logger *> >::~vector<ibmras::common::Logger *,std::allocator<ibmras::common::Logger *> >, COMDAT
; _this$ = ecx
; Line 704
	push	ebp
	mov	ebp, esp
	push	-1
	push	__ehhandler$??1?$vector@PAVLogger@common@ibmras@@V?$allocator@PAVLogger@common@ibmras@@@std@@@std@@QAE@XZ
	mov	eax, DWORD PTR fs:0
	push	eax
	push	ecx
	mov	eax, DWORD PTR ___security_cookie
	xor	eax, ebp
	push	eax
	lea	eax, DWORD PTR __$EHRec$[ebp]
	mov	DWORD PTR fs:0, eax
	mov	DWORD PTR _this$[ebp], ecx
	mov	DWORD PTR __$EHRec$[ebp+8], 0
; Line 705
	mov	ecx, DWORD PTR _this$[ebp]
	call	?_Tidy@?$vector@PAVLogger@common@ibmras@@V?$allocator@PAVLogger@common@ibmras@@@std@@@std@@IAEXXZ ; std::vector<ibmras::common::Logger *,std::allocator<ibmras::common::Logger *> >::_Tidy
; Line 706
	mov	DWORD PTR __$EHRec$[ebp+8], -1
	mov	ecx, DWORD PTR _this$[ebp]
	call	??1?$_Vector_val@PAVLogger@common@ibmras@@V?$allocator@PAVLogger@common@ibmras@@@std@@@std@@QAE@XZ ; std::_Vector_val<ibmras::common::Logger *,std::allocator<ibmras::common::Logger *> >::~_Vector_val<ibmras::common::Logger *,std::allocator<ibmras::common::Logger *> >
	mov	ecx, DWORD PTR __$EHRec$[ebp]
	mov	DWORD PTR fs:0, ecx
	pop	ecx
	mov	esp, ebp
	pop	ebp
	ret	0
_TEXT	ENDS
;	COMDAT text$x
text$x	SEGMENT
__unwindfunclet$??1?$vector@PAVLogger@common@ibmras@@V?$allocator@PAVLogger@common@ibmras@@@std@@@std@@QAE@XZ$0:
	mov	ecx, DWORD PTR _this$[ebp]
	jmp	??1?$_Vector_val@PAVLogger@common@ibmras@@V?$allocator@PAVLogger@common@ibmras@@@std@@@std@@QAE@XZ ; std::_Vector_val<ibmras::common::Logger *,std::allocator<ibmras::common::Logger *> >::~_Vector_val<ibmras::common::Logger *,std::allocator<ibmras::common::Logger *> >
__ehhandler$??1?$vector@PAVLogger@common@ibmras@@V?$allocator@PAVLogger@common@ibmras@@@std@@@std@@QAE@XZ:
	mov	edx, DWORD PTR [esp+8]
	lea	eax, DWORD PTR [edx+12]
	mov	ecx, DWORD PTR [edx-8]
	xor	ecx, eax
	call	@__security_check_cookie@4
	mov	eax, OFFSET __ehfuncinfo$??1?$vector@PAVLogger@common@ibmras@@V?$allocator@PAVLogger@common@ibmras@@@std@@@std@@QAE@XZ
	jmp	___CxxFrameHandler3
text$x	ENDS
??1?$vector@PAVLogger@common@ibmras@@V?$allocator@PAVLogger@common@ibmras@@@std@@@std@@QAE@XZ ENDP ; std::vector<ibmras::common::Logger *,std::allocator<ibmras::common::Logger *> >::~vector<ibmras::common::Logger *,std::allocator<ibmras::common::Logger *> >
PUBLIC	?deallocate@?$allocator@PAVLogger@common@ibmras@@@std@@QAEXPAPAVLogger@common@ibmras@@I@Z ; std::allocator<ibmras::common::Logger *>::deallocate
PUBLIC	??$_Ucopy@PAPAVLogger@common@ibmras@@@?$vector@PAVLogger@common@ibmras@@V?$allocator@PAVLogger@common@ibmras@@@std@@@std@@IAEPAPAVLogger@common@ibmras@@PAPAV234@00@Z ; std::vector<ibmras::common::Logger *,std::allocator<ibmras::common::Logger *> >::_Ucopy<ibmras::common::Logger * *>
PUBLIC	?capacity@?$vector@PAVLogger@common@ibmras@@V?$allocator@PAVLogger@common@ibmras@@@std@@@std@@QBEIXZ ; std::vector<ibmras::common::Logger *,std::allocator<ibmras::common::Logger *> >::capacity
PUBLIC	?_Destroy@?$vector@PAVLogger@common@ibmras@@V?$allocator@PAVLogger@common@ibmras@@@std@@@std@@IAEXPAPAVLogger@common@ibmras@@0@Z ; std::vector<ibmras::common::Logger *,std::allocator<ibmras::common::Logger *> >::_Destroy
PUBLIC	??$_Copy_impl@PAPAVLogger@common@ibmras@@PAPAV123@@std@@YAPAPAVLogger@common@ibmras@@PAPAV123@00@Z ; std::_Copy_impl<ibmras::common::Logger * *,ibmras::common::Logger * *>
PUBLIC	?clear@?$vector@PAVLogger@common@ibmras@@V?$allocator@PAVLogger@common@ibmras@@@std@@@std@@QAEXXZ ; std::vector<ibmras::common::Logger *,std::allocator<ibmras::common::Logger *> >::clear
EXTRN	__imp_?_Orphan_all@_Container_base0@std@@QAEXXZ:PROC
; Function compile flags: /Odtp
;	COMDAT ??4?$vector@PAVLogger@common@ibmras@@V?$allocator@PAVLogger@common@ibmras@@@std@@@std@@QAEAAV01@ABV01@@Z
_TEXT	SEGMENT
_this$ = -12						; size = 4
__Ptr$101260 = -8					; size = 4
__Ptr$101250 = -4					; size = 4
__Right$ = 8						; size = 4
??4?$vector@PAVLogger@common@ibmras@@V?$allocator@PAVLogger@common@ibmras@@@std@@@std@@QAEAAV01@ABV01@@Z PROC ; std::vector<ibmras::common::Logger *,std::allocator<ibmras::common::Logger *> >::operator=, COMDAT
; _this$ = ecx
; Line 709
	push	ebp
	mov	ebp, esp
	sub	esp, 12					; 0000000cH
	push	esi
	mov	DWORD PTR _this$[ebp], ecx
; Line 710
	mov	eax, DWORD PTR _this$[ebp]
	cmp	eax, DWORD PTR __Right$[ebp]
	je	$LN9@operator
; Line 712
	mov	ecx, DWORD PTR _this$[ebp]
	call	DWORD PTR __imp_?_Orphan_all@_Container_base0@std@@QAEXXZ
; Line 714
	mov	ecx, DWORD PTR __Right$[ebp]
	call	?size@?$vector@PAVLogger@common@ibmras@@V?$allocator@PAVLogger@common@ibmras@@@std@@@std@@QBEIXZ ; std::vector<ibmras::common::Logger *,std::allocator<ibmras::common::Logger *> >::size
	test	eax, eax
	jne	SHORT $LN8@operator
; Line 715
	mov	ecx, DWORD PTR _this$[ebp]
	call	?clear@?$vector@PAVLogger@common@ibmras@@V?$allocator@PAVLogger@common@ibmras@@@std@@@std@@QAEXXZ ; std::vector<ibmras::common::Logger *,std::allocator<ibmras::common::Logger *> >::clear
	jmp	$LN9@operator
$LN8@operator:
; Line 716
	mov	ecx, DWORD PTR __Right$[ebp]
	call	?size@?$vector@PAVLogger@common@ibmras@@V?$allocator@PAVLogger@common@ibmras@@@std@@@std@@QBEIXZ ; std::vector<ibmras::common::Logger *,std::allocator<ibmras::common::Logger *> >::size
	mov	esi, eax
	mov	ecx, DWORD PTR _this$[ebp]
	call	?size@?$vector@PAVLogger@common@ibmras@@V?$allocator@PAVLogger@common@ibmras@@@std@@@std@@QBEIXZ ; std::vector<ibmras::common::Logger *,std::allocator<ibmras::common::Logger *> >::size
	cmp	esi, eax
	ja	SHORT $LN6@operator
; Line 719
	mov	ecx, DWORD PTR _this$[ebp]
	mov	edx, DWORD PTR [ecx]
	push	edx
	mov	eax, DWORD PTR __Right$[ebp]
	mov	ecx, DWORD PTR [eax+4]
	push	ecx
	mov	edx, DWORD PTR __Right$[ebp]
	mov	eax, DWORD PTR [edx]
	push	eax
	call	??$_Copy_impl@PAPAVLogger@common@ibmras@@PAPAV123@@std@@YAPAPAVLogger@common@ibmras@@PAPAV123@00@Z ; std::_Copy_impl<ibmras::common::Logger * *,ibmras::common::Logger * *>
	add	esp, 12					; 0000000cH
	mov	DWORD PTR __Ptr$101250[ebp], eax
; Line 720
	mov	ecx, DWORD PTR _this$[ebp]
	mov	edx, DWORD PTR [ecx+4]
	push	edx
	mov	eax, DWORD PTR __Ptr$101250[ebp]
	push	eax
	mov	ecx, DWORD PTR _this$[ebp]
	call	?_Destroy@?$vector@PAVLogger@common@ibmras@@V?$allocator@PAVLogger@common@ibmras@@@std@@@std@@IAEXPAPAVLogger@common@ibmras@@0@Z ; std::vector<ibmras::common::Logger *,std::allocator<ibmras::common::Logger *> >::_Destroy
; Line 721
	mov	ecx, DWORD PTR __Right$[ebp]
	call	?size@?$vector@PAVLogger@common@ibmras@@V?$allocator@PAVLogger@common@ibmras@@@std@@@std@@QBEIXZ ; std::vector<ibmras::common::Logger *,std::allocator<ibmras::common::Logger *> >::size
	mov	ecx, DWORD PTR _this$[ebp]
	mov	edx, DWORD PTR [ecx]
	lea	eax, DWORD PTR [edx+eax*4]
	mov	ecx, DWORD PTR _this$[ebp]
	mov	DWORD PTR [ecx+4], eax
	jmp	$LN9@operator
$LN6@operator:
; Line 723
	mov	ecx, DWORD PTR __Right$[ebp]
	call	?size@?$vector@PAVLogger@common@ibmras@@V?$allocator@PAVLogger@common@ibmras@@@std@@@std@@QBEIXZ ; std::vector<ibmras::common::Logger *,std::allocator<ibmras::common::Logger *> >::size
	mov	esi, eax
	mov	ecx, DWORD PTR _this$[ebp]
	call	?capacity@?$vector@PAVLogger@common@ibmras@@V?$allocator@PAVLogger@common@ibmras@@@std@@@std@@QBEIXZ ; std::vector<ibmras::common::Logger *,std::allocator<ibmras::common::Logger *> >::capacity
	cmp	esi, eax
	ja	SHORT $LN4@operator
; Line 725
	mov	ecx, DWORD PTR _this$[ebp]
	call	?size@?$vector@PAVLogger@common@ibmras@@V?$allocator@PAVLogger@common@ibmras@@@std@@@std@@QBEIXZ ; std::vector<ibmras::common::Logger *,std::allocator<ibmras::common::Logger *> >::size
	mov	edx, DWORD PTR __Right$[ebp]
	mov	ecx, DWORD PTR [edx]
	lea	edx, DWORD PTR [ecx+eax*4]
	mov	DWORD PTR __Ptr$101260[ebp], edx
; Line 726
	mov	eax, DWORD PTR _this$[ebp]
	mov	ecx, DWORD PTR [eax]
	push	ecx
	mov	edx, DWORD PTR __Ptr$101260[ebp]
	push	edx
	mov	eax, DWORD PTR __Right$[ebp]
	mov	ecx, DWORD PTR [eax]
	push	ecx
	call	??$_Copy_impl@PAPAVLogger@common@ibmras@@PAPAV123@@std@@YAPAPAVLogger@common@ibmras@@PAPAV123@00@Z ; std::_Copy_impl<ibmras::common::Logger * *,ibmras::common::Logger * *>
	add	esp, 12					; 0000000cH
; Line 727
	mov	edx, DWORD PTR _this$[ebp]
	mov	eax, DWORD PTR [edx+4]
	push	eax
	mov	ecx, DWORD PTR __Right$[ebp]
	mov	edx, DWORD PTR [ecx+4]
	push	edx
	mov	eax, DWORD PTR __Ptr$101260[ebp]
	push	eax
	mov	ecx, DWORD PTR _this$[ebp]
	call	??$_Ucopy@PAPAVLogger@common@ibmras@@@?$vector@PAVLogger@common@ibmras@@V?$allocator@PAVLogger@common@ibmras@@@std@@@std@@IAEPAPAVLogger@common@ibmras@@PAPAV234@00@Z ; std::vector<ibmras::common::Logger *,std::allocator<ibmras::common::Logger *> >::_Ucopy<ibmras::common::Logger * *>
	mov	ecx, DWORD PTR _this$[ebp]
	mov	DWORD PTR [ecx+4], eax
; Line 729
	jmp	SHORT $LN9@operator
$LN4@operator:
; Line 731
	mov	edx, DWORD PTR _this$[ebp]
	cmp	DWORD PTR [edx], 0
	je	SHORT $LN2@operator
; Line 733
	mov	eax, DWORD PTR _this$[ebp]
	mov	ecx, DWORD PTR [eax+4]
	push	ecx
	mov	edx, DWORD PTR _this$[ebp]
	mov	eax, DWORD PTR [edx]
	push	eax
	mov	ecx, DWORD PTR _this$[ebp]
	call	?_Destroy@?$vector@PAVLogger@common@ibmras@@V?$allocator@PAVLogger@common@ibmras@@@std@@@std@@IAEXPAPAVLogger@common@ibmras@@0@Z ; std::vector<ibmras::common::Logger *,std::allocator<ibmras::common::Logger *> >::_Destroy
; Line 735
	mov	ecx, DWORD PTR _this$[ebp]
	mov	edx, DWORD PTR _this$[ebp]
	mov	eax, DWORD PTR [ecx+8]
	sub	eax, DWORD PTR [edx]
	sar	eax, 2
	push	eax
	mov	ecx, DWORD PTR _this$[ebp]
	mov	edx, DWORD PTR [ecx]
	push	edx
	mov	ecx, DWORD PTR _this$[ebp]
	add	ecx, 12					; 0000000cH
	call	?deallocate@?$allocator@PAVLogger@common@ibmras@@@std@@QAEXPAPAVLogger@common@ibmras@@I@Z ; std::allocator<ibmras::common::Logger *>::deallocate
$LN2@operator:
; Line 737
	mov	ecx, DWORD PTR __Right$[ebp]
	call	?size@?$vector@PAVLogger@common@ibmras@@V?$allocator@PAVLogger@common@ibmras@@@std@@@std@@QBEIXZ ; std::vector<ibmras::common::Logger *,std::allocator<ibmras::common::Logger *> >::size
	push	eax
	mov	ecx, DWORD PTR _this$[ebp]
	call	?_Buy@?$vector@PAVLogger@common@ibmras@@V?$allocator@PAVLogger@common@ibmras@@@std@@@std@@IAE_NI@Z ; std::vector<ibmras::common::Logger *,std::allocator<ibmras::common::Logger *> >::_Buy
	movzx	eax, al
	test	eax, eax
	je	SHORT $LN9@operator
; Line 739
	mov	ecx, DWORD PTR _this$[ebp]
	mov	edx, DWORD PTR [ecx]
	push	edx
	mov	eax, DWORD PTR __Right$[ebp]
	mov	ecx, DWORD PTR [eax+4]
	push	ecx
	mov	edx, DWORD PTR __Right$[ebp]
	mov	eax, DWORD PTR [edx]
	push	eax
	mov	ecx, DWORD PTR _this$[ebp]
	call	??$_Ucopy@PAPAVLogger@common@ibmras@@@?$vector@PAVLogger@common@ibmras@@V?$allocator@PAVLogger@common@ibmras@@@std@@@std@@IAEPAPAVLogger@common@ibmras@@PAPAV234@00@Z ; std::vector<ibmras::common::Logger *,std::allocator<ibmras::common::Logger *> >::_Ucopy<ibmras::common::Logger * *>
	mov	ecx, DWORD PTR _this$[ebp]
	mov	DWORD PTR [ecx+4], eax
$LN9@operator:
; Line 742
	mov	eax, DWORD PTR _this$[ebp]
; Line 743
	pop	esi
	mov	esp, ebp
	pop	ebp
	ret	4
??4?$vector@PAVLogger@common@ibmras@@V?$allocator@PAVLogger@common@ibmras@@@std@@@std@@QAEAAV01@ABV01@@Z ENDP ; std::vector<ibmras::common::Logger *,std::allocator<ibmras::common::Logger *> >::operator=
_TEXT	ENDS
PUBLIC	?move@?$char_traits@D@std@@SAPADPADPBDI@Z	; std::char_traits<char>::move
PUBLIC	??$?9DD@std@@YA_NABV?$allocator@D@0@0@Z		; std::operator!=<char,char>
PUBLIC	?get_allocator@?$basic_string@DU?$char_traits@D@std@@V?$allocator@D@2@@std@@QBE?AV?$allocator@D@2@XZ ; std::basic_string<char,std::char_traits<char>,std::allocator<char> >::get_allocator
; Function compile flags: /Odtp
;	COMDAT ?assign@?$basic_string@DU?$char_traits@D@std@@V?$allocator@D@2@@std@@QAEAAV12@$$QAV12@@Z
_TEXT	SEGMENT
_this$ = -8						; size = 4
$T106009 = -2						; size = 1
$T106008 = -1						; size = 1
__Right$ = 8						; size = 4
?assign@?$basic_string@DU?$char_traits@D@std@@V?$allocator@D@2@@std@@QAEAAV12@$$QAV12@@Z PROC ; std::basic_string<char,std::char_traits<char>,std::allocator<char> >::assign, COMDAT
; _this$ = ecx
; File c:\program files (x86)\microsoft visual studio 10.0\vc\include\xstring
; Line 713
	push	ebp
	mov	ebp, esp
	sub	esp, 8
	mov	DWORD PTR _this$[ebp], ecx
; Line 714
	mov	eax, DWORD PTR _this$[ebp]
	cmp	eax, DWORD PTR __Right$[ebp]
	jne	SHORT $LN6@assign
; Line 716
	jmp	$LN5@assign
$LN6@assign:
; Line 717
	lea	ecx, DWORD PTR $T106008[ebp]
	push	ecx
	mov	ecx, DWORD PTR __Right$[ebp]
	call	?get_allocator@?$basic_string@DU?$char_traits@D@std@@V?$allocator@D@2@@std@@QBE?AV?$allocator@D@2@XZ ; std::basic_string<char,std::char_traits<char>,std::allocator<char> >::get_allocator
	push	eax
	lea	edx, DWORD PTR $T106009[ebp]
	push	edx
	mov	ecx, DWORD PTR _this$[ebp]
	call	?get_allocator@?$basic_string@DU?$char_traits@D@std@@V?$allocator@D@2@@std@@QBE?AV?$allocator@D@2@XZ ; std::basic_string<char,std::char_traits<char>,std::allocator<char> >::get_allocator
	push	eax
	call	??$?9DD@std@@YA_NABV?$allocator@D@0@0@Z	; std::operator!=<char,char>
	add	esp, 8
	movzx	eax, al
	test	eax, eax
	je	SHORT $LN4@assign
	mov	ecx, DWORD PTR __Right$[ebp]
	cmp	DWORD PTR [ecx+20], 16			; 00000010H
	jb	SHORT $LN4@assign
; Line 718
	mov	edx, DWORD PTR __Right$[ebp]
	push	edx
	mov	ecx, DWORD PTR _this$[ebp]
	call	??4?$basic_string@DU?$char_traits@D@std@@V?$allocator@D@2@@std@@QAEAAV01@ABV01@@Z ; std::basic_string<char,std::char_traits<char>,std::allocator<char> >::operator=
; Line 719
	jmp	SHORT $LN5@assign
$LN4@assign:
; Line 721
	push	0
	push	1
	mov	ecx, DWORD PTR _this$[ebp]
	call	?_Tidy@?$basic_string@DU?$char_traits@D@std@@V?$allocator@D@2@@std@@QAEX_NI@Z ; std::basic_string<char,std::char_traits<char>,std::allocator<char> >::_Tidy
; Line 722
	mov	eax, DWORD PTR __Right$[ebp]
	cmp	DWORD PTR [eax+20], 16			; 00000010H
	jae	SHORT $LN2@assign
; Line 724
	mov	ecx, DWORD PTR __Right$[ebp]
	mov	edx, DWORD PTR [ecx+16]
	add	edx, 1
	push	edx
	mov	eax, DWORD PTR __Right$[ebp]
	push	eax
	mov	ecx, DWORD PTR _this$[ebp]
	push	ecx
	call	?move@?$char_traits@D@std@@SAPADPADPBDI@Z ; std::char_traits<char>::move
	add	esp, 12					; 0000000cH
; Line 725
	jmp	SHORT $LN1@assign
$LN2@assign:
; Line 727
	mov	edx, DWORD PTR _this$[ebp]
	mov	eax, DWORD PTR __Right$[ebp]
	mov	ecx, DWORD PTR [eax]
	mov	DWORD PTR [edx], ecx
; Line 728
	mov	edx, DWORD PTR __Right$[ebp]
	mov	DWORD PTR [edx], 0
$LN1@assign:
; Line 730
	mov	eax, DWORD PTR _this$[ebp]
	mov	ecx, DWORD PTR __Right$[ebp]
	mov	edx, DWORD PTR [ecx+16]
	mov	DWORD PTR [eax+16], edx
; Line 731
	mov	eax, DWORD PTR _this$[ebp]
	mov	ecx, DWORD PTR __Right$[ebp]
	mov	edx, DWORD PTR [ecx+20]
	mov	DWORD PTR [eax+20], edx
; Line 733
	push	0
	push	0
	mov	ecx, DWORD PTR __Right$[ebp]
	call	?_Tidy@?$basic_string@DU?$char_traits@D@std@@V?$allocator@D@2@@std@@QAEX_NI@Z ; std::basic_string<char,std::char_traits<char>,std::allocator<char> >::_Tidy
$LN5@assign:
; Line 735
	mov	eax, DWORD PTR _this$[ebp]
; Line 736
	mov	esp, ebp
	pop	ebp
	ret	4
?assign@?$basic_string@DU?$char_traits@D@std@@V?$allocator@D@2@@std@@QAEAAV12@$$QAV12@@Z ENDP ; std::basic_string<char,std::char_traits<char>,std::allocator<char> >::assign
_TEXT	ENDS
EXTRN	__imp__memmove:PROC
; Function compile flags: /Odtp
;	COMDAT ?move@?$char_traits@D@std@@SAPADPADPBDI@Z
_TEXT	SEGMENT
__First1$ = 8						; size = 4
__First2$ = 12						; size = 4
__Count$ = 16						; size = 4
?move@?$char_traits@D@std@@SAPADPADPBDI@Z PROC		; std::char_traits<char>::move, COMDAT
; File c:\program files (x86)\microsoft visual studio 10.0\vc\include\iosfwd
; Line 516
	push	ebp
	mov	ebp, esp
; Line 517
	mov	eax, DWORD PTR __Count$[ebp]
	push	eax
	mov	ecx, DWORD PTR __First2$[ebp]
	push	ecx
	mov	edx, DWORD PTR __First1$[ebp]
	push	edx
	call	DWORD PTR __imp__memmove
	add	esp, 12					; 0000000cH
; Line 518
	pop	ebp
	ret	0
?move@?$char_traits@D@std@@SAPADPADPBDI@Z ENDP		; std::char_traits<char>::move
; Function compile flags: /Odtp
_TEXT	ENDS
;	COMDAT ?assign@?$basic_string@DU?$char_traits@D@std@@V?$allocator@D@2@@std@@QAEAAV12@ABV12@@Z
_TEXT	SEGMENT
_this$ = -4						; size = 4
__Right$ = 8						; size = 4
?assign@?$basic_string@DU?$char_traits@D@std@@V?$allocator@D@2@@std@@QAEAAV12@ABV12@@Z PROC ; std::basic_string<char,std::char_traits<char>,std::allocator<char> >::assign, COMDAT
; _this$ = ecx
; File c:\program files (x86)\microsoft visual studio 10.0\vc\include\xstring
; Line 886
	push	ebp
	mov	ebp, esp
	push	ecx
	mov	DWORD PTR _this$[ebp], ecx
; Line 887
	mov	eax, DWORD PTR ?npos@?$basic_string@DU?$char_traits@D@std@@V?$allocator@D@2@@std@@2IB ; std::basic_string<char,std::char_traits<char>,std::allocator<char> >::npos
	push	eax
	push	0
	mov	ecx, DWORD PTR __Right$[ebp]
	push	ecx
	mov	ecx, DWORD PTR _this$[ebp]
	call	?assign@?$basic_string@DU?$char_traits@D@std@@V?$allocator@D@2@@std@@QAEAAV12@ABV12@II@Z ; std::basic_string<char,std::char_traits<char>,std::allocator<char> >::assign
; Line 888
	mov	esp, ebp
	pop	ebp
	ret	4
?assign@?$basic_string@DU?$char_traits@D@std@@V?$allocator@D@2@@std@@QAEAAV12@ABV12@@Z ENDP ; std::basic_string<char,std::char_traits<char>,std::allocator<char> >::assign
_TEXT	ENDS
PUBLIC	?_Eos@?$basic_string@DU?$char_traits@D@std@@V?$allocator@D@2@@std@@QAEXI@Z ; std::basic_string<char,std::char_traits<char>,std::allocator<char> >::_Eos
PUBLIC	?copy@?$char_traits@D@std@@SAPADPADPBDI@Z	; std::char_traits<char>::copy
PUBLIC	?_Myptr@?$basic_string@DU?$char_traits@D@std@@V?$allocator@D@2@@std@@QAEPADXZ ; std::basic_string<char,std::char_traits<char>,std::allocator<char> >::_Myptr
PUBLIC	?_Grow@?$basic_string@DU?$char_traits@D@std@@V?$allocator@D@2@@std@@QAE_NI_N@Z ; std::basic_string<char,std::char_traits<char>,std::allocator<char> >::_Grow
PUBLIC	?erase@?$basic_string@DU?$char_traits@D@std@@V?$allocator@D@2@@std@@QAEAAV12@II@Z ; std::basic_string<char,std::char_traits<char>,std::allocator<char> >::erase
PUBLIC	?_Xran@?$basic_string@DU?$char_traits@D@std@@V?$allocator@D@2@@std@@QBEXXZ ; std::basic_string<char,std::char_traits<char>,std::allocator<char> >::_Xran
PUBLIC	?size@?$basic_string@DU?$char_traits@D@std@@V?$allocator@D@2@@std@@QBEIXZ ; std::basic_string<char,std::char_traits<char>,std::allocator<char> >::size
; Function compile flags: /Odtp
;	COMDAT ?assign@?$basic_string@DU?$char_traits@D@std@@V?$allocator@D@2@@std@@QAEAAV12@ABV12@II@Z
_TEXT	SEGMENT
_this$ = -8						; size = 4
__Num$ = -4						; size = 4
__Right$ = 8						; size = 4
__Roff$ = 12						; size = 4
__Count$ = 16						; size = 4
?assign@?$basic_string@DU?$char_traits@D@std@@V?$allocator@D@2@@std@@QAEAAV12@ABV12@II@Z PROC ; std::basic_string<char,std::char_traits<char>,std::allocator<char> >::assign, COMDAT
; _this$ = ecx
; Line 892
	push	ebp
	mov	ebp, esp
	sub	esp, 8
	mov	DWORD PTR _this$[ebp], ecx
; Line 893
	mov	ecx, DWORD PTR __Right$[ebp]
	call	?size@?$basic_string@DU?$char_traits@D@std@@V?$allocator@D@2@@std@@QBEIXZ ; std::basic_string<char,std::char_traits<char>,std::allocator<char> >::size
	cmp	eax, DWORD PTR __Roff$[ebp]
	jae	SHORT $LN5@assign@2
; Line 894
	mov	ecx, DWORD PTR _this$[ebp]
	call	?_Xran@?$basic_string@DU?$char_traits@D@std@@V?$allocator@D@2@@std@@QBEXXZ ; std::basic_string<char,std::char_traits<char>,std::allocator<char> >::_Xran
$LN5@assign@2:
; Line 895
	mov	ecx, DWORD PTR __Right$[ebp]
	call	?size@?$basic_string@DU?$char_traits@D@std@@V?$allocator@D@2@@std@@QBEIXZ ; std::basic_string<char,std::char_traits<char>,std::allocator<char> >::size
	sub	eax, DWORD PTR __Roff$[ebp]
	mov	DWORD PTR __Num$[ebp], eax
; Line 896
	mov	eax, DWORD PTR __Count$[ebp]
	cmp	eax, DWORD PTR __Num$[ebp]
	jae	SHORT $LN4@assign@2
; Line 897
	mov	ecx, DWORD PTR __Count$[ebp]
	mov	DWORD PTR __Num$[ebp], ecx
$LN4@assign@2:
; Line 899
	mov	edx, DWORD PTR _this$[ebp]
	cmp	edx, DWORD PTR __Right$[ebp]
	jne	SHORT $LN3@assign@2
; Line 900
	mov	eax, DWORD PTR ?npos@?$basic_string@DU?$char_traits@D@std@@V?$allocator@D@2@@std@@2IB ; std::basic_string<char,std::char_traits<char>,std::allocator<char> >::npos
	push	eax
	mov	ecx, DWORD PTR __Roff$[ebp]
	add	ecx, DWORD PTR __Num$[ebp]
	push	ecx
	mov	ecx, DWORD PTR _this$[ebp]
	call	?erase@?$basic_string@DU?$char_traits@D@std@@V?$allocator@D@2@@std@@QAEAAV12@II@Z ; std::basic_string<char,std::char_traits<char>,std::allocator<char> >::erase
	mov	edx, DWORD PTR __Roff$[ebp]
	push	edx
	push	0
	mov	ecx, DWORD PTR _this$[ebp]
	call	?erase@?$basic_string@DU?$char_traits@D@std@@V?$allocator@D@2@@std@@QAEAAV12@II@Z ; std::basic_string<char,std::char_traits<char>,std::allocator<char> >::erase
	jmp	SHORT $LN2@assign@2
$LN3@assign@2:
; Line 901
	push	0
	mov	eax, DWORD PTR __Num$[ebp]
	push	eax
	mov	ecx, DWORD PTR _this$[ebp]
	call	?_Grow@?$basic_string@DU?$char_traits@D@std@@V?$allocator@D@2@@std@@QAE_NI_N@Z ; std::basic_string<char,std::char_traits<char>,std::allocator<char> >::_Grow
	movzx	ecx, al
	test	ecx, ecx
	je	SHORT $LN2@assign@2
; Line 903
	mov	edx, DWORD PTR __Num$[ebp]
	push	edx
	mov	ecx, DWORD PTR __Right$[ebp]
	call	?_Myptr@?$basic_string@DU?$char_traits@D@std@@V?$allocator@D@2@@std@@QBEPBDXZ ; std::basic_string<char,std::char_traits<char>,std::allocator<char> >::_Myptr
	add	eax, DWORD PTR __Roff$[ebp]
	push	eax
	mov	ecx, DWORD PTR _this$[ebp]
	call	?_Myptr@?$basic_string@DU?$char_traits@D@std@@V?$allocator@D@2@@std@@QAEPADXZ ; std::basic_string<char,std::char_traits<char>,std::allocator<char> >::_Myptr
	push	eax
	call	?copy@?$char_traits@D@std@@SAPADPADPBDI@Z ; std::char_traits<char>::copy
	add	esp, 12					; 0000000cH
; Line 904
	mov	eax, DWORD PTR __Num$[ebp]
	push	eax
	mov	ecx, DWORD PTR _this$[ebp]
	call	?_Eos@?$basic_string@DU?$char_traits@D@std@@V?$allocator@D@2@@std@@QAEXI@Z ; std::basic_string<char,std::char_traits<char>,std::allocator<char> >::_Eos
$LN2@assign@2:
; Line 906
	mov	eax, DWORD PTR _this$[ebp]
$LN7@assign@2:
; Line 907
	mov	esp, ebp
	pop	ebp
	ret	12					; 0000000cH
?assign@?$basic_string@DU?$char_traits@D@std@@V?$allocator@D@2@@std@@QAEAAV12@ABV12@II@Z ENDP ; std::basic_string<char,std::char_traits<char>,std::allocator<char> >::assign
; Function compile flags: /Odtp
_TEXT	ENDS
;	COMDAT ?copy@?$char_traits@D@std@@SAPADPADPBDI@Z
_TEXT	SEGMENT
__First1$ = 8						; size = 4
__First2$ = 12						; size = 4
__Count$ = 16						; size = 4
?copy@?$char_traits@D@std@@SAPADPADPBDI@Z PROC		; std::char_traits<char>::copy, COMDAT
; File c:\program files (x86)\microsoft visual studio 10.0\vc\include\iosfwd
; Line 496
	push	ebp
	mov	ebp, esp
; Line 497
	mov	eax, DWORD PTR __Count$[ebp]
	push	eax
	mov	ecx, DWORD PTR __First2$[ebp]
	push	ecx
	mov	edx, DWORD PTR __First1$[ebp]
	push	edx
	call	_memcpy
	add	esp, 12					; 0000000cH
; Line 498
	pop	ebp
	ret	0
?copy@?$char_traits@D@std@@SAPADPADPBDI@Z ENDP		; std::char_traits<char>::copy
; Function compile flags: /Odtp
_TEXT	ENDS
;	COMDAT ?size@?$basic_string@DU?$char_traits@D@std@@V?$allocator@D@2@@std@@QBEIXZ
_TEXT	SEGMENT
_this$ = -4						; size = 4
?size@?$basic_string@DU?$char_traits@D@std@@V?$allocator@D@2@@std@@QBEIXZ PROC ; std::basic_string<char,std::char_traits<char>,std::allocator<char> >::size, COMDAT
; _this$ = ecx
; File c:\program files (x86)\microsoft visual studio 10.0\vc\include\xstring
; Line 1510
	push	ebp
	mov	ebp, esp
	push	ecx
	mov	DWORD PTR _this$[ebp], ecx
; Line 1511
	mov	eax, DWORD PTR _this$[ebp]
	mov	eax, DWORD PTR [eax+16]
; Line 1512
	mov	esp, ebp
	pop	ebp
	ret	0
?size@?$basic_string@DU?$char_traits@D@std@@V?$allocator@D@2@@std@@QBEIXZ ENDP ; std::basic_string<char,std::char_traits<char>,std::allocator<char> >::size
_TEXT	ENDS
PUBLIC	?assign@?$basic_string@DU?$char_traits@D@std@@V?$allocator@D@2@@std@@QAEAAV12@PBDI@Z ; std::basic_string<char,std::char_traits<char>,std::allocator<char> >::assign
PUBLIC	?length@?$char_traits@D@std@@SAIPBD@Z		; std::char_traits<char>::length
; Function compile flags: /Odtp
;	COMDAT ?assign@?$basic_string@DU?$char_traits@D@std@@V?$allocator@D@2@@std@@QAEAAV12@PBD@Z
_TEXT	SEGMENT
_this$ = -4						; size = 4
__Ptr$ = 8						; size = 4
?assign@?$basic_string@DU?$char_traits@D@std@@V?$allocator@D@2@@std@@QAEAAV12@PBD@Z PROC ; std::basic_string<char,std::char_traits<char>,std::allocator<char> >::assign, COMDAT
; _this$ = ecx
; Line 928
	push	ebp
	mov	ebp, esp
	push	ecx
	mov	DWORD PTR _this$[ebp], ecx
; Line 930
	mov	eax, DWORD PTR __Ptr$[ebp]
	push	eax
	call	?length@?$char_traits@D@std@@SAIPBD@Z	; std::char_traits<char>::length
	add	esp, 4
	push	eax
	mov	ecx, DWORD PTR __Ptr$[ebp]
	push	ecx
	mov	ecx, DWORD PTR _this$[ebp]
	call	?assign@?$basic_string@DU?$char_traits@D@std@@V?$allocator@D@2@@std@@QAEAAV12@PBDI@Z ; std::basic_string<char,std::char_traits<char>,std::allocator<char> >::assign
; Line 931
	mov	esp, ebp
	pop	ebp
	ret	4
?assign@?$basic_string@DU?$char_traits@D@std@@V?$allocator@D@2@@std@@QAEAAV12@PBD@Z ENDP ; std::basic_string<char,std::char_traits<char>,std::allocator<char> >::assign
; Function compile flags: /Odtp
_TEXT	ENDS
;	COMDAT ?length@?$char_traits@D@std@@SAIPBD@Z
_TEXT	SEGMENT
__First$ = 8						; size = 4
?length@?$char_traits@D@std@@SAIPBD@Z PROC		; std::char_traits<char>::length, COMDAT
; File c:\program files (x86)\microsoft visual studio 10.0\vc\include\iosfwd
; Line 490
	push	ebp
	mov	ebp, esp
; Line 491
	mov	eax, DWORD PTR __First$[ebp]
	push	eax
	call	_strlen
	add	esp, 4
; Line 492
	pop	ebp
	ret	0
?length@?$char_traits@D@std@@SAIPBD@Z ENDP		; std::char_traits<char>::length
_TEXT	ENDS
PUBLIC	?deallocate@?$allocator@D@std@@QAEXPADI@Z	; std::allocator<char>::deallocate
; Function compile flags: /Odtp
;	COMDAT ?_Tidy@?$basic_string@DU?$char_traits@D@std@@V?$allocator@D@2@@std@@QAEX_NI@Z
_TEXT	SEGMENT
_this$ = -8						; size = 4
__Ptr$101451 = -4					; size = 4
__Built$ = 8						; size = 1
__Newsize$ = 12						; size = 4
?_Tidy@?$basic_string@DU?$char_traits@D@std@@V?$allocator@D@2@@std@@QAEX_NI@Z PROC ; std::basic_string<char,std::char_traits<char>,std::allocator<char> >::_Tidy, COMDAT
; _this$ = ecx
; File c:\program files (x86)\microsoft visual studio 10.0\vc\include\xstring
; Line 1987
	push	ebp
	mov	ebp, esp
	sub	esp, 8
	mov	DWORD PTR _this$[ebp], ecx
; Line 1988
	movzx	eax, BYTE PTR __Built$[ebp]
	test	eax, eax
	jne	SHORT $LN4@Tidy
	jmp	SHORT $LN3@Tidy
$LN4@Tidy:
; Line 1990
	mov	ecx, DWORD PTR _this$[ebp]
	cmp	DWORD PTR [ecx+20], 16			; 00000010H
	jb	SHORT $LN3@Tidy
; Line 1992
	mov	edx, DWORD PTR _this$[ebp]
	mov	eax, DWORD PTR [edx]
	mov	DWORD PTR __Ptr$101451[ebp], eax
; Line 1993
	cmp	DWORD PTR __Newsize$[ebp], 0
	jbe	SHORT $LN1@Tidy
; Line 1994
	mov	ecx, DWORD PTR __Newsize$[ebp]
	push	ecx
	mov	edx, DWORD PTR __Ptr$101451[ebp]
	push	edx
	mov	eax, DWORD PTR _this$[ebp]
	push	eax
	call	?copy@?$char_traits@D@std@@SAPADPADPBDI@Z ; std::char_traits<char>::copy
	add	esp, 12					; 0000000cH
$LN1@Tidy:
; Line 1995
	mov	ecx, DWORD PTR _this$[ebp]
	mov	edx, DWORD PTR [ecx+20]
	add	edx, 1
	push	edx
	mov	eax, DWORD PTR __Ptr$101451[ebp]
	push	eax
	mov	ecx, DWORD PTR _this$[ebp]
	add	ecx, 24					; 00000018H
	call	?deallocate@?$allocator@D@std@@QAEXPADI@Z ; std::allocator<char>::deallocate
$LN3@Tidy:
; Line 1997
	mov	ecx, DWORD PTR _this$[ebp]
	mov	DWORD PTR [ecx+20], 15			; 0000000fH
; Line 1998
	mov	edx, DWORD PTR __Newsize$[ebp]
	push	edx
	mov	ecx, DWORD PTR _this$[ebp]
	call	?_Eos@?$basic_string@DU?$char_traits@D@std@@V?$allocator@D@2@@std@@QAEXI@Z ; std::basic_string<char,std::char_traits<char>,std::allocator<char> >::_Eos
; Line 1999
	mov	esp, ebp
	pop	ebp
	ret	8
?_Tidy@?$basic_string@DU?$char_traits@D@std@@V?$allocator@D@2@@std@@QAEX_NI@Z ENDP ; std::basic_string<char,std::char_traits<char>,std::allocator<char> >::_Tidy
; Function compile flags: /Odtp
_TEXT	ENDS
;	COMDAT ?_Myptr@?$basic_string@DU?$char_traits@D@std@@V?$allocator@D@2@@std@@QBEPBDXZ
_TEXT	SEGMENT
tv80 = -8						; size = 4
_this$ = -4						; size = 4
?_Myptr@?$basic_string@DU?$char_traits@D@std@@V?$allocator@D@2@@std@@QBEPBDXZ PROC ; std::basic_string<char,std::char_traits<char>,std::allocator<char> >::_Myptr, COMDAT
; _this$ = ecx
; Line 2008
	push	ebp
	mov	ebp, esp
	sub	esp, 8
	mov	DWORD PTR _this$[ebp], ecx
; Line 2010
	mov	eax, DWORD PTR _this$[ebp]
	cmp	DWORD PTR [eax+20], 16			; 00000010H
	jb	SHORT $LN3@Myptr
	mov	ecx, DWORD PTR _this$[ebp]
	mov	edx, DWORD PTR [ecx]
	mov	DWORD PTR tv80[ebp], edx
	jmp	SHORT $LN4@Myptr
$LN3@Myptr:
	mov	eax, DWORD PTR _this$[ebp]
	mov	DWORD PTR tv80[ebp], eax
$LN4@Myptr:
	mov	eax, DWORD PTR tv80[ebp]
; Line 2011
	mov	esp, ebp
	pop	ebp
	ret	0
?_Myptr@?$basic_string@DU?$char_traits@D@std@@V?$allocator@D@2@@std@@QBEPBDXZ ENDP ; std::basic_string<char,std::char_traits<char>,std::allocator<char> >::_Myptr
; Function compile flags: /Odtp
_TEXT	ENDS
;	COMDAT ??0?$_String_val@DV?$allocator@D@std@@@std@@QAE@V?$allocator@D@1@@Z
_TEXT	SEGMENT
_this$ = -4						; size = 4
__Al$ = 8						; size = 1
??0?$_String_val@DV?$allocator@D@std@@@std@@QAE@V?$allocator@D@1@@Z PROC ; std::_String_val<char,std::allocator<char> >::_String_val<char,std::allocator<char> >, COMDAT
; _this$ = ecx
; Line 454
	push	ebp
	mov	ebp, esp
	push	ecx
	mov	DWORD PTR _this$[ebp], ecx
	lea	eax, DWORD PTR __Al$[ebp]
	push	eax
	mov	ecx, DWORD PTR _this$[ebp]
	add	ecx, 24					; 00000018H
	call	??0?$allocator@D@std@@QAE@ABV01@@Z	; std::allocator<char>::allocator<char>
; Line 455
	mov	eax, DWORD PTR _this$[ebp]
	mov	esp, ebp
	pop	ebp
	ret	4
??0?$_String_val@DV?$allocator@D@std@@@std@@QAE@V?$allocator@D@1@@Z ENDP ; std::_String_val<char,std::allocator<char> >::_String_val<char,std::allocator<char> >
; Function compile flags: /Odtp
_TEXT	ENDS
;	COMDAT ??1?$_String_val@DV?$allocator@D@std@@@std@@QAE@XZ
_TEXT	SEGMENT
_this$ = -4						; size = 4
??1?$_String_val@DV?$allocator@D@std@@@std@@QAE@XZ PROC	; std::_String_val<char,std::allocator<char> >::~_String_val<char,std::allocator<char> >, COMDAT
; _this$ = ecx
; Line 458
	push	ebp
	mov	ebp, esp
	push	ecx
	mov	DWORD PTR _this$[ebp], ecx
; Line 459
	mov	esp, ebp
	pop	ebp
	ret	0
??1?$_String_val@DV?$allocator@D@std@@@std@@QAE@XZ ENDP	; std::_String_val<char,std::allocator<char> >::~_String_val<char,std::allocator<char> >
; Function compile flags: /Odtp
_TEXT	ENDS
;	COMDAT ??0?$allocator@D@std@@QAE@XZ
_TEXT	SEGMENT
_this$ = -4						; size = 4
??0?$allocator@D@std@@QAE@XZ PROC			; std::allocator<char>::allocator<char>, COMDAT
; _this$ = ecx
; File c:\program files (x86)\microsoft visual studio 10.0\vc\include\xmemory
; Line 161
	push	ebp
	mov	ebp, esp
	push	ecx
	mov	DWORD PTR _this$[ebp], ecx
; Line 163
	mov	eax, DWORD PTR _this$[ebp]
	mov	esp, ebp
	pop	ebp
	ret	0
??0?$allocator@D@std@@QAE@XZ ENDP			; std::allocator<char>::allocator<char>
; Function compile flags: /Odtp
_TEXT	ENDS
;	COMDAT ??0?$allocator@D@std@@QAE@ABV01@@Z
_TEXT	SEGMENT
_this$ = -4						; size = 4
___formal$ = 8						; size = 4
??0?$allocator@D@std@@QAE@ABV01@@Z PROC			; std::allocator<char>::allocator<char>, COMDAT
; _this$ = ecx
; Line 165
	push	ebp
	mov	ebp, esp
	push	ecx
	mov	DWORD PTR _this$[ebp], ecx
; Line 167
	mov	eax, DWORD PTR _this$[ebp]
	mov	esp, ebp
	pop	ebp
	ret	4
??0?$allocator@D@std@@QAE@ABV01@@Z ENDP			; std::allocator<char>::allocator<char>
; Function compile flags: /Odtp
_TEXT	ENDS
;	COMDAT ?capacity@?$vector@PAVLogger@common@ibmras@@V?$allocator@PAVLogger@common@ibmras@@@std@@@std@@QBEIXZ
_TEXT	SEGMENT
_this$ = -4						; size = 4
?capacity@?$vector@PAVLogger@common@ibmras@@V?$allocator@PAVLogger@common@ibmras@@@std@@@std@@QBEIXZ PROC ; std::vector<ibmras::common::Logger *,std::allocator<ibmras::common::Logger *> >::capacity, COMDAT
; _this$ = ecx
; File c:\program files (x86)\microsoft visual studio 10.0\vc\include\vector
; Line 776
	push	ebp
	mov	ebp, esp
	push	ecx
	mov	DWORD PTR _this$[ebp], ecx
; Line 777
	mov	eax, DWORD PTR _this$[ebp]
	mov	ecx, DWORD PTR _this$[ebp]
	mov	eax, DWORD PTR [eax+8]
	sub	eax, DWORD PTR [ecx]
	sar	eax, 2
; Line 778
	mov	esp, ebp
	pop	ebp
	ret	0
?capacity@?$vector@PAVLogger@common@ibmras@@V?$allocator@PAVLogger@common@ibmras@@@std@@@std@@QBEIXZ ENDP ; std::vector<ibmras::common::Logger *,std::allocator<ibmras::common::Logger *> >::capacity
_TEXT	ENDS
PUBLIC	??0?$_Vector_const_iterator@V?$_Vector_val@PAVLogger@common@ibmras@@V?$allocator@PAVLogger@common@ibmras@@@std@@@std@@@std@@QAE@PAPAVLogger@common@ibmras@@PBU_Container_base0@1@@Z ; std::_Vector_const_iterator<std::_Vector_val<ibmras::common::Logger *,std::allocator<ibmras::common::Logger *> > >::_Vector_const_iterator<std::_Vector_val<ibmras::common::Logger *,std::allocator<ibmras::common::Logger *> > >
; Function compile flags: /Odtp
;	COMDAT ?begin@?$vector@PAVLogger@common@ibmras@@V?$allocator@PAVLogger@common@ibmras@@@std@@@std@@QBE?AV?$_Vector_const_iterator@V?$_Vector_val@PAVLogger@common@ibmras@@V?$allocator@PAVLogger@common@ibmras@@@std@@@std@@@2@XZ
_TEXT	SEGMENT
_this$ = -4						; size = 4
___$ReturnUdt$ = 8					; size = 4
?begin@?$vector@PAVLogger@common@ibmras@@V?$allocator@PAVLogger@common@ibmras@@@std@@@std@@QBE?AV?$_Vector_const_iterator@V?$_Vector_val@PAVLogger@common@ibmras@@V?$allocator@PAVLogger@common@ibmras@@@std@@@std@@@2@XZ PROC ; std::vector<ibmras::common::Logger *,std::allocator<ibmras::common::Logger *> >::begin, COMDAT
; _this$ = ecx
; Line 786
	push	ebp
	mov	ebp, esp
	push	ecx
	mov	DWORD PTR _this$[ebp], ecx
; Line 787
	mov	eax, DWORD PTR _this$[ebp]
	push	eax
	mov	ecx, DWORD PTR _this$[ebp]
	mov	edx, DWORD PTR [ecx]
	push	edx
	mov	ecx, DWORD PTR ___$ReturnUdt$[ebp]
	call	??0?$_Vector_const_iterator@V?$_Vector_val@PAVLogger@common@ibmras@@V?$allocator@PAVLogger@common@ibmras@@@std@@@std@@@std@@QAE@PAPAVLogger@common@ibmras@@PBU_Container_base0@1@@Z ; std::_Vector_const_iterator<std::_Vector_val<ibmras::common::Logger *,std::allocator<ibmras::common::Logger *> > >::_Vector_const_iterator<std::_Vector_val<ibmras::common::Logger *,std::allocator<ibmras::common::Logger *> > >
	mov	eax, DWORD PTR ___$ReturnUdt$[ebp]
; Line 788
	mov	esp, ebp
	pop	ebp
	ret	4
?begin@?$vector@PAVLogger@common@ibmras@@V?$allocator@PAVLogger@common@ibmras@@@std@@@std@@QBE?AV?$_Vector_const_iterator@V?$_Vector_val@PAVLogger@common@ibmras@@V?$allocator@PAVLogger@common@ibmras@@@std@@@std@@@2@XZ ENDP ; std::vector<ibmras::common::Logger *,std::allocator<ibmras::common::Logger *> >::begin
; Function compile flags: /Odtp
_TEXT	ENDS
;	COMDAT ?end@?$vector@PAVLogger@common@ibmras@@V?$allocator@PAVLogger@common@ibmras@@@std@@@std@@QBE?AV?$_Vector_const_iterator@V?$_Vector_val@PAVLogger@common@ibmras@@V?$allocator@PAVLogger@common@ibmras@@@std@@@std@@@2@XZ
_TEXT	SEGMENT
_this$ = -4						; size = 4
___$ReturnUdt$ = 8					; size = 4
?end@?$vector@PAVLogger@common@ibmras@@V?$allocator@PAVLogger@common@ibmras@@@std@@@std@@QBE?AV?$_Vector_const_iterator@V?$_Vector_val@PAVLogger@common@ibmras@@V?$allocator@PAVLogger@common@ibmras@@@std@@@std@@@2@XZ PROC ; std::vector<ibmras::common::Logger *,std::allocator<ibmras::common::Logger *> >::end, COMDAT
; _this$ = ecx
; Line 796
	push	ebp
	mov	ebp, esp
	push	ecx
	mov	DWORD PTR _this$[ebp], ecx
; Line 797
	mov	eax, DWORD PTR _this$[ebp]
	push	eax
	mov	ecx, DWORD PTR _this$[ebp]
	mov	edx, DWORD PTR [ecx+4]
	push	edx
	mov	ecx, DWORD PTR ___$ReturnUdt$[ebp]
	call	??0?$_Vector_const_iterator@V?$_Vector_val@PAVLogger@common@ibmras@@V?$allocator@PAVLogger@common@ibmras@@@std@@@std@@@std@@QAE@PAPAVLogger@common@ibmras@@PBU_Container_base0@1@@Z ; std::_Vector_const_iterator<std::_Vector_val<ibmras::common::Logger *,std::allocator<ibmras::common::Logger *> > >::_Vector_const_iterator<std::_Vector_val<ibmras::common::Logger *,std::allocator<ibmras::common::Logger *> > >
	mov	eax, DWORD PTR ___$ReturnUdt$[ebp]
; Line 798
	mov	esp, ebp
	pop	ebp
	ret	4
?end@?$vector@PAVLogger@common@ibmras@@V?$allocator@PAVLogger@common@ibmras@@@std@@@std@@QBE?AV?$_Vector_const_iterator@V?$_Vector_val@PAVLogger@common@ibmras@@V?$allocator@PAVLogger@common@ibmras@@@std@@@std@@@2@XZ ENDP ; std::vector<ibmras::common::Logger *,std::allocator<ibmras::common::Logger *> >::end
; Function compile flags: /Odtp
_TEXT	ENDS
;	COMDAT ?size@?$vector@PAVLogger@common@ibmras@@V?$allocator@PAVLogger@common@ibmras@@@std@@@std@@QBEIXZ
_TEXT	SEGMENT
_this$ = -4						; size = 4
?size@?$vector@PAVLogger@common@ibmras@@V?$allocator@PAVLogger@common@ibmras@@@std@@@std@@QBEIXZ PROC ; std::vector<ibmras::common::Logger *,std::allocator<ibmras::common::Logger *> >::size, COMDAT
; _this$ = ecx
; Line 878
	push	ebp
	mov	ebp, esp
	push	ecx
	mov	DWORD PTR _this$[ebp], ecx
; Line 879
	mov	eax, DWORD PTR _this$[ebp]
	mov	ecx, DWORD PTR _this$[ebp]
	mov	eax, DWORD PTR [eax+4]
	sub	eax, DWORD PTR [ecx]
	sar	eax, 2
; Line 880
	mov	esp, ebp
	pop	ebp
	ret	0
?size@?$vector@PAVLogger@common@ibmras@@V?$allocator@PAVLogger@common@ibmras@@@std@@@std@@QBEIXZ ENDP ; std::vector<ibmras::common::Logger *,std::allocator<ibmras::common::Logger *> >::size
_TEXT	ENDS
PUBLIC	?erase@?$vector@PAVLogger@common@ibmras@@V?$allocator@PAVLogger@common@ibmras@@@std@@@std@@QAE?AV?$_Vector_iterator@V?$_Vector_val@PAVLogger@common@ibmras@@V?$allocator@PAVLogger@common@ibmras@@@std@@@std@@@2@V?$_Vector_const_iterator@V?$_Vector_val@PAVLogger@common@ibmras@@V?$allocator@PAVLogger@common@ibmras@@@std@@@std@@@2@0@Z ; std::vector<ibmras::common::Logger *,std::allocator<ibmras::common::Logger *> >::erase
PUBLIC	?begin@?$vector@PAVLogger@common@ibmras@@V?$allocator@PAVLogger@common@ibmras@@@std@@@std@@QAE?AV?$_Vector_iterator@V?$_Vector_val@PAVLogger@common@ibmras@@V?$allocator@PAVLogger@common@ibmras@@@std@@@std@@@2@XZ ; std::vector<ibmras::common::Logger *,std::allocator<ibmras::common::Logger *> >::begin
PUBLIC	?end@?$vector@PAVLogger@common@ibmras@@V?$allocator@PAVLogger@common@ibmras@@@std@@@std@@QAE?AV?$_Vector_iterator@V?$_Vector_val@PAVLogger@common@ibmras@@V?$allocator@PAVLogger@common@ibmras@@@std@@@std@@@2@XZ ; std::vector<ibmras::common::Logger *,std::allocator<ibmras::common::Logger *> >::end
; Function compile flags: /Odtp
;	COMDAT ?clear@?$vector@PAVLogger@common@ibmras@@V?$allocator@PAVLogger@common@ibmras@@@std@@@std@@QAEXXZ
_TEXT	SEGMENT
_this$ = -24						; size = 4
$T106052 = -20						; size = 4
$T106051 = -16						; size = 4
$T106050 = -12						; size = 4
$T106049 = -8						; size = 4
$T106048 = -4						; size = 4
?clear@?$vector@PAVLogger@common@ibmras@@V?$allocator@PAVLogger@common@ibmras@@@std@@@std@@QAEXXZ PROC ; std::vector<ibmras::common::Logger *,std::allocator<ibmras::common::Logger *> >::clear, COMDAT
; _this$ = ecx
; Line 1217
	push	ebp
	mov	ebp, esp
	sub	esp, 24					; 00000018H
	mov	DWORD PTR _this$[ebp], ecx
; Line 1218
	lea	eax, DWORD PTR $T106049[ebp]
	push	eax
	mov	ecx, DWORD PTR _this$[ebp]
	call	?end@?$vector@PAVLogger@common@ibmras@@V?$allocator@PAVLogger@common@ibmras@@@std@@@std@@QAE?AV?$_Vector_iterator@V?$_Vector_val@PAVLogger@common@ibmras@@V?$allocator@PAVLogger@common@ibmras@@@std@@@std@@@2@XZ ; std::vector<ibmras::common::Logger *,std::allocator<ibmras::common::Logger *> >::end
	mov	ecx, DWORD PTR [eax]
	mov	DWORD PTR $T106048[ebp], ecx
	lea	edx, DWORD PTR $T106051[ebp]
	push	edx
	mov	ecx, DWORD PTR _this$[ebp]
	call	?begin@?$vector@PAVLogger@common@ibmras@@V?$allocator@PAVLogger@common@ibmras@@@std@@@std@@QAE?AV?$_Vector_iterator@V?$_Vector_val@PAVLogger@common@ibmras@@V?$allocator@PAVLogger@common@ibmras@@@std@@@std@@@2@XZ ; std::vector<ibmras::common::Logger *,std::allocator<ibmras::common::Logger *> >::begin
	mov	eax, DWORD PTR [eax]
	mov	DWORD PTR $T106050[ebp], eax
	mov	ecx, DWORD PTR $T106048[ebp]
	push	ecx
	mov	edx, DWORD PTR $T106050[ebp]
	push	edx
	lea	eax, DWORD PTR $T106052[ebp]
	push	eax
	mov	ecx, DWORD PTR _this$[ebp]
	call	?erase@?$vector@PAVLogger@common@ibmras@@V?$allocator@PAVLogger@common@ibmras@@@std@@@std@@QAE?AV?$_Vector_iterator@V?$_Vector_val@PAVLogger@common@ibmras@@V?$allocator@PAVLogger@common@ibmras@@@std@@@std@@@2@V?$_Vector_const_iterator@V?$_Vector_val@PAVLogger@common@ibmras@@V?$allocator@PAVLogger@common@ibmras@@@std@@@std@@@2@0@Z ; std::vector<ibmras::common::Logger *,std::allocator<ibmras::common::Logger *> >::erase
; Line 1219
	mov	esp, ebp
	pop	ebp
	ret	0
?clear@?$vector@PAVLogger@common@ibmras@@V?$allocator@PAVLogger@common@ibmras@@@std@@@std@@QAEXXZ ENDP ; std::vector<ibmras::common::Logger *,std::allocator<ibmras::common::Logger *> >::clear
_TEXT	ENDS
PUBLIC	?allocate@?$allocator@PAVLogger@common@ibmras@@@std@@QAEPAPAVLogger@common@ibmras@@I@Z ; std::allocator<ibmras::common::Logger *>::allocate
PUBLIC	?_Xlen@?$vector@PAVLogger@common@ibmras@@V?$allocator@PAVLogger@common@ibmras@@@std@@@std@@IBEXXZ ; std::vector<ibmras::common::Logger *,std::allocator<ibmras::common::Logger *> >::_Xlen
PUBLIC	?max_size@?$vector@PAVLogger@common@ibmras@@V?$allocator@PAVLogger@common@ibmras@@@std@@@std@@QBEIXZ ; std::vector<ibmras::common::Logger *,std::allocator<ibmras::common::Logger *> >::max_size
; Function compile flags: /Odtp
;	COMDAT ?_Buy@?$vector@PAVLogger@common@ibmras@@V?$allocator@PAVLogger@common@ibmras@@@std@@@std@@IAE_NI@Z
_TEXT	SEGMENT
_this$ = -4						; size = 4
__Capacity$ = 8						; size = 4
?_Buy@?$vector@PAVLogger@common@ibmras@@V?$allocator@PAVLogger@common@ibmras@@@std@@@std@@IAE_NI@Z PROC ; std::vector<ibmras::common::Logger *,std::allocator<ibmras::common::Logger *> >::_Buy, COMDAT
; _this$ = ecx
; Line 1250
	push	ebp
	mov	ebp, esp
	push	ecx
	mov	DWORD PTR _this$[ebp], ecx
; Line 1251
	mov	eax, DWORD PTR _this$[ebp]
	mov	DWORD PTR [eax], 0
; Line 1252
	mov	ecx, DWORD PTR _this$[ebp]
	mov	DWORD PTR [ecx+4], 0
; Line 1253
	mov	edx, DWORD PTR _this$[ebp]
	mov	DWORD PTR [edx+8], 0
; Line 1255
	cmp	DWORD PTR __Capacity$[ebp], 0
	jne	SHORT $LN4@Buy
; Line 1256
	xor	al, al
	jmp	SHORT $LN6@Buy
	jmp	SHORT $LN3@Buy
$LN4@Buy:
; Line 1257
	mov	ecx, DWORD PTR _this$[ebp]
	call	?max_size@?$vector@PAVLogger@common@ibmras@@V?$allocator@PAVLogger@common@ibmras@@@std@@@std@@QBEIXZ ; std::vector<ibmras::common::Logger *,std::allocator<ibmras::common::Logger *> >::max_size
	cmp	eax, DWORD PTR __Capacity$[ebp]
	jae	SHORT $LN2@Buy
; Line 1258
	mov	ecx, DWORD PTR _this$[ebp]
	call	?_Xlen@?$vector@PAVLogger@common@ibmras@@V?$allocator@PAVLogger@common@ibmras@@@std@@@std@@IBEXXZ ; std::vector<ibmras::common::Logger *,std::allocator<ibmras::common::Logger *> >::_Xlen
; Line 1259
	jmp	SHORT $LN3@Buy
$LN2@Buy:
; Line 1261
	mov	eax, DWORD PTR __Capacity$[ebp]
	push	eax
	mov	ecx, DWORD PTR _this$[ebp]
	add	ecx, 12					; 0000000cH
	call	?allocate@?$allocator@PAVLogger@common@ibmras@@@std@@QAEPAPAVLogger@common@ibmras@@I@Z ; std::allocator<ibmras::common::Logger *>::allocate
	mov	ecx, DWORD PTR _this$[ebp]
	mov	DWORD PTR [ecx], eax
; Line 1262
	mov	edx, DWORD PTR _this$[ebp]
	mov	eax, DWORD PTR _this$[ebp]
	mov	ecx, DWORD PTR [eax]
	mov	DWORD PTR [edx+4], ecx
; Line 1263
	mov	edx, DWORD PTR _this$[ebp]
	mov	eax, DWORD PTR [edx]
	mov	ecx, DWORD PTR __Capacity$[ebp]
	lea	edx, DWORD PTR [eax+ecx*4]
	mov	eax, DWORD PTR _this$[ebp]
	mov	DWORD PTR [eax+8], edx
$LN3@Buy:
; Line 1265
	mov	al, 1
$LN6@Buy:
; Line 1266
	mov	esp, ebp
	pop	ebp
	ret	4
?_Buy@?$vector@PAVLogger@common@ibmras@@V?$allocator@PAVLogger@common@ibmras@@@std@@@std@@IAE_NI@Z ENDP ; std::vector<ibmras::common::Logger *,std::allocator<ibmras::common::Logger *> >::_Buy
_TEXT	ENDS
PUBLIC	??$_Destroy_range@V?$allocator@PAVLogger@common@ibmras@@@std@@@std@@YAXPAPAVLogger@common@ibmras@@0AAV?$allocator@PAVLogger@common@ibmras@@@0@@Z ; std::_Destroy_range<std::allocator<ibmras::common::Logger *> >
; Function compile flags: /Odtp
;	COMDAT ?_Destroy@?$vector@PAVLogger@common@ibmras@@V?$allocator@PAVLogger@common@ibmras@@@std@@@std@@IAEXPAPAVLogger@common@ibmras@@0@Z
_TEXT	SEGMENT
_this$ = -4						; size = 4
__First$ = 8						; size = 4
__Last$ = 12						; size = 4
?_Destroy@?$vector@PAVLogger@common@ibmras@@V?$allocator@PAVLogger@common@ibmras@@@std@@@std@@IAEXPAPAVLogger@common@ibmras@@0@Z PROC ; std::vector<ibmras::common::Logger *,std::allocator<ibmras::common::Logger *> >::_Destroy, COMDAT
; _this$ = ecx
; Line 1269
	push	ebp
	mov	ebp, esp
	push	ecx
	mov	DWORD PTR _this$[ebp], ecx
; Line 1270
	mov	eax, DWORD PTR _this$[ebp]
	add	eax, 12					; 0000000cH
	push	eax
	mov	ecx, DWORD PTR __Last$[ebp]
	push	ecx
	mov	edx, DWORD PTR __First$[ebp]
	push	edx
	call	??$_Destroy_range@V?$allocator@PAVLogger@common@ibmras@@@std@@@std@@YAXPAPAVLogger@common@ibmras@@0AAV?$allocator@PAVLogger@common@ibmras@@@0@@Z ; std::_Destroy_range<std::allocator<ibmras::common::Logger *> >
	add	esp, 12					; 0000000cH
; Line 1271
	mov	esp, ebp
	pop	ebp
	ret	8
?_Destroy@?$vector@PAVLogger@common@ibmras@@V?$allocator@PAVLogger@common@ibmras@@@std@@@std@@IAEXPAPAVLogger@common@ibmras@@0@Z ENDP ; std::vector<ibmras::common::Logger *,std::allocator<ibmras::common::Logger *> >::_Destroy
; Function compile flags: /Odtp
_TEXT	ENDS
;	COMDAT ?_Tidy@?$vector@PAVLogger@common@ibmras@@V?$allocator@PAVLogger@common@ibmras@@@std@@@std@@IAEXXZ
_TEXT	SEGMENT
_this$ = -4						; size = 4
?_Tidy@?$vector@PAVLogger@common@ibmras@@V?$allocator@PAVLogger@common@ibmras@@@std@@@std@@IAEXXZ PROC ; std::vector<ibmras::common::Logger *,std::allocator<ibmras::common::Logger *> >::_Tidy, COMDAT
; _this$ = ecx
; Line 1301
	push	ebp
	mov	ebp, esp
	push	ecx
	mov	DWORD PTR _this$[ebp], ecx
; Line 1302
	mov	eax, DWORD PTR _this$[ebp]
	cmp	DWORD PTR [eax], 0
	je	SHORT $LN1@Tidy@2
; Line 1304
	mov	ecx, DWORD PTR _this$[ebp]
	call	DWORD PTR __imp_?_Orphan_all@_Container_base0@std@@QAEXXZ
; Line 1305
	mov	ecx, DWORD PTR _this$[ebp]
	mov	edx, DWORD PTR [ecx+4]
	push	edx
	mov	eax, DWORD PTR _this$[ebp]
	mov	ecx, DWORD PTR [eax]
	push	ecx
	mov	ecx, DWORD PTR _this$[ebp]
	call	?_Destroy@?$vector@PAVLogger@common@ibmras@@V?$allocator@PAVLogger@common@ibmras@@@std@@@std@@IAEXPAPAVLogger@common@ibmras@@0@Z ; std::vector<ibmras::common::Logger *,std::allocator<ibmras::common::Logger *> >::_Destroy
; Line 1307
	mov	edx, DWORD PTR _this$[ebp]
	mov	eax, DWORD PTR _this$[ebp]
	mov	ecx, DWORD PTR [edx+8]
	sub	ecx, DWORD PTR [eax]
	sar	ecx, 2
	push	ecx
	mov	edx, DWORD PTR _this$[ebp]
	mov	eax, DWORD PTR [edx]
	push	eax
	mov	ecx, DWORD PTR _this$[ebp]
	add	ecx, 12					; 0000000cH
	call	?deallocate@?$allocator@PAVLogger@common@ibmras@@@std@@QAEXPAPAVLogger@common@ibmras@@I@Z ; std::allocator<ibmras::common::Logger *>::deallocate
$LN1@Tidy@2:
; Line 1309
	mov	ecx, DWORD PTR _this$[ebp]
	mov	DWORD PTR [ecx], 0
; Line 1310
	mov	edx, DWORD PTR _this$[ebp]
	mov	DWORD PTR [edx+4], 0
; Line 1311
	mov	eax, DWORD PTR _this$[ebp]
	mov	DWORD PTR [eax+8], 0
; Line 1312
	mov	esp, ebp
	pop	ebp
	ret	0
?_Tidy@?$vector@PAVLogger@common@ibmras@@V?$allocator@PAVLogger@common@ibmras@@@std@@@std@@IAEXXZ ENDP ; std::vector<ibmras::common::Logger *,std::allocator<ibmras::common::Logger *> >::_Tidy
; Function compile flags: /Odtp
_TEXT	ENDS
;	COMDAT ??0?$_Vector_val@PAVLogger@common@ibmras@@V?$allocator@PAVLogger@common@ibmras@@@std@@@std@@QAE@V?$allocator@PAVLogger@common@ibmras@@@1@@Z
_TEXT	SEGMENT
_this$ = -4						; size = 4
__Al$ = 8						; size = 1
??0?$_Vector_val@PAVLogger@common@ibmras@@V?$allocator@PAVLogger@common@ibmras@@@std@@@std@@QAE@V?$allocator@PAVLogger@common@ibmras@@@1@@Z PROC ; std::_Vector_val<ibmras::common::Logger *,std::allocator<ibmras::common::Logger *> >::_Vector_val<ibmras::common::Logger *,std::allocator<ibmras::common::Logger *> >, COMDAT
; _this$ = ecx
; Line 426
	push	ebp
	mov	ebp, esp
	push	ecx
	mov	DWORD PTR _this$[ebp], ecx
	lea	eax, DWORD PTR __Al$[ebp]
	push	eax
	mov	ecx, DWORD PTR _this$[ebp]
	add	ecx, 12					; 0000000cH
	call	??0?$allocator@PAVLogger@common@ibmras@@@std@@QAE@ABV01@@Z ; std::allocator<ibmras::common::Logger *>::allocator<ibmras::common::Logger *>
; Line 427
	mov	ecx, DWORD PTR _this$[ebp]
	mov	DWORD PTR [ecx], 0
; Line 428
	mov	edx, DWORD PTR _this$[ebp]
	mov	DWORD PTR [edx+4], 0
; Line 429
	mov	eax, DWORD PTR _this$[ebp]
	mov	DWORD PTR [eax+8], 0
; Line 430
	mov	eax, DWORD PTR _this$[ebp]
	mov	esp, ebp
	pop	ebp
	ret	4
??0?$_Vector_val@PAVLogger@common@ibmras@@V?$allocator@PAVLogger@common@ibmras@@@std@@@std@@QAE@V?$allocator@PAVLogger@common@ibmras@@@1@@Z ENDP ; std::_Vector_val<ibmras::common::Logger *,std::allocator<ibmras::common::Logger *> >::_Vector_val<ibmras::common::Logger *,std::allocator<ibmras::common::Logger *> >
; Function compile flags: /Odtp
_TEXT	ENDS
;	COMDAT ??1?$_Vector_val@PAVLogger@common@ibmras@@V?$allocator@PAVLogger@common@ibmras@@@std@@@std@@QAE@XZ
_TEXT	SEGMENT
_this$ = -4						; size = 4
??1?$_Vector_val@PAVLogger@common@ibmras@@V?$allocator@PAVLogger@common@ibmras@@@std@@@std@@QAE@XZ PROC ; std::_Vector_val<ibmras::common::Logger *,std::allocator<ibmras::common::Logger *> >::~_Vector_val<ibmras::common::Logger *,std::allocator<ibmras::common::Logger *> >, COMDAT
; _this$ = ecx
; Line 433
	push	ebp
	mov	ebp, esp
	push	ecx
	mov	DWORD PTR _this$[ebp], ecx
; Line 434
	mov	esp, ebp
	pop	ebp
	ret	0
??1?$_Vector_val@PAVLogger@common@ibmras@@V?$allocator@PAVLogger@common@ibmras@@@std@@@std@@QAE@XZ ENDP ; std::_Vector_val<ibmras::common::Logger *,std::allocator<ibmras::common::Logger *> >::~_Vector_val<ibmras::common::Logger *,std::allocator<ibmras::common::Logger *> >
; Function compile flags: /Odtp
_TEXT	ENDS
;	COMDAT ??0?$allocator@PAVLogger@common@ibmras@@@std@@QAE@ABV01@@Z
_TEXT	SEGMENT
_this$ = -4						; size = 4
___formal$ = 8						; size = 4
??0?$allocator@PAVLogger@common@ibmras@@@std@@QAE@ABV01@@Z PROC ; std::allocator<ibmras::common::Logger *>::allocator<ibmras::common::Logger *>, COMDAT
; _this$ = ecx
; File c:\program files (x86)\microsoft visual studio 10.0\vc\include\xmemory
; Line 165
	push	ebp
	mov	ebp, esp
	push	ecx
	mov	DWORD PTR _this$[ebp], ecx
; Line 167
	mov	eax, DWORD PTR _this$[ebp]
	mov	esp, ebp
	pop	ebp
	ret	4
??0?$allocator@PAVLogger@common@ibmras@@@std@@QAE@ABV01@@Z ENDP ; std::allocator<ibmras::common::Logger *>::allocator<ibmras::common::Logger *>
; Function compile flags: /Odtp
_TEXT	ENDS
;	COMDAT ?deallocate@?$allocator@PAVLogger@common@ibmras@@@std@@QAEXPAPAVLogger@common@ibmras@@I@Z
_TEXT	SEGMENT
_this$ = -4						; size = 4
__Ptr$ = 8						; size = 4
___formal$ = 12						; size = 4
?deallocate@?$allocator@PAVLogger@common@ibmras@@@std@@QAEXPAPAVLogger@common@ibmras@@I@Z PROC ; std::allocator<ibmras::common::Logger *>::deallocate, COMDAT
; _this$ = ecx
; Line 181
	push	ebp
	mov	ebp, esp
	push	ecx
	mov	DWORD PTR _this$[ebp], ecx
; Line 182
	mov	eax, DWORD PTR __Ptr$[ebp]
	push	eax
	call	??3@YAXPAX@Z				; operator delete
	add	esp, 4
; Line 183
	mov	esp, ebp
	pop	ebp
	ret	8
?deallocate@?$allocator@PAVLogger@common@ibmras@@@std@@QAEXPAPAVLogger@common@ibmras@@I@Z ENDP ; std::allocator<ibmras::common::Logger *>::deallocate
_TEXT	ENDS
PUBLIC	?_Inside@?$basic_string@DU?$char_traits@D@std@@V?$allocator@D@2@@std@@QAE_NPBD@Z ; std::basic_string<char,std::char_traits<char>,std::allocator<char> >::_Inside
; Function compile flags: /Odtp
;	COMDAT ?assign@?$basic_string@DU?$char_traits@D@std@@V?$allocator@D@2@@std@@QAEAAV12@PBDI@Z
_TEXT	SEGMENT
_this$ = -4						; size = 4
__Ptr$ = 8						; size = 4
__Count$ = 12						; size = 4
?assign@?$basic_string@DU?$char_traits@D@std@@V?$allocator@D@2@@std@@QAEAAV12@PBDI@Z PROC ; std::basic_string<char,std::char_traits<char>,std::allocator<char> >::assign, COMDAT
; _this$ = ecx
; File c:\program files (x86)\microsoft visual studio 10.0\vc\include\xstring
; Line 910
	push	ebp
	mov	ebp, esp
	push	ecx
	mov	DWORD PTR _this$[ebp], ecx
; Line 916
	mov	eax, DWORD PTR __Ptr$[ebp]
	push	eax
	mov	ecx, DWORD PTR _this$[ebp]
	call	?_Inside@?$basic_string@DU?$char_traits@D@std@@V?$allocator@D@2@@std@@QAE_NPBD@Z ; std::basic_string<char,std::char_traits<char>,std::allocator<char> >::_Inside
	movzx	ecx, al
	test	ecx, ecx
	je	SHORT $LN2@assign@3
; Line 917
	mov	edx, DWORD PTR __Count$[ebp]
	push	edx
	mov	ecx, DWORD PTR _this$[ebp]
	call	?_Myptr@?$basic_string@DU?$char_traits@D@std@@V?$allocator@D@2@@std@@QAEPADXZ ; std::basic_string<char,std::char_traits<char>,std::allocator<char> >::_Myptr
	mov	ecx, DWORD PTR __Ptr$[ebp]
	sub	ecx, eax
	push	ecx
	mov	edx, DWORD PTR _this$[ebp]
	push	edx
	mov	ecx, DWORD PTR _this$[ebp]
	call	?assign@?$basic_string@DU?$char_traits@D@std@@V?$allocator@D@2@@std@@QAEAAV12@ABV12@II@Z ; std::basic_string<char,std::char_traits<char>,std::allocator<char> >::assign
	jmp	SHORT $LN3@assign@3
$LN2@assign@3:
; Line 919
	push	0
	mov	eax, DWORD PTR __Count$[ebp]
	push	eax
	mov	ecx, DWORD PTR _this$[ebp]
	call	?_Grow@?$basic_string@DU?$char_traits@D@std@@V?$allocator@D@2@@std@@QAE_NI_N@Z ; std::basic_string<char,std::char_traits<char>,std::allocator<char> >::_Grow
	movzx	ecx, al
	test	ecx, ecx
	je	SHORT $LN1@assign@3
; Line 921
	mov	edx, DWORD PTR __Count$[ebp]
	push	edx
	mov	eax, DWORD PTR __Ptr$[ebp]
	push	eax
	mov	ecx, DWORD PTR _this$[ebp]
	call	?_Myptr@?$basic_string@DU?$char_traits@D@std@@V?$allocator@D@2@@std@@QAEPADXZ ; std::basic_string<char,std::char_traits<char>,std::allocator<char> >::_Myptr
	push	eax
	call	?copy@?$char_traits@D@std@@SAPADPADPBDI@Z ; std::char_traits<char>::copy
	add	esp, 12					; 0000000cH
; Line 922
	mov	ecx, DWORD PTR __Count$[ebp]
	push	ecx
	mov	ecx, DWORD PTR _this$[ebp]
	call	?_Eos@?$basic_string@DU?$char_traits@D@std@@V?$allocator@D@2@@std@@QAEXI@Z ; std::basic_string<char,std::char_traits<char>,std::allocator<char> >::_Eos
$LN1@assign@3:
; Line 924
	mov	eax, DWORD PTR _this$[ebp]
$LN3@assign@3:
; Line 925
	mov	esp, ebp
	pop	ebp
	ret	8
?assign@?$basic_string@DU?$char_traits@D@std@@V?$allocator@D@2@@std@@QAEAAV12@PBDI@Z ENDP ; std::basic_string<char,std::char_traits<char>,std::allocator<char> >::assign
; Function compile flags: /Odtp
_TEXT	ENDS
;	COMDAT ?erase@?$basic_string@DU?$char_traits@D@std@@V?$allocator@D@2@@std@@QAEAAV12@II@Z
_TEXT	SEGMENT
_this$ = -8						; size = 4
__Newsize$102482 = -4					; size = 4
__Off$ = 8						; size = 4
__Count$ = 12						; size = 4
?erase@?$basic_string@DU?$char_traits@D@std@@V?$allocator@D@2@@std@@QAEAAV12@II@Z PROC ; std::basic_string<char,std::char_traits<char>,std::allocator<char> >::erase, COMDAT
; _this$ = ecx
; Line 1108
	push	ebp
	mov	ebp, esp
	sub	esp, 8
	mov	DWORD PTR _this$[ebp], ecx
; Line 1109
	mov	eax, DWORD PTR _this$[ebp]
	mov	ecx, DWORD PTR [eax+16]
	cmp	ecx, DWORD PTR __Off$[ebp]
	jae	SHORT $LN3@erase
; Line 1110
	mov	ecx, DWORD PTR _this$[ebp]
	call	?_Xran@?$basic_string@DU?$char_traits@D@std@@V?$allocator@D@2@@std@@QBEXXZ ; std::basic_string<char,std::char_traits<char>,std::allocator<char> >::_Xran
$LN3@erase:
; Line 1111
	mov	edx, DWORD PTR _this$[ebp]
	mov	eax, DWORD PTR [edx+16]
	sub	eax, DWORD PTR __Off$[ebp]
	cmp	eax, DWORD PTR __Count$[ebp]
	jae	SHORT $LN2@erase
; Line 1112
	mov	ecx, DWORD PTR _this$[ebp]
	mov	edx, DWORD PTR [ecx+16]
	sub	edx, DWORD PTR __Off$[ebp]
	mov	DWORD PTR __Count$[ebp], edx
$LN2@erase:
; Line 1113
	cmp	DWORD PTR __Count$[ebp], 0
	jbe	SHORT $LN1@erase
; Line 1116
	mov	eax, DWORD PTR _this$[ebp]
	mov	ecx, DWORD PTR [eax+16]
	sub	ecx, DWORD PTR __Off$[ebp]
	sub	ecx, DWORD PTR __Count$[ebp]
	push	ecx
	mov	ecx, DWORD PTR _this$[ebp]
	call	?_Myptr@?$basic_string@DU?$char_traits@D@std@@V?$allocator@D@2@@std@@QAEPADXZ ; std::basic_string<char,std::char_traits<char>,std::allocator<char> >::_Myptr
	add	eax, DWORD PTR __Off$[ebp]
	add	eax, DWORD PTR __Count$[ebp]
	push	eax
	mov	ecx, DWORD PTR _this$[ebp]
	call	?_Myptr@?$basic_string@DU?$char_traits@D@std@@V?$allocator@D@2@@std@@QAEPADXZ ; std::basic_string<char,std::char_traits<char>,std::allocator<char> >::_Myptr
	add	eax, DWORD PTR __Off$[ebp]
	push	eax
	call	?move@?$char_traits@D@std@@SAPADPADPBDI@Z ; std::char_traits<char>::move
	add	esp, 12					; 0000000cH
; Line 1117
	mov	edx, DWORD PTR _this$[ebp]
	mov	eax, DWORD PTR [edx+16]
	sub	eax, DWORD PTR __Count$[ebp]
	mov	DWORD PTR __Newsize$102482[ebp], eax
; Line 1118
	mov	ecx, DWORD PTR __Newsize$102482[ebp]
	push	ecx
	mov	ecx, DWORD PTR _this$[ebp]
	call	?_Eos@?$basic_string@DU?$char_traits@D@std@@V?$allocator@D@2@@std@@QAEXI@Z ; std::basic_string<char,std::char_traits<char>,std::allocator<char> >::_Eos
$LN1@erase:
; Line 1120
	mov	eax, DWORD PTR _this$[ebp]
$LN5@erase:
; Line 1121
	mov	esp, ebp
	pop	ebp
	ret	8
?erase@?$basic_string@DU?$char_traits@D@std@@V?$allocator@D@2@@std@@QAEAAV12@II@Z ENDP ; std::basic_string<char,std::char_traits<char>,std::allocator<char> >::erase
; Function compile flags: /Odtp
_TEXT	ENDS
;	COMDAT ?get_allocator@?$basic_string@DU?$char_traits@D@std@@V?$allocator@D@2@@std@@QBE?AV?$allocator@D@2@XZ
_TEXT	SEGMENT
_this$ = -4						; size = 4
___$ReturnUdt$ = 8					; size = 4
?get_allocator@?$basic_string@DU?$char_traits@D@std@@V?$allocator@D@2@@std@@QBE?AV?$allocator@D@2@XZ PROC ; std::basic_string<char,std::char_traits<char>,std::allocator<char> >::get_allocator, COMDAT
; _this$ = ecx
; Line 1905
	push	ebp
	mov	ebp, esp
	push	ecx
	mov	DWORD PTR _this$[ebp], ecx
; Line 1906
	mov	eax, DWORD PTR _this$[ebp]
	add	eax, 24					; 00000018H
	push	eax
	mov	ecx, DWORD PTR ___$ReturnUdt$[ebp]
	call	??0?$allocator@D@std@@QAE@ABV01@@Z	; std::allocator<char>::allocator<char>
	mov	eax, DWORD PTR ___$ReturnUdt$[ebp]
; Line 1907
	mov	esp, ebp
	pop	ebp
	ret	4
?get_allocator@?$basic_string@DU?$char_traits@D@std@@V?$allocator@D@2@@std@@QBE?AV?$allocator@D@2@XZ ENDP ; std::basic_string<char,std::char_traits<char>,std::allocator<char> >::get_allocator
_TEXT	ENDS
PUBLIC	?assign@?$char_traits@D@std@@SAXAADABD@Z	; std::char_traits<char>::assign
; Function compile flags: /Odtp
;	COMDAT ?_Eos@?$basic_string@DU?$char_traits@D@std@@V?$allocator@D@2@@std@@QAEXI@Z
_TEXT	SEGMENT
_this$ = -8						; size = 4
$T106075 = -1						; size = 1
__Newsize$ = 8						; size = 4
?_Eos@?$basic_string@DU?$char_traits@D@std@@V?$allocator@D@2@@std@@QAEXI@Z PROC ; std::basic_string<char,std::char_traits<char>,std::allocator<char> >::_Eos, COMDAT
; _this$ = ecx
; Line 1952
	push	ebp
	mov	ebp, esp
	sub	esp, 8
	mov	DWORD PTR _this$[ebp], ecx
; Line 1953
	mov	BYTE PTR $T106075[ebp], 0
	mov	eax, DWORD PTR _this$[ebp]
	mov	ecx, DWORD PTR __Newsize$[ebp]
	mov	DWORD PTR [eax+16], ecx
	lea	edx, DWORD PTR $T106075[ebp]
	push	edx
	mov	ecx, DWORD PTR _this$[ebp]
	call	?_Myptr@?$basic_string@DU?$char_traits@D@std@@V?$allocator@D@2@@std@@QAEPADXZ ; std::basic_string<char,std::char_traits<char>,std::allocator<char> >::_Myptr
	add	eax, DWORD PTR __Newsize$[ebp]
	push	eax
	call	?assign@?$char_traits@D@std@@SAXAADABD@Z ; std::char_traits<char>::assign
	add	esp, 8
; Line 1954
	mov	esp, ebp
	pop	ebp
	ret	4
?_Eos@?$basic_string@DU?$char_traits@D@std@@V?$allocator@D@2@@std@@QAEXI@Z ENDP ; std::basic_string<char,std::char_traits<char>,std::allocator<char> >::_Eos
; Function compile flags: /Odtp
_TEXT	ENDS
;	COMDAT ?assign@?$char_traits@D@std@@SAXAADABD@Z
_TEXT	SEGMENT
__Left$ = 8						; size = 4
__Right$ = 12						; size = 4
?assign@?$char_traits@D@std@@SAXAADABD@Z PROC		; std::char_traits<char>::assign, COMDAT
; File c:\program files (x86)\microsoft visual studio 10.0\vc\include\iosfwd
; Line 526
	push	ebp
	mov	ebp, esp
; Line 527
	mov	eax, DWORD PTR __Left$[ebp]
	mov	ecx, DWORD PTR __Right$[ebp]
	mov	dl, BYTE PTR [ecx]
	mov	BYTE PTR [eax], dl
; Line 528
	pop	ebp
	ret	0
?assign@?$char_traits@D@std@@SAXAADABD@Z ENDP		; std::char_traits<char>::assign
_TEXT	ENDS
PUBLIC	?_Copy@?$basic_string@DU?$char_traits@D@std@@V?$allocator@D@2@@std@@QAEXII@Z ; std::basic_string<char,std::char_traits<char>,std::allocator<char> >::_Copy
PUBLIC	?_Xlen@?$basic_string@DU?$char_traits@D@std@@V?$allocator@D@2@@std@@QBEXXZ ; std::basic_string<char,std::char_traits<char>,std::allocator<char> >::_Xlen
PUBLIC	?max_size@?$basic_string@DU?$char_traits@D@std@@V?$allocator@D@2@@std@@QBEIXZ ; std::basic_string<char,std::char_traits<char>,std::allocator<char> >::max_size
; Function compile flags: /Odtp
;	COMDAT ?_Grow@?$basic_string@DU?$char_traits@D@std@@V?$allocator@D@2@@std@@QAE_NI_N@Z
_TEXT	SEGMENT
tv129 = -8						; size = 4
_this$ = -4						; size = 4
__Newsize$ = 8						; size = 4
__Trim$ = 12						; size = 1
?_Grow@?$basic_string@DU?$char_traits@D@std@@V?$allocator@D@2@@std@@QAE_NI_N@Z PROC ; std::basic_string<char,std::char_traits<char>,std::allocator<char> >::_Grow, COMDAT
; _this$ = ecx
; File c:\program files (x86)\microsoft visual studio 10.0\vc\include\xstring
; Line 1958
	push	ebp
	mov	ebp, esp
	sub	esp, 8
	mov	DWORD PTR _this$[ebp], ecx
; Line 1959
	mov	ecx, DWORD PTR _this$[ebp]
	call	?max_size@?$basic_string@DU?$char_traits@D@std@@V?$allocator@D@2@@std@@QBEIXZ ; std::basic_string<char,std::char_traits<char>,std::allocator<char> >::max_size
	cmp	eax, DWORD PTR __Newsize$[ebp]
	jae	SHORT $LN6@Grow
; Line 1960
	mov	ecx, DWORD PTR _this$[ebp]
	call	?_Xlen@?$basic_string@DU?$char_traits@D@std@@V?$allocator@D@2@@std@@QBEXXZ ; std::basic_string<char,std::char_traits<char>,std::allocator<char> >::_Xlen
$LN6@Grow:
; Line 1961
	mov	eax, DWORD PTR _this$[ebp]
	mov	ecx, DWORD PTR [eax+20]
	cmp	ecx, DWORD PTR __Newsize$[ebp]
	jae	SHORT $LN5@Grow
; Line 1962
	mov	edx, DWORD PTR _this$[ebp]
	mov	eax, DWORD PTR [edx+16]
	push	eax
	mov	ecx, DWORD PTR __Newsize$[ebp]
	push	ecx
	mov	ecx, DWORD PTR _this$[ebp]
	call	?_Copy@?$basic_string@DU?$char_traits@D@std@@V?$allocator@D@2@@std@@QAEXII@Z ; std::basic_string<char,std::char_traits<char>,std::allocator<char> >::_Copy
	jmp	SHORT $LN4@Grow
$LN5@Grow:
; Line 1963
	movzx	edx, BYTE PTR __Trim$[ebp]
	test	edx, edx
	je	SHORT $LN3@Grow
	cmp	DWORD PTR __Newsize$[ebp], 16		; 00000010H
	jae	SHORT $LN3@Grow
; Line 1965
	mov	eax, DWORD PTR _this$[ebp]
	mov	ecx, DWORD PTR __Newsize$[ebp]
	cmp	ecx, DWORD PTR [eax+16]
	jae	SHORT $LN9@Grow
	mov	edx, DWORD PTR __Newsize$[ebp]
	mov	DWORD PTR tv129[ebp], edx
	jmp	SHORT $LN10@Grow
$LN9@Grow:
	mov	eax, DWORD PTR _this$[ebp]
	mov	ecx, DWORD PTR [eax+16]
	mov	DWORD PTR tv129[ebp], ecx
$LN10@Grow:
	mov	edx, DWORD PTR tv129[ebp]
	push	edx
	push	1
	mov	ecx, DWORD PTR _this$[ebp]
	call	?_Tidy@?$basic_string@DU?$char_traits@D@std@@V?$allocator@D@2@@std@@QAEX_NI@Z ; std::basic_string<char,std::char_traits<char>,std::allocator<char> >::_Tidy
	jmp	SHORT $LN4@Grow
$LN3@Grow:
; Line 1966
	cmp	DWORD PTR __Newsize$[ebp], 0
	jne	SHORT $LN4@Grow
; Line 1967
	push	0
	mov	ecx, DWORD PTR _this$[ebp]
	call	?_Eos@?$basic_string@DU?$char_traits@D@std@@V?$allocator@D@2@@std@@QAEXI@Z ; std::basic_string<char,std::char_traits<char>,std::allocator<char> >::_Eos
$LN4@Grow:
; Line 1968
	xor	eax, eax
	cmp	eax, DWORD PTR __Newsize$[ebp]
	sbb	eax, eax
	neg	eax
$LN8@Grow:
; Line 1969
	mov	esp, ebp
	pop	ebp
	ret	8
?_Grow@?$basic_string@DU?$char_traits@D@std@@V?$allocator@D@2@@std@@QAE_NI_N@Z ENDP ; std::basic_string<char,std::char_traits<char>,std::allocator<char> >::_Grow
; Function compile flags: /Odtp
_TEXT	ENDS
;	COMDAT ?_Myptr@?$basic_string@DU?$char_traits@D@std@@V?$allocator@D@2@@std@@QAEPADXZ
_TEXT	SEGMENT
tv80 = -8						; size = 4
_this$ = -4						; size = 4
?_Myptr@?$basic_string@DU?$char_traits@D@std@@V?$allocator@D@2@@std@@QAEPADXZ PROC ; std::basic_string<char,std::char_traits<char>,std::allocator<char> >::_Myptr, COMDAT
; _this$ = ecx
; Line 2002
	push	ebp
	mov	ebp, esp
	sub	esp, 8
	mov	DWORD PTR _this$[ebp], ecx
; Line 2004
	mov	eax, DWORD PTR _this$[ebp]
	cmp	DWORD PTR [eax+20], 16			; 00000010H
	jb	SHORT $LN3@Myptr@2
	mov	ecx, DWORD PTR _this$[ebp]
	mov	edx, DWORD PTR [ecx]
	mov	DWORD PTR tv80[ebp], edx
	jmp	SHORT $LN4@Myptr@2
$LN3@Myptr@2:
	mov	eax, DWORD PTR _this$[ebp]
	mov	DWORD PTR tv80[ebp], eax
$LN4@Myptr@2:
	mov	eax, DWORD PTR tv80[ebp]
; Line 2005
	mov	esp, ebp
	pop	ebp
	ret	0
?_Myptr@?$basic_string@DU?$char_traits@D@std@@V?$allocator@D@2@@std@@QAEPADXZ ENDP ; std::basic_string<char,std::char_traits<char>,std::allocator<char> >::_Myptr
_TEXT	ENDS
PUBLIC	??_C@_0BI@CFPLBAOH@invalid?5string?5position?$AA@ ; `string'
EXTRN	__imp_?_Xout_of_range@std@@YAXPBD@Z:PROC
;	COMDAT ??_C@_0BI@CFPLBAOH@invalid?5string?5position?$AA@
CONST	SEGMENT
??_C@_0BI@CFPLBAOH@invalid?5string?5position?$AA@ DB 'invalid string posi'
	DB	'tion', 00H					; `string'
; Function compile flags: /Odtp
CONST	ENDS
;	COMDAT ?_Xran@?$basic_string@DU?$char_traits@D@std@@V?$allocator@D@2@@std@@QBEXXZ
_TEXT	SEGMENT
_this$ = -4						; size = 4
?_Xran@?$basic_string@DU?$char_traits@D@std@@V?$allocator@D@2@@std@@QBEXXZ PROC ; std::basic_string<char,std::char_traits<char>,std::allocator<char> >::_Xran, COMDAT
; _this$ = ecx
; Line 2019
	push	ebp
	mov	ebp, esp
	push	ecx
	mov	DWORD PTR _this$[ebp], ecx
; Line 2020
	push	OFFSET ??_C@_0BI@CFPLBAOH@invalid?5string?5position?$AA@
	call	DWORD PTR __imp_?_Xout_of_range@std@@YAXPBD@Z
$LN2@Xran:
; Line 2021
	mov	esp, ebp
	pop	ebp
	ret	0
?_Xran@?$basic_string@DU?$char_traits@D@std@@V?$allocator@D@2@@std@@QBEXXZ ENDP ; std::basic_string<char,std::char_traits<char>,std::allocator<char> >::_Xran
; Function compile flags: /Odtp
_TEXT	ENDS
;	COMDAT ?deallocate@?$allocator@D@std@@QAEXPADI@Z
_TEXT	SEGMENT
_this$ = -4						; size = 4
__Ptr$ = 8						; size = 4
___formal$ = 12						; size = 4
?deallocate@?$allocator@D@std@@QAEXPADI@Z PROC		; std::allocator<char>::deallocate, COMDAT
; _this$ = ecx
; File c:\program files (x86)\microsoft visual studio 10.0\vc\include\xmemory
; Line 181
	push	ebp
	mov	ebp, esp
	push	ecx
	mov	DWORD PTR _this$[ebp], ecx
; Line 182
	mov	eax, DWORD PTR __Ptr$[ebp]
	push	eax
	call	??3@YAXPAX@Z				; operator delete
	add	esp, 4
; Line 183
	mov	esp, ebp
	pop	ebp
	ret	8
?deallocate@?$allocator@D@std@@QAEXPADI@Z ENDP		; std::allocator<char>::deallocate
_TEXT	ENDS
PUBLIC	??0?$_Vector_iterator@V?$_Vector_val@PAVLogger@common@ibmras@@V?$allocator@PAVLogger@common@ibmras@@@std@@@std@@@std@@QAE@PAPAVLogger@common@ibmras@@PBU_Container_base0@1@@Z ; std::_Vector_iterator<std::_Vector_val<ibmras::common::Logger *,std::allocator<ibmras::common::Logger *> > >::_Vector_iterator<std::_Vector_val<ibmras::common::Logger *,std::allocator<ibmras::common::Logger *> > >
; Function compile flags: /Odtp
;	COMDAT ?begin@?$vector@PAVLogger@common@ibmras@@V?$allocator@PAVLogger@common@ibmras@@@std@@@std@@QAE?AV?$_Vector_iterator@V?$_Vector_val@PAVLogger@common@ibmras@@V?$allocator@PAVLogger@common@ibmras@@@std@@@std@@@2@XZ
_TEXT	SEGMENT
_this$ = -4						; size = 4
___$ReturnUdt$ = 8					; size = 4
?begin@?$vector@PAVLogger@common@ibmras@@V?$allocator@PAVLogger@common@ibmras@@@std@@@std@@QAE?AV?$_Vector_iterator@V?$_Vector_val@PAVLogger@common@ibmras@@V?$allocator@PAVLogger@common@ibmras@@@std@@@std@@@2@XZ PROC ; std::vector<ibmras::common::Logger *,std::allocator<ibmras::common::Logger *> >::begin, COMDAT
; _this$ = ecx
; File c:\program files (x86)\microsoft visual studio 10.0\vc\include\vector
; Line 781
	push	ebp
	mov	ebp, esp
	push	ecx
	mov	DWORD PTR _this$[ebp], ecx
; Line 782
	mov	eax, DWORD PTR _this$[ebp]
	push	eax
	mov	ecx, DWORD PTR _this$[ebp]
	mov	edx, DWORD PTR [ecx]
	push	edx
	mov	ecx, DWORD PTR ___$ReturnUdt$[ebp]
	call	??0?$_Vector_iterator@V?$_Vector_val@PAVLogger@common@ibmras@@V?$allocator@PAVLogger@common@ibmras@@@std@@@std@@@std@@QAE@PAPAVLogger@common@ibmras@@PBU_Container_base0@1@@Z ; std::_Vector_iterator<std::_Vector_val<ibmras::common::Logger *,std::allocator<ibmras::common::Logger *> > >::_Vector_iterator<std::_Vector_val<ibmras::common::Logger *,std::allocator<ibmras::common::Logger *> > >
	mov	eax, DWORD PTR ___$ReturnUdt$[ebp]
; Line 783
	mov	esp, ebp
	pop	ebp
	ret	4
?begin@?$vector@PAVLogger@common@ibmras@@V?$allocator@PAVLogger@common@ibmras@@@std@@@std@@QAE?AV?$_Vector_iterator@V?$_Vector_val@PAVLogger@common@ibmras@@V?$allocator@PAVLogger@common@ibmras@@@std@@@std@@@2@XZ ENDP ; std::vector<ibmras::common::Logger *,std::allocator<ibmras::common::Logger *> >::begin
; Function compile flags: /Odtp
_TEXT	ENDS
;	COMDAT ?end@?$vector@PAVLogger@common@ibmras@@V?$allocator@PAVLogger@common@ibmras@@@std@@@std@@QAE?AV?$_Vector_iterator@V?$_Vector_val@PAVLogger@common@ibmras@@V?$allocator@PAVLogger@common@ibmras@@@std@@@std@@@2@XZ
_TEXT	SEGMENT
_this$ = -4						; size = 4
___$ReturnUdt$ = 8					; size = 4
?end@?$vector@PAVLogger@common@ibmras@@V?$allocator@PAVLogger@common@ibmras@@@std@@@std@@QAE?AV?$_Vector_iterator@V?$_Vector_val@PAVLogger@common@ibmras@@V?$allocator@PAVLogger@common@ibmras@@@std@@@std@@@2@XZ PROC ; std::vector<ibmras::common::Logger *,std::allocator<ibmras::common::Logger *> >::end, COMDAT
; _this$ = ecx
; Line 791
	push	ebp
	mov	ebp, esp
	push	ecx
	mov	DWORD PTR _this$[ebp], ecx
; Line 792
	mov	eax, DWORD PTR _this$[ebp]
	push	eax
	mov	ecx, DWORD PTR _this$[ebp]
	mov	edx, DWORD PTR [ecx+4]
	push	edx
	mov	ecx, DWORD PTR ___$ReturnUdt$[ebp]
	call	??0?$_Vector_iterator@V?$_Vector_val@PAVLogger@common@ibmras@@V?$allocator@PAVLogger@common@ibmras@@@std@@@std@@@std@@QAE@PAPAVLogger@common@ibmras@@PBU_Container_base0@1@@Z ; std::_Vector_iterator<std::_Vector_val<ibmras::common::Logger *,std::allocator<ibmras::common::Logger *> > >::_Vector_iterator<std::_Vector_val<ibmras::common::Logger *,std::allocator<ibmras::common::Logger *> > >
	mov	eax, DWORD PTR ___$ReturnUdt$[ebp]
; Line 793
	mov	esp, ebp
	pop	ebp
	ret	4
?end@?$vector@PAVLogger@common@ibmras@@V?$allocator@PAVLogger@common@ibmras@@@std@@@std@@QAE?AV?$_Vector_iterator@V?$_Vector_val@PAVLogger@common@ibmras@@V?$allocator@PAVLogger@common@ibmras@@@std@@@std@@@2@XZ ENDP ; std::vector<ibmras::common::Logger *,std::allocator<ibmras::common::Logger *> >::end
_TEXT	ENDS
PUBLIC	?max_size@?$allocator@PAVLogger@common@ibmras@@@std@@QBEIXZ ; std::allocator<ibmras::common::Logger *>::max_size
; Function compile flags: /Odtp
;	COMDAT ?max_size@?$vector@PAVLogger@common@ibmras@@V?$allocator@PAVLogger@common@ibmras@@@std@@@std@@QBEIXZ
_TEXT	SEGMENT
_this$ = -4						; size = 4
?max_size@?$vector@PAVLogger@common@ibmras@@V?$allocator@PAVLogger@common@ibmras@@@std@@@std@@QBEIXZ PROC ; std::vector<ibmras::common::Logger *,std::allocator<ibmras::common::Logger *> >::max_size, COMDAT
; _this$ = ecx
; Line 883
	push	ebp
	mov	ebp, esp
	push	ecx
	mov	DWORD PTR _this$[ebp], ecx
; Line 884
	mov	ecx, DWORD PTR _this$[ebp]
	add	ecx, 12					; 0000000cH
	call	?max_size@?$allocator@PAVLogger@common@ibmras@@@std@@QBEIXZ ; std::allocator<ibmras::common::Logger *>::max_size
; Line 885
	mov	esp, ebp
	pop	ebp
	ret	0
?max_size@?$vector@PAVLogger@common@ibmras@@V?$allocator@PAVLogger@common@ibmras@@@std@@@std@@QBEIXZ ENDP ; std::vector<ibmras::common::Logger *,std::allocator<ibmras::common::Logger *> >::max_size
_TEXT	ENDS
PUBLIC	??$_Move@PAPAVLogger@common@ibmras@@PAPAV123@@std@@YAPAPAVLogger@common@ibmras@@PAPAV123@00@Z ; std::_Move<ibmras::common::Logger * *,ibmras::common::Logger * *>
PUBLIC	??9?$_Vector_const_iterator@V?$_Vector_val@PAVLogger@common@ibmras@@V?$allocator@PAVLogger@common@ibmras@@@std@@@std@@@std@@QBE_NABV01@@Z ; std::_Vector_const_iterator<std::_Vector_val<ibmras::common::Logger *,std::allocator<ibmras::common::Logger *> > >::operator!=
PUBLIC	?_Make_iter@?$vector@PAVLogger@common@ibmras@@V?$allocator@PAVLogger@common@ibmras@@@std@@@std@@QBE?AV?$_Vector_iterator@V?$_Vector_val@PAVLogger@common@ibmras@@V?$allocator@PAVLogger@common@ibmras@@@std@@@std@@@2@V?$_Vector_const_iterator@V?$_Vector_val@PAVLogger@common@ibmras@@V?$allocator@PAVLogger@common@ibmras@@@std@@@std@@@2@@Z ; std::vector<ibmras::common::Logger *,std::allocator<ibmras::common::Logger *> >::_Make_iter
; Function compile flags: /Odtp
;	COMDAT ?erase@?$vector@PAVLogger@common@ibmras@@V?$allocator@PAVLogger@common@ibmras@@@std@@@std@@QAE?AV?$_Vector_iterator@V?$_Vector_val@PAVLogger@common@ibmras@@V?$allocator@PAVLogger@common@ibmras@@@std@@@std@@@2@V?$_Vector_const_iterator@V?$_Vector_val@PAVLogger@common@ibmras@@V?$allocator@PAVLogger@common@ibmras@@@std@@@std@@@2@0@Z
_TEXT	SEGMENT
_this$ = -20						; size = 4
$T106098 = -16						; size = 4
__Ptr$102897 = -12					; size = 4
__Last$ = -8						; size = 4
__First$ = -4						; size = 4
___$ReturnUdt$ = 8					; size = 4
__First_arg$ = 12					; size = 4
__Last_arg$ = 16					; size = 4
?erase@?$vector@PAVLogger@common@ibmras@@V?$allocator@PAVLogger@common@ibmras@@@std@@@std@@QAE?AV?$_Vector_iterator@V?$_Vector_val@PAVLogger@common@ibmras@@V?$allocator@PAVLogger@common@ibmras@@@std@@@std@@@2@V?$_Vector_const_iterator@V?$_Vector_val@PAVLogger@common@ibmras@@V?$allocator@PAVLogger@common@ibmras@@@std@@@std@@@2@0@Z PROC ; std::vector<ibmras::common::Logger *,std::allocator<ibmras::common::Logger *> >::erase, COMDAT
; _this$ = ecx
; Line 1190
	push	ebp
	mov	ebp, esp
	sub	esp, 20					; 00000014H
	mov	DWORD PTR _this$[ebp], ecx
; Line 1191
	mov	eax, DWORD PTR __First_arg$[ebp]
	push	eax
	lea	ecx, DWORD PTR __First$[ebp]
	push	ecx
	mov	ecx, DWORD PTR _this$[ebp]
	call	?_Make_iter@?$vector@PAVLogger@common@ibmras@@V?$allocator@PAVLogger@common@ibmras@@@std@@@std@@QBE?AV?$_Vector_iterator@V?$_Vector_val@PAVLogger@common@ibmras@@V?$allocator@PAVLogger@common@ibmras@@@std@@@std@@@2@V?$_Vector_const_iterator@V?$_Vector_val@PAVLogger@common@ibmras@@V?$allocator@PAVLogger@common@ibmras@@@std@@@std@@@2@@Z ; std::vector<ibmras::common::Logger *,std::allocator<ibmras::common::Logger *> >::_Make_iter
; Line 1192
	mov	edx, DWORD PTR __Last_arg$[ebp]
	push	edx
	lea	eax, DWORD PTR __Last$[ebp]
	push	eax
	mov	ecx, DWORD PTR _this$[ebp]
	call	?_Make_iter@?$vector@PAVLogger@common@ibmras@@V?$allocator@PAVLogger@common@ibmras@@@std@@@std@@QBE?AV?$_Vector_iterator@V?$_Vector_val@PAVLogger@common@ibmras@@V?$allocator@PAVLogger@common@ibmras@@@std@@@std@@@2@V?$_Vector_const_iterator@V?$_Vector_val@PAVLogger@common@ibmras@@V?$allocator@PAVLogger@common@ibmras@@@std@@@std@@@2@@Z ; std::vector<ibmras::common::Logger *,std::allocator<ibmras::common::Logger *> >::_Make_iter
; Line 1194
	lea	ecx, DWORD PTR __Last$[ebp]
	push	ecx
	lea	ecx, DWORD PTR __First$[ebp]
	call	??9?$_Vector_const_iterator@V?$_Vector_val@PAVLogger@common@ibmras@@V?$allocator@PAVLogger@common@ibmras@@@std@@@std@@@std@@QBE_NABV01@@Z ; std::_Vector_const_iterator<std::_Vector_val<ibmras::common::Logger *,std::allocator<ibmras::common::Logger *> > >::operator!=
	movzx	edx, al
	test	edx, edx
	je	SHORT $LN1@erase@2
; Line 1207
	mov	eax, DWORD PTR __First$[ebp]
	push	eax
	mov	ecx, DWORD PTR _this$[ebp]
	mov	edx, DWORD PTR [ecx+4]
	push	edx
	mov	eax, DWORD PTR __Last$[ebp]
	push	eax
	call	??$_Move@PAPAVLogger@common@ibmras@@PAPAV123@@std@@YAPAPAVLogger@common@ibmras@@PAPAV123@00@Z ; std::_Move<ibmras::common::Logger * *,ibmras::common::Logger * *>
	add	esp, 12					; 0000000cH
	mov	DWORD PTR __Ptr$102897[ebp], eax
; Line 1210
	mov	ecx, DWORD PTR _this$[ebp]
	mov	edx, DWORD PTR [ecx+4]
	push	edx
	mov	eax, DWORD PTR __Ptr$102897[ebp]
	push	eax
	mov	ecx, DWORD PTR _this$[ebp]
	call	?_Destroy@?$vector@PAVLogger@common@ibmras@@V?$allocator@PAVLogger@common@ibmras@@@std@@@std@@IAEXPAPAVLogger@common@ibmras@@0@Z ; std::vector<ibmras::common::Logger *,std::allocator<ibmras::common::Logger *> >::_Destroy
; Line 1211
	mov	ecx, DWORD PTR _this$[ebp]
	mov	edx, DWORD PTR __Ptr$102897[ebp]
	mov	DWORD PTR [ecx+4], edx
$LN1@erase@2:
; Line 1213
	mov	eax, DWORD PTR __First$[ebp]
	mov	DWORD PTR $T106098[ebp], eax
	mov	ecx, DWORD PTR $T106098[ebp]
	push	ecx
	mov	edx, DWORD PTR ___$ReturnUdt$[ebp]
	push	edx
	mov	ecx, DWORD PTR _this$[ebp]
	call	?_Make_iter@?$vector@PAVLogger@common@ibmras@@V?$allocator@PAVLogger@common@ibmras@@@std@@@std@@QBE?AV?$_Vector_iterator@V?$_Vector_val@PAVLogger@common@ibmras@@V?$allocator@PAVLogger@common@ibmras@@@std@@@std@@@2@V?$_Vector_const_iterator@V?$_Vector_val@PAVLogger@common@ibmras@@V?$allocator@PAVLogger@common@ibmras@@@std@@@std@@@2@@Z ; std::vector<ibmras::common::Logger *,std::allocator<ibmras::common::Logger *> >::_Make_iter
	mov	eax, DWORD PTR ___$ReturnUdt$[ebp]
; Line 1214
	mov	esp, ebp
	pop	ebp
	ret	12					; 0000000cH
?erase@?$vector@PAVLogger@common@ibmras@@V?$allocator@PAVLogger@common@ibmras@@@std@@@std@@QAE?AV?$_Vector_iterator@V?$_Vector_val@PAVLogger@common@ibmras@@V?$allocator@PAVLogger@common@ibmras@@@std@@@std@@@2@V?$_Vector_const_iterator@V?$_Vector_val@PAVLogger@common@ibmras@@V?$allocator@PAVLogger@common@ibmras@@@std@@@std@@@2@0@Z ENDP ; std::vector<ibmras::common::Logger *,std::allocator<ibmras::common::Logger *> >::erase
_TEXT	ENDS
PUBLIC	??_C@_0BD@OLBABOEK@vector?$DMT?$DO?5too?5long?$AA@ ; `string'
EXTRN	__imp_?_Xlength_error@std@@YAXPBD@Z:PROC
;	COMDAT ??_C@_0BD@OLBABOEK@vector?$DMT?$DO?5too?5long?$AA@
CONST	SEGMENT
??_C@_0BD@OLBABOEK@vector?$DMT?$DO?5too?5long?$AA@ DB 'vector<T> too long'
	DB	00H						; `string'
; Function compile flags: /Odtp
CONST	ENDS
;	COMDAT ?_Xlen@?$vector@PAVLogger@common@ibmras@@V?$allocator@PAVLogger@common@ibmras@@@std@@@std@@IBEXXZ
_TEXT	SEGMENT
_this$ = -4						; size = 4
?_Xlen@?$vector@PAVLogger@common@ibmras@@V?$allocator@PAVLogger@common@ibmras@@@std@@@std@@IBEXXZ PROC ; std::vector<ibmras::common::Logger *,std::allocator<ibmras::common::Logger *> >::_Xlen, COMDAT
; _this$ = ecx
; Line 1426
	push	ebp
	mov	ebp, esp
	push	ecx
	mov	DWORD PTR _this$[ebp], ecx
; Line 1427
	push	OFFSET ??_C@_0BD@OLBABOEK@vector?$DMT?$DO?5too?5long?$AA@
	call	DWORD PTR __imp_?_Xlength_error@std@@YAXPBD@Z
$LN2@Xlen:
; Line 1428
	mov	esp, ebp
	pop	ebp
	ret	0
?_Xlen@?$vector@PAVLogger@common@ibmras@@V?$allocator@PAVLogger@common@ibmras@@@std@@@std@@IBEXXZ ENDP ; std::vector<ibmras::common::Logger *,std::allocator<ibmras::common::Logger *> >::_Xlen
_TEXT	ENDS
PUBLIC	??$_Allocate@PAVLogger@common@ibmras@@@std@@YAPAPAVLogger@common@ibmras@@IPAPAV123@@Z ; std::_Allocate<ibmras::common::Logger *>
; Function compile flags: /Odtp
;	COMDAT ?allocate@?$allocator@PAVLogger@common@ibmras@@@std@@QAEPAPAVLogger@common@ibmras@@I@Z
_TEXT	SEGMENT
_this$ = -4						; size = 4
__Count$ = 8						; size = 4
?allocate@?$allocator@PAVLogger@common@ibmras@@@std@@QAEPAPAVLogger@common@ibmras@@I@Z PROC ; std::allocator<ibmras::common::Logger *>::allocate, COMDAT
; _this$ = ecx
; File c:\program files (x86)\microsoft visual studio 10.0\vc\include\xmemory
; Line 186
	push	ebp
	mov	ebp, esp
	push	ecx
	mov	DWORD PTR _this$[ebp], ecx
; Line 187
	push	0
	mov	eax, DWORD PTR __Count$[ebp]
	push	eax
	call	??$_Allocate@PAVLogger@common@ibmras@@@std@@YAPAPAVLogger@common@ibmras@@IPAPAV123@@Z ; std::_Allocate<ibmras::common::Logger *>
	add	esp, 8
; Line 188
	mov	esp, ebp
	pop	ebp
	ret	4
?allocate@?$allocator@PAVLogger@common@ibmras@@@std@@QAEPAPAVLogger@common@ibmras@@I@Z ENDP ; std::allocator<ibmras::common::Logger *>::allocate
_TEXT	ENDS
PUBLIC	?_Adopt@_Iterator_base0@std@@QAEXPBX@Z		; std::_Iterator_base0::_Adopt
; Function compile flags: /Odtp
;	COMDAT ??0?$_Vector_const_iterator@V?$_Vector_val@PAVLogger@common@ibmras@@V?$allocator@PAVLogger@common@ibmras@@@std@@@std@@@std@@QAE@PAPAVLogger@common@ibmras@@PBU_Container_base0@1@@Z
_TEXT	SEGMENT
_this$ = -4						; size = 4
__Parg$ = 8						; size = 4
__Pvector$ = 12						; size = 4
??0?$_Vector_const_iterator@V?$_Vector_val@PAVLogger@common@ibmras@@V?$allocator@PAVLogger@common@ibmras@@@std@@@std@@@std@@QAE@PAPAVLogger@common@ibmras@@PBU_Container_base0@1@@Z PROC ; std::_Vector_const_iterator<std::_Vector_val<ibmras::common::Logger *,std::allocator<ibmras::common::Logger *> > >::_Vector_const_iterator<std::_Vector_val<ibmras::common::Logger *,std::allocator<ibmras::common::Logger *> > >, COMDAT
; _this$ = ecx
; File c:\program files (x86)\microsoft visual studio 10.0\vc\include\vector
; Line 45
	push	ebp
	mov	ebp, esp
	push	ecx
	mov	DWORD PTR _this$[ebp], ecx
	mov	eax, DWORD PTR _this$[ebp]
	mov	ecx, DWORD PTR __Parg$[ebp]
	mov	DWORD PTR [eax], ecx
; Line 46
	mov	edx, DWORD PTR __Pvector$[ebp]
	push	edx
	mov	ecx, DWORD PTR _this$[ebp]
	call	?_Adopt@_Iterator_base0@std@@QAEXPBX@Z	; std::_Iterator_base0::_Adopt
; Line 47
	mov	eax, DWORD PTR _this$[ebp]
	mov	esp, ebp
	pop	ebp
	ret	8
??0?$_Vector_const_iterator@V?$_Vector_val@PAVLogger@common@ibmras@@V?$allocator@PAVLogger@common@ibmras@@@std@@@std@@@std@@QAE@PAPAVLogger@common@ibmras@@PBU_Container_base0@1@@Z ENDP ; std::_Vector_const_iterator<std::_Vector_val<ibmras::common::Logger *,std::allocator<ibmras::common::Logger *> > >::_Vector_const_iterator<std::_Vector_val<ibmras::common::Logger *,std::allocator<ibmras::common::Logger *> > >
; Function compile flags: /Odtp
_TEXT	ENDS
;	COMDAT ?_Adopt@_Iterator_base0@std@@QAEXPBX@Z
_TEXT	SEGMENT
_this$ = -4						; size = 4
___formal$ = 8						; size = 4
?_Adopt@_Iterator_base0@std@@QAEXPBX@Z PROC		; std::_Iterator_base0::_Adopt, COMDAT
; _this$ = ecx
; File c:\program files (x86)\microsoft visual studio 10.0\vc\include\xutility
; Line 48
	push	ebp
	mov	ebp, esp
	push	ecx
	mov	DWORD PTR _this$[ebp], ecx
; Line 49
	mov	esp, ebp
	pop	ebp
	ret	4
?_Adopt@_Iterator_base0@std@@QAEXPBX@Z ENDP		; std::_Iterator_base0::_Adopt
_TEXT	ENDS
PUBLIC	?max_size@?$allocator@D@std@@QBEIXZ		; std::allocator<char>::max_size
; Function compile flags: /Odtp
;	COMDAT ?max_size@?$basic_string@DU?$char_traits@D@std@@V?$allocator@D@2@@std@@QBEIXZ
_TEXT	SEGMENT
tv73 = -12						; size = 4
_this$ = -8						; size = 4
__Num$ = -4						; size = 4
?max_size@?$basic_string@DU?$char_traits@D@std@@V?$allocator@D@2@@std@@QBEIXZ PROC ; std::basic_string<char,std::char_traits<char>,std::allocator<char> >::max_size, COMDAT
; _this$ = ecx
; File c:\program files (x86)\microsoft visual studio 10.0\vc\include\xstring
; Line 1515
	push	ebp
	mov	ebp, esp
	sub	esp, 12					; 0000000cH
	mov	DWORD PTR _this$[ebp], ecx
; Line 1516
	mov	ecx, DWORD PTR _this$[ebp]
	add	ecx, 24					; 00000018H
	call	?max_size@?$allocator@D@std@@QBEIXZ	; std::allocator<char>::max_size
	mov	DWORD PTR __Num$[ebp], eax
; Line 1517
	cmp	DWORD PTR __Num$[ebp], 1
	ja	SHORT $LN3@max_size
	mov	DWORD PTR tv73[ebp], 1
	jmp	SHORT $LN4@max_size
$LN3@max_size:
	mov	eax, DWORD PTR __Num$[ebp]
	sub	eax, 1
	mov	DWORD PTR tv73[ebp], eax
$LN4@max_size:
	mov	eax, DWORD PTR tv73[ebp]
; Line 1518
	mov	esp, ebp
	pop	ebp
	ret	0
?max_size@?$basic_string@DU?$char_traits@D@std@@V?$allocator@D@2@@std@@QBEIXZ ENDP ; std::basic_string<char,std::char_traits<char>,std::allocator<char> >::max_size
_TEXT	ENDS
PUBLIC	?allocate@?$allocator@D@std@@QAEPADI@Z		; std::allocator<char>::allocate
;	COMDAT xdata$x
xdata$x	SEGMENT
__catchsym$?_Copy@?$basic_string@DU?$char_traits@D@std@@V?$allocator@D@2@@std@@QAEXII@Z$5 DD 040H
	DD	00H
	DD	00H
	DD	FLAT:__catch$?_Copy@?$basic_string@DU?$char_traits@D@std@@V?$allocator@D@2@@std@@QAEXII@Z$0
__catchsym$?_Copy@?$basic_string@DU?$char_traits@D@std@@V?$allocator@D@2@@std@@QAEXII@Z$4 DD 040H
	DD	00H
	DD	00H
	DD	FLAT:__catch$?_Copy@?$basic_string@DU?$char_traits@D@std@@V?$allocator@D@2@@std@@QAEXII@Z$1
__unwindtable$?_Copy@?$basic_string@DU?$char_traits@D@std@@V?$allocator@D@2@@std@@QAEXII@Z DD 0ffffffffH
	DD	00H
	DD	0ffffffffH
	DD	00H
	DD	01H
	DD	00H
	DD	01H
	DD	00H
__ehfuncinfo$?_Copy@?$basic_string@DU?$char_traits@D@std@@V?$allocator@D@2@@std@@QAEXII@Z DD 019930522H
	DD	04H
	DD	FLAT:__unwindtable$?_Copy@?$basic_string@DU?$char_traits@D@std@@V?$allocator@D@2@@std@@QAEXII@Z
	DD	02H
	DD	FLAT:__tryblocktable$?_Copy@?$basic_string@DU?$char_traits@D@std@@V?$allocator@D@2@@std@@QAEXII@Z
	DD	2 DUP(00H)
	DD	00H
	DD	01H
__tryblocktable$?_Copy@?$basic_string@DU?$char_traits@D@std@@V?$allocator@D@2@@std@@QAEXII@Z DD 02H
	DD	02H
	DD	03H
	DD	01H
	DD	FLAT:__catchsym$?_Copy@?$basic_string@DU?$char_traits@D@std@@V?$allocator@D@2@@std@@QAEXII@Z$4
	DD	00H
	DD	00H
	DD	03H
	DD	01H
	DD	FLAT:__catchsym$?_Copy@?$basic_string@DU?$char_traits@D@std@@V?$allocator@D@2@@std@@QAEXII@Z$5
; Function compile flags: /Odtp
xdata$x	ENDS
;	COMDAT ?_Copy@?$basic_string@DU?$char_traits@D@std@@V?$allocator@D@2@@std@@QAEXII@Z
_TEXT	SEGMENT
tv184 = -36						; size = 4
tv183 = -32						; size = 4
_this$ = -28						; size = 4
__Newres$ = -24						; size = 4
__Ptr$ = -20						; size = 4
__$EHRec$ = -16						; size = 16
__Newsize$ = 8						; size = 4
__Oldlen$ = 12						; size = 4
?_Copy@?$basic_string@DU?$char_traits@D@std@@V?$allocator@D@2@@std@@QAEXII@Z PROC ; std::basic_string<char,std::char_traits<char>,std::allocator<char> >::_Copy, COMDAT
; _this$ = ecx
; Line 1918
	push	ebp
	mov	ebp, esp
	push	-1
	push	__ehhandler$?_Copy@?$basic_string@DU?$char_traits@D@std@@V?$allocator@D@2@@std@@QAEXII@Z
	mov	eax, DWORD PTR fs:0
	push	eax
	push	ecx
	sub	esp, 20					; 00000014H
	push	ebx
	push	esi
	push	edi
	mov	eax, DWORD PTR ___security_cookie
	xor	eax, ebp
	push	eax
	lea	eax, DWORD PTR __$EHRec$[ebp+4]
	mov	DWORD PTR fs:0, eax
	mov	DWORD PTR __$EHRec$[ebp], esp
	mov	DWORD PTR _this$[ebp], ecx
; Line 1919
	mov	eax, DWORD PTR __Newsize$[ebp]
	or	eax, 15					; 0000000fH
	mov	DWORD PTR __Newres$[ebp], eax
; Line 1920
	mov	ecx, DWORD PTR _this$[ebp]
	call	?max_size@?$basic_string@DU?$char_traits@D@std@@V?$allocator@D@2@@std@@QBEIXZ ; std::basic_string<char,std::char_traits<char>,std::allocator<char> >::max_size
	cmp	eax, DWORD PTR __Newres$[ebp]
	jae	SHORT $LN9@Copy
; Line 1921
	mov	ecx, DWORD PTR __Newsize$[ebp]
	mov	DWORD PTR __Newres$[ebp], ecx
	jmp	SHORT $LN8@Copy
$LN9@Copy:
; Line 1922
	mov	eax, DWORD PTR __Newres$[ebp]
	xor	edx, edx
	mov	ecx, 3
	div	ecx
	mov	edx, DWORD PTR _this$[ebp]
	mov	ecx, DWORD PTR [edx+20]
	shr	ecx, 1
	cmp	ecx, eax
	ja	SHORT $LN7@Copy
	jmp	SHORT $LN8@Copy
$LN7@Copy:
; Line 1924
	mov	edx, DWORD PTR _this$[ebp]
	mov	esi, DWORD PTR [edx+20]
	shr	esi, 1
	mov	ecx, DWORD PTR _this$[ebp]
	call	?max_size@?$basic_string@DU?$char_traits@D@std@@V?$allocator@D@2@@std@@QBEIXZ ; std::basic_string<char,std::char_traits<char>,std::allocator<char> >::max_size
	sub	eax, esi
	mov	ecx, DWORD PTR _this$[ebp]
	cmp	DWORD PTR [ecx+20], eax
	ja	SHORT $LN5@Copy
; Line 1926
	mov	edx, DWORD PTR _this$[ebp]
	mov	eax, DWORD PTR [edx+20]
	shr	eax, 1
	mov	ecx, DWORD PTR _this$[ebp]
	add	eax, DWORD PTR [ecx+20]
	mov	DWORD PTR __Newres$[ebp], eax
; Line 1927
	jmp	SHORT $LN8@Copy
$LN5@Copy:
; Line 1928
	mov	ecx, DWORD PTR _this$[ebp]
	call	?max_size@?$basic_string@DU?$char_traits@D@std@@V?$allocator@D@2@@std@@QBEIXZ ; std::basic_string<char,std::char_traits<char>,std::allocator<char> >::max_size
	mov	DWORD PTR __Newres$[ebp], eax
$LN8@Copy:
; Line 1931
	mov	DWORD PTR __$EHRec$[ebp+12], 0
; Line 1932
	mov	edx, DWORD PTR __Newres$[ebp]
	add	edx, 1
	push	edx
	mov	ecx, DWORD PTR _this$[ebp]
	add	ecx, 24					; 00000018H
	call	?allocate@?$allocator@D@std@@QAEPADI@Z	; std::allocator<char>::allocate
	mov	DWORD PTR tv183[ebp], eax
	mov	eax, DWORD PTR tv183[ebp]
	mov	DWORD PTR __Ptr$[ebp], eax
	jmp	SHORT $LN12@Copy
__catch$?_Copy@?$basic_string@DU?$char_traits@D@std@@V?$allocator@D@2@@std@@QAEXII@Z$0:
; Line 1933
	mov	DWORD PTR __$EHRec$[ebp], esp
; Line 1934
	mov	ecx, DWORD PTR __Newsize$[ebp]
	mov	DWORD PTR __Newres$[ebp], ecx
; Line 1935
	mov	BYTE PTR __$EHRec$[ebp+12], 2
; Line 1936
	mov	edx, DWORD PTR __Newres$[ebp]
	add	edx, 1
	push	edx
	mov	ecx, DWORD PTR _this$[ebp]
	add	ecx, 24					; 00000018H
	call	?allocate@?$allocator@D@std@@QAEPADI@Z	; std::allocator<char>::allocate
	mov	DWORD PTR tv184[ebp], eax
	mov	eax, DWORD PTR tv184[ebp]
	mov	DWORD PTR __Ptr$[ebp], eax
	jmp	SHORT $LN14@Copy
__catch$?_Copy@?$basic_string@DU?$char_traits@D@std@@V?$allocator@D@2@@std@@QAEXII@Z$1:
; Line 1938
	push	0
	push	1
	mov	ecx, DWORD PTR _this$[ebp]
	call	?_Tidy@?$basic_string@DU?$char_traits@D@std@@V?$allocator@D@2@@std@@QAEX_NI@Z ; std::basic_string<char,std::char_traits<char>,std::allocator<char> >::_Tidy
; Line 1939
	push	0
	push	0
	call	__CxxThrowException@8
; Line 1940
	mov	DWORD PTR __$EHRec$[ebp+12], 1
	mov	eax, __tryend$?_Copy@?$basic_string@DU?$char_traits@D@std@@V?$allocator@D@2@@std@@QAEXII@Z$2
	ret	0
$LN14@Copy:
	mov	DWORD PTR __$EHRec$[ebp+12], 1
__tryend$?_Copy@?$basic_string@DU?$char_traits@D@std@@V?$allocator@D@2@@std@@QAEXII@Z$2:
; Line 1941
	mov	DWORD PTR __$EHRec$[ebp+12], 1
	mov	eax, __tryend$?_Copy@?$basic_string@DU?$char_traits@D@std@@V?$allocator@D@2@@std@@QAEXII@Z$3
	ret	0
$LN12@Copy:
	mov	DWORD PTR __$EHRec$[ebp+12], -1
__tryend$?_Copy@?$basic_string@DU?$char_traits@D@std@@V?$allocator@D@2@@std@@QAEXII@Z$3:
; Line 1943
	cmp	DWORD PTR __Oldlen$[ebp], 0
	jbe	SHORT $LN1@Copy
; Line 1944
	mov	ecx, DWORD PTR __Oldlen$[ebp]
	push	ecx
	mov	ecx, DWORD PTR _this$[ebp]
	call	?_Myptr@?$basic_string@DU?$char_traits@D@std@@V?$allocator@D@2@@std@@QAEPADXZ ; std::basic_string<char,std::char_traits<char>,std::allocator<char> >::_Myptr
	push	eax
	mov	edx, DWORD PTR __Ptr$[ebp]
	push	edx
	call	?copy@?$char_traits@D@std@@SAPADPADPBDI@Z ; std::char_traits<char>::copy
	add	esp, 12					; 0000000cH
$LN1@Copy:
; Line 1945
	push	0
	push	1
	mov	ecx, DWORD PTR _this$[ebp]
	call	?_Tidy@?$basic_string@DU?$char_traits@D@std@@V?$allocator@D@2@@std@@QAEX_NI@Z ; std::basic_string<char,std::char_traits<char>,std::allocator<char> >::_Tidy
; Line 1946
	mov	eax, DWORD PTR _this$[ebp]
	mov	ecx, DWORD PTR __Ptr$[ebp]
	mov	DWORD PTR [eax], ecx
; Line 1947
	mov	edx, DWORD PTR _this$[ebp]
	mov	eax, DWORD PTR __Newres$[ebp]
	mov	DWORD PTR [edx+20], eax
; Line 1948
	mov	ecx, DWORD PTR __Oldlen$[ebp]
	push	ecx
	mov	ecx, DWORD PTR _this$[ebp]
	call	?_Eos@?$basic_string@DU?$char_traits@D@std@@V?$allocator@D@2@@std@@QAEXI@Z ; std::basic_string<char,std::char_traits<char>,std::allocator<char> >::_Eos
$LN11@Copy:
; Line 1949
	mov	ecx, DWORD PTR __$EHRec$[ebp+4]
	mov	DWORD PTR fs:0, ecx
	pop	ecx
	pop	edi
	pop	esi
	pop	ebx
	mov	esp, ebp
	pop	ebp
	ret	8
_TEXT	ENDS
;	COMDAT text$x
text$x	SEGMENT
__ehhandler$?_Copy@?$basic_string@DU?$char_traits@D@std@@V?$allocator@D@2@@std@@QAEXII@Z:
	mov	edx, DWORD PTR [esp+8]
	lea	eax, DWORD PTR [edx+12]
	mov	ecx, DWORD PTR [edx-40]
	xor	ecx, eax
	call	@__security_check_cookie@4
	mov	eax, OFFSET __ehfuncinfo$?_Copy@?$basic_string@DU?$char_traits@D@std@@V?$allocator@D@2@@std@@QAEXII@Z
	jmp	___CxxFrameHandler3
text$x	ENDS
?_Copy@?$basic_string@DU?$char_traits@D@std@@V?$allocator@D@2@@std@@QAEXII@Z ENDP ; std::basic_string<char,std::char_traits<char>,std::allocator<char> >::_Copy
; Function compile flags: /Odtp
;	COMDAT ?_Inside@?$basic_string@DU?$char_traits@D@std@@V?$allocator@D@2@@std@@QAE_NPBD@Z
_TEXT	SEGMENT
_this$ = -4						; size = 4
__Ptr$ = 8						; size = 4
?_Inside@?$basic_string@DU?$char_traits@D@std@@V?$allocator@D@2@@std@@QAE_NPBD@Z PROC ; std::basic_string<char,std::char_traits<char>,std::allocator<char> >::_Inside, COMDAT
; _this$ = ecx
; Line 1972
	push	ebp
	mov	ebp, esp
	push	ecx
	mov	DWORD PTR _this$[ebp], ecx
; Line 1973
	cmp	DWORD PTR __Ptr$[ebp], 0
	je	SHORT $LN2@Inside
	mov	ecx, DWORD PTR _this$[ebp]
	call	?_Myptr@?$basic_string@DU?$char_traits@D@std@@V?$allocator@D@2@@std@@QAEPADXZ ; std::basic_string<char,std::char_traits<char>,std::allocator<char> >::_Myptr
	cmp	DWORD PTR __Ptr$[ebp], eax
	jb	SHORT $LN2@Inside
	mov	ecx, DWORD PTR _this$[ebp]
	call	?_Myptr@?$basic_string@DU?$char_traits@D@std@@V?$allocator@D@2@@std@@QAEPADXZ ; std::basic_string<char,std::char_traits<char>,std::allocator<char> >::_Myptr
	mov	ecx, DWORD PTR _this$[ebp]
	add	eax, DWORD PTR [ecx+16]
	cmp	eax, DWORD PTR __Ptr$[ebp]
	ja	SHORT $LN3@Inside
$LN2@Inside:
; Line 1974
	xor	al, al
	jmp	SHORT $LN4@Inside
; Line 1975
	jmp	SHORT $LN4@Inside
$LN3@Inside:
; Line 1976
	mov	al, 1
$LN4@Inside:
; Line 1977
	mov	esp, ebp
	pop	ebp
	ret	4
?_Inside@?$basic_string@DU?$char_traits@D@std@@V?$allocator@D@2@@std@@QAE_NPBD@Z ENDP ; std::basic_string<char,std::char_traits<char>,std::allocator<char> >::_Inside
_TEXT	ENDS
PUBLIC	??_C@_0BA@JFNIOLAK@string?5too?5long?$AA@	; `string'
;	COMDAT ??_C@_0BA@JFNIOLAK@string?5too?5long?$AA@
CONST	SEGMENT
??_C@_0BA@JFNIOLAK@string?5too?5long?$AA@ DB 'string too long', 00H ; `string'
; Function compile flags: /Odtp
CONST	ENDS
;	COMDAT ?_Xlen@?$basic_string@DU?$char_traits@D@std@@V?$allocator@D@2@@std@@QBEXXZ
_TEXT	SEGMENT
_this$ = -4						; size = 4
?_Xlen@?$basic_string@DU?$char_traits@D@std@@V?$allocator@D@2@@std@@QBEXXZ PROC ; std::basic_string<char,std::char_traits<char>,std::allocator<char> >::_Xlen, COMDAT
; _this$ = ecx
; Line 2014
	push	ebp
	mov	ebp, esp
	push	ecx
	mov	DWORD PTR _this$[ebp], ecx
; Line 2015
	push	OFFSET ??_C@_0BA@JFNIOLAK@string?5too?5long?$AA@
	call	DWORD PTR __imp_?_Xlength_error@std@@YAXPBD@Z
$LN2@Xlen@2:
; Line 2016
	mov	esp, ebp
	pop	ebp
	ret	0
?_Xlen@?$basic_string@DU?$char_traits@D@std@@V?$allocator@D@2@@std@@QBEXXZ ENDP ; std::basic_string<char,std::char_traits<char>,std::allocator<char> >::_Xlen
; Function compile flags: /Odtp
_TEXT	ENDS
;	COMDAT ?_Make_iter@?$vector@PAVLogger@common@ibmras@@V?$allocator@PAVLogger@common@ibmras@@@std@@@std@@QBE?AV?$_Vector_iterator@V?$_Vector_val@PAVLogger@common@ibmras@@V?$allocator@PAVLogger@common@ibmras@@@std@@@std@@@2@V?$_Vector_const_iterator@V?$_Vector_val@PAVLogger@common@ibmras@@V?$allocator@PAVLogger@common@ibmras@@@std@@@std@@@2@@Z
_TEXT	SEGMENT
_this$ = -4						; size = 4
___$ReturnUdt$ = 8					; size = 4
__Where$ = 12						; size = 4
?_Make_iter@?$vector@PAVLogger@common@ibmras@@V?$allocator@PAVLogger@common@ibmras@@@std@@@std@@QBE?AV?$_Vector_iterator@V?$_Vector_val@PAVLogger@common@ibmras@@V?$allocator@PAVLogger@common@ibmras@@@std@@@std@@@2@V?$_Vector_const_iterator@V?$_Vector_val@PAVLogger@common@ibmras@@V?$allocator@PAVLogger@common@ibmras@@@std@@@std@@@2@@Z PROC ; std::vector<ibmras::common::Logger *,std::allocator<ibmras::common::Logger *> >::_Make_iter, COMDAT
; _this$ = ecx
; File c:\program files (x86)\microsoft visual studio 10.0\vc\include\vector
; Line 801
	push	ebp
	mov	ebp, esp
	push	ecx
	mov	DWORD PTR _this$[ebp], ecx
; Line 802
	mov	eax, DWORD PTR _this$[ebp]
	push	eax
	mov	ecx, DWORD PTR __Where$[ebp]
	push	ecx
	mov	ecx, DWORD PTR ___$ReturnUdt$[ebp]
	call	??0?$_Vector_iterator@V?$_Vector_val@PAVLogger@common@ibmras@@V?$allocator@PAVLogger@common@ibmras@@@std@@@std@@@std@@QAE@PAPAVLogger@common@ibmras@@PBU_Container_base0@1@@Z ; std::_Vector_iterator<std::_Vector_val<ibmras::common::Logger *,std::allocator<ibmras::common::Logger *> > >::_Vector_iterator<std::_Vector_val<ibmras::common::Logger *,std::allocator<ibmras::common::Logger *> > >
	mov	eax, DWORD PTR ___$ReturnUdt$[ebp]
; Line 803
	mov	esp, ebp
	pop	ebp
	ret	8
?_Make_iter@?$vector@PAVLogger@common@ibmras@@V?$allocator@PAVLogger@common@ibmras@@@std@@@std@@QBE?AV?$_Vector_iterator@V?$_Vector_val@PAVLogger@common@ibmras@@V?$allocator@PAVLogger@common@ibmras@@@std@@@std@@@2@V?$_Vector_const_iterator@V?$_Vector_val@PAVLogger@common@ibmras@@V?$allocator@PAVLogger@common@ibmras@@@std@@@std@@@2@@Z ENDP ; std::vector<ibmras::common::Logger *,std::allocator<ibmras::common::Logger *> >::_Make_iter
; Function compile flags: /Odtp
_TEXT	ENDS
;	COMDAT ?max_size@?$allocator@PAVLogger@common@ibmras@@@std@@QBEIXZ
_TEXT	SEGMENT
tv65 = -12						; size = 4
_this$ = -8						; size = 4
__Count$ = -4						; size = 4
?max_size@?$allocator@PAVLogger@common@ibmras@@@std@@QBEIXZ PROC ; std::allocator<ibmras::common::Logger *>::max_size, COMDAT
; _this$ = ecx
; File c:\program files (x86)\microsoft visual studio 10.0\vc\include\xmemory
; Line 217
	push	ebp
	mov	ebp, esp
	sub	esp, 12					; 0000000cH
	mov	DWORD PTR _this$[ebp], ecx
; Line 218
	mov	DWORD PTR __Count$[ebp], 1073741823	; 3fffffffH
; Line 219
	cmp	DWORD PTR __Count$[ebp], 0
	jbe	SHORT $LN3@max_size@2
	mov	eax, DWORD PTR __Count$[ebp]
	mov	DWORD PTR tv65[ebp], eax
	jmp	SHORT $LN4@max_size@2
$LN3@max_size@2:
	mov	DWORD PTR tv65[ebp], 1
$LN4@max_size@2:
	mov	eax, DWORD PTR tv65[ebp]
; Line 220
	mov	esp, ebp
	pop	ebp
	ret	0
?max_size@?$allocator@PAVLogger@common@ibmras@@@std@@QBEIXZ ENDP ; std::allocator<ibmras::common::Logger *>::max_size
_TEXT	ENDS
PUBLIC	??8?$_Vector_const_iterator@V?$_Vector_val@PAVLogger@common@ibmras@@V?$allocator@PAVLogger@common@ibmras@@@std@@@std@@@std@@QBE_NABV01@@Z ; std::_Vector_const_iterator<std::_Vector_val<ibmras::common::Logger *,std::allocator<ibmras::common::Logger *> > >::operator==
; Function compile flags: /Odtp
;	COMDAT ??9?$_Vector_const_iterator@V?$_Vector_val@PAVLogger@common@ibmras@@V?$allocator@PAVLogger@common@ibmras@@@std@@@std@@@std@@QBE_NABV01@@Z
_TEXT	SEGMENT
_this$ = -4						; size = 4
__Right$ = 8						; size = 4
??9?$_Vector_const_iterator@V?$_Vector_val@PAVLogger@common@ibmras@@V?$allocator@PAVLogger@common@ibmras@@@std@@@std@@@std@@QBE_NABV01@@Z PROC ; std::_Vector_const_iterator<std::_Vector_val<ibmras::common::Logger *,std::allocator<ibmras::common::Logger *> > >::operator!=, COMDAT
; _this$ = ecx
; File c:\program files (x86)\microsoft visual studio 10.0\vc\include\vector
; Line 207
	push	ebp
	mov	ebp, esp
	push	ecx
	mov	DWORD PTR _this$[ebp], ecx
; Line 208
	mov	eax, DWORD PTR __Right$[ebp]
	push	eax
	mov	ecx, DWORD PTR _this$[ebp]
	call	??8?$_Vector_const_iterator@V?$_Vector_val@PAVLogger@common@ibmras@@V?$allocator@PAVLogger@common@ibmras@@@std@@@std@@@std@@QBE_NABV01@@Z ; std::_Vector_const_iterator<std::_Vector_val<ibmras::common::Logger *,std::allocator<ibmras::common::Logger *> > >::operator==
	movzx	eax, al
	neg	eax
	sbb	eax, eax
	add	eax, 1
; Line 209
	mov	esp, ebp
	pop	ebp
	ret	4
??9?$_Vector_const_iterator@V?$_Vector_val@PAVLogger@common@ibmras@@V?$allocator@PAVLogger@common@ibmras@@@std@@@std@@@std@@QBE_NABV01@@Z ENDP ; std::_Vector_const_iterator<std::_Vector_val<ibmras::common::Logger *,std::allocator<ibmras::common::Logger *> > >::operator!=
; Function compile flags: /Odtp
_TEXT	ENDS
;	COMDAT ??0?$_Vector_iterator@V?$_Vector_val@PAVLogger@common@ibmras@@V?$allocator@PAVLogger@common@ibmras@@@std@@@std@@@std@@QAE@PAPAVLogger@common@ibmras@@PBU_Container_base0@1@@Z
_TEXT	SEGMENT
_this$ = -4						; size = 4
__Parg$ = 8						; size = 4
__Pvector$ = 12						; size = 4
??0?$_Vector_iterator@V?$_Vector_val@PAVLogger@common@ibmras@@V?$allocator@PAVLogger@common@ibmras@@@std@@@std@@@std@@QAE@PAPAVLogger@common@ibmras@@PBU_Container_base0@1@@Z PROC ; std::_Vector_iterator<std::_Vector_val<ibmras::common::Logger *,std::allocator<ibmras::common::Logger *> > >::_Vector_iterator<std::_Vector_val<ibmras::common::Logger *,std::allocator<ibmras::common::Logger *> > >, COMDAT
; _this$ = ecx
; Line 304
	push	ebp
	mov	ebp, esp
	push	ecx
	mov	DWORD PTR _this$[ebp], ecx
	mov	eax, DWORD PTR __Pvector$[ebp]
	push	eax
	mov	ecx, DWORD PTR __Parg$[ebp]
	push	ecx
	mov	ecx, DWORD PTR _this$[ebp]
	call	??0?$_Vector_const_iterator@V?$_Vector_val@PAVLogger@common@ibmras@@V?$allocator@PAVLogger@common@ibmras@@@std@@@std@@@std@@QAE@PAPAVLogger@common@ibmras@@PBU_Container_base0@1@@Z ; std::_Vector_const_iterator<std::_Vector_val<ibmras::common::Logger *,std::allocator<ibmras::common::Logger *> > >::_Vector_const_iterator<std::_Vector_val<ibmras::common::Logger *,std::allocator<ibmras::common::Logger *> > >
; Line 305
	mov	eax, DWORD PTR _this$[ebp]
	mov	esp, ebp
	pop	ebp
	ret	8
??0?$_Vector_iterator@V?$_Vector_val@PAVLogger@common@ibmras@@V?$allocator@PAVLogger@common@ibmras@@@std@@@std@@@std@@QAE@PAPAVLogger@common@ibmras@@PBU_Container_base0@1@@Z ENDP ; std::_Vector_iterator<std::_Vector_val<ibmras::common::Logger *,std::allocator<ibmras::common::Logger *> > >::_Vector_iterator<std::_Vector_val<ibmras::common::Logger *,std::allocator<ibmras::common::Logger *> > >
_TEXT	ENDS
PUBLIC	??$_Allocate@D@std@@YAPADIPAD@Z			; std::_Allocate<char>
; Function compile flags: /Odtp
;	COMDAT ?allocate@?$allocator@D@std@@QAEPADI@Z
_TEXT	SEGMENT
_this$ = -4						; size = 4
__Count$ = 8						; size = 4
?allocate@?$allocator@D@std@@QAEPADI@Z PROC		; std::allocator<char>::allocate, COMDAT
; _this$ = ecx
; File c:\program files (x86)\microsoft visual studio 10.0\vc\include\xmemory
; Line 186
	push	ebp
	mov	ebp, esp
	push	ecx
	mov	DWORD PTR _this$[ebp], ecx
; Line 187
	push	0
	mov	eax, DWORD PTR __Count$[ebp]
	push	eax
	call	??$_Allocate@D@std@@YAPADIPAD@Z		; std::_Allocate<char>
	add	esp, 8
; Line 188
	mov	esp, ebp
	pop	ebp
	ret	4
?allocate@?$allocator@D@std@@QAEPADI@Z ENDP		; std::allocator<char>::allocate
; Function compile flags: /Odtp
_TEXT	ENDS
;	COMDAT ?max_size@?$allocator@D@std@@QBEIXZ
_TEXT	SEGMENT
tv65 = -12						; size = 4
_this$ = -8						; size = 4
__Count$ = -4						; size = 4
?max_size@?$allocator@D@std@@QBEIXZ PROC		; std::allocator<char>::max_size, COMDAT
; _this$ = ecx
; Line 217
	push	ebp
	mov	ebp, esp
	sub	esp, 12					; 0000000cH
	mov	DWORD PTR _this$[ebp], ecx
; Line 218
	mov	DWORD PTR __Count$[ebp], -1
; Line 219
	cmp	DWORD PTR __Count$[ebp], 0
	jbe	SHORT $LN3@max_size@3
	mov	eax, DWORD PTR __Count$[ebp]
	mov	DWORD PTR tv65[ebp], eax
	jmp	SHORT $LN4@max_size@3
$LN3@max_size@3:
	mov	DWORD PTR tv65[ebp], 1
$LN4@max_size@3:
	mov	eax, DWORD PTR tv65[ebp]
; Line 220
	mov	esp, ebp
	pop	ebp
	ret	0
?max_size@?$allocator@D@std@@QBEIXZ ENDP		; std::allocator<char>::max_size
_TEXT	ENDS
PUBLIC	?_Compat@?$_Vector_const_iterator@V?$_Vector_val@PAVLogger@common@ibmras@@V?$allocator@PAVLogger@common@ibmras@@@std@@@std@@@std@@QBEXABV12@@Z ; std::_Vector_const_iterator<std::_Vector_val<ibmras::common::Logger *,std::allocator<ibmras::common::Logger *> > >::_Compat
; Function compile flags: /Odtp
;	COMDAT ??8?$_Vector_const_iterator@V?$_Vector_val@PAVLogger@common@ibmras@@V?$allocator@PAVLogger@common@ibmras@@@std@@@std@@@std@@QBE_NABV01@@Z
_TEXT	SEGMENT
_this$ = -4						; size = 4
__Right$ = 8						; size = 4
??8?$_Vector_const_iterator@V?$_Vector_val@PAVLogger@common@ibmras@@V?$allocator@PAVLogger@common@ibmras@@@std@@@std@@@std@@QBE_NABV01@@Z PROC ; std::_Vector_const_iterator<std::_Vector_val<ibmras::common::Logger *,std::allocator<ibmras::common::Logger *> > >::operator==, COMDAT
; _this$ = ecx
; File c:\program files (x86)\microsoft visual studio 10.0\vc\include\vector
; Line 201
	push	ebp
	mov	ebp, esp
	push	ecx
	mov	DWORD PTR _this$[ebp], ecx
; Line 202
	mov	eax, DWORD PTR __Right$[ebp]
	push	eax
	mov	ecx, DWORD PTR _this$[ebp]
	call	?_Compat@?$_Vector_const_iterator@V?$_Vector_val@PAVLogger@common@ibmras@@V?$allocator@PAVLogger@common@ibmras@@@std@@@std@@@std@@QBEXABV12@@Z ; std::_Vector_const_iterator<std::_Vector_val<ibmras::common::Logger *,std::allocator<ibmras::common::Logger *> > >::_Compat
; Line 203
	mov	ecx, DWORD PTR _this$[ebp]
	mov	edx, DWORD PTR __Right$[ebp]
	mov	eax, DWORD PTR [ecx]
	xor	ecx, ecx
	cmp	eax, DWORD PTR [edx]
	sete	cl
	mov	al, cl
; Line 204
	mov	esp, ebp
	pop	ebp
	ret	4
??8?$_Vector_const_iterator@V?$_Vector_val@PAVLogger@common@ibmras@@V?$allocator@PAVLogger@common@ibmras@@@std@@@std@@@std@@QBE_NABV01@@Z ENDP ; std::_Vector_const_iterator<std::_Vector_val<ibmras::common::Logger *,std::allocator<ibmras::common::Logger *> > >::operator==
; Function compile flags: /Odtp
_TEXT	ENDS
;	COMDAT ?_Compat@?$_Vector_const_iterator@V?$_Vector_val@PAVLogger@common@ibmras@@V?$allocator@PAVLogger@common@ibmras@@@std@@@std@@@std@@QBEXABV12@@Z
_TEXT	SEGMENT
_this$ = -4						; size = 4
___formal$ = 8						; size = 4
?_Compat@?$_Vector_const_iterator@V?$_Vector_val@PAVLogger@common@ibmras@@V?$allocator@PAVLogger@common@ibmras@@@std@@@std@@@std@@QBEXABV12@@Z PROC ; std::_Vector_const_iterator<std::_Vector_val<ibmras::common::Logger *,std::allocator<ibmras::common::Logger *> > >::_Compat, COMDAT
; _this$ = ecx
; Line 252
	push	ebp
	mov	ebp, esp
	push	ecx
	mov	DWORD PTR _this$[ebp], ecx
; Line 253
	mov	esp, ebp
	pop	ebp
	ret	4
?_Compat@?$_Vector_const_iterator@V?$_Vector_val@PAVLogger@common@ibmras@@V?$allocator@PAVLogger@common@ibmras@@@std@@@std@@@std@@QBEXABV12@@Z ENDP ; std::_Vector_const_iterator<std::_Vector_val<ibmras::common::Logger *,std::allocator<ibmras::common::Logger *> > >::_Compat
; Function compile flags: /Odtp
_TEXT	ENDS
;	COMDAT ??$forward@V?$allocator@D@std@@@std@@YA$$QAV?$allocator@D@0@AAV10@@Z
_TEXT	SEGMENT
__Arg$ = 8						; size = 4
??$forward@V?$allocator@D@std@@@std@@YA$$QAV?$allocator@D@0@AAV10@@Z PROC ; std::forward<std::allocator<char> >, COMDAT
; File c:\program files (x86)\microsoft visual studio 10.0\vc\include\utility
; Line 78
	push	ebp
	mov	ebp, esp
; Line 79
	mov	eax, DWORD PTR __Arg$[ebp]
; Line 80
	pop	ebp
	ret	0
??$forward@V?$allocator@D@std@@@std@@YA$$QAV?$allocator@D@0@AAV10@@Z ENDP ; std::forward<std::allocator<char> >
; Function compile flags: /Odtp
_TEXT	ENDS
;	COMDAT ??$forward@V?$basic_string@DU?$char_traits@D@std@@V?$allocator@D@2@@std@@@std@@YA$$QAV?$basic_string@DU?$char_traits@D@std@@V?$allocator@D@2@@0@AAV10@@Z
_TEXT	SEGMENT
__Arg$ = 8						; size = 4
??$forward@V?$basic_string@DU?$char_traits@D@std@@V?$allocator@D@2@@std@@@std@@YA$$QAV?$basic_string@DU?$char_traits@D@std@@V?$allocator@D@2@@0@AAV10@@Z PROC ; std::forward<std::basic_string<char,std::char_traits<char>,std::allocator<char> > >, COMDAT
; Line 78
	push	ebp
	mov	ebp, esp
; Line 79
	mov	eax, DWORD PTR __Arg$[ebp]
; Line 80
	pop	ebp
	ret	0
??$forward@V?$basic_string@DU?$char_traits@D@std@@V?$allocator@D@2@@std@@@std@@YA$$QAV?$basic_string@DU?$char_traits@D@std@@V?$allocator@D@2@@0@AAV10@@Z ENDP ; std::forward<std::basic_string<char,std::char_traits<char>,std::allocator<char> > >
_TEXT	ENDS
PUBLIC	??$_Uninitialized_copy@V?$_Vector_const_iterator@V?$_Vector_val@PAVLogger@common@ibmras@@V?$allocator@PAVLogger@common@ibmras@@@std@@@std@@@std@@PAPAVLogger@common@ibmras@@V?$allocator@PAVLogger@common@ibmras@@@2@@std@@YAPAPAVLogger@common@ibmras@@V?$_Vector_const_iterator@V?$_Vector_val@PAVLogger@common@ibmras@@V?$allocator@PAVLogger@common@ibmras@@@std@@@std@@@0@0PAPAV123@AAV?$allocator@PAVLogger@common@ibmras@@@0@@Z ; std::_Uninitialized_copy<std::_Vector_const_iterator<std::_Vector_val<ibmras::common::Logger *,std::allocator<ibmras::common::Logger *> > >,ibmras::common::Logger * *,std::allocator<ibmras::common::Logger *> >
; Function compile flags: /Odtp
;	COMDAT ??$_Ucopy@V?$_Vector_const_iterator@V?$_Vector_val@PAVLogger@common@ibmras@@V?$allocator@PAVLogger@common@ibmras@@@std@@@std@@@std@@@?$vector@PAVLogger@common@ibmras@@V?$allocator@PAVLogger@common@ibmras@@@std@@@std@@IAEPAPAVLogger@common@ibmras@@V?$_Vector_const_iterator@V?$_Vector_val@PAVLogger@common@ibmras@@V?$allocator@PAVLogger@common@ibmras@@@std@@@std@@@1@0PAPAV234@@Z
_TEXT	SEGMENT
_this$ = -4						; size = 4
__First$ = 8						; size = 4
__Last$ = 12						; size = 4
__Ptr$ = 16						; size = 4
??$_Ucopy@V?$_Vector_const_iterator@V?$_Vector_val@PAVLogger@common@ibmras@@V?$allocator@PAVLogger@common@ibmras@@@std@@@std@@@std@@@?$vector@PAVLogger@common@ibmras@@V?$allocator@PAVLogger@common@ibmras@@@std@@@std@@IAEPAPAVLogger@common@ibmras@@V?$_Vector_const_iterator@V?$_Vector_val@PAVLogger@common@ibmras@@V?$allocator@PAVLogger@common@ibmras@@@std@@@std@@@1@0PAPAV234@@Z PROC ; std::vector<ibmras::common::Logger *,std::allocator<ibmras::common::Logger *> >::_Ucopy<std::_Vector_const_iterator<std::_Vector_val<ibmras::common::Logger *,std::allocator<ibmras::common::Logger *> > > >, COMDAT
; _this$ = ecx
; File c:\program files (x86)\microsoft visual studio 10.0\vc\include\vector
; Line 1315
	push	ebp
	mov	ebp, esp
	push	ecx
	mov	DWORD PTR _this$[ebp], ecx
; Line 1318
	mov	eax, DWORD PTR _this$[ebp]
	add	eax, 12					; 0000000cH
	push	eax
	mov	ecx, DWORD PTR __Ptr$[ebp]
	push	ecx
	mov	edx, DWORD PTR __Last$[ebp]
	push	edx
	mov	eax, DWORD PTR __First$[ebp]
	push	eax
	call	??$_Uninitialized_copy@V?$_Vector_const_iterator@V?$_Vector_val@PAVLogger@common@ibmras@@V?$allocator@PAVLogger@common@ibmras@@@std@@@std@@@std@@PAPAVLogger@common@ibmras@@V?$allocator@PAVLogger@common@ibmras@@@2@@std@@YAPAPAVLogger@common@ibmras@@V?$_Vector_const_iterator@V?$_Vector_val@PAVLogger@common@ibmras@@V?$allocator@PAVLogger@common@ibmras@@@std@@@std@@@0@0PAPAV123@AAV?$allocator@PAVLogger@common@ibmras@@@0@@Z ; std::_Uninitialized_copy<std::_Vector_const_iterator<std::_Vector_val<ibmras::common::Logger *,std::allocator<ibmras::common::Logger *> > >,ibmras::common::Logger * *,std::allocator<ibmras::common::Logger *> >
	add	esp, 16					; 00000010H
; Line 1319
	mov	esp, ebp
	pop	ebp
	ret	12					; 0000000cH
??$_Ucopy@V?$_Vector_const_iterator@V?$_Vector_val@PAVLogger@common@ibmras@@V?$allocator@PAVLogger@common@ibmras@@@std@@@std@@@std@@@?$vector@PAVLogger@common@ibmras@@V?$allocator@PAVLogger@common@ibmras@@@std@@@std@@IAEPAPAVLogger@common@ibmras@@V?$_Vector_const_iterator@V?$_Vector_val@PAVLogger@common@ibmras@@V?$allocator@PAVLogger@common@ibmras@@@std@@@std@@@1@0PAPAV234@@Z ENDP ; std::vector<ibmras::common::Logger *,std::allocator<ibmras::common::Logger *> >::_Ucopy<std::_Vector_const_iterator<std::_Vector_val<ibmras::common::Logger *,std::allocator<ibmras::common::Logger *> > > >
_TEXT	ENDS
PUBLIC	??$_Copy_impl@PAPAVLogger@common@ibmras@@PAPAV123@@std@@YAPAPAVLogger@common@ibmras@@PAPAV123@00U_Scalar_ptr_iterator_tag@0@@Z ; std::_Copy_impl<ibmras::common::Logger * *,ibmras::common::Logger * *>
PUBLIC	??$_Ptr_cat@PAVLogger@common@ibmras@@PAV123@@std@@YA?AU_Scalar_ptr_iterator_tag@0@PAPAVLogger@common@ibmras@@0@Z ; std::_Ptr_cat<ibmras::common::Logger *,ibmras::common::Logger *>
; Function compile flags: /Odtp
;	COMDAT ??$_Copy_impl@PAPAVLogger@common@ibmras@@PAPAV123@@std@@YAPAPAVLogger@common@ibmras@@PAPAV123@00@Z
_TEXT	SEGMENT
$T106163 = -1						; size = 1
__First$ = 8						; size = 4
__Last$ = 12						; size = 4
__Dest$ = 16						; size = 4
??$_Copy_impl@PAPAVLogger@common@ibmras@@PAPAV123@@std@@YAPAPAVLogger@common@ibmras@@PAPAV123@00@Z PROC ; std::_Copy_impl<ibmras::common::Logger * *,ibmras::common::Logger * *>, COMDAT
; File c:\program files (x86)\microsoft visual studio 10.0\vc\include\xutility
; Line 2163
	push	ebp
	mov	ebp, esp
	push	ecx
; Line 2165
	mov	eax, DWORD PTR __Dest$[ebp]
	push	eax
	mov	ecx, DWORD PTR __First$[ebp]
	push	ecx
	call	??$_Ptr_cat@PAVLogger@common@ibmras@@PAV123@@std@@YA?AU_Scalar_ptr_iterator_tag@0@PAPAVLogger@common@ibmras@@0@Z ; std::_Ptr_cat<ibmras::common::Logger *,ibmras::common::Logger *>
	add	esp, 8
	mov	BYTE PTR $T106163[ebp], al
	movzx	edx, BYTE PTR $T106163[ebp]
	push	edx
	mov	eax, DWORD PTR __Dest$[ebp]
	push	eax
	mov	ecx, DWORD PTR __Last$[ebp]
	push	ecx
	mov	edx, DWORD PTR __First$[ebp]
	push	edx
	call	??$_Copy_impl@PAPAVLogger@common@ibmras@@PAPAV123@@std@@YAPAPAVLogger@common@ibmras@@PAPAV123@00U_Scalar_ptr_iterator_tag@0@@Z ; std::_Copy_impl<ibmras::common::Logger * *,ibmras::common::Logger * *>
	add	esp, 16					; 00000010H
; Line 2166
	mov	esp, ebp
	pop	ebp
	ret	0
??$_Copy_impl@PAPAVLogger@common@ibmras@@PAPAV123@@std@@YAPAPAVLogger@common@ibmras@@PAPAV123@00@Z ENDP ; std::_Copy_impl<ibmras::common::Logger * *,ibmras::common::Logger * *>
_TEXT	ENDS
PUBLIC	??$_Uninitialized_copy@PAPAVLogger@common@ibmras@@PAPAV123@V?$allocator@PAVLogger@common@ibmras@@@std@@@std@@YAPAPAVLogger@common@ibmras@@PAPAV123@00AAV?$allocator@PAVLogger@common@ibmras@@@0@@Z ; std::_Uninitialized_copy<ibmras::common::Logger * *,ibmras::common::Logger * *,std::allocator<ibmras::common::Logger *> >
; Function compile flags: /Odtp
;	COMDAT ??$_Ucopy@PAPAVLogger@common@ibmras@@@?$vector@PAVLogger@common@ibmras@@V?$allocator@PAVLogger@common@ibmras@@@std@@@std@@IAEPAPAVLogger@common@ibmras@@PAPAV234@00@Z
_TEXT	SEGMENT
_this$ = -4						; size = 4
__First$ = 8						; size = 4
__Last$ = 12						; size = 4
__Ptr$ = 16						; size = 4
??$_Ucopy@PAPAVLogger@common@ibmras@@@?$vector@PAVLogger@common@ibmras@@V?$allocator@PAVLogger@common@ibmras@@@std@@@std@@IAEPAPAVLogger@common@ibmras@@PAPAV234@00@Z PROC ; std::vector<ibmras::common::Logger *,std::allocator<ibmras::common::Logger *> >::_Ucopy<ibmras::common::Logger * *>, COMDAT
; _this$ = ecx
; File c:\program files (x86)\microsoft visual studio 10.0\vc\include\vector
; Line 1315
	push	ebp
	mov	ebp, esp
	push	ecx
	mov	DWORD PTR _this$[ebp], ecx
; Line 1318
	mov	eax, DWORD PTR _this$[ebp]
	add	eax, 12					; 0000000cH
	push	eax
	mov	ecx, DWORD PTR __Ptr$[ebp]
	push	ecx
	mov	edx, DWORD PTR __Last$[ebp]
	push	edx
	mov	eax, DWORD PTR __First$[ebp]
	push	eax
	call	??$_Uninitialized_copy@PAPAVLogger@common@ibmras@@PAPAV123@V?$allocator@PAVLogger@common@ibmras@@@std@@@std@@YAPAPAVLogger@common@ibmras@@PAPAV123@00AAV?$allocator@PAVLogger@common@ibmras@@@0@@Z ; std::_Uninitialized_copy<ibmras::common::Logger * *,ibmras::common::Logger * *,std::allocator<ibmras::common::Logger *> >
	add	esp, 16					; 00000010H
; Line 1319
	mov	esp, ebp
	pop	ebp
	ret	12					; 0000000cH
??$_Ucopy@PAPAVLogger@common@ibmras@@@?$vector@PAVLogger@common@ibmras@@V?$allocator@PAVLogger@common@ibmras@@@std@@@std@@IAEPAPAVLogger@common@ibmras@@PAPAV234@00@Z ENDP ; std::vector<ibmras::common::Logger *,std::allocator<ibmras::common::Logger *> >::_Ucopy<ibmras::common::Logger * *>
_TEXT	ENDS
PUBLIC	??$?8DD@std@@YA_NABV?$allocator@D@0@0@Z		; std::operator==<char,char>
; Function compile flags: /Odtp
;	COMDAT ??$?9DD@std@@YA_NABV?$allocator@D@0@0@Z
_TEXT	SEGMENT
__Left$ = 8						; size = 4
__Right$ = 12						; size = 4
??$?9DD@std@@YA_NABV?$allocator@D@0@0@Z PROC		; std::operator!=<char,char>, COMDAT
; File c:\program files (x86)\microsoft visual studio 10.0\vc\include\xmemory
; Line 270
	push	ebp
	mov	ebp, esp
; Line 271
	mov	eax, DWORD PTR __Right$[ebp]
	push	eax
	mov	ecx, DWORD PTR __Left$[ebp]
	push	ecx
	call	??$?8DD@std@@YA_NABV?$allocator@D@0@0@Z	; std::operator==<char,char>
	add	esp, 8
	movzx	eax, al
	neg	eax
	sbb	eax, eax
	add	eax, 1
; Line 272
	pop	ebp
	ret	0
??$?9DD@std@@YA_NABV?$allocator@D@0@0@Z ENDP		; std::operator!=<char,char>
_TEXT	ENDS
PUBLIC	??$_Destroy_range@V?$allocator@PAVLogger@common@ibmras@@@std@@@std@@YAXPAPAVLogger@common@ibmras@@0AAV?$allocator@PAVLogger@common@ibmras@@@0@U_Scalar_ptr_iterator_tag@0@@Z ; std::_Destroy_range<std::allocator<ibmras::common::Logger *> >
; Function compile flags: /Odtp
;	COMDAT ??$_Destroy_range@V?$allocator@PAVLogger@common@ibmras@@@std@@@std@@YAXPAPAVLogger@common@ibmras@@0AAV?$allocator@PAVLogger@common@ibmras@@@0@@Z
_TEXT	SEGMENT
$T106170 = -1						; size = 1
__First$ = 8						; size = 4
__Last$ = 12						; size = 4
__Al$ = 16						; size = 4
??$_Destroy_range@V?$allocator@PAVLogger@common@ibmras@@@std@@@std@@YAXPAPAVLogger@common@ibmras@@0AAV?$allocator@PAVLogger@common@ibmras@@@0@@Z PROC ; std::_Destroy_range<std::allocator<ibmras::common::Logger *> >, COMDAT
; Line 87
	push	ebp
	mov	ebp, esp
	push	ecx
; Line 88
	mov	eax, DWORD PTR __Last$[ebp]
	push	eax
	mov	ecx, DWORD PTR __First$[ebp]
	push	ecx
	call	??$_Ptr_cat@PAVLogger@common@ibmras@@PAV123@@std@@YA?AU_Scalar_ptr_iterator_tag@0@PAPAVLogger@common@ibmras@@0@Z ; std::_Ptr_cat<ibmras::common::Logger *,ibmras::common::Logger *>
	add	esp, 8
	mov	BYTE PTR $T106170[ebp], al
	movzx	edx, BYTE PTR $T106170[ebp]
	push	edx
	mov	eax, DWORD PTR __Al$[ebp]
	push	eax
	mov	ecx, DWORD PTR __Last$[ebp]
	push	ecx
	mov	edx, DWORD PTR __First$[ebp]
	push	edx
	call	??$_Destroy_range@V?$allocator@PAVLogger@common@ibmras@@@std@@@std@@YAXPAPAVLogger@common@ibmras@@0AAV?$allocator@PAVLogger@common@ibmras@@@0@U_Scalar_ptr_iterator_tag@0@@Z ; std::_Destroy_range<std::allocator<ibmras::common::Logger *> >
	add	esp, 16					; 00000010H
; Line 89
	mov	esp, ebp
	pop	ebp
	ret	0
??$_Destroy_range@V?$allocator@PAVLogger@common@ibmras@@@std@@@std@@YAXPAPAVLogger@common@ibmras@@0AAV?$allocator@PAVLogger@common@ibmras@@@0@@Z ENDP ; std::_Destroy_range<std::allocator<ibmras::common::Logger *> >
_TEXT	ENDS
PUBLIC	??$_Move@PAPAVLogger@common@ibmras@@PAPAV123@@std@@YAPAPAVLogger@common@ibmras@@PAPAV123@00U_Scalar_ptr_iterator_tag@0@@Z ; std::_Move<ibmras::common::Logger * *,ibmras::common::Logger * *>
; Function compile flags: /Odtp
;	COMDAT ??$_Move@PAPAVLogger@common@ibmras@@PAPAV123@@std@@YAPAPAVLogger@common@ibmras@@PAPAV123@00@Z
_TEXT	SEGMENT
$T106173 = -1						; size = 1
__First$ = 8						; size = 4
__Last$ = 12						; size = 4
__Dest$ = 16						; size = 4
??$_Move@PAPAVLogger@common@ibmras@@PAPAV123@@std@@YAPAPAVLogger@common@ibmras@@PAPAV123@00@Z PROC ; std::_Move<ibmras::common::Logger * *,ibmras::common::Logger * *>, COMDAT
; File c:\program files (x86)\microsoft visual studio 10.0\vc\include\xutility
; Line 2533
	push	ebp
	mov	ebp, esp
	push	ecx
; Line 2535
	mov	eax, DWORD PTR __Dest$[ebp]
	push	eax
	mov	ecx, DWORD PTR __First$[ebp]
	push	ecx
	call	??$_Ptr_cat@PAVLogger@common@ibmras@@PAV123@@std@@YA?AU_Scalar_ptr_iterator_tag@0@PAPAVLogger@common@ibmras@@0@Z ; std::_Ptr_cat<ibmras::common::Logger *,ibmras::common::Logger *>
	add	esp, 8
	mov	BYTE PTR $T106173[ebp], al
	movzx	edx, BYTE PTR $T106173[ebp]
	push	edx
	mov	eax, DWORD PTR __Dest$[ebp]
	push	eax
	mov	ecx, DWORD PTR __Last$[ebp]
	push	ecx
	mov	edx, DWORD PTR __First$[ebp]
	push	edx
	call	??$_Move@PAPAVLogger@common@ibmras@@PAPAV123@@std@@YAPAPAVLogger@common@ibmras@@PAPAV123@00U_Scalar_ptr_iterator_tag@0@@Z ; std::_Move<ibmras::common::Logger * *,ibmras::common::Logger * *>
	add	esp, 16					; 00000010H
; Line 2536
	mov	esp, ebp
	pop	ebp
	ret	0
??$_Move@PAPAVLogger@common@ibmras@@PAPAV123@@std@@YAPAPAVLogger@common@ibmras@@PAPAV123@00@Z ENDP ; std::_Move<ibmras::common::Logger * *,ibmras::common::Logger * *>
_TEXT	ENDS
PUBLIC	__TI2?AVbad_alloc@std@@
PUBLIC	??0bad_alloc@std@@QAE@PBD@Z			; std::bad_alloc::bad_alloc
PUBLIC	??1bad_alloc@std@@UAE@XZ			; std::bad_alloc::~bad_alloc
PUBLIC	__CTA2?AVbad_alloc@std@@
PUBLIC	__CT??_R0?AVbad_alloc@std@@@8??0bad_alloc@std@@QAE@ABV01@@Z12
PUBLIC	??_R0?AVbad_alloc@std@@@8			; std::bad_alloc `RTTI Type Descriptor'
PUBLIC	??0bad_alloc@std@@QAE@ABV01@@Z			; std::bad_alloc::bad_alloc
PUBLIC	__CT??_R0?AVexception@std@@@8??0exception@std@@QAE@ABV01@@Z12
PUBLIC	??_R0?AVexception@std@@@8			; std::exception `RTTI Type Descriptor'
