; Listing generated by Microsoft (R) Optimizing Compiler Version 16.00.40219.01 

	TITLE	C:\workspaces\newagent2\runtime.tools\src\ibmras\monitoring\connector\headless\HLConnectorPlugin.cpp
	.686P
	.XMM
	include listing.inc
	.model	flat

INCLUDELIB MSVCRT
INCLUDELIB OLDNAMES

PUBLIC	?value@?$integral_constant@_N$0A@@tr1@std@@2_NB	; std::tr1::integral_constant<bool,0>::value
PUBLIC	?value@?$integral_constant@_N$00@tr1@std@@2_NB	; std::tr1::integral_constant<bool,1>::value
PUBLIC	?value@?$integral_constant@I$0A@@tr1@std@@2IB	; std::tr1::integral_constant<unsigned int,0>::value
PUBLIC	?_Rank@?$_Arithmetic_traits@_N@std@@2HB		; std::_Arithmetic_traits<bool>::_Rank
PUBLIC	?_Rank@?$_Arithmetic_traits@D@std@@2HB		; std::_Arithmetic_traits<char>::_Rank
PUBLIC	?_Rank@?$_Arithmetic_traits@C@std@@2HB		; std::_Arithmetic_traits<signed char>::_Rank
PUBLIC	?_Rank@?$_Arithmetic_traits@E@std@@2HB		; std::_Arithmetic_traits<unsigned char>::_Rank
PUBLIC	?_Rank@?$_Arithmetic_traits@F@std@@2HB		; std::_Arithmetic_traits<short>::_Rank
PUBLIC	?_Rank@?$_Arithmetic_traits@G@std@@2HB		; std::_Arithmetic_traits<unsigned short>::_Rank
PUBLIC	?_Rank@?$_Arithmetic_traits@H@std@@2HB		; std::_Arithmetic_traits<int>::_Rank
PUBLIC	?_Rank@?$_Arithmetic_traits@I@std@@2HB		; std::_Arithmetic_traits<unsigned int>::_Rank
PUBLIC	?_Rank@?$_Arithmetic_traits@J@std@@2HB		; std::_Arithmetic_traits<long>::_Rank
PUBLIC	?_Rank@?$_Arithmetic_traits@K@std@@2HB		; std::_Arithmetic_traits<unsigned long>::_Rank
PUBLIC	?_Rank@?$_Arithmetic_traits@_J@std@@2HB		; std::_Arithmetic_traits<__int64>::_Rank
PUBLIC	?_Rank@?$_Arithmetic_traits@_K@std@@2HB		; std::_Arithmetic_traits<unsigned __int64>::_Rank
PUBLIC	?_Rank@?$_Arithmetic_traits@M@std@@2HB		; std::_Arithmetic_traits<float>::_Rank
PUBLIC	?_Rank@?$_Arithmetic_traits@N@std@@2HB		; std::_Arithmetic_traits<double>::_Rank
PUBLIC	?_Rank@?$_Arithmetic_traits@O@std@@2HB		; std::_Arithmetic_traits<long double>::_Rank
PUBLIC	?collate@?$_Locbase@H@std@@2HB			; std::_Locbase<int>::collate
PUBLIC	?ctype@?$_Locbase@H@std@@2HB			; std::_Locbase<int>::ctype
PUBLIC	?monetary@?$_Locbase@H@std@@2HB			; std::_Locbase<int>::monetary
PUBLIC	?numeric@?$_Locbase@H@std@@2HB			; std::_Locbase<int>::numeric
PUBLIC	?time@?$_Locbase@H@std@@2HB			; std::_Locbase<int>::time
PUBLIC	?messages@?$_Locbase@H@std@@2HB			; std::_Locbase<int>::messages
PUBLIC	?all@?$_Locbase@H@std@@2HB			; std::_Locbase<int>::all
PUBLIC	?none@?$_Locbase@H@std@@2HB			; std::_Locbase<int>::none
PUBLIC	?skipws@?$_Iosb@H@std@@2W4_Fmtflags@12@B	; std::_Iosb<int>::skipws
PUBLIC	?unitbuf@?$_Iosb@H@std@@2W4_Fmtflags@12@B	; std::_Iosb<int>::unitbuf
PUBLIC	?uppercase@?$_Iosb@H@std@@2W4_Fmtflags@12@B	; std::_Iosb<int>::uppercase
PUBLIC	?showbase@?$_Iosb@H@std@@2W4_Fmtflags@12@B	; std::_Iosb<int>::showbase
PUBLIC	?showpoint@?$_Iosb@H@std@@2W4_Fmtflags@12@B	; std::_Iosb<int>::showpoint
PUBLIC	?showpos@?$_Iosb@H@std@@2W4_Fmtflags@12@B	; std::_Iosb<int>::showpos
PUBLIC	?left@?$_Iosb@H@std@@2W4_Fmtflags@12@B		; std::_Iosb<int>::left
PUBLIC	?right@?$_Iosb@H@std@@2W4_Fmtflags@12@B		; std::_Iosb<int>::right
PUBLIC	?internal@?$_Iosb@H@std@@2W4_Fmtflags@12@B	; std::_Iosb<int>::internal
PUBLIC	?dec@?$_Iosb@H@std@@2W4_Fmtflags@12@B		; std::_Iosb<int>::dec
PUBLIC	?oct@?$_Iosb@H@std@@2W4_Fmtflags@12@B		; std::_Iosb<int>::oct
PUBLIC	?hex@?$_Iosb@H@std@@2W4_Fmtflags@12@B		; std::_Iosb<int>::hex
PUBLIC	?scientific@?$_Iosb@H@std@@2W4_Fmtflags@12@B	; std::_Iosb<int>::scientific
PUBLIC	?fixed@?$_Iosb@H@std@@2W4_Fmtflags@12@B		; std::_Iosb<int>::fixed
PUBLIC	?hexfloat@?$_Iosb@H@std@@2W4_Fmtflags@12@B	; std::_Iosb<int>::hexfloat
PUBLIC	?boolalpha@?$_Iosb@H@std@@2W4_Fmtflags@12@B	; std::_Iosb<int>::boolalpha
PUBLIC	?_Stdio@?$_Iosb@H@std@@2W4_Fmtflags@12@B	; std::_Iosb<int>::_Stdio
PUBLIC	?adjustfield@?$_Iosb@H@std@@2W4_Fmtflags@12@B	; std::_Iosb<int>::adjustfield
PUBLIC	?basefield@?$_Iosb@H@std@@2W4_Fmtflags@12@B	; std::_Iosb<int>::basefield
PUBLIC	?floatfield@?$_Iosb@H@std@@2W4_Fmtflags@12@B	; std::_Iosb<int>::floatfield
PUBLIC	?goodbit@?$_Iosb@H@std@@2W4_Iostate@12@B	; std::_Iosb<int>::goodbit
PUBLIC	?eofbit@?$_Iosb@H@std@@2W4_Iostate@12@B		; std::_Iosb<int>::eofbit
PUBLIC	?failbit@?$_Iosb@H@std@@2W4_Iostate@12@B	; std::_Iosb<int>::failbit
PUBLIC	?badbit@?$_Iosb@H@std@@2W4_Iostate@12@B		; std::_Iosb<int>::badbit
PUBLIC	?_Hardfail@?$_Iosb@H@std@@2W4_Iostate@12@B	; std::_Iosb<int>::_Hardfail
PUBLIC	?in@?$_Iosb@H@std@@2W4_Openmode@12@B		; std::_Iosb<int>::in
PUBLIC	?out@?$_Iosb@H@std@@2W4_Openmode@12@B		; std::_Iosb<int>::out
PUBLIC	?ate@?$_Iosb@H@std@@2W4_Openmode@12@B		; std::_Iosb<int>::ate
PUBLIC	?app@?$_Iosb@H@std@@2W4_Openmode@12@B		; std::_Iosb<int>::app
PUBLIC	?trunc@?$_Iosb@H@std@@2W4_Openmode@12@B		; std::_Iosb<int>::trunc
PUBLIC	?_Nocreate@?$_Iosb@H@std@@2W4_Openmode@12@B	; std::_Iosb<int>::_Nocreate
PUBLIC	?_Noreplace@?$_Iosb@H@std@@2W4_Openmode@12@B	; std::_Iosb<int>::_Noreplace
PUBLIC	?binary@?$_Iosb@H@std@@2W4_Openmode@12@B	; std::_Iosb<int>::binary
PUBLIC	?beg@?$_Iosb@H@std@@2W4_Seekdir@12@B		; std::_Iosb<int>::beg
PUBLIC	?cur@?$_Iosb@H@std@@2W4_Seekdir@12@B		; std::_Iosb<int>::cur
PUBLIC	?end@?$_Iosb@H@std@@2W4_Seekdir@12@B		; std::_Iosb<int>::end
PUBLIC	?instance@headless@connector@monitoring@ibmras@@3PAVHLConnectorPlugin@1234@A ; ibmras::monitoring::connector::headless::instance
_BSS	SEGMENT
?instance@headless@connector@monitoring@ibmras@@3PAVHLConnectorPlugin@1234@A DD 01H DUP (?) ; ibmras::monitoring::connector::headless::instance
_hlConnector DD	01H DUP (?)
_BSS	ENDS
CONST	SEGMENT
$SG97956 DB	'Headless Connector', 00H
CONST	ENDS
;	COMDAT ?end@?$_Iosb@H@std@@2W4_Seekdir@12@B
CONST	SEGMENT
?end@?$_Iosb@H@std@@2W4_Seekdir@12@B DD 02H		; std::_Iosb<int>::end
CONST	ENDS
;	COMDAT ?cur@?$_Iosb@H@std@@2W4_Seekdir@12@B
CONST	SEGMENT
?cur@?$_Iosb@H@std@@2W4_Seekdir@12@B DD 01H		; std::_Iosb<int>::cur
CONST	ENDS
;	COMDAT ?beg@?$_Iosb@H@std@@2W4_Seekdir@12@B
CONST	SEGMENT
?beg@?$_Iosb@H@std@@2W4_Seekdir@12@B DD 00H		; std::_Iosb<int>::beg
CONST	ENDS
;	COMDAT ?binary@?$_Iosb@H@std@@2W4_Openmode@12@B
CONST	SEGMENT
?binary@?$_Iosb@H@std@@2W4_Openmode@12@B DD 020H	; std::_Iosb<int>::binary
CONST	ENDS
;	COMDAT ?_Noreplace@?$_Iosb@H@std@@2W4_Openmode@12@B
CONST	SEGMENT
?_Noreplace@?$_Iosb@H@std@@2W4_Openmode@12@B DD 080H	; std::_Iosb<int>::_Noreplace
CONST	ENDS
;	COMDAT ?_Nocreate@?$_Iosb@H@std@@2W4_Openmode@12@B
CONST	SEGMENT
?_Nocreate@?$_Iosb@H@std@@2W4_Openmode@12@B DD 040H	; std::_Iosb<int>::_Nocreate
CONST	ENDS
;	COMDAT ?trunc@?$_Iosb@H@std@@2W4_Openmode@12@B
CONST	SEGMENT
?trunc@?$_Iosb@H@std@@2W4_Openmode@12@B DD 010H		; std::_Iosb<int>::trunc
CONST	ENDS
;	COMDAT ?app@?$_Iosb@H@std@@2W4_Openmode@12@B
CONST	SEGMENT
?app@?$_Iosb@H@std@@2W4_Openmode@12@B DD 08H		; std::_Iosb<int>::app
CONST	ENDS
;	COMDAT ?ate@?$_Iosb@H@std@@2W4_Openmode@12@B
CONST	SEGMENT
?ate@?$_Iosb@H@std@@2W4_Openmode@12@B DD 04H		; std::_Iosb<int>::ate
CONST	ENDS
;	COMDAT ?out@?$_Iosb@H@std@@2W4_Openmode@12@B
CONST	SEGMENT
?out@?$_Iosb@H@std@@2W4_Openmode@12@B DD 02H		; std::_Iosb<int>::out
CONST	ENDS
;	COMDAT ?in@?$_Iosb@H@std@@2W4_Openmode@12@B
CONST	SEGMENT
?in@?$_Iosb@H@std@@2W4_Openmode@12@B DD 01H		; std::_Iosb<int>::in
CONST	ENDS
;	COMDAT ?_Hardfail@?$_Iosb@H@std@@2W4_Iostate@12@B
CONST	SEGMENT
?_Hardfail@?$_Iosb@H@std@@2W4_Iostate@12@B DD 010H	; std::_Iosb<int>::_Hardfail
CONST	ENDS
;	COMDAT ?badbit@?$_Iosb@H@std@@2W4_Iostate@12@B
CONST	SEGMENT
?badbit@?$_Iosb@H@std@@2W4_Iostate@12@B DD 04H		; std::_Iosb<int>::badbit
CONST	ENDS
;	COMDAT ?failbit@?$_Iosb@H@std@@2W4_Iostate@12@B
CONST	SEGMENT
?failbit@?$_Iosb@H@std@@2W4_Iostate@12@B DD 02H		; std::_Iosb<int>::failbit
CONST	ENDS
;	COMDAT ?eofbit@?$_Iosb@H@std@@2W4_Iostate@12@B
CONST	SEGMENT
?eofbit@?$_Iosb@H@std@@2W4_Iostate@12@B DD 01H		; std::_Iosb<int>::eofbit
CONST	ENDS
;	COMDAT ?goodbit@?$_Iosb@H@std@@2W4_Iostate@12@B
CONST	SEGMENT
?goodbit@?$_Iosb@H@std@@2W4_Iostate@12@B DD 00H		; std::_Iosb<int>::goodbit
CONST	ENDS
;	COMDAT ?floatfield@?$_Iosb@H@std@@2W4_Fmtflags@12@B
CONST	SEGMENT
?floatfield@?$_Iosb@H@std@@2W4_Fmtflags@12@B DD 03000H	; std::_Iosb<int>::floatfield
CONST	ENDS
;	COMDAT ?basefield@?$_Iosb@H@std@@2W4_Fmtflags@12@B
CONST	SEGMENT
?basefield@?$_Iosb@H@std@@2W4_Fmtflags@12@B DD 0e00H	; std::_Iosb<int>::basefield
CONST	ENDS
;	COMDAT ?adjustfield@?$_Iosb@H@std@@2W4_Fmtflags@12@B
CONST	SEGMENT
?adjustfield@?$_Iosb@H@std@@2W4_Fmtflags@12@B DD 01c0H	; std::_Iosb<int>::adjustfield
CONST	ENDS
;	COMDAT ?_Stdio@?$_Iosb@H@std@@2W4_Fmtflags@12@B
CONST	SEGMENT
?_Stdio@?$_Iosb@H@std@@2W4_Fmtflags@12@B DD 08000H	; std::_Iosb<int>::_Stdio
CONST	ENDS
;	COMDAT ?boolalpha@?$_Iosb@H@std@@2W4_Fmtflags@12@B
CONST	SEGMENT
?boolalpha@?$_Iosb@H@std@@2W4_Fmtflags@12@B DD 04000H	; std::_Iosb<int>::boolalpha
CONST	ENDS
;	COMDAT ?hexfloat@?$_Iosb@H@std@@2W4_Fmtflags@12@B
CONST	SEGMENT
?hexfloat@?$_Iosb@H@std@@2W4_Fmtflags@12@B DD 03000H	; std::_Iosb<int>::hexfloat
CONST	ENDS
;	COMDAT ?fixed@?$_Iosb@H@std@@2W4_Fmtflags@12@B
CONST	SEGMENT
?fixed@?$_Iosb@H@std@@2W4_Fmtflags@12@B DD 02000H	; std::_Iosb<int>::fixed
CONST	ENDS
;	COMDAT ?scientific@?$_Iosb@H@std@@2W4_Fmtflags@12@B
CONST	SEGMENT
?scientific@?$_Iosb@H@std@@2W4_Fmtflags@12@B DD 01000H	; std::_Iosb<int>::scientific
CONST	ENDS
;	COMDAT ?hex@?$_Iosb@H@std@@2W4_Fmtflags@12@B
CONST	SEGMENT
?hex@?$_Iosb@H@std@@2W4_Fmtflags@12@B DD 0800H		; std::_Iosb<int>::hex
CONST	ENDS
;	COMDAT ?oct@?$_Iosb@H@std@@2W4_Fmtflags@12@B
CONST	SEGMENT
?oct@?$_Iosb@H@std@@2W4_Fmtflags@12@B DD 0400H		; std::_Iosb<int>::oct
CONST	ENDS
;	COMDAT ?dec@?$_Iosb@H@std@@2W4_Fmtflags@12@B
CONST	SEGMENT
?dec@?$_Iosb@H@std@@2W4_Fmtflags@12@B DD 0200H		; std::_Iosb<int>::dec
CONST	ENDS
;	COMDAT ?internal@?$_Iosb@H@std@@2W4_Fmtflags@12@B
CONST	SEGMENT
?internal@?$_Iosb@H@std@@2W4_Fmtflags@12@B DD 0100H	; std::_Iosb<int>::internal
CONST	ENDS
;	COMDAT ?right@?$_Iosb@H@std@@2W4_Fmtflags@12@B
CONST	SEGMENT
?right@?$_Iosb@H@std@@2W4_Fmtflags@12@B DD 080H		; std::_Iosb<int>::right
CONST	ENDS
;	COMDAT ?left@?$_Iosb@H@std@@2W4_Fmtflags@12@B
CONST	SEGMENT
?left@?$_Iosb@H@std@@2W4_Fmtflags@12@B DD 040H		; std::_Iosb<int>::left
CONST	ENDS
;	COMDAT ?showpos@?$_Iosb@H@std@@2W4_Fmtflags@12@B
CONST	SEGMENT
?showpos@?$_Iosb@H@std@@2W4_Fmtflags@12@B DD 020H	; std::_Iosb<int>::showpos
CONST	ENDS
;	COMDAT ?showpoint@?$_Iosb@H@std@@2W4_Fmtflags@12@B
CONST	SEGMENT
?showpoint@?$_Iosb@H@std@@2W4_Fmtflags@12@B DD 010H	; std::_Iosb<int>::showpoint
CONST	ENDS
;	COMDAT ?showbase@?$_Iosb@H@std@@2W4_Fmtflags@12@B
CONST	SEGMENT
?showbase@?$_Iosb@H@std@@2W4_Fmtflags@12@B DD 08H	; std::_Iosb<int>::showbase
CONST	ENDS
;	COMDAT ?uppercase@?$_Iosb@H@std@@2W4_Fmtflags@12@B
CONST	SEGMENT
?uppercase@?$_Iosb@H@std@@2W4_Fmtflags@12@B DD 04H	; std::_Iosb<int>::uppercase
CONST	ENDS
;	COMDAT ?unitbuf@?$_Iosb@H@std@@2W4_Fmtflags@12@B
CONST	SEGMENT
?unitbuf@?$_Iosb@H@std@@2W4_Fmtflags@12@B DD 02H	; std::_Iosb<int>::unitbuf
CONST	ENDS
;	COMDAT ?skipws@?$_Iosb@H@std@@2W4_Fmtflags@12@B
CONST	SEGMENT
?skipws@?$_Iosb@H@std@@2W4_Fmtflags@12@B DD 01H		; std::_Iosb<int>::skipws
CONST	ENDS
;	COMDAT ?none@?$_Locbase@H@std@@2HB
CONST	SEGMENT
?none@?$_Locbase@H@std@@2HB DD 00H			; std::_Locbase<int>::none
CONST	ENDS
;	COMDAT ?all@?$_Locbase@H@std@@2HB
CONST	SEGMENT
?all@?$_Locbase@H@std@@2HB DD 03fH			; std::_Locbase<int>::all
CONST	ENDS
;	COMDAT ?messages@?$_Locbase@H@std@@2HB
CONST	SEGMENT
?messages@?$_Locbase@H@std@@2HB DD 020H			; std::_Locbase<int>::messages
CONST	ENDS
;	COMDAT ?time@?$_Locbase@H@std@@2HB
CONST	SEGMENT
?time@?$_Locbase@H@std@@2HB DD 010H			; std::_Locbase<int>::time
CONST	ENDS
;	COMDAT ?numeric@?$_Locbase@H@std@@2HB
CONST	SEGMENT
?numeric@?$_Locbase@H@std@@2HB DD 08H			; std::_Locbase<int>::numeric
CONST	ENDS
;	COMDAT ?monetary@?$_Locbase@H@std@@2HB
CONST	SEGMENT
?monetary@?$_Locbase@H@std@@2HB DD 04H			; std::_Locbase<int>::monetary
CONST	ENDS
;	COMDAT ?ctype@?$_Locbase@H@std@@2HB
CONST	SEGMENT
?ctype@?$_Locbase@H@std@@2HB DD 02H			; std::_Locbase<int>::ctype
CONST	ENDS
;	COMDAT ?collate@?$_Locbase@H@std@@2HB
CONST	SEGMENT
?collate@?$_Locbase@H@std@@2HB DD 01H			; std::_Locbase<int>::collate
CONST	ENDS
;	COMDAT ?_Rank@?$_Arithmetic_traits@O@std@@2HB
CONST	SEGMENT
?_Rank@?$_Arithmetic_traits@O@std@@2HB DD 09H		; std::_Arithmetic_traits<long double>::_Rank
CONST	ENDS
;	COMDAT ?_Rank@?$_Arithmetic_traits@N@std@@2HB
CONST	SEGMENT
?_Rank@?$_Arithmetic_traits@N@std@@2HB DD 08H		; std::_Arithmetic_traits<double>::_Rank
CONST	ENDS
;	COMDAT ?_Rank@?$_Arithmetic_traits@M@std@@2HB
CONST	SEGMENT
?_Rank@?$_Arithmetic_traits@M@std@@2HB DD 07H		; std::_Arithmetic_traits<float>::_Rank
CONST	ENDS
;	COMDAT ?_Rank@?$_Arithmetic_traits@_K@std@@2HB
CONST	SEGMENT
?_Rank@?$_Arithmetic_traits@_K@std@@2HB DD 06H		; std::_Arithmetic_traits<unsigned __int64>::_Rank
CONST	ENDS
;	COMDAT ?_Rank@?$_Arithmetic_traits@_J@std@@2HB
CONST	SEGMENT
?_Rank@?$_Arithmetic_traits@_J@std@@2HB DD 06H		; std::_Arithmetic_traits<__int64>::_Rank
CONST	ENDS
;	COMDAT ?_Rank@?$_Arithmetic_traits@K@std@@2HB
CONST	SEGMENT
?_Rank@?$_Arithmetic_traits@K@std@@2HB DD 05H		; std::_Arithmetic_traits<unsigned long>::_Rank
CONST	ENDS
;	COMDAT ?_Rank@?$_Arithmetic_traits@J@std@@2HB
CONST	SEGMENT
?_Rank@?$_Arithmetic_traits@J@std@@2HB DD 05H		; std::_Arithmetic_traits<long>::_Rank
CONST	ENDS
;	COMDAT ?_Rank@?$_Arithmetic_traits@I@std@@2HB
CONST	SEGMENT
?_Rank@?$_Arithmetic_traits@I@std@@2HB DD 04H		; std::_Arithmetic_traits<unsigned int>::_Rank
CONST	ENDS
;	COMDAT ?_Rank@?$_Arithmetic_traits@H@std@@2HB
CONST	SEGMENT
?_Rank@?$_Arithmetic_traits@H@std@@2HB DD 04H		; std::_Arithmetic_traits<int>::_Rank
CONST	ENDS
;	COMDAT ?_Rank@?$_Arithmetic_traits@G@std@@2HB
CONST	SEGMENT
?_Rank@?$_Arithmetic_traits@G@std@@2HB DD 03H		; std::_Arithmetic_traits<unsigned short>::_Rank
CONST	ENDS
;	COMDAT ?_Rank@?$_Arithmetic_traits@F@std@@2HB
CONST	SEGMENT
?_Rank@?$_Arithmetic_traits@F@std@@2HB DD 03H		; std::_Arithmetic_traits<short>::_Rank
CONST	ENDS
;	COMDAT ?_Rank@?$_Arithmetic_traits@E@std@@2HB
CONST	SEGMENT
?_Rank@?$_Arithmetic_traits@E@std@@2HB DD 02H		; std::_Arithmetic_traits<unsigned char>::_Rank
CONST	ENDS
;	COMDAT ?_Rank@?$_Arithmetic_traits@C@std@@2HB
CONST	SEGMENT
?_Rank@?$_Arithmetic_traits@C@std@@2HB DD 02H		; std::_Arithmetic_traits<signed char>::_Rank
CONST	ENDS
;	COMDAT ?_Rank@?$_Arithmetic_traits@D@std@@2HB
CONST	SEGMENT
?_Rank@?$_Arithmetic_traits@D@std@@2HB DD 02H		; std::_Arithmetic_traits<char>::_Rank
CONST	ENDS
;	COMDAT ?_Rank@?$_Arithmetic_traits@_N@std@@2HB
CONST	SEGMENT
?_Rank@?$_Arithmetic_traits@_N@std@@2HB DD 01H		; std::_Arithmetic_traits<bool>::_Rank
CONST	ENDS
;	COMDAT ?value@?$integral_constant@I$0A@@tr1@std@@2IB
CONST	SEGMENT
?value@?$integral_constant@I$0A@@tr1@std@@2IB DD 00H	; std::tr1::integral_constant<unsigned int,0>::value
CONST	ENDS
;	COMDAT ?value@?$integral_constant@_N$00@tr1@std@@2_NB
CONST	SEGMENT
?value@?$integral_constant@_N$00@tr1@std@@2_NB DB 01H	; std::tr1::integral_constant<bool,1>::value
CONST	ENDS
;	COMDAT ?value@?$integral_constant@_N$0A@@tr1@std@@2_NB
CONST	SEGMENT
?value@?$integral_constant@_N$0A@@tr1@std@@2_NB DB 00H	; std::tr1::integral_constant<bool,0>::value
CONST	ENDS
PUBLIC	??4Lock@port@common@ibmras@@QAEAAV0123@ABV0123@@Z ; ibmras::common::port::Lock::operator=
; Function compile flags: /Odtp
;	COMDAT ??4Lock@port@common@ibmras@@QAEAAV0123@ABV0123@@Z
_TEXT	SEGMENT
_this$ = -4						; size = 4
___that$ = 8						; size = 4
??4Lock@port@common@ibmras@@QAEAAV0123@ABV0123@@Z PROC	; ibmras::common::port::Lock::operator=, COMDAT
; _this$ = ecx
	push	ebp
	mov	ebp, esp
	push	ecx
	mov	DWORD PTR _this$[ebp], ecx
	mov	eax, DWORD PTR ___that$[ebp]
	mov	ecx, DWORD PTR [eax]
	mov	edx, DWORD PTR _this$[ebp]
	mov	DWORD PTR [edx], ecx
	mov	eax, DWORD PTR _this$[ebp]
	mov	esp, ebp
	pop	ebp
	ret	4
??4Lock@port@common@ibmras@@QAEAAV0123@ABV0123@@Z ENDP	; ibmras::common::port::Lock::operator=
_TEXT	ENDS
PUBLIC	??1?$basic_string@DU?$char_traits@D@std@@V?$allocator@D@2@@std@@QAE@XZ ; std::basic_string<char,std::char_traits<char>,std::allocator<char> >::~basic_string<char,std::char_traits<char>,std::allocator<char> >
PUBLIC	??1Bucket@agent@monitoring@ibmras@@QAE@XZ	; ibmras::monitoring::agent::Bucket::~Bucket
; Function compile flags: /Odtp
;	COMDAT ??1Bucket@agent@monitoring@ibmras@@QAE@XZ
_TEXT	SEGMENT
_this$ = -4						; size = 4
??1Bucket@agent@monitoring@ibmras@@QAE@XZ PROC		; ibmras::monitoring::agent::Bucket::~Bucket, COMDAT
; _this$ = ecx
	push	ebp
	mov	ebp, esp
	push	ecx
	mov	DWORD PTR _this$[ebp], ecx
	mov	ecx, DWORD PTR _this$[ebp]
	add	ecx, 8
	call	??1?$basic_string@DU?$char_traits@D@std@@V?$allocator@D@2@@std@@QAE@XZ ; std::basic_string<char,std::char_traits<char>,std::allocator<char> >::~basic_string<char,std::char_traits<char>,std::allocator<char> >
	mov	esp, ebp
	pop	ebp
	ret	0
??1Bucket@agent@monitoring@ibmras@@QAE@XZ ENDP		; ibmras::monitoring::agent::Bucket::~Bucket
_TEXT	ENDS
PUBLIC	??0?$basic_string@DU?$char_traits@D@std@@V?$allocator@D@2@@std@@QAE@ABV01@@Z ; std::basic_string<char,std::char_traits<char>,std::allocator<char> >::basic_string<char,std::char_traits<char>,std::allocator<char> >
PUBLIC	??0Bucket@agent@monitoring@ibmras@@QAE@ABV0123@@Z ; ibmras::monitoring::agent::Bucket::Bucket
; Function compile flags: /Odtp
;	COMDAT ??0Bucket@agent@monitoring@ibmras@@QAE@ABV0123@@Z
_TEXT	SEGMENT
_this$ = -4						; size = 4
___that$ = 8						; size = 4
??0Bucket@agent@monitoring@ibmras@@QAE@ABV0123@@Z PROC	; ibmras::monitoring::agent::Bucket::Bucket, COMDAT
; _this$ = ecx
	push	ebp
	mov	ebp, esp
	push	ecx
	mov	DWORD PTR _this$[ebp], ecx
	mov	eax, DWORD PTR _this$[ebp]
	mov	ecx, DWORD PTR ___that$[ebp]
	mov	edx, DWORD PTR [ecx]
	mov	DWORD PTR [eax], edx
	mov	eax, DWORD PTR _this$[ebp]
	mov	ecx, DWORD PTR ___that$[ebp]
	mov	edx, DWORD PTR [ecx+4]
	mov	DWORD PTR [eax+4], edx
	mov	eax, DWORD PTR ___that$[ebp]
	add	eax, 8
	push	eax
	mov	ecx, DWORD PTR _this$[ebp]
	add	ecx, 8
	call	??0?$basic_string@DU?$char_traits@D@std@@V?$allocator@D@2@@std@@QAE@ABV01@@Z ; std::basic_string<char,std::char_traits<char>,std::allocator<char> >::basic_string<char,std::char_traits<char>,std::allocator<char> >
	mov	ecx, DWORD PTR _this$[ebp]
	mov	edx, DWORD PTR ___that$[ebp]
	mov	eax, DWORD PTR [edx+36]
	mov	DWORD PTR [ecx+36], eax
	mov	ecx, DWORD PTR _this$[ebp]
	mov	edx, DWORD PTR ___that$[ebp]
	mov	eax, DWORD PTR [edx+40]
	mov	DWORD PTR [ecx+40], eax
	mov	ecx, DWORD PTR _this$[ebp]
	mov	edx, DWORD PTR ___that$[ebp]
	mov	eax, DWORD PTR [edx+44]
	mov	DWORD PTR [ecx+44], eax
	mov	ecx, DWORD PTR _this$[ebp]
	mov	edx, DWORD PTR ___that$[ebp]
	mov	eax, DWORD PTR [edx+48]
	mov	DWORD PTR [ecx+48], eax
	mov	ecx, DWORD PTR _this$[ebp]
	mov	edx, DWORD PTR ___that$[ebp]
	mov	eax, DWORD PTR [edx+52]
	mov	DWORD PTR [ecx+52], eax
	mov	ecx, DWORD PTR _this$[ebp]
	mov	edx, DWORD PTR ___that$[ebp]
	mov	eax, DWORD PTR [edx+56]
	mov	DWORD PTR [ecx+56], eax
	mov	ecx, DWORD PTR _this$[ebp]
	mov	edx, DWORD PTR ___that$[ebp]
	mov	eax, DWORD PTR [edx+60]
	mov	DWORD PTR [ecx+60], eax
	mov	ecx, DWORD PTR _this$[ebp]
	mov	edx, DWORD PTR ___that$[ebp]
	mov	eax, DWORD PTR [edx+64]
	mov	DWORD PTR [ecx+64], eax
	mov	ecx, DWORD PTR _this$[ebp]
	mov	edx, DWORD PTR ___that$[ebp]
	mov	eax, DWORD PTR [edx+68]
	mov	DWORD PTR [ecx+68], eax
	mov	eax, DWORD PTR _this$[ebp]
	mov	esp, ebp
	pop	ebp
	ret	4
??0Bucket@agent@monitoring@ibmras@@QAE@ABV0123@@Z ENDP	; ibmras::monitoring::agent::Bucket::Bucket
_TEXT	ENDS
PUBLIC	??4?$basic_string@DU?$char_traits@D@std@@V?$allocator@D@2@@std@@QAEAAV01@ABV01@@Z ; std::basic_string<char,std::char_traits<char>,std::allocator<char> >::operator=
PUBLIC	??4Bucket@agent@monitoring@ibmras@@QAEAAV0123@ABV0123@@Z ; ibmras::monitoring::agent::Bucket::operator=
; Function compile flags: /Odtp
;	COMDAT ??4Bucket@agent@monitoring@ibmras@@QAEAAV0123@ABV0123@@Z
_TEXT	SEGMENT
_this$ = -4						; size = 4
___that$ = 8						; size = 4
??4Bucket@agent@monitoring@ibmras@@QAEAAV0123@ABV0123@@Z PROC ; ibmras::monitoring::agent::Bucket::operator=, COMDAT
; _this$ = ecx
	push	ebp
	mov	ebp, esp
	push	ecx
	mov	DWORD PTR _this$[ebp], ecx
	mov	eax, DWORD PTR _this$[ebp]
	mov	ecx, DWORD PTR ___that$[ebp]
	mov	edx, DWORD PTR [ecx]
	mov	DWORD PTR [eax], edx
	mov	eax, DWORD PTR _this$[ebp]
	mov	ecx, DWORD PTR ___that$[ebp]
	mov	edx, DWORD PTR [ecx+4]
	mov	DWORD PTR [eax+4], edx
	mov	eax, DWORD PTR ___that$[ebp]
	add	eax, 8
	push	eax
	mov	ecx, DWORD PTR _this$[ebp]
	add	ecx, 8
	call	??4?$basic_string@DU?$char_traits@D@std@@V?$allocator@D@2@@std@@QAEAAV01@ABV01@@Z ; std::basic_string<char,std::char_traits<char>,std::allocator<char> >::operator=
	mov	ecx, DWORD PTR _this$[ebp]
	mov	edx, DWORD PTR ___that$[ebp]
	mov	eax, DWORD PTR [edx+36]
	mov	DWORD PTR [ecx+36], eax
	mov	ecx, DWORD PTR _this$[ebp]
	mov	edx, DWORD PTR ___that$[ebp]
	mov	eax, DWORD PTR [edx+40]
	mov	DWORD PTR [ecx+40], eax
	mov	ecx, DWORD PTR _this$[ebp]
	mov	edx, DWORD PTR ___that$[ebp]
	mov	eax, DWORD PTR [edx+44]
	mov	DWORD PTR [ecx+44], eax
	mov	ecx, DWORD PTR _this$[ebp]
	mov	edx, DWORD PTR ___that$[ebp]
	mov	eax, DWORD PTR [edx+48]
	mov	DWORD PTR [ecx+48], eax
	mov	ecx, DWORD PTR _this$[ebp]
	mov	edx, DWORD PTR ___that$[ebp]
	mov	eax, DWORD PTR [edx+52]
	mov	DWORD PTR [ecx+52], eax
	mov	ecx, DWORD PTR _this$[ebp]
	mov	edx, DWORD PTR ___that$[ebp]
	mov	eax, DWORD PTR [edx+56]
	mov	DWORD PTR [ecx+56], eax
	mov	ecx, DWORD PTR _this$[ebp]
	mov	edx, DWORD PTR ___that$[ebp]
	mov	eax, DWORD PTR [edx+60]
	mov	DWORD PTR [ecx+60], eax
	mov	ecx, DWORD PTR _this$[ebp]
	mov	edx, DWORD PTR ___that$[ebp]
	mov	eax, DWORD PTR [edx+64]
	mov	DWORD PTR [ecx+64], eax
	mov	ecx, DWORD PTR _this$[ebp]
	mov	edx, DWORD PTR ___that$[ebp]
	mov	eax, DWORD PTR [edx+68]
	mov	DWORD PTR [ecx+68], eax
	mov	eax, DWORD PTR _this$[ebp]
	mov	esp, ebp
	pop	ebp
	ret	4
??4Bucket@agent@monitoring@ibmras@@QAEAAV0123@ABV0123@@Z ENDP ; ibmras::monitoring::agent::Bucket::operator=
_TEXT	ENDS
PUBLIC	??0?$vector@PAVBucket@agent@monitoring@ibmras@@V?$allocator@PAVBucket@agent@monitoring@ibmras@@@std@@@std@@QAE@XZ ; std::vector<ibmras::monitoring::agent::Bucket *,std::allocator<ibmras::monitoring::agent::Bucket *> >::vector<ibmras::monitoring::agent::Bucket *,std::allocator<ibmras::monitoring::agent::Bucket *> >
PUBLIC	??0BucketList@agent@monitoring@ibmras@@QAE@XZ	; ibmras::monitoring::agent::BucketList::BucketList
; Function compile flags: /Odtp
;	COMDAT ??0BucketList@agent@monitoring@ibmras@@QAE@XZ
_TEXT	SEGMENT
_this$ = -4						; size = 4
??0BucketList@agent@monitoring@ibmras@@QAE@XZ PROC	; ibmras::monitoring::agent::BucketList::BucketList, COMDAT
; _this$ = ecx
	push	ebp
	mov	ebp, esp
	push	ecx
	mov	DWORD PTR _this$[ebp], ecx
	mov	ecx, DWORD PTR _this$[ebp]
	call	??0?$vector@PAVBucket@agent@monitoring@ibmras@@V?$allocator@PAVBucket@agent@monitoring@ibmras@@@std@@@std@@QAE@XZ ; std::vector<ibmras::monitoring::agent::Bucket *,std::allocator<ibmras::monitoring::agent::Bucket *> >::vector<ibmras::monitoring::agent::Bucket *,std::allocator<ibmras::monitoring::agent::Bucket *> >
	mov	eax, DWORD PTR _this$[ebp]
	mov	esp, ebp
	pop	ebp
	ret	0
??0BucketList@agent@monitoring@ibmras@@QAE@XZ ENDP	; ibmras::monitoring::agent::BucketList::BucketList
_TEXT	ENDS
PUBLIC	??1?$vector@PAVBucket@agent@monitoring@ibmras@@V?$allocator@PAVBucket@agent@monitoring@ibmras@@@std@@@std@@QAE@XZ ; std::vector<ibmras::monitoring::agent::Bucket *,std::allocator<ibmras::monitoring::agent::Bucket *> >::~vector<ibmras::monitoring::agent::Bucket *,std::allocator<ibmras::monitoring::agent::Bucket *> >
PUBLIC	??1BucketList@agent@monitoring@ibmras@@QAE@XZ	; ibmras::monitoring::agent::BucketList::~BucketList
; Function compile flags: /Odtp
;	COMDAT ??1BucketList@agent@monitoring@ibmras@@QAE@XZ
_TEXT	SEGMENT
_this$ = -4						; size = 4
??1BucketList@agent@monitoring@ibmras@@QAE@XZ PROC	; ibmras::monitoring::agent::BucketList::~BucketList, COMDAT
; _this$ = ecx
	push	ebp
	mov	ebp, esp
	push	ecx
	mov	DWORD PTR _this$[ebp], ecx
	mov	ecx, DWORD PTR _this$[ebp]
	call	??1?$vector@PAVBucket@agent@monitoring@ibmras@@V?$allocator@PAVBucket@agent@monitoring@ibmras@@@std@@@std@@QAE@XZ ; std::vector<ibmras::monitoring::agent::Bucket *,std::allocator<ibmras::monitoring::agent::Bucket *> >::~vector<ibmras::monitoring::agent::Bucket *,std::allocator<ibmras::monitoring::agent::Bucket *> >
	mov	esp, ebp
	pop	ebp
	ret	0
??1BucketList@agent@monitoring@ibmras@@QAE@XZ ENDP	; ibmras::monitoring::agent::BucketList::~BucketList
_TEXT	ENDS
PUBLIC	??0?$vector@PAVBucket@agent@monitoring@ibmras@@V?$allocator@PAVBucket@agent@monitoring@ibmras@@@std@@@std@@QAE@ABV01@@Z ; std::vector<ibmras::monitoring::agent::Bucket *,std::allocator<ibmras::monitoring::agent::Bucket *> >::vector<ibmras::monitoring::agent::Bucket *,std::allocator<ibmras::monitoring::agent::Bucket *> >
PUBLIC	??0BucketList@agent@monitoring@ibmras@@QAE@ABV0123@@Z ; ibmras::monitoring::agent::BucketList::BucketList
; Function compile flags: /Odtp
;	COMDAT ??0BucketList@agent@monitoring@ibmras@@QAE@ABV0123@@Z
_TEXT	SEGMENT
_this$ = -4						; size = 4
___that$ = 8						; size = 4
??0BucketList@agent@monitoring@ibmras@@QAE@ABV0123@@Z PROC ; ibmras::monitoring::agent::BucketList::BucketList, COMDAT
; _this$ = ecx
	push	ebp
	mov	ebp, esp
	push	ecx
	mov	DWORD PTR _this$[ebp], ecx
	mov	eax, DWORD PTR ___that$[ebp]
	push	eax
	mov	ecx, DWORD PTR _this$[ebp]
	call	??0?$vector@PAVBucket@agent@monitoring@ibmras@@V?$allocator@PAVBucket@agent@monitoring@ibmras@@@std@@@std@@QAE@ABV01@@Z ; std::vector<ibmras::monitoring::agent::Bucket *,std::allocator<ibmras::monitoring::agent::Bucket *> >::vector<ibmras::monitoring::agent::Bucket *,std::allocator<ibmras::monitoring::agent::Bucket *> >
	mov	eax, DWORD PTR _this$[ebp]
	mov	esp, ebp
	pop	ebp
	ret	4
??0BucketList@agent@monitoring@ibmras@@QAE@ABV0123@@Z ENDP ; ibmras::monitoring::agent::BucketList::BucketList
_TEXT	ENDS
PUBLIC	??4?$vector@PAVBucket@agent@monitoring@ibmras@@V?$allocator@PAVBucket@agent@monitoring@ibmras@@@std@@@std@@QAEAAV01@ABV01@@Z ; std::vector<ibmras::monitoring::agent::Bucket *,std::allocator<ibmras::monitoring::agent::Bucket *> >::operator=
PUBLIC	??4BucketList@agent@monitoring@ibmras@@QAEAAV0123@ABV0123@@Z ; ibmras::monitoring::agent::BucketList::operator=
; Function compile flags: /Odtp
;	COMDAT ??4BucketList@agent@monitoring@ibmras@@QAEAAV0123@ABV0123@@Z
_TEXT	SEGMENT
_this$ = -4						; size = 4
___that$ = 8						; size = 4
??4BucketList@agent@monitoring@ibmras@@QAEAAV0123@ABV0123@@Z PROC ; ibmras::monitoring::agent::BucketList::operator=, COMDAT
; _this$ = ecx
	push	ebp
	mov	ebp, esp
	push	ecx
	mov	DWORD PTR _this$[ebp], ecx
	mov	eax, DWORD PTR ___that$[ebp]
	push	eax
	mov	ecx, DWORD PTR _this$[ebp]
	call	??4?$vector@PAVBucket@agent@monitoring@ibmras@@V?$allocator@PAVBucket@agent@monitoring@ibmras@@@std@@@std@@QAEAAV01@ABV01@@Z ; std::vector<ibmras::monitoring::agent::Bucket *,std::allocator<ibmras::monitoring::agent::Bucket *> >::operator=
	mov	eax, DWORD PTR _this$[ebp]
	mov	esp, ebp
	pop	ebp
	ret	4
??4BucketList@agent@monitoring@ibmras@@QAEAAV0123@ABV0123@@Z ENDP ; ibmras::monitoring::agent::BucketList::operator=
_TEXT	ENDS
PUBLIC	??1Plugin@monitoring@ibmras@@UAE@XZ		; ibmras::monitoring::Plugin::~Plugin
PUBLIC	?getConnector@HLConnectorPlugin@headless@connector@monitoring@ibmras@@CAPAXPBD@Z ; ibmras::monitoring::connector::headless::HLConnectorPlugin::getConnector
PUBLIC	??4?$basic_string@DU?$char_traits@D@std@@V?$allocator@D@2@@std@@QAEAAV01@PBD@Z ; std::basic_string<char,std::char_traits<char>,std::allocator<char> >::operator=
PUBLIC	??_7HLConnectorPlugin@headless@connector@monitoring@ibmras@@6B@ ; ibmras::monitoring::connector::headless::HLConnectorPlugin::`vftable'
PUBLIC	??0HLConnectorPlugin@headless@connector@monitoring@ibmras@@IAE@PAUJavaVM_@@@Z ; ibmras::monitoring::connector::headless::HLConnectorPlugin::HLConnectorPlugin
PUBLIC	??_R4HLConnectorPlugin@headless@connector@monitoring@ibmras@@6B@ ; ibmras::monitoring::connector::headless::HLConnectorPlugin::`RTTI Complete Object Locator'
PUBLIC	??_R0?AVHLConnectorPlugin@headless@connector@monitoring@ibmras@@@8 ; ibmras::monitoring::connector::headless::HLConnectorPlugin `RTTI Type Descriptor'
PUBLIC	??_R3HLConnectorPlugin@headless@connector@monitoring@ibmras@@8 ; ibmras::monitoring::connector::headless::HLConnectorPlugin::`RTTI Class Hierarchy Descriptor'
PUBLIC	??_R2HLConnectorPlugin@headless@connector@monitoring@ibmras@@8 ; ibmras::monitoring::connector::headless::HLConnectorPlugin::`RTTI Base Class Array'
PUBLIC	??_R1A@?0A@EA@HLConnectorPlugin@headless@connector@monitoring@ibmras@@8 ; ibmras::monitoring::connector::headless::HLConnectorPlugin::`RTTI Base Class Descriptor at (0,-1,0,64)'
PUBLIC	??_R1A@?0A@EA@Plugin@monitoring@ibmras@@8	; ibmras::monitoring::Plugin::`RTTI Base Class Descriptor at (0,-1,0,64)'
PUBLIC	??_R0?AVPlugin@monitoring@ibmras@@@8		; ibmras::monitoring::Plugin `RTTI Type Descriptor'
PUBLIC	??_R3Plugin@monitoring@ibmras@@8		; ibmras::monitoring::Plugin::`RTTI Class Hierarchy Descriptor'
PUBLIC	??_R2Plugin@monitoring@ibmras@@8		; ibmras::monitoring::Plugin::`RTTI Base Class Array'
EXTRN	??0Plugin@monitoring@ibmras@@QAE@XZ:PROC	; ibmras::monitoring::Plugin::Plugin
EXTRN	___security_cookie:DWORD
EXTRN	___CxxFrameHandler3:PROC
EXTRN	@__security_check_cookie@4:PROC
EXTRN	??_7type_info@@6B@:QWORD			; type_info::`vftable'
EXTRN	??_EHLConnectorPlugin@headless@connector@monitoring@ibmras@@UAEPAXI@Z:PROC ; ibmras::monitoring::connector::headless::HLConnectorPlugin::`vector deleting destructor'
;	COMDAT ??_R2Plugin@monitoring@ibmras@@8
; File c:\workspaces\newagent2\runtime.tools\src\ibmras\monitoring\connector\headless\hlconnectorplugin.cpp
rdata$r	SEGMENT
??_R2Plugin@monitoring@ibmras@@8 DD FLAT:??_R1A@?0A@EA@Plugin@monitoring@ibmras@@8 ; ibmras::monitoring::Plugin::`RTTI Base Class Array'
rdata$r	ENDS
;	COMDAT ??_R3Plugin@monitoring@ibmras@@8
rdata$r	SEGMENT
??_R3Plugin@monitoring@ibmras@@8 DD 00H			; ibmras::monitoring::Plugin::`RTTI Class Hierarchy Descriptor'
	DD	00H
	DD	01H
	DD	FLAT:??_R2Plugin@monitoring@ibmras@@8
rdata$r	ENDS
;	COMDAT ??_R0?AVPlugin@monitoring@ibmras@@@8
_DATA	SEGMENT
??_R0?AVPlugin@monitoring@ibmras@@@8 DD FLAT:??_7type_info@@6B@ ; ibmras::monitoring::Plugin `RTTI Type Descriptor'
	DD	00H
	DB	'.?AVPlugin@monitoring@ibmras@@', 00H
_DATA	ENDS
;	COMDAT ??_R1A@?0A@EA@Plugin@monitoring@ibmras@@8
rdata$r	SEGMENT
??_R1A@?0A@EA@Plugin@monitoring@ibmras@@8 DD FLAT:??_R0?AVPlugin@monitoring@ibmras@@@8 ; ibmras::monitoring::Plugin::`RTTI Base Class Descriptor at (0,-1,0,64)'
	DD	00H
	DD	00H
	DD	0ffffffffH
	DD	00H
	DD	040H
	DD	FLAT:??_R3Plugin@monitoring@ibmras@@8
rdata$r	ENDS
;	COMDAT ??_R1A@?0A@EA@HLConnectorPlugin@headless@connector@monitoring@ibmras@@8
rdata$r	SEGMENT
??_R1A@?0A@EA@HLConnectorPlugin@headless@connector@monitoring@ibmras@@8 DD FLAT:??_R0?AVHLConnectorPlugin@headless@connector@monitoring@ibmras@@@8 ; ibmras::monitoring::connector::headless::HLConnectorPlugin::`RTTI Base Class Descriptor at (0,-1,0,64)'
	DD	01H
	DD	00H
	DD	0ffffffffH
	DD	00H
	DD	040H
	DD	FLAT:??_R3HLConnectorPlugin@headless@connector@monitoring@ibmras@@8
rdata$r	ENDS
;	COMDAT ??_R2HLConnectorPlugin@headless@connector@monitoring@ibmras@@8
rdata$r	SEGMENT
??_R2HLConnectorPlugin@headless@connector@monitoring@ibmras@@8 DD FLAT:??_R1A@?0A@EA@HLConnectorPlugin@headless@connector@monitoring@ibmras@@8 ; ibmras::monitoring::connector::headless::HLConnectorPlugin::`RTTI Base Class Array'
	DD	FLAT:??_R1A@?0A@EA@Plugin@monitoring@ibmras@@8
rdata$r	ENDS
;	COMDAT ??_R3HLConnectorPlugin@headless@connector@monitoring@ibmras@@8
rdata$r	SEGMENT
??_R3HLConnectorPlugin@headless@connector@monitoring@ibmras@@8 DD 00H ; ibmras::monitoring::connector::headless::HLConnectorPlugin::`RTTI Class Hierarchy Descriptor'
	DD	00H
	DD	02H
	DD	FLAT:??_R2HLConnectorPlugin@headless@connector@monitoring@ibmras@@8
rdata$r	ENDS
;	COMDAT ??_R0?AVHLConnectorPlugin@headless@connector@monitoring@ibmras@@@8
_DATA	SEGMENT
??_R0?AVHLConnectorPlugin@headless@connector@monitoring@ibmras@@@8 DD FLAT:??_7type_info@@6B@ ; ibmras::monitoring::connector::headless::HLConnectorPlugin `RTTI Type Descriptor'
	DD	00H
	DB	'.?AVHLConnectorPlugin@headless@connector@monitoring@ibmr'
	DB	'as@@', 00H
_DATA	ENDS
;	COMDAT ??_R4HLConnectorPlugin@headless@connector@monitoring@ibmras@@6B@
rdata$r	SEGMENT
??_R4HLConnectorPlugin@headless@connector@monitoring@ibmras@@6B@ DD 00H ; ibmras::monitoring::connector::headless::HLConnectorPlugin::`RTTI Complete Object Locator'
	DD	00H
	DD	00H
	DD	FLAT:??_R0?AVHLConnectorPlugin@headless@connector@monitoring@ibmras@@@8
	DD	FLAT:??_R3HLConnectorPlugin@headless@connector@monitoring@ibmras@@8
rdata$r	ENDS
;	COMDAT ??_7HLConnectorPlugin@headless@connector@monitoring@ibmras@@6B@
CONST	SEGMENT
??_7HLConnectorPlugin@headless@connector@monitoring@ibmras@@6B@ DD FLAT:??_R4HLConnectorPlugin@headless@connector@monitoring@ibmras@@6B@ ; ibmras::monitoring::connector::headless::HLConnectorPlugin::`vftable'
	DD	FLAT:??_EHLConnectorPlugin@headless@connector@monitoring@ibmras@@UAEPAXI@Z
CONST	ENDS
xdata$x	SEGMENT
__unwindtable$??0HLConnectorPlugin@headless@connector@monitoring@ibmras@@IAE@PAUJavaVM_@@@Z DD 0ffffffffH
	DD	FLAT:__unwindfunclet$??0HLConnectorPlugin@headless@connector@monitoring@ibmras@@IAE@PAUJavaVM_@@@Z$0
__ehfuncinfo$??0HLConnectorPlugin@headless@connector@monitoring@ibmras@@IAE@PAUJavaVM_@@@Z DD 019930522H
	DD	01H
	DD	FLAT:__unwindtable$??0HLConnectorPlugin@headless@connector@monitoring@ibmras@@IAE@PAUJavaVM_@@@Z
	DD	2 DUP(00H)
	DD	2 DUP(00H)
	DD	00H
	DD	01H
; Function compile flags: /Odtp
xdata$x	ENDS
_TEXT	SEGMENT
_this$ = -16						; size = 4
__$EHRec$ = -12						; size = 12
_theVM$ = 8						; size = 4
??0HLConnectorPlugin@headless@connector@monitoring@ibmras@@IAE@PAUJavaVM_@@@Z PROC ; ibmras::monitoring::connector::headless::HLConnectorPlugin::HLConnectorPlugin
; _this$ = ecx
; Line 24
	push	ebp
	mov	ebp, esp
	push	-1
	push	__ehhandler$??0HLConnectorPlugin@headless@connector@monitoring@ibmras@@IAE@PAUJavaVM_@@@Z
	mov	eax, DWORD PTR fs:0
	push	eax
	push	ecx
	mov	eax, DWORD PTR ___security_cookie
	xor	eax, ebp
	push	eax
	lea	eax, DWORD PTR __$EHRec$[ebp]
	mov	DWORD PTR fs:0, eax
	mov	DWORD PTR _this$[ebp], ecx
	mov	ecx, DWORD PTR _this$[ebp]
	call	??0Plugin@monitoring@ibmras@@QAE@XZ	; ibmras::monitoring::Plugin::Plugin
	mov	DWORD PTR __$EHRec$[ebp+8], 0
	mov	eax, DWORD PTR _this$[ebp]
	mov	DWORD PTR [eax], OFFSET ??_7HLConnectorPlugin@headless@connector@monitoring@ibmras@@6B@
	mov	ecx, DWORD PTR _this$[ebp]
	mov	edx, DWORD PTR _theVM$[ebp]
	mov	DWORD PTR [ecx+68], edx
; Line 25
	push	OFFSET $SG97956
	mov	ecx, DWORD PTR _this$[ebp]
	add	ecx, 4
	call	??4?$basic_string@DU?$char_traits@D@std@@V?$allocator@D@2@@std@@QAEAAV01@PBD@Z ; std::basic_string<char,std::char_traits<char>,std::allocator<char> >::operator=
; Line 26
	mov	eax, DWORD PTR _this$[ebp]
	mov	DWORD PTR [eax+64], 2
; Line 27
	mov	ecx, DWORD PTR _this$[ebp]
	mov	DWORD PTR [ecx+44], 0
; Line 28
	mov	edx, DWORD PTR _this$[ebp]
	mov	DWORD PTR [edx+48], 0
; Line 29
	mov	eax, DWORD PTR _this$[ebp]
	mov	DWORD PTR [eax+52], OFFSET ?getConnector@HLConnectorPlugin@headless@connector@monitoring@ibmras@@CAPAXPBD@Z ; ibmras::monitoring::connector::headless::HLConnectorPlugin::getConnector
; Line 30
	mov	ecx, DWORD PTR _this$[ebp]
	mov	DWORD PTR [ecx+40], 0
; Line 31
	mov	edx, DWORD PTR _this$[ebp]
	mov	DWORD PTR [edx+36], 0
; Line 32
	mov	eax, DWORD PTR _this$[ebp]
	mov	DWORD PTR [eax+56], 0
; Line 33
	mov	DWORD PTR __$EHRec$[ebp+8], -1
	mov	eax, DWORD PTR _this$[ebp]
	mov	ecx, DWORD PTR __$EHRec$[ebp]
	mov	DWORD PTR fs:0, ecx
	pop	ecx
	mov	esp, ebp
	pop	ebp
	ret	4
_TEXT	ENDS
text$x	SEGMENT
__unwindfunclet$??0HLConnectorPlugin@headless@connector@monitoring@ibmras@@IAE@PAUJavaVM_@@@Z$0:
	mov	ecx, DWORD PTR _this$[ebp]
	jmp	??1Plugin@monitoring@ibmras@@UAE@XZ	; ibmras::monitoring::Plugin::~Plugin
__ehhandler$??0HLConnectorPlugin@headless@connector@monitoring@ibmras@@IAE@PAUJavaVM_@@@Z:
	mov	edx, DWORD PTR [esp+8]
	lea	eax, DWORD PTR [edx+12]
	mov	ecx, DWORD PTR [edx-8]
	xor	ecx, eax
	call	@__security_check_cookie@4
	mov	eax, OFFSET __ehfuncinfo$??0HLConnectorPlugin@headless@connector@monitoring@ibmras@@IAE@PAUJavaVM_@@@Z
	jmp	___CxxFrameHandler3
text$x	ENDS
??0HLConnectorPlugin@headless@connector@monitoring@ibmras@@IAE@PAUJavaVM_@@@Z ENDP ; ibmras::monitoring::connector::headless::HLConnectorPlugin::HLConnectorPlugin
PUBLIC	??_7Plugin@monitoring@ibmras@@6B@		; ibmras::monitoring::Plugin::`vftable'
PUBLIC	??_R4Plugin@monitoring@ibmras@@6B@		; ibmras::monitoring::Plugin::`RTTI Complete Object Locator'
EXTRN	??_EPlugin@monitoring@ibmras@@UAEPAXI@Z:PROC	; ibmras::monitoring::Plugin::`vector deleting destructor'
;	COMDAT ??_R4Plugin@monitoring@ibmras@@6B@
; File c:\workspaces\newagent2\runtime.tools\src\ibmras\monitoring\plugin.h
rdata$r	SEGMENT
??_R4Plugin@monitoring@ibmras@@6B@ DD 00H		; ibmras::monitoring::Plugin::`RTTI Complete Object Locator'
	DD	00H
	DD	00H
	DD	FLAT:??_R0?AVPlugin@monitoring@ibmras@@@8
	DD	FLAT:??_R3Plugin@monitoring@ibmras@@8
rdata$r	ENDS
;	COMDAT ??_7Plugin@monitoring@ibmras@@6B@
CONST	SEGMENT
??_7Plugin@monitoring@ibmras@@6B@ DD FLAT:??_R4Plugin@monitoring@ibmras@@6B@ ; ibmras::monitoring::Plugin::`vftable'
	DD	FLAT:??_EPlugin@monitoring@ibmras@@UAEPAXI@Z
; Function compile flags: /Odtp
CONST	ENDS
;	COMDAT ??1Plugin@monitoring@ibmras@@UAE@XZ
_TEXT	SEGMENT
_this$ = -4						; size = 4
??1Plugin@monitoring@ibmras@@UAE@XZ PROC		; ibmras::monitoring::Plugin::~Plugin, COMDAT
; _this$ = ecx
; Line 37
	push	ebp
	mov	ebp, esp
	push	ecx
	mov	DWORD PTR _this$[ebp], ecx
	mov	eax, DWORD PTR _this$[ebp]
	mov	DWORD PTR [eax], OFFSET ??_7Plugin@monitoring@ibmras@@6B@
	mov	ecx, DWORD PTR _this$[ebp]
	add	ecx, 4
	call	??1?$basic_string@DU?$char_traits@D@std@@V?$allocator@D@2@@std@@QAE@XZ ; std::basic_string<char,std::char_traits<char>,std::allocator<char> >::~basic_string<char,std::char_traits<char>,std::allocator<char> >
	mov	esp, ebp
	pop	ebp
	ret	0
??1Plugin@monitoring@ibmras@@UAE@XZ ENDP		; ibmras::monitoring::Plugin::~Plugin
_TEXT	ENDS
EXTRN	??3@YAXPAX@Z:PROC				; operator delete
; Function compile flags: /Odtp
;	COMDAT ??_GPlugin@monitoring@ibmras@@UAEPAXI@Z
_TEXT	SEGMENT
_this$ = -4						; size = 4
___flags$ = 8						; size = 4
??_GPlugin@monitoring@ibmras@@UAEPAXI@Z PROC		; ibmras::monitoring::Plugin::`scalar deleting destructor', COMDAT
; _this$ = ecx
	push	ebp
	mov	ebp, esp
	push	ecx
	mov	DWORD PTR _this$[ebp], ecx
	mov	ecx, DWORD PTR _this$[ebp]
	call	??1Plugin@monitoring@ibmras@@UAE@XZ	; ibmras::monitoring::Plugin::~Plugin
	mov	eax, DWORD PTR ___flags$[ebp]
	and	eax, 1
	je	SHORT $LN1@scalar
	mov	ecx, DWORD PTR _this$[ebp]
	push	ecx
	call	??3@YAXPAX@Z				; operator delete
	add	esp, 4
$LN1@scalar:
	mov	eax, DWORD PTR _this$[ebp]
	mov	esp, ebp
	pop	ebp
	ret	4
??_GPlugin@monitoring@ibmras@@UAEPAXI@Z ENDP		; ibmras::monitoring::Plugin::`scalar deleting destructor'
_TEXT	ENDS
PUBLIC	??1HLConnectorPlugin@headless@connector@monitoring@ibmras@@UAE@XZ ; ibmras::monitoring::connector::headless::HLConnectorPlugin::~HLConnectorPlugin
; Function compile flags: /Odtp
;	COMDAT ??_GHLConnectorPlugin@headless@connector@monitoring@ibmras@@UAEPAXI@Z
_TEXT	SEGMENT
_this$ = -4						; size = 4
___flags$ = 8						; size = 4
??_GHLConnectorPlugin@headless@connector@monitoring@ibmras@@UAEPAXI@Z PROC ; ibmras::monitoring::connector::headless::HLConnectorPlugin::`scalar deleting destructor', COMDAT
; _this$ = ecx
	push	ebp
	mov	ebp, esp
	push	ecx
	mov	DWORD PTR _this$[ebp], ecx
	mov	ecx, DWORD PTR _this$[ebp]
	call	??1HLConnectorPlugin@headless@connector@monitoring@ibmras@@UAE@XZ ; ibmras::monitoring::connector::headless::HLConnectorPlugin::~HLConnectorPlugin
	mov	eax, DWORD PTR ___flags$[ebp]
	and	eax, 1
	je	SHORT $LN1@scalar@2
	mov	ecx, DWORD PTR _this$[ebp]
	push	ecx
	call	??3@YAXPAX@Z				; operator delete
	add	esp, 4
$LN1@scalar@2:
	mov	eax, DWORD PTR _this$[ebp]
	mov	esp, ebp
	pop	ebp
	ret	4
??_GHLConnectorPlugin@headless@connector@monitoring@ibmras@@UAEPAXI@Z ENDP ; ibmras::monitoring::connector::headless::HLConnectorPlugin::`scalar deleting destructor'
; Function compile flags: /Odtp
_TEXT	ENDS
_TEXT	SEGMENT
_this$ = -4						; size = 4
??1HLConnectorPlugin@headless@connector@monitoring@ibmras@@UAE@XZ PROC ; ibmras::monitoring::connector::headless::HLConnectorPlugin::~HLConnectorPlugin
; _this$ = ecx
; File c:\workspaces\newagent2\runtime.tools\src\ibmras\monitoring\connector\headless\hlconnectorplugin.cpp
; Line 35
	push	ebp
	mov	ebp, esp
	push	ecx
	mov	DWORD PTR _this$[ebp], ecx
	mov	eax, DWORD PTR _this$[ebp]
	mov	DWORD PTR [eax], OFFSET ??_7HLConnectorPlugin@headless@connector@monitoring@ibmras@@6B@
	mov	ecx, DWORD PTR _this$[ebp]
	call	??1Plugin@monitoring@ibmras@@UAE@XZ	; ibmras::monitoring::Plugin::~Plugin
	mov	esp, ebp
	pop	ebp
	ret	0
??1HLConnectorPlugin@headless@connector@monitoring@ibmras@@UAE@XZ ENDP ; ibmras::monitoring::connector::headless::HLConnectorPlugin::~HLConnectorPlugin
_TEXT	ENDS
PUBLIC	?getInstance@HLConnectorPlugin@headless@connector@monitoring@ibmras@@SAPAV12345@PAUJavaVM_@@@Z ; ibmras::monitoring::connector::headless::HLConnectorPlugin::getInstance
EXTRN	??2@YAPAXI@Z:PROC				; operator new
xdata$x	SEGMENT
__unwindtable$?getInstance@HLConnectorPlugin@headless@connector@monitoring@ibmras@@SAPAV12345@PAUJavaVM_@@@Z DD 0ffffffffH
	DD	FLAT:__unwindfunclet$?getInstance@HLConnectorPlugin@headless@connector@monitoring@ibmras@@SAPAV12345@PAUJavaVM_@@@Z$0
__ehfuncinfo$?getInstance@HLConnectorPlugin@headless@connector@monitoring@ibmras@@SAPAV12345@PAUJavaVM_@@@Z DD 019930522H
	DD	01H
	DD	FLAT:__unwindtable$?getInstance@HLConnectorPlugin@headless@connector@monitoring@ibmras@@SAPAV12345@PAUJavaVM_@@@Z
	DD	2 DUP(00H)
	DD	2 DUP(00H)
	DD	00H
	DD	01H
; Function compile flags: /Odtp
xdata$x	ENDS
_TEXT	SEGMENT
tv73 = -24						; size = 4
$T104332 = -20						; size = 4
$T104331 = -16						; size = 4
__$EHRec$ = -12						; size = 12
_theVM$ = 8						; size = 4
?getInstance@HLConnectorPlugin@headless@connector@monitoring@ibmras@@SAPAV12345@PAUJavaVM_@@@Z PROC ; ibmras::monitoring::connector::headless::HLConnectorPlugin::getInstance
; Line 37
	push	ebp
	mov	ebp, esp
	push	-1
	push	__ehhandler$?getInstance@HLConnectorPlugin@headless@connector@monitoring@ibmras@@SAPAV12345@PAUJavaVM_@@@Z
	mov	eax, DWORD PTR fs:0
	push	eax
	sub	esp, 12					; 0000000cH
	mov	eax, DWORD PTR ___security_cookie
	xor	eax, ebp
	push	eax
	lea	eax, DWORD PTR __$EHRec$[ebp]
	mov	DWORD PTR fs:0, eax
; Line 38
	cmp	DWORD PTR ?instance@headless@connector@monitoring@ibmras@@3PAVHLConnectorPlugin@1234@A, 0 ; ibmras::monitoring::connector::headless::instance
	jne	SHORT $LN1@getInstanc
; Line 39
	push	72					; 00000048H
	call	??2@YAPAXI@Z				; operator new
	add	esp, 4
	mov	DWORD PTR $T104332[ebp], eax
	mov	DWORD PTR __$EHRec$[ebp+8], 0
	cmp	DWORD PTR $T104332[ebp], 0
	je	SHORT $LN4@getInstanc
	mov	eax, DWORD PTR _theVM$[ebp]
	push	eax
	mov	ecx, DWORD PTR $T104332[ebp]
	call	??0HLConnectorPlugin@headless@connector@monitoring@ibmras@@IAE@PAUJavaVM_@@@Z ; ibmras::monitoring::connector::headless::HLConnectorPlugin::HLConnectorPlugin
	mov	DWORD PTR tv73[ebp], eax
	jmp	SHORT $LN5@getInstanc
$LN4@getInstanc:
	mov	DWORD PTR tv73[ebp], 0
$LN5@getInstanc:
	mov	ecx, DWORD PTR tv73[ebp]
	mov	DWORD PTR $T104331[ebp], ecx
	mov	DWORD PTR __$EHRec$[ebp+8], -1
	mov	edx, DWORD PTR $T104331[ebp]
	mov	DWORD PTR ?instance@headless@connector@monitoring@ibmras@@3PAVHLConnectorPlugin@1234@A, edx ; ibmras::monitoring::connector::headless::instance
$LN1@getInstanc:
; Line 41
	mov	eax, DWORD PTR ?instance@headless@connector@monitoring@ibmras@@3PAVHLConnectorPlugin@1234@A ; ibmras::monitoring::connector::headless::instance
; Line 42
	mov	ecx, DWORD PTR __$EHRec$[ebp]
	mov	DWORD PTR fs:0, ecx
	pop	ecx
	mov	esp, ebp
	pop	ebp
	ret	0
_TEXT	ENDS
text$x	SEGMENT
__unwindfunclet$?getInstance@HLConnectorPlugin@headless@connector@monitoring@ibmras@@SAPAV12345@PAUJavaVM_@@@Z$0:
	mov	eax, DWORD PTR $T104332[ebp]
	push	eax
	call	??3@YAXPAX@Z				; operator delete
	pop	ecx
	ret	0
__ehhandler$?getInstance@HLConnectorPlugin@headless@connector@monitoring@ibmras@@SAPAV12345@PAUJavaVM_@@@Z:
	mov	edx, DWORD PTR [esp+8]
	lea	eax, DWORD PTR [edx+12]
	mov	ecx, DWORD PTR [edx-16]
	xor	ecx, eax
	call	@__security_check_cookie@4
	mov	eax, OFFSET __ehfuncinfo$?getInstance@HLConnectorPlugin@headless@connector@monitoring@ibmras@@SAPAV12345@PAUJavaVM_@@@Z
	jmp	___CxxFrameHandler3
text$x	ENDS
?getInstance@HLConnectorPlugin@headless@connector@monitoring@ibmras@@SAPAV12345@PAUJavaVM_@@@Z ENDP ; ibmras::monitoring::connector::headless::HLConnectorPlugin::getInstance
PUBLIC	?getHLConnector@HLConnectorPlugin@headless@connector@monitoring@ibmras@@AAEPAVHLConnector@2345@XZ ; ibmras::monitoring::connector::headless::HLConnectorPlugin::getHLConnector
; Function compile flags: /Odtp
_TEXT	SEGMENT
_properties$ = 8					; size = 4
?getConnector@HLConnectorPlugin@headless@connector@monitoring@ibmras@@CAPAXPBD@Z PROC ; ibmras::monitoring::connector::headless::HLConnectorPlugin::getConnector
; Line 45
	push	ebp
	mov	ebp, esp
; Line 46
	cmp	DWORD PTR ?instance@headless@connector@monitoring@ibmras@@3PAVHLConnectorPlugin@1234@A, 0 ; ibmras::monitoring::connector::headless::instance
	jne	SHORT $LN1@getConnect
; Line 47
	xor	eax, eax
	jmp	SHORT $LN2@getConnect
$LN1@getConnect:
; Line 49
	mov	ecx, DWORD PTR ?instance@headless@connector@monitoring@ibmras@@3PAVHLConnectorPlugin@1234@A ; ibmras::monitoring::connector::headless::instance
	call	?getHLConnector@HLConnectorPlugin@headless@connector@monitoring@ibmras@@AAEPAVHLConnector@2345@XZ ; ibmras::monitoring::connector::headless::HLConnectorPlugin::getHLConnector
$LN2@getConnect:
; Line 50
	pop	ebp
	ret	0
?getConnector@HLConnectorPlugin@headless@connector@monitoring@ibmras@@CAPAXPBD@Z ENDP ; ibmras::monitoring::connector::headless::HLConnectorPlugin::getConnector
_TEXT	ENDS
EXTRN	?getInstance@HLConnector@headless@connector@monitoring@ibmras@@SAPAV12345@PAUJavaVM_@@@Z:PROC ; ibmras::monitoring::connector::headless::HLConnector::getInstance
; Function compile flags: /Odtp
_TEXT	SEGMENT
_this$ = -4						; size = 4
?getHLConnector@HLConnectorPlugin@headless@connector@monitoring@ibmras@@AAEPAVHLConnector@2345@XZ PROC ; ibmras::monitoring::connector::headless::HLConnectorPlugin::getHLConnector
; _this$ = ecx
; Line 52
	push	ebp
	mov	ebp, esp
	push	ecx
	mov	DWORD PTR _this$[ebp], ecx
; Line 53
	cmp	DWORD PTR _hlConnector, 0
	jne	SHORT $LN1@getHLConne
; Line 54
	mov	eax, DWORD PTR _this$[ebp]
	mov	ecx, DWORD PTR [eax+68]
	push	ecx
	call	?getInstance@HLConnector@headless@connector@monitoring@ibmras@@SAPAV12345@PAUJavaVM_@@@Z ; ibmras::monitoring::connector::headless::HLConnector::getInstance
	add	esp, 4
	mov	DWORD PTR _hlConnector, eax
$LN1@getHLConne:
; Line 57
	mov	eax, DWORD PTR _hlConnector
; Line 58
	mov	esp, ebp
	pop	ebp
	ret	0
?getHLConnector@HLConnectorPlugin@headless@connector@monitoring@ibmras@@AAEPAVHLConnector@2345@XZ ENDP ; ibmras::monitoring::connector::headless::HLConnectorPlugin::getHLConnector
_TEXT	ENDS
PUBLIC	??1?$_String_val@DV?$allocator@D@std@@@std@@QAE@XZ ; std::_String_val<char,std::allocator<char> >::~_String_val<char,std::allocator<char> >
PUBLIC	?assign@?$basic_string@DU?$char_traits@D@std@@V?$allocator@D@2@@std@@QAEAAV12@ABV12@II@Z ; std::basic_string<char,std::char_traits<char>,std::allocator<char> >::assign
PUBLIC	?npos@?$basic_string@DU?$char_traits@D@std@@V?$allocator@D@2@@std@@2IB ; std::basic_string<char,std::char_traits<char>,std::allocator<char> >::npos
PUBLIC	?_Tidy@?$basic_string@DU?$char_traits@D@std@@V?$allocator@D@2@@std@@QAEX_NI@Z ; std::basic_string<char,std::char_traits<char>,std::allocator<char> >::_Tidy
PUBLIC	??0?$_String_val@DV?$allocator@D@std@@@std@@QAE@V?$allocator@D@1@@Z ; std::_String_val<char,std::allocator<char> >::_String_val<char,std::allocator<char> >
PUBLIC	??0?$allocator@D@std@@QAE@ABV01@@Z		; std::allocator<char>::allocator<char>
;	COMDAT ?npos@?$basic_string@DU?$char_traits@D@std@@V?$allocator@D@2@@std@@2IB
; File c:\program files (x86)\microsoft visual studio 10.0\vc\include\xstring
CONST	SEGMENT
?npos@?$basic_string@DU?$char_traits@D@std@@V?$allocator@D@2@@std@@2IB DD 0ffffffffH ; std::basic_string<char,std::char_traits<char>,std::allocator<char> >::npos
CONST	ENDS
;	COMDAT xdata$x
xdata$x	SEGMENT
__unwindtable$??0?$basic_string@DU?$char_traits@D@std@@V?$allocator@D@2@@std@@QAE@ABV01@@Z DD 0ffffffffH
	DD	FLAT:__unwindfunclet$??0?$basic_string@DU?$char_traits@D@std@@V?$allocator@D@2@@std@@QAE@ABV01@@Z$0
__ehfuncinfo$??0?$basic_string@DU?$char_traits@D@std@@V?$allocator@D@2@@std@@QAE@ABV01@@Z DD 019930522H
	DD	01H
	DD	FLAT:__unwindtable$??0?$basic_string@DU?$char_traits@D@std@@V?$allocator@D@2@@std@@QAE@ABV01@@Z
	DD	2 DUP(00H)
	DD	2 DUP(00H)
	DD	00H
	DD	01H
; Function compile flags: /Odtp
xdata$x	ENDS
;	COMDAT ??0?$basic_string@DU?$char_traits@D@std@@V?$allocator@D@2@@std@@QAE@ABV01@@Z
_TEXT	SEGMENT
_this$ = -20						; size = 4
$T104343 = -16						; size = 4
__$EHRec$ = -12						; size = 12
__Right$ = 8						; size = 4
??0?$basic_string@DU?$char_traits@D@std@@V?$allocator@D@2@@std@@QAE@ABV01@@Z PROC ; std::basic_string<char,std::char_traits<char>,std::allocator<char> >::basic_string<char,std::char_traits<char>,std::allocator<char> >, COMDAT
; _this$ = ecx
; Line 543
	push	ebp
	mov	ebp, esp
	push	-1
	push	__ehhandler$??0?$basic_string@DU?$char_traits@D@std@@V?$allocator@D@2@@std@@QAE@ABV01@@Z
	mov	eax, DWORD PTR fs:0
	push	eax
	sub	esp, 8
	mov	eax, DWORD PTR ___security_cookie
	xor	eax, ebp
	push	eax
	lea	eax, DWORD PTR __$EHRec$[ebp]
	mov	DWORD PTR fs:0, eax
	mov	DWORD PTR _this$[ebp], ecx
	mov	eax, DWORD PTR __Right$[ebp]
	add	eax, 24					; 00000018H
	push	ecx
	mov	ecx, esp
	mov	DWORD PTR $T104343[ebp], esp
	push	eax
	call	??0?$allocator@D@std@@QAE@ABV01@@Z	; std::allocator<char>::allocator<char>
	mov	ecx, DWORD PTR _this$[ebp]
	call	??0?$_String_val@DV?$allocator@D@std@@@std@@QAE@V?$allocator@D@1@@Z ; std::_String_val<char,std::allocator<char> >::_String_val<char,std::allocator<char> >
	mov	DWORD PTR __$EHRec$[ebp+8], 0
; Line 544
	push	0
	push	0
	mov	ecx, DWORD PTR _this$[ebp]
	call	?_Tidy@?$basic_string@DU?$char_traits@D@std@@V?$allocator@D@2@@std@@QAEX_NI@Z ; std::basic_string<char,std::char_traits<char>,std::allocator<char> >::_Tidy
; Line 545
	mov	ecx, DWORD PTR ?npos@?$basic_string@DU?$char_traits@D@std@@V?$allocator@D@2@@std@@2IB ; std::basic_string<char,std::char_traits<char>,std::allocator<char> >::npos
	push	ecx
	push	0
	mov	edx, DWORD PTR __Right$[ebp]
	push	edx
	mov	ecx, DWORD PTR _this$[ebp]
	call	?assign@?$basic_string@DU?$char_traits@D@std@@V?$allocator@D@2@@std@@QAEAAV12@ABV12@II@Z ; std::basic_string<char,std::char_traits<char>,std::allocator<char> >::assign
; Line 546
	mov	DWORD PTR __$EHRec$[ebp+8], -1
	mov	eax, DWORD PTR _this$[ebp]
	mov	ecx, DWORD PTR __$EHRec$[ebp]
	mov	DWORD PTR fs:0, ecx
	pop	ecx
	mov	esp, ebp
	pop	ebp
	ret	4
_TEXT	ENDS
;	COMDAT text$x
text$x	SEGMENT
__unwindfunclet$??0?$basic_string@DU?$char_traits@D@std@@V?$allocator@D@2@@std@@QAE@ABV01@@Z$0:
	mov	ecx, DWORD PTR _this$[ebp]
	jmp	??1?$_String_val@DV?$allocator@D@std@@@std@@QAE@XZ ; std::_String_val<char,std::allocator<char> >::~_String_val<char,std::allocator<char> >
__ehhandler$??0?$basic_string@DU?$char_traits@D@std@@V?$allocator@D@2@@std@@QAE@ABV01@@Z:
	mov	edx, DWORD PTR [esp+8]
	lea	eax, DWORD PTR [edx+12]
	mov	ecx, DWORD PTR [edx-12]
	xor	ecx, eax
	call	@__security_check_cookie@4
	mov	eax, OFFSET __ehfuncinfo$??0?$basic_string@DU?$char_traits@D@std@@V?$allocator@D@2@@std@@QAE@ABV01@@Z
	jmp	___CxxFrameHandler3
text$x	ENDS
??0?$basic_string@DU?$char_traits@D@std@@V?$allocator@D@2@@std@@QAE@ABV01@@Z ENDP ; std::basic_string<char,std::char_traits<char>,std::allocator<char> >::basic_string<char,std::char_traits<char>,std::allocator<char> >
;	COMDAT xdata$x
xdata$x	SEGMENT
__unwindtable$??1?$basic_string@DU?$char_traits@D@std@@V?$allocator@D@2@@std@@QAE@XZ DD 0ffffffffH
	DD	FLAT:__unwindfunclet$??1?$basic_string@DU?$char_traits@D@std@@V?$allocator@D@2@@std@@QAE@XZ$0
__ehfuncinfo$??1?$basic_string@DU?$char_traits@D@std@@V?$allocator@D@2@@std@@QAE@XZ DD 019930522H
	DD	01H
	DD	FLAT:__unwindtable$??1?$basic_string@DU?$char_traits@D@std@@V?$allocator@D@2@@std@@QAE@XZ
	DD	2 DUP(00H)
	DD	2 DUP(00H)
	DD	00H
	DD	01H
; Function compile flags: /Odtp
xdata$x	ENDS
;	COMDAT ??1?$basic_string@DU?$char_traits@D@std@@V?$allocator@D@2@@std@@QAE@XZ
_TEXT	SEGMENT
_this$ = -16						; size = 4
__$EHRec$ = -12						; size = 12
??1?$basic_string@DU?$char_traits@D@std@@V?$allocator@D@2@@std@@QAE@XZ PROC ; std::basic_string<char,std::char_traits<char>,std::allocator<char> >::~basic_string<char,std::char_traits<char>,std::allocator<char> >, COMDAT
; _this$ = ecx
; Line 752
	push	ebp
	mov	ebp, esp
	push	-1
	push	__ehhandler$??1?$basic_string@DU?$char_traits@D@std@@V?$allocator@D@2@@std@@QAE@XZ
	mov	eax, DWORD PTR fs:0
	push	eax
	push	ecx
	mov	eax, DWORD PTR ___security_cookie
	xor	eax, ebp
	push	eax
	lea	eax, DWORD PTR __$EHRec$[ebp]
	mov	DWORD PTR fs:0, eax
	mov	DWORD PTR _this$[ebp], ecx
	mov	DWORD PTR __$EHRec$[ebp+8], 0
; Line 753
	push	0
	push	1
	mov	ecx, DWORD PTR _this$[ebp]
	call	?_Tidy@?$basic_string@DU?$char_traits@D@std@@V?$allocator@D@2@@std@@QAEX_NI@Z ; std::basic_string<char,std::char_traits<char>,std::allocator<char> >::_Tidy
; Line 754
	mov	DWORD PTR __$EHRec$[ebp+8], -1
	mov	ecx, DWORD PTR _this$[ebp]
	call	??1?$_String_val@DV?$allocator@D@std@@@std@@QAE@XZ ; std::_String_val<char,std::allocator<char> >::~_String_val<char,std::allocator<char> >
	mov	ecx, DWORD PTR __$EHRec$[ebp]
	mov	DWORD PTR fs:0, ecx
	pop	ecx
	mov	esp, ebp
	pop	ebp
	ret	0
_TEXT	ENDS
;	COMDAT text$x
text$x	SEGMENT
__unwindfunclet$??1?$basic_string@DU?$char_traits@D@std@@V?$allocator@D@2@@std@@QAE@XZ$0:
	mov	ecx, DWORD PTR _this$[ebp]
	jmp	??1?$_String_val@DV?$allocator@D@std@@@std@@QAE@XZ ; std::_String_val<char,std::allocator<char> >::~_String_val<char,std::allocator<char> >
__ehhandler$??1?$basic_string@DU?$char_traits@D@std@@V?$allocator@D@2@@std@@QAE@XZ:
	mov	edx, DWORD PTR [esp+8]
	lea	eax, DWORD PTR [edx+12]
	mov	ecx, DWORD PTR [edx-8]
	xor	ecx, eax
	call	@__security_check_cookie@4
	mov	eax, OFFSET __ehfuncinfo$??1?$basic_string@DU?$char_traits@D@std@@V?$allocator@D@2@@std@@QAE@XZ
	jmp	___CxxFrameHandler3
text$x	ENDS
??1?$basic_string@DU?$char_traits@D@std@@V?$allocator@D@2@@std@@QAE@XZ ENDP ; std::basic_string<char,std::char_traits<char>,std::allocator<char> >::~basic_string<char,std::char_traits<char>,std::allocator<char> >
PUBLIC	?assign@?$basic_string@DU?$char_traits@D@std@@V?$allocator@D@2@@std@@QAEAAV12@ABV12@@Z ; std::basic_string<char,std::char_traits<char>,std::allocator<char> >::assign
; Function compile flags: /Odtp
;	COMDAT ??4?$basic_string@DU?$char_traits@D@std@@V?$allocator@D@2@@std@@QAEAAV01@ABV01@@Z
_TEXT	SEGMENT
_this$ = -4						; size = 4
__Right$ = 8						; size = 4
??4?$basic_string@DU?$char_traits@D@std@@V?$allocator@D@2@@std@@QAEAAV01@ABV01@@Z PROC ; std::basic_string<char,std::char_traits<char>,std::allocator<char> >::operator=, COMDAT
; _this$ = ecx
; Line 762
	push	ebp
	mov	ebp, esp
	push	ecx
	mov	DWORD PTR _this$[ebp], ecx
; Line 763
	mov	eax, DWORD PTR __Right$[ebp]
	push	eax
	mov	ecx, DWORD PTR _this$[ebp]
	call	?assign@?$basic_string@DU?$char_traits@D@std@@V?$allocator@D@2@@std@@QAEAAV12@ABV12@@Z ; std::basic_string<char,std::char_traits<char>,std::allocator<char> >::assign
; Line 764
	mov	esp, ebp
	pop	ebp
	ret	4
??4?$basic_string@DU?$char_traits@D@std@@V?$allocator@D@2@@std@@QAEAAV01@ABV01@@Z ENDP ; std::basic_string<char,std::char_traits<char>,std::allocator<char> >::operator=
_TEXT	ENDS
PUBLIC	?assign@?$basic_string@DU?$char_traits@D@std@@V?$allocator@D@2@@std@@QAEAAV12@PBD@Z ; std::basic_string<char,std::char_traits<char>,std::allocator<char> >::assign
; Function compile flags: /Odtp
;	COMDAT ??4?$basic_string@DU?$char_traits@D@std@@V?$allocator@D@2@@std@@QAEAAV01@PBD@Z
_TEXT	SEGMENT
_this$ = -4						; size = 4
__Ptr$ = 8						; size = 4
??4?$basic_string@DU?$char_traits@D@std@@V?$allocator@D@2@@std@@QAEAAV01@PBD@Z PROC ; std::basic_string<char,std::char_traits<char>,std::allocator<char> >::operator=, COMDAT
; _this$ = ecx
; Line 767
	push	ebp
	mov	ebp, esp
	push	ecx
	mov	DWORD PTR _this$[ebp], ecx
; Line 768
	mov	eax, DWORD PTR __Ptr$[ebp]
	push	eax
	mov	ecx, DWORD PTR _this$[ebp]
	call	?assign@?$basic_string@DU?$char_traits@D@std@@V?$allocator@D@2@@std@@QAEAAV12@PBD@Z ; std::basic_string<char,std::char_traits<char>,std::allocator<char> >::assign
; Line 769
	mov	esp, ebp
	pop	ebp
	ret	4
??4?$basic_string@DU?$char_traits@D@std@@V?$allocator@D@2@@std@@QAEAAV01@PBD@Z ENDP ; std::basic_string<char,std::char_traits<char>,std::allocator<char> >::operator=
_TEXT	ENDS
PUBLIC	??0?$_Vector_val@PAVBucket@agent@monitoring@ibmras@@V?$allocator@PAVBucket@agent@monitoring@ibmras@@@std@@@std@@QAE@V?$allocator@PAVBucket@agent@monitoring@ibmras@@@1@@Z ; std::_Vector_val<ibmras::monitoring::agent::Bucket *,std::allocator<ibmras::monitoring::agent::Bucket *> >::_Vector_val<ibmras::monitoring::agent::Bucket *,std::allocator<ibmras::monitoring::agent::Bucket *> >
PUBLIC	??0?$allocator@PAVBucket@agent@monitoring@ibmras@@@std@@QAE@XZ ; std::allocator<ibmras::monitoring::agent::Bucket *>::allocator<ibmras::monitoring::agent::Bucket *>
; Function compile flags: /Odtp
;	COMDAT ??0?$vector@PAVBucket@agent@monitoring@ibmras@@V?$allocator@PAVBucket@agent@monitoring@ibmras@@@std@@@std@@QAE@XZ
_TEXT	SEGMENT
_this$ = -8						; size = 4
$T104366 = -4						; size = 4
??0?$vector@PAVBucket@agent@monitoring@ibmras@@V?$allocator@PAVBucket@agent@monitoring@ibmras@@@std@@@std@@QAE@XZ PROC ; std::vector<ibmras::monitoring::agent::Bucket *,std::allocator<ibmras::monitoring::agent::Bucket *> >::vector<ibmras::monitoring::agent::Bucket *,std::allocator<ibmras::monitoring::agent::Bucket *> >, COMDAT
; _this$ = ecx
; File c:\program files (x86)\microsoft visual studio 10.0\vc\include\vector
; Line 507
	push	ebp
	mov	ebp, esp
	sub	esp, 8
	mov	DWORD PTR _this$[ebp], ecx
	push	ecx
	mov	ecx, esp
	mov	DWORD PTR $T104366[ebp], esp
	call	??0?$allocator@PAVBucket@agent@monitoring@ibmras@@@std@@QAE@XZ ; std::allocator<ibmras::monitoring::agent::Bucket *>::allocator<ibmras::monitoring::agent::Bucket *>
	mov	ecx, DWORD PTR _this$[ebp]
	call	??0?$_Vector_val@PAVBucket@agent@monitoring@ibmras@@V?$allocator@PAVBucket@agent@monitoring@ibmras@@@std@@@std@@QAE@V?$allocator@PAVBucket@agent@monitoring@ibmras@@@1@@Z ; std::_Vector_val<ibmras::monitoring::agent::Bucket *,std::allocator<ibmras::monitoring::agent::Bucket *> >::_Vector_val<ibmras::monitoring::agent::Bucket *,std::allocator<ibmras::monitoring::agent::Bucket *> >
; Line 508
	mov	eax, DWORD PTR _this$[ebp]
	mov	esp, ebp
	pop	ebp
	ret	0
??0?$vector@PAVBucket@agent@monitoring@ibmras@@V?$allocator@PAVBucket@agent@monitoring@ibmras@@@std@@@std@@QAE@XZ ENDP ; std::vector<ibmras::monitoring::agent::Bucket *,std::allocator<ibmras::monitoring::agent::Bucket *> >::vector<ibmras::monitoring::agent::Bucket *,std::allocator<ibmras::monitoring::agent::Bucket *> >
_TEXT	ENDS
PUBLIC	??1?$_Vector_val@PAVBucket@agent@monitoring@ibmras@@V?$allocator@PAVBucket@agent@monitoring@ibmras@@@std@@@std@@QAE@XZ ; std::_Vector_val<ibmras::monitoring::agent::Bucket *,std::allocator<ibmras::monitoring::agent::Bucket *> >::~_Vector_val<ibmras::monitoring::agent::Bucket *,std::allocator<ibmras::monitoring::agent::Bucket *> >
PUBLIC	?_Tidy@?$vector@PAVBucket@agent@monitoring@ibmras@@V?$allocator@PAVBucket@agent@monitoring@ibmras@@@std@@@std@@IAEXXZ ; std::vector<ibmras::monitoring::agent::Bucket *,std::allocator<ibmras::monitoring::agent::Bucket *> >::_Tidy
PUBLIC	??$_Ucopy@V?$_Vector_const_iterator@V?$_Vector_val@PAVBucket@agent@monitoring@ibmras@@V?$allocator@PAVBucket@agent@monitoring@ibmras@@@std@@@std@@@std@@@?$vector@PAVBucket@agent@monitoring@ibmras@@V?$allocator@PAVBucket@agent@monitoring@ibmras@@@std@@@std@@IAEPAPAVBucket@agent@monitoring@ibmras@@V?$_Vector_const_iterator@V?$_Vector_val@PAVBucket@agent@monitoring@ibmras@@V?$allocator@PAVBucket@agent@monitoring@ibmras@@@std@@@std@@@1@0PAPAV2345@@Z ; std::vector<ibmras::monitoring::agent::Bucket *,std::allocator<ibmras::monitoring::agent::Bucket *> >::_Ucopy<std::_Vector_const_iterator<std::_Vector_val<ibmras::monitoring::agent::Bucket *,std::allocator<ibmras::monitoring::agent::Bucket *> > > >
PUBLIC	?begin@?$vector@PAVBucket@agent@monitoring@ibmras@@V?$allocator@PAVBucket@agent@monitoring@ibmras@@@std@@@std@@QBE?AV?$_Vector_const_iterator@V?$_Vector_val@PAVBucket@agent@monitoring@ibmras@@V?$allocator@PAVBucket@agent@monitoring@ibmras@@@std@@@std@@@2@XZ ; std::vector<ibmras::monitoring::agent::Bucket *,std::allocator<ibmras::monitoring::agent::Bucket *> >::begin
PUBLIC	?end@?$vector@PAVBucket@agent@monitoring@ibmras@@V?$allocator@PAVBucket@agent@monitoring@ibmras@@@std@@@std@@QBE?AV?$_Vector_const_iterator@V?$_Vector_val@PAVBucket@agent@monitoring@ibmras@@V?$allocator@PAVBucket@agent@monitoring@ibmras@@@std@@@std@@@2@XZ ; std::vector<ibmras::monitoring::agent::Bucket *,std::allocator<ibmras::monitoring::agent::Bucket *> >::end
PUBLIC	?_Buy@?$vector@PAVBucket@agent@monitoring@ibmras@@V?$allocator@PAVBucket@agent@monitoring@ibmras@@@std@@@std@@IAE_NI@Z ; std::vector<ibmras::monitoring::agent::Bucket *,std::allocator<ibmras::monitoring::agent::Bucket *> >::_Buy
PUBLIC	?size@?$vector@PAVBucket@agent@monitoring@ibmras@@V?$allocator@PAVBucket@agent@monitoring@ibmras@@@std@@@std@@QBEIXZ ; std::vector<ibmras::monitoring::agent::Bucket *,std::allocator<ibmras::monitoring::agent::Bucket *> >::size
PUBLIC	??0?$allocator@PAVBucket@agent@monitoring@ibmras@@@std@@QAE@ABV01@@Z ; std::allocator<ibmras::monitoring::agent::Bucket *>::allocator<ibmras::monitoring::agent::Bucket *>
EXTRN	__CxxThrowException@8:PROC
;	COMDAT xdata$x
xdata$x	SEGMENT
__catchsym$??0?$vector@PAVBucket@agent@monitoring@ibmras@@V?$allocator@PAVBucket@agent@monitoring@ibmras@@@std@@@std@@QAE@ABV01@@Z$3 DD 040H
	DD	00H
	DD	00H
	DD	FLAT:__catch$??0?$vector@PAVBucket@agent@monitoring@ibmras@@V?$allocator@PAVBucket@agent@monitoring@ibmras@@@std@@@std@@QAE@ABV01@@Z$0
__tryblocktable$??0?$vector@PAVBucket@agent@monitoring@ibmras@@V?$allocator@PAVBucket@agent@monitoring@ibmras@@@std@@@std@@QAE@ABV01@@Z DD 01H
	DD	01H
	DD	02H
	DD	01H
	DD	FLAT:__catchsym$??0?$vector@PAVBucket@agent@monitoring@ibmras@@V?$allocator@PAVBucket@agent@monitoring@ibmras@@@std@@@std@@QAE@ABV01@@Z$3
__unwindtable$??0?$vector@PAVBucket@agent@monitoring@ibmras@@V?$allocator@PAVBucket@agent@monitoring@ibmras@@@std@@@std@@QAE@ABV01@@Z DD 0ffffffffH
	DD	FLAT:__unwindfunclet$??0?$vector@PAVBucket@agent@monitoring@ibmras@@V?$allocator@PAVBucket@agent@monitoring@ibmras@@@std@@@std@@QAE@ABV01@@Z$2
	DD	00H
	DD	00H
	DD	00H
	DD	00H
__ehfuncinfo$??0?$vector@PAVBucket@agent@monitoring@ibmras@@V?$allocator@PAVBucket@agent@monitoring@ibmras@@@std@@@std@@QAE@ABV01@@Z DD 019930522H
	DD	03H
	DD	FLAT:__unwindtable$??0?$vector@PAVBucket@agent@monitoring@ibmras@@V?$allocator@PAVBucket@agent@monitoring@ibmras@@@std@@@std@@QAE@ABV01@@Z
	DD	01H
	DD	FLAT:__tryblocktable$??0?$vector@PAVBucket@agent@monitoring@ibmras@@V?$allocator@PAVBucket@agent@monitoring@ibmras@@@std@@@std@@QAE@ABV01@@Z
	DD	2 DUP(00H)
	DD	00H
	DD	01H
; Function compile flags: /Odtp
xdata$x	ENDS
;	COMDAT ??0?$vector@PAVBucket@agent@monitoring@ibmras@@V?$allocator@PAVBucket@agent@monitoring@ibmras@@@std@@@std@@QAE@ABV01@@Z
_TEXT	SEGMENT
tv157 = -44						; size = 4
tv156 = -40						; size = 4
tv69 = -36						; size = 4
_this$ = -32						; size = 4
$T104372 = -28						; size = 4
$T104371 = -24						; size = 4
$T104370 = -20						; size = 4
__$EHRec$ = -16						; size = 16
__Right$ = 8						; size = 4
??0?$vector@PAVBucket@agent@monitoring@ibmras@@V?$allocator@PAVBucket@agent@monitoring@ibmras@@@std@@@std@@QAE@ABV01@@Z PROC ; std::vector<ibmras::monitoring::agent::Bucket *,std::allocator<ibmras::monitoring::agent::Bucket *> >::vector<ibmras::monitoring::agent::Bucket *,std::allocator<ibmras::monitoring::agent::Bucket *> >, COMDAT
; _this$ = ecx
; Line 535
	push	ebp
	mov	ebp, esp
	push	-1
	push	__ehhandler$??0?$vector@PAVBucket@agent@monitoring@ibmras@@V?$allocator@PAVBucket@agent@monitoring@ibmras@@@std@@@std@@QAE@ABV01@@Z
	mov	eax, DWORD PTR fs:0
	push	eax
	push	ecx
	sub	esp, 28					; 0000001cH
	push	ebx
	push	esi
	push	edi
	mov	eax, DWORD PTR ___security_cookie
	xor	eax, ebp
	push	eax
	lea	eax, DWORD PTR __$EHRec$[ebp+4]
	mov	DWORD PTR fs:0, eax
	mov	DWORD PTR __$EHRec$[ebp], esp
	mov	DWORD PTR _this$[ebp], ecx
	mov	eax, DWORD PTR __Right$[ebp]
	add	eax, 12					; 0000000cH
	push	ecx
	mov	ecx, esp
	mov	DWORD PTR $T104370[ebp], esp
	push	eax
	call	??0?$allocator@PAVBucket@agent@monitoring@ibmras@@@std@@QAE@ABV01@@Z ; std::allocator<ibmras::monitoring::agent::Bucket *>::allocator<ibmras::monitoring::agent::Bucket *>
	mov	ecx, DWORD PTR _this$[ebp]
	call	??0?$_Vector_val@PAVBucket@agent@monitoring@ibmras@@V?$allocator@PAVBucket@agent@monitoring@ibmras@@@std@@@std@@QAE@V?$allocator@PAVBucket@agent@monitoring@ibmras@@@1@@Z ; std::_Vector_val<ibmras::monitoring::agent::Bucket *,std::allocator<ibmras::monitoring::agent::Bucket *> >::_Vector_val<ibmras::monitoring::agent::Bucket *,std::allocator<ibmras::monitoring::agent::Bucket *> >
	mov	DWORD PTR __$EHRec$[ebp+12], 0
; Line 536
	mov	ecx, DWORD PTR __Right$[ebp]
	call	?size@?$vector@PAVBucket@agent@monitoring@ibmras@@V?$allocator@PAVBucket@agent@monitoring@ibmras@@@std@@@std@@QBEIXZ ; std::vector<ibmras::monitoring::agent::Bucket *,std::allocator<ibmras::monitoring::agent::Bucket *> >::size
	push	eax
	mov	ecx, DWORD PTR _this$[ebp]
	call	?_Buy@?$vector@PAVBucket@agent@monitoring@ibmras@@V?$allocator@PAVBucket@agent@monitoring@ibmras@@@std@@@std@@IAE_NI@Z ; std::vector<ibmras::monitoring::agent::Bucket *,std::allocator<ibmras::monitoring::agent::Bucket *> >::_Buy
	movzx	ecx, al
	test	ecx, ecx
	je	SHORT $LN3@vector
; Line 537
	mov	BYTE PTR __$EHRec$[ebp+12], 1
; Line 539
	lea	edx, DWORD PTR $T104371[ebp]
	push	edx
	mov	ecx, DWORD PTR __Right$[ebp]
	call	?end@?$vector@PAVBucket@agent@monitoring@ibmras@@V?$allocator@PAVBucket@agent@monitoring@ibmras@@@std@@@std@@QBE?AV?$_Vector_const_iterator@V?$_Vector_val@PAVBucket@agent@monitoring@ibmras@@V?$allocator@PAVBucket@agent@monitoring@ibmras@@@std@@@std@@@2@XZ ; std::vector<ibmras::monitoring::agent::Bucket *,std::allocator<ibmras::monitoring::agent::Bucket *> >::end
	mov	DWORD PTR tv69[ebp], eax
	lea	eax, DWORD PTR $T104372[ebp]
	push	eax
	mov	ecx, DWORD PTR __Right$[ebp]
	call	?begin@?$vector@PAVBucket@agent@monitoring@ibmras@@V?$allocator@PAVBucket@agent@monitoring@ibmras@@@std@@@std@@QBE?AV?$_Vector_const_iterator@V?$_Vector_val@PAVBucket@agent@monitoring@ibmras@@V?$allocator@PAVBucket@agent@monitoring@ibmras@@@std@@@std@@@2@XZ ; std::vector<ibmras::monitoring::agent::Bucket *,std::allocator<ibmras::monitoring::agent::Bucket *> >::begin
	mov	DWORD PTR tv156[ebp], eax
	mov	ecx, DWORD PTR _this$[ebp]
	mov	edx, DWORD PTR [ecx]
	push	edx
	mov	eax, DWORD PTR tv69[ebp]
	mov	ecx, DWORD PTR [eax]
	push	ecx
	mov	edx, DWORD PTR tv156[ebp]
	mov	eax, DWORD PTR [edx]
	push	eax
	mov	ecx, DWORD PTR _this$[ebp]
	call	??$_Ucopy@V?$_Vector_const_iterator@V?$_Vector_val@PAVBucket@agent@monitoring@ibmras@@V?$allocator@PAVBucket@agent@monitoring@ibmras@@@std@@@std@@@std@@@?$vector@PAVBucket@agent@monitoring@ibmras@@V?$allocator@PAVBucket@agent@monitoring@ibmras@@@std@@@std@@IAEPAPAVBucket@agent@monitoring@ibmras@@V?$_Vector_const_iterator@V?$_Vector_val@PAVBucket@agent@monitoring@ibmras@@V?$allocator@PAVBucket@agent@monitoring@ibmras@@@std@@@std@@@1@0PAPAV2345@@Z ; std::vector<ibmras::monitoring::agent::Bucket *,std::allocator<ibmras::monitoring::agent::Bucket *> >::_Ucopy<std::_Vector_const_iterator<std::_Vector_val<ibmras::monitoring::agent::Bucket *,std::allocator<ibmras::monitoring::agent::Bucket *> > > >
	mov	DWORD PTR tv157[ebp], eax
	mov	ecx, DWORD PTR _this$[ebp]
	mov	edx, DWORD PTR tv157[ebp]
	mov	DWORD PTR [ecx+4], edx
	jmp	SHORT $LN5@vector
__catch$??0?$vector@PAVBucket@agent@monitoring@ibmras@@V?$allocator@PAVBucket@agent@monitoring@ibmras@@@std@@@std@@QAE@ABV01@@Z$0:
; Line 541
	mov	ecx, DWORD PTR _this$[ebp]
	call	?_Tidy@?$vector@PAVBucket@agent@monitoring@ibmras@@V?$allocator@PAVBucket@agent@monitoring@ibmras@@@std@@@std@@IAEXXZ ; std::vector<ibmras::monitoring::agent::Bucket *,std::allocator<ibmras::monitoring::agent::Bucket *> >::_Tidy
; Line 542
	push	0
	push	0
	call	__CxxThrowException@8
; Line 543
	mov	DWORD PTR __$EHRec$[ebp+12], 0
	mov	eax, $LN3@vector
	ret	0
$LN5@vector:
	mov	DWORD PTR __$EHRec$[ebp+12], 0
$LN3@vector:
; Line 544
	mov	DWORD PTR __$EHRec$[ebp+12], -1
	mov	eax, DWORD PTR _this$[ebp]
$LN4@vector:
	mov	ecx, DWORD PTR __$EHRec$[ebp+4]
	mov	DWORD PTR fs:0, ecx
	pop	ecx
	pop	edi
	pop	esi
	pop	ebx
	mov	esp, ebp
	pop	ebp
	ret	4
_TEXT	ENDS
;	COMDAT text$x
text$x	SEGMENT
__unwindfunclet$??0?$vector@PAVBucket@agent@monitoring@ibmras@@V?$allocator@PAVBucket@agent@monitoring@ibmras@@@std@@@std@@QAE@ABV01@@Z$2:
	mov	ecx, DWORD PTR _this$[ebp]
	jmp	??1?$_Vector_val@PAVBucket@agent@monitoring@ibmras@@V?$allocator@PAVBucket@agent@monitoring@ibmras@@@std@@@std@@QAE@XZ ; std::_Vector_val<ibmras::monitoring::agent::Bucket *,std::allocator<ibmras::monitoring::agent::Bucket *> >::~_Vector_val<ibmras::monitoring::agent::Bucket *,std::allocator<ibmras::monitoring::agent::Bucket *> >
__ehhandler$??0?$vector@PAVBucket@agent@monitoring@ibmras@@V?$allocator@PAVBucket@agent@monitoring@ibmras@@@std@@@std@@QAE@ABV01@@Z:
	mov	edx, DWORD PTR [esp+8]
	lea	eax, DWORD PTR [edx+12]
	mov	ecx, DWORD PTR [edx-48]
	xor	ecx, eax
	call	@__security_check_cookie@4
	mov	eax, OFFSET __ehfuncinfo$??0?$vector@PAVBucket@agent@monitoring@ibmras@@V?$allocator@PAVBucket@agent@monitoring@ibmras@@@std@@@std@@QAE@ABV01@@Z
	jmp	___CxxFrameHandler3
text$x	ENDS
??0?$vector@PAVBucket@agent@monitoring@ibmras@@V?$allocator@PAVBucket@agent@monitoring@ibmras@@@std@@@std@@QAE@ABV01@@Z ENDP ; std::vector<ibmras::monitoring::agent::Bucket *,std::allocator<ibmras::monitoring::agent::Bucket *> >::vector<ibmras::monitoring::agent::Bucket *,std::allocator<ibmras::monitoring::agent::Bucket *> >
;	COMDAT xdata$x
xdata$x	SEGMENT
__unwindtable$??1?$vector@PAVBucket@agent@monitoring@ibmras@@V?$allocator@PAVBucket@agent@monitoring@ibmras@@@std@@@std@@QAE@XZ DD 0ffffffffH
	DD	FLAT:__unwindfunclet$??1?$vector@PAVBucket@agent@monitoring@ibmras@@V?$allocator@PAVBucket@agent@monitoring@ibmras@@@std@@@std@@QAE@XZ$0
__ehfuncinfo$??1?$vector@PAVBucket@agent@monitoring@ibmras@@V?$allocator@PAVBucket@agent@monitoring@ibmras@@@std@@@std@@QAE@XZ DD 019930522H
	DD	01H
	DD	FLAT:__unwindtable$??1?$vector@PAVBucket@agent@monitoring@ibmras@@V?$allocator@PAVBucket@agent@monitoring@ibmras@@@std@@@std@@QAE@XZ
	DD	2 DUP(00H)
	DD	2 DUP(00H)
	DD	00H
	DD	01H
; Function compile flags: /Odtp
xdata$x	ENDS
;	COMDAT ??1?$vector@PAVBucket@agent@monitoring@ibmras@@V?$allocator@PAVBucket@agent@monitoring@ibmras@@@std@@@std@@QAE@XZ
_TEXT	SEGMENT
_this$ = -16						; size = 4
__$EHRec$ = -12						; size = 12
??1?$vector@PAVBucket@agent@monitoring@ibmras@@V?$allocator@PAVBucket@agent@monitoring@ibmras@@@std@@@std@@QAE@XZ PROC ; std::vector<ibmras::monitoring::agent::Bucket *,std::allocator<ibmras::monitoring::agent::Bucket *> >::~vector<ibmras::monitoring::agent::Bucket *,std::allocator<ibmras::monitoring::agent::Bucket *> >, COMDAT
; _this$ = ecx
; Line 704
	push	ebp
	mov	ebp, esp
	push	-1
	push	__ehhandler$??1?$vector@PAVBucket@agent@monitoring@ibmras@@V?$allocator@PAVBucket@agent@monitoring@ibmras@@@std@@@std@@QAE@XZ
	mov	eax, DWORD PTR fs:0
	push	eax
	push	ecx
	mov	eax, DWORD PTR ___security_cookie
	xor	eax, ebp
	push	eax
	lea	eax, DWORD PTR __$EHRec$[ebp]
	mov	DWORD PTR fs:0, eax
	mov	DWORD PTR _this$[ebp], ecx
	mov	DWORD PTR __$EHRec$[ebp+8], 0
; Line 705
	mov	ecx, DWORD PTR _this$[ebp]
	call	?_Tidy@?$vector@PAVBucket@agent@monitoring@ibmras@@V?$allocator@PAVBucket@agent@monitoring@ibmras@@@std@@@std@@IAEXXZ ; std::vector<ibmras::monitoring::agent::Bucket *,std::allocator<ibmras::monitoring::agent::Bucket *> >::_Tidy
; Line 706
	mov	DWORD PTR __$EHRec$[ebp+8], -1
	mov	ecx, DWORD PTR _this$[ebp]
	call	??1?$_Vector_val@PAVBucket@agent@monitoring@ibmras@@V?$allocator@PAVBucket@agent@monitoring@ibmras@@@std@@@std@@QAE@XZ ; std::_Vector_val<ibmras::monitoring::agent::Bucket *,std::allocator<ibmras::monitoring::agent::Bucket *> >::~_Vector_val<ibmras::monitoring::agent::Bucket *,std::allocator<ibmras::monitoring::agent::Bucket *> >
	mov	ecx, DWORD PTR __$EHRec$[ebp]
	mov	DWORD PTR fs:0, ecx
	pop	ecx
	mov	esp, ebp
	pop	ebp
	ret	0
_TEXT	ENDS
;	COMDAT text$x
text$x	SEGMENT
__unwindfunclet$??1?$vector@PAVBucket@agent@monitoring@ibmras@@V?$allocator@PAVBucket@agent@monitoring@ibmras@@@std@@@std@@QAE@XZ$0:
	mov	ecx, DWORD PTR _this$[ebp]
	jmp	??1?$_Vector_val@PAVBucket@agent@monitoring@ibmras@@V?$allocator@PAVBucket@agent@monitoring@ibmras@@@std@@@std@@QAE@XZ ; std::_Vector_val<ibmras::monitoring::agent::Bucket *,std::allocator<ibmras::monitoring::agent::Bucket *> >::~_Vector_val<ibmras::monitoring::agent::Bucket *,std::allocator<ibmras::monitoring::agent::Bucket *> >
__ehhandler$??1?$vector@PAVBucket@agent@monitoring@ibmras@@V?$allocator@PAVBucket@agent@monitoring@ibmras@@@std@@@std@@QAE@XZ:
	mov	edx, DWORD PTR [esp+8]
	lea	eax, DWORD PTR [edx+12]
	mov	ecx, DWORD PTR [edx-8]
	xor	ecx, eax
	call	@__security_check_cookie@4
	mov	eax, OFFSET __ehfuncinfo$??1?$vector@PAVBucket@agent@monitoring@ibmras@@V?$allocator@PAVBucket@agent@monitoring@ibmras@@@std@@@std@@QAE@XZ
	jmp	___CxxFrameHandler3
text$x	ENDS
??1?$vector@PAVBucket@agent@monitoring@ibmras@@V?$allocator@PAVBucket@agent@monitoring@ibmras@@@std@@@std@@QAE@XZ ENDP ; std::vector<ibmras::monitoring::agent::Bucket *,std::allocator<ibmras::monitoring::agent::Bucket *> >::~vector<ibmras::monitoring::agent::Bucket *,std::allocator<ibmras::monitoring::agent::Bucket *> >
PUBLIC	?deallocate@?$allocator@PAVBucket@agent@monitoring@ibmras@@@std@@QAEXPAPAVBucket@agent@monitoring@ibmras@@I@Z ; std::allocator<ibmras::monitoring::agent::Bucket *>::deallocate
PUBLIC	??$_Ucopy@PAPAVBucket@agent@monitoring@ibmras@@@?$vector@PAVBucket@agent@monitoring@ibmras@@V?$allocator@PAVBucket@agent@monitoring@ibmras@@@std@@@std@@IAEPAPAVBucket@agent@monitoring@ibmras@@PAPAV2345@00@Z ; std::vector<ibmras::monitoring::agent::Bucket *,std::allocator<ibmras::monitoring::agent::Bucket *> >::_Ucopy<ibmras::monitoring::agent::Bucket * *>
PUBLIC	?capacity@?$vector@PAVBucket@agent@monitoring@ibmras@@V?$allocator@PAVBucket@agent@monitoring@ibmras@@@std@@@std@@QBEIXZ ; std::vector<ibmras::monitoring::agent::Bucket *,std::allocator<ibmras::monitoring::agent::Bucket *> >::capacity
PUBLIC	?_Destroy@?$vector@PAVBucket@agent@monitoring@ibmras@@V?$allocator@PAVBucket@agent@monitoring@ibmras@@@std@@@std@@IAEXPAPAVBucket@agent@monitoring@ibmras@@0@Z ; std::vector<ibmras::monitoring::agent::Bucket *,std::allocator<ibmras::monitoring::agent::Bucket *> >::_Destroy
PUBLIC	??$_Copy_impl@PAPAVBucket@agent@monitoring@ibmras@@PAPAV1234@@std@@YAPAPAVBucket@agent@monitoring@ibmras@@PAPAV1234@00@Z ; std::_Copy_impl<ibmras::monitoring::agent::Bucket * *,ibmras::monitoring::agent::Bucket * *>
PUBLIC	?clear@?$vector@PAVBucket@agent@monitoring@ibmras@@V?$allocator@PAVBucket@agent@monitoring@ibmras@@@std@@@std@@QAEXXZ ; std::vector<ibmras::monitoring::agent::Bucket *,std::allocator<ibmras::monitoring::agent::Bucket *> >::clear
EXTRN	__imp_?_Orphan_all@_Container_base0@std@@QAEXXZ:PROC
; Function compile flags: /Odtp
;	COMDAT ??4?$vector@PAVBucket@agent@monitoring@ibmras@@V?$allocator@PAVBucket@agent@monitoring@ibmras@@@std@@@std@@QAEAAV01@ABV01@@Z
_TEXT	SEGMENT
_this$ = -12						; size = 4
__Ptr$99738 = -8					; size = 4
__Ptr$99728 = -4					; size = 4
__Right$ = 8						; size = 4
??4?$vector@PAVBucket@agent@monitoring@ibmras@@V?$allocator@PAVBucket@agent@monitoring@ibmras@@@std@@@std@@QAEAAV01@ABV01@@Z PROC ; std::vector<ibmras::monitoring::agent::Bucket *,std::allocator<ibmras::monitoring::agent::Bucket *> >::operator=, COMDAT
; _this$ = ecx
; Line 709
	push	ebp
	mov	ebp, esp
	sub	esp, 12					; 0000000cH
	push	esi
	mov	DWORD PTR _this$[ebp], ecx
; Line 710
	mov	eax, DWORD PTR _this$[ebp]
	cmp	eax, DWORD PTR __Right$[ebp]
	je	$LN9@operator
; Line 712
	mov	ecx, DWORD PTR _this$[ebp]
	call	DWORD PTR __imp_?_Orphan_all@_Container_base0@std@@QAEXXZ
; Line 714
	mov	ecx, DWORD PTR __Right$[ebp]
	call	?size@?$vector@PAVBucket@agent@monitoring@ibmras@@V?$allocator@PAVBucket@agent@monitoring@ibmras@@@std@@@std@@QBEIXZ ; std::vector<ibmras::monitoring::agent::Bucket *,std::allocator<ibmras::monitoring::agent::Bucket *> >::size
	test	eax, eax
	jne	SHORT $LN8@operator
; Line 715
	mov	ecx, DWORD PTR _this$[ebp]
	call	?clear@?$vector@PAVBucket@agent@monitoring@ibmras@@V?$allocator@PAVBucket@agent@monitoring@ibmras@@@std@@@std@@QAEXXZ ; std::vector<ibmras::monitoring::agent::Bucket *,std::allocator<ibmras::monitoring::agent::Bucket *> >::clear
	jmp	$LN9@operator
$LN8@operator:
; Line 716
	mov	ecx, DWORD PTR __Right$[ebp]
	call	?size@?$vector@PAVBucket@agent@monitoring@ibmras@@V?$allocator@PAVBucket@agent@monitoring@ibmras@@@std@@@std@@QBEIXZ ; std::vector<ibmras::monitoring::agent::Bucket *,std::allocator<ibmras::monitoring::agent::Bucket *> >::size
	mov	esi, eax
	mov	ecx, DWORD PTR _this$[ebp]
	call	?size@?$vector@PAVBucket@agent@monitoring@ibmras@@V?$allocator@PAVBucket@agent@monitoring@ibmras@@@std@@@std@@QBEIXZ ; std::vector<ibmras::monitoring::agent::Bucket *,std::allocator<ibmras::monitoring::agent::Bucket *> >::size
	cmp	esi, eax
	ja	SHORT $LN6@operator
; Line 719
	mov	ecx, DWORD PTR _this$[ebp]
	mov	edx, DWORD PTR [ecx]
	push	edx
	mov	eax, DWORD PTR __Right$[ebp]
	mov	ecx, DWORD PTR [eax+4]
	push	ecx
	mov	edx, DWORD PTR __Right$[ebp]
	mov	eax, DWORD PTR [edx]
	push	eax
	call	??$_Copy_impl@PAPAVBucket@agent@monitoring@ibmras@@PAPAV1234@@std@@YAPAPAVBucket@agent@monitoring@ibmras@@PAPAV1234@00@Z ; std::_Copy_impl<ibmras::monitoring::agent::Bucket * *,ibmras::monitoring::agent::Bucket * *>
	add	esp, 12					; 0000000cH
	mov	DWORD PTR __Ptr$99728[ebp], eax
; Line 720
	mov	ecx, DWORD PTR _this$[ebp]
	mov	edx, DWORD PTR [ecx+4]
	push	edx
	mov	eax, DWORD PTR __Ptr$99728[ebp]
	push	eax
	mov	ecx, DWORD PTR _this$[ebp]
	call	?_Destroy@?$vector@PAVBucket@agent@monitoring@ibmras@@V?$allocator@PAVBucket@agent@monitoring@ibmras@@@std@@@std@@IAEXPAPAVBucket@agent@monitoring@ibmras@@0@Z ; std::vector<ibmras::monitoring::agent::Bucket *,std::allocator<ibmras::monitoring::agent::Bucket *> >::_Destroy
; Line 721
	mov	ecx, DWORD PTR __Right$[ebp]
	call	?size@?$vector@PAVBucket@agent@monitoring@ibmras@@V?$allocator@PAVBucket@agent@monitoring@ibmras@@@std@@@std@@QBEIXZ ; std::vector<ibmras::monitoring::agent::Bucket *,std::allocator<ibmras::monitoring::agent::Bucket *> >::size
	mov	ecx, DWORD PTR _this$[ebp]
	mov	edx, DWORD PTR [ecx]
	lea	eax, DWORD PTR [edx+eax*4]
	mov	ecx, DWORD PTR _this$[ebp]
	mov	DWORD PTR [ecx+4], eax
	jmp	$LN9@operator
$LN6@operator:
; Line 723
	mov	ecx, DWORD PTR __Right$[ebp]
	call	?size@?$vector@PAVBucket@agent@monitoring@ibmras@@V?$allocator@PAVBucket@agent@monitoring@ibmras@@@std@@@std@@QBEIXZ ; std::vector<ibmras::monitoring::agent::Bucket *,std::allocator<ibmras::monitoring::agent::Bucket *> >::size
	mov	esi, eax
	mov	ecx, DWORD PTR _this$[ebp]
	call	?capacity@?$vector@PAVBucket@agent@monitoring@ibmras@@V?$allocator@PAVBucket@agent@monitoring@ibmras@@@std@@@std@@QBEIXZ ; std::vector<ibmras::monitoring::agent::Bucket *,std::allocator<ibmras::monitoring::agent::Bucket *> >::capacity
	cmp	esi, eax
	ja	SHORT $LN4@operator
; Line 725
	mov	ecx, DWORD PTR _this$[ebp]
	call	?size@?$vector@PAVBucket@agent@monitoring@ibmras@@V?$allocator@PAVBucket@agent@monitoring@ibmras@@@std@@@std@@QBEIXZ ; std::vector<ibmras::monitoring::agent::Bucket *,std::allocator<ibmras::monitoring::agent::Bucket *> >::size
	mov	edx, DWORD PTR __Right$[ebp]
	mov	ecx, DWORD PTR [edx]
	lea	edx, DWORD PTR [ecx+eax*4]
	mov	DWORD PTR __Ptr$99738[ebp], edx
; Line 726
	mov	eax, DWORD PTR _this$[ebp]
	mov	ecx, DWORD PTR [eax]
	push	ecx
	mov	edx, DWORD PTR __Ptr$99738[ebp]
	push	edx
	mov	eax, DWORD PTR __Right$[ebp]
	mov	ecx, DWORD PTR [eax]
	push	ecx
	call	??$_Copy_impl@PAPAVBucket@agent@monitoring@ibmras@@PAPAV1234@@std@@YAPAPAVBucket@agent@monitoring@ibmras@@PAPAV1234@00@Z ; std::_Copy_impl<ibmras::monitoring::agent::Bucket * *,ibmras::monitoring::agent::Bucket * *>
	add	esp, 12					; 0000000cH
; Line 727
	mov	edx, DWORD PTR _this$[ebp]
	mov	eax, DWORD PTR [edx+4]
	push	eax
	mov	ecx, DWORD PTR __Right$[ebp]
	mov	edx, DWORD PTR [ecx+4]
	push	edx
	mov	eax, DWORD PTR __Ptr$99738[ebp]
	push	eax
	mov	ecx, DWORD PTR _this$[ebp]
	call	??$_Ucopy@PAPAVBucket@agent@monitoring@ibmras@@@?$vector@PAVBucket@agent@monitoring@ibmras@@V?$allocator@PAVBucket@agent@monitoring@ibmras@@@std@@@std@@IAEPAPAVBucket@agent@monitoring@ibmras@@PAPAV2345@00@Z ; std::vector<ibmras::monitoring::agent::Bucket *,std::allocator<ibmras::monitoring::agent::Bucket *> >::_Ucopy<ibmras::monitoring::agent::Bucket * *>
	mov	ecx, DWORD PTR _this$[ebp]
	mov	DWORD PTR [ecx+4], eax
; Line 729
	jmp	SHORT $LN9@operator
$LN4@operator:
; Line 731
	mov	edx, DWORD PTR _this$[ebp]
	cmp	DWORD PTR [edx], 0
	je	SHORT $LN2@operator
; Line 733
	mov	eax, DWORD PTR _this$[ebp]
	mov	ecx, DWORD PTR [eax+4]
	push	ecx
	mov	edx, DWORD PTR _this$[ebp]
	mov	eax, DWORD PTR [edx]
	push	eax
	mov	ecx, DWORD PTR _this$[ebp]
	call	?_Destroy@?$vector@PAVBucket@agent@monitoring@ibmras@@V?$allocator@PAVBucket@agent@monitoring@ibmras@@@std@@@std@@IAEXPAPAVBucket@agent@monitoring@ibmras@@0@Z ; std::vector<ibmras::monitoring::agent::Bucket *,std::allocator<ibmras::monitoring::agent::Bucket *> >::_Destroy
; Line 735
	mov	ecx, DWORD PTR _this$[ebp]
	mov	edx, DWORD PTR _this$[ebp]
	mov	eax, DWORD PTR [ecx+8]
	sub	eax, DWORD PTR [edx]
	sar	eax, 2
	push	eax
	mov	ecx, DWORD PTR _this$[ebp]
	mov	edx, DWORD PTR [ecx]
	push	edx
	mov	ecx, DWORD PTR _this$[ebp]
	add	ecx, 12					; 0000000cH
	call	?deallocate@?$allocator@PAVBucket@agent@monitoring@ibmras@@@std@@QAEXPAPAVBucket@agent@monitoring@ibmras@@I@Z ; std::allocator<ibmras::monitoring::agent::Bucket *>::deallocate
$LN2@operator:
; Line 737
	mov	ecx, DWORD PTR __Right$[ebp]
	call	?size@?$vector@PAVBucket@agent@monitoring@ibmras@@V?$allocator@PAVBucket@agent@monitoring@ibmras@@@std@@@std@@QBEIXZ ; std::vector<ibmras::monitoring::agent::Bucket *,std::allocator<ibmras::monitoring::agent::Bucket *> >::size
	push	eax
	mov	ecx, DWORD PTR _this$[ebp]
	call	?_Buy@?$vector@PAVBucket@agent@monitoring@ibmras@@V?$allocator@PAVBucket@agent@monitoring@ibmras@@@std@@@std@@IAE_NI@Z ; std::vector<ibmras::monitoring::agent::Bucket *,std::allocator<ibmras::monitoring::agent::Bucket *> >::_Buy
	movzx	eax, al
	test	eax, eax
	je	SHORT $LN9@operator
; Line 739
	mov	ecx, DWORD PTR _this$[ebp]
	mov	edx, DWORD PTR [ecx]
	push	edx
	mov	eax, DWORD PTR __Right$[ebp]
	mov	ecx, DWORD PTR [eax+4]
	push	ecx
	mov	edx, DWORD PTR __Right$[ebp]
	mov	eax, DWORD PTR [edx]
	push	eax
	mov	ecx, DWORD PTR _this$[ebp]
	call	??$_Ucopy@PAPAVBucket@agent@monitoring@ibmras@@@?$vector@PAVBucket@agent@monitoring@ibmras@@V?$allocator@PAVBucket@agent@monitoring@ibmras@@@std@@@std@@IAEPAPAVBucket@agent@monitoring@ibmras@@PAPAV2345@00@Z ; std::vector<ibmras::monitoring::agent::Bucket *,std::allocator<ibmras::monitoring::agent::Bucket *> >::_Ucopy<ibmras::monitoring::agent::Bucket * *>
	mov	ecx, DWORD PTR _this$[ebp]
	mov	DWORD PTR [ecx+4], eax
$LN9@operator:
; Line 742
	mov	eax, DWORD PTR _this$[ebp]
; Line 743
	pop	esi
	mov	esp, ebp
	pop	ebp
	ret	4
??4?$vector@PAVBucket@agent@monitoring@ibmras@@V?$allocator@PAVBucket@agent@monitoring@ibmras@@@std@@@std@@QAEAAV01@ABV01@@Z ENDP ; std::vector<ibmras::monitoring::agent::Bucket *,std::allocator<ibmras::monitoring::agent::Bucket *> >::operator=
; Function compile flags: /Odtp
_TEXT	ENDS
;	COMDAT ?assign@?$basic_string@DU?$char_traits@D@std@@V?$allocator@D@2@@std@@QAEAAV12@ABV12@@Z
_TEXT	SEGMENT
_this$ = -4						; size = 4
__Right$ = 8						; size = 4
?assign@?$basic_string@DU?$char_traits@D@std@@V?$allocator@D@2@@std@@QAEAAV12@ABV12@@Z PROC ; std::basic_string<char,std::char_traits<char>,std::allocator<char> >::assign, COMDAT
; _this$ = ecx
; File c:\program files (x86)\microsoft visual studio 10.0\vc\include\xstring
; Line 886
	push	ebp
	mov	ebp, esp
	push	ecx
	mov	DWORD PTR _this$[ebp], ecx
; Line 887
	mov	eax, DWORD PTR ?npos@?$basic_string@DU?$char_traits@D@std@@V?$allocator@D@2@@std@@2IB ; std::basic_string<char,std::char_traits<char>,std::allocator<char> >::npos
	push	eax
	push	0
	mov	ecx, DWORD PTR __Right$[ebp]
	push	ecx
	mov	ecx, DWORD PTR _this$[ebp]
	call	?assign@?$basic_string@DU?$char_traits@D@std@@V?$allocator@D@2@@std@@QAEAAV12@ABV12@II@Z ; std::basic_string<char,std::char_traits<char>,std::allocator<char> >::assign
; Line 888
	mov	esp, ebp
	pop	ebp
	ret	4
?assign@?$basic_string@DU?$char_traits@D@std@@V?$allocator@D@2@@std@@QAEAAV12@ABV12@@Z ENDP ; std::basic_string<char,std::char_traits<char>,std::allocator<char> >::assign
_TEXT	ENDS
PUBLIC	?_Eos@?$basic_string@DU?$char_traits@D@std@@V?$allocator@D@2@@std@@QAEXI@Z ; std::basic_string<char,std::char_traits<char>,std::allocator<char> >::_Eos
PUBLIC	?copy@?$char_traits@D@std@@SAPADPADPBDI@Z	; std::char_traits<char>::copy
PUBLIC	?_Myptr@?$basic_string@DU?$char_traits@D@std@@V?$allocator@D@2@@std@@QAEPADXZ ; std::basic_string<char,std::char_traits<char>,std::allocator<char> >::_Myptr
PUBLIC	?_Myptr@?$basic_string@DU?$char_traits@D@std@@V?$allocator@D@2@@std@@QBEPBDXZ ; std::basic_string<char,std::char_traits<char>,std::allocator<char> >::_Myptr
PUBLIC	?_Grow@?$basic_string@DU?$char_traits@D@std@@V?$allocator@D@2@@std@@QAE_NI_N@Z ; std::basic_string<char,std::char_traits<char>,std::allocator<char> >::_Grow
PUBLIC	?erase@?$basic_string@DU?$char_traits@D@std@@V?$allocator@D@2@@std@@QAEAAV12@II@Z ; std::basic_string<char,std::char_traits<char>,std::allocator<char> >::erase
PUBLIC	?_Xran@?$basic_string@DU?$char_traits@D@std@@V?$allocator@D@2@@std@@QBEXXZ ; std::basic_string<char,std::char_traits<char>,std::allocator<char> >::_Xran
PUBLIC	?size@?$basic_string@DU?$char_traits@D@std@@V?$allocator@D@2@@std@@QBEIXZ ; std::basic_string<char,std::char_traits<char>,std::allocator<char> >::size
; Function compile flags: /Odtp
;	COMDAT ?assign@?$basic_string@DU?$char_traits@D@std@@V?$allocator@D@2@@std@@QAEAAV12@ABV12@II@Z
_TEXT	SEGMENT
_this$ = -8						; size = 4
__Num$ = -4						; size = 4
__Right$ = 8						; size = 4
__Roff$ = 12						; size = 4
__Count$ = 16						; size = 4
?assign@?$basic_string@DU?$char_traits@D@std@@V?$allocator@D@2@@std@@QAEAAV12@ABV12@II@Z PROC ; std::basic_string<char,std::char_traits<char>,std::allocator<char> >::assign, COMDAT
; _this$ = ecx
; Line 892
	push	ebp
	mov	ebp, esp
	sub	esp, 8
	mov	DWORD PTR _this$[ebp], ecx
; Line 893
	mov	ecx, DWORD PTR __Right$[ebp]
	call	?size@?$basic_string@DU?$char_traits@D@std@@V?$allocator@D@2@@std@@QBEIXZ ; std::basic_string<char,std::char_traits<char>,std::allocator<char> >::size
	cmp	eax, DWORD PTR __Roff$[ebp]
	jae	SHORT $LN5@assign
; Line 894
	mov	ecx, DWORD PTR _this$[ebp]
	call	?_Xran@?$basic_string@DU?$char_traits@D@std@@V?$allocator@D@2@@std@@QBEXXZ ; std::basic_string<char,std::char_traits<char>,std::allocator<char> >::_Xran
$LN5@assign:
; Line 895
	mov	ecx, DWORD PTR __Right$[ebp]
	call	?size@?$basic_string@DU?$char_traits@D@std@@V?$allocator@D@2@@std@@QBEIXZ ; std::basic_string<char,std::char_traits<char>,std::allocator<char> >::size
	sub	eax, DWORD PTR __Roff$[ebp]
	mov	DWORD PTR __Num$[ebp], eax
; Line 896
	mov	eax, DWORD PTR __Count$[ebp]
	cmp	eax, DWORD PTR __Num$[ebp]
	jae	SHORT $LN4@assign
; Line 897
	mov	ecx, DWORD PTR __Count$[ebp]
	mov	DWORD PTR __Num$[ebp], ecx
$LN4@assign:
; Line 899
	mov	edx, DWORD PTR _this$[ebp]
	cmp	edx, DWORD PTR __Right$[ebp]
	jne	SHORT $LN3@assign
; Line 900
	mov	eax, DWORD PTR ?npos@?$basic_string@DU?$char_traits@D@std@@V?$allocator@D@2@@std@@2IB ; std::basic_string<char,std::char_traits<char>,std::allocator<char> >::npos
	push	eax
	mov	ecx, DWORD PTR __Roff$[ebp]
	add	ecx, DWORD PTR __Num$[ebp]
	push	ecx
	mov	ecx, DWORD PTR _this$[ebp]
	call	?erase@?$basic_string@DU?$char_traits@D@std@@V?$allocator@D@2@@std@@QAEAAV12@II@Z ; std::basic_string<char,std::char_traits<char>,std::allocator<char> >::erase
	mov	edx, DWORD PTR __Roff$[ebp]
	push	edx
	push	0
	mov	ecx, DWORD PTR _this$[ebp]
	call	?erase@?$basic_string@DU?$char_traits@D@std@@V?$allocator@D@2@@std@@QAEAAV12@II@Z ; std::basic_string<char,std::char_traits<char>,std::allocator<char> >::erase
	jmp	SHORT $LN2@assign
$LN3@assign:
; Line 901
	push	0
	mov	eax, DWORD PTR __Num$[ebp]
	push	eax
	mov	ecx, DWORD PTR _this$[ebp]
	call	?_Grow@?$basic_string@DU?$char_traits@D@std@@V?$allocator@D@2@@std@@QAE_NI_N@Z ; std::basic_string<char,std::char_traits<char>,std::allocator<char> >::_Grow
	movzx	ecx, al
	test	ecx, ecx
	je	SHORT $LN2@assign
; Line 903
	mov	edx, DWORD PTR __Num$[ebp]
	push	edx
	mov	ecx, DWORD PTR __Right$[ebp]
	call	?_Myptr@?$basic_string@DU?$char_traits@D@std@@V?$allocator@D@2@@std@@QBEPBDXZ ; std::basic_string<char,std::char_traits<char>,std::allocator<char> >::_Myptr
	add	eax, DWORD PTR __Roff$[ebp]
	push	eax
	mov	ecx, DWORD PTR _this$[ebp]
	call	?_Myptr@?$basic_string@DU?$char_traits@D@std@@V?$allocator@D@2@@std@@QAEPADXZ ; std::basic_string<char,std::char_traits<char>,std::allocator<char> >::_Myptr
	push	eax
	call	?copy@?$char_traits@D@std@@SAPADPADPBDI@Z ; std::char_traits<char>::copy
	add	esp, 12					; 0000000cH
; Line 904
	mov	eax, DWORD PTR __Num$[ebp]
	push	eax
	mov	ecx, DWORD PTR _this$[ebp]
	call	?_Eos@?$basic_string@DU?$char_traits@D@std@@V?$allocator@D@2@@std@@QAEXI@Z ; std::basic_string<char,std::char_traits<char>,std::allocator<char> >::_Eos
$LN2@assign:
; Line 906
	mov	eax, DWORD PTR _this$[ebp]
$LN7@assign:
; Line 907
	mov	esp, ebp
	pop	ebp
	ret	12					; 0000000cH
?assign@?$basic_string@DU?$char_traits@D@std@@V?$allocator@D@2@@std@@QAEAAV12@ABV12@II@Z ENDP ; std::basic_string<char,std::char_traits<char>,std::allocator<char> >::assign
_TEXT	ENDS
EXTRN	_memcpy:PROC
; Function compile flags: /Odtp
;	COMDAT ?copy@?$char_traits@D@std@@SAPADPADPBDI@Z
_TEXT	SEGMENT
__First1$ = 8						; size = 4
__First2$ = 12						; size = 4
__Count$ = 16						; size = 4
?copy@?$char_traits@D@std@@SAPADPADPBDI@Z PROC		; std::char_traits<char>::copy, COMDAT
; File c:\program files (x86)\microsoft visual studio 10.0\vc\include\iosfwd
; Line 496
	push	ebp
	mov	ebp, esp
; Line 497
	mov	eax, DWORD PTR __Count$[ebp]
	push	eax
	mov	ecx, DWORD PTR __First2$[ebp]
	push	ecx
	mov	edx, DWORD PTR __First1$[ebp]
	push	edx
	call	_memcpy
	add	esp, 12					; 0000000cH
; Line 498
	pop	ebp
	ret	0
?copy@?$char_traits@D@std@@SAPADPADPBDI@Z ENDP		; std::char_traits<char>::copy
; Function compile flags: /Odtp
_TEXT	ENDS
;	COMDAT ?size@?$basic_string@DU?$char_traits@D@std@@V?$allocator@D@2@@std@@QBEIXZ
_TEXT	SEGMENT
_this$ = -4						; size = 4
?size@?$basic_string@DU?$char_traits@D@std@@V?$allocator@D@2@@std@@QBEIXZ PROC ; std::basic_string<char,std::char_traits<char>,std::allocator<char> >::size, COMDAT
; _this$ = ecx
; File c:\program files (x86)\microsoft visual studio 10.0\vc\include\xstring
; Line 1510
	push	ebp
	mov	ebp, esp
	push	ecx
	mov	DWORD PTR _this$[ebp], ecx
; Line 1511
	mov	eax, DWORD PTR _this$[ebp]
	mov	eax, DWORD PTR [eax+16]
; Line 1512
	mov	esp, ebp
	pop	ebp
	ret	0
?size@?$basic_string@DU?$char_traits@D@std@@V?$allocator@D@2@@std@@QBEIXZ ENDP ; std::basic_string<char,std::char_traits<char>,std::allocator<char> >::size
_TEXT	ENDS
PUBLIC	?assign@?$basic_string@DU?$char_traits@D@std@@V?$allocator@D@2@@std@@QAEAAV12@PBDI@Z ; std::basic_string<char,std::char_traits<char>,std::allocator<char> >::assign
PUBLIC	?length@?$char_traits@D@std@@SAIPBD@Z		; std::char_traits<char>::length
; Function compile flags: /Odtp
;	COMDAT ?assign@?$basic_string@DU?$char_traits@D@std@@V?$allocator@D@2@@std@@QAEAAV12@PBD@Z
_TEXT	SEGMENT
_this$ = -4						; size = 4
__Ptr$ = 8						; size = 4
?assign@?$basic_string@DU?$char_traits@D@std@@V?$allocator@D@2@@std@@QAEAAV12@PBD@Z PROC ; std::basic_string<char,std::char_traits<char>,std::allocator<char> >::assign, COMDAT
; _this$ = ecx
; Line 928
	push	ebp
	mov	ebp, esp
	push	ecx
	mov	DWORD PTR _this$[ebp], ecx
; Line 930
	mov	eax, DWORD PTR __Ptr$[ebp]
	push	eax
	call	?length@?$char_traits@D@std@@SAIPBD@Z	; std::char_traits<char>::length
	add	esp, 4
	push	eax
	mov	ecx, DWORD PTR __Ptr$[ebp]
	push	ecx
	mov	ecx, DWORD PTR _this$[ebp]
	call	?assign@?$basic_string@DU?$char_traits@D@std@@V?$allocator@D@2@@std@@QAEAAV12@PBDI@Z ; std::basic_string<char,std::char_traits<char>,std::allocator<char> >::assign
; Line 931
	mov	esp, ebp
	pop	ebp
	ret	4
?assign@?$basic_string@DU?$char_traits@D@std@@V?$allocator@D@2@@std@@QAEAAV12@PBD@Z ENDP ; std::basic_string<char,std::char_traits<char>,std::allocator<char> >::assign
_TEXT	ENDS
EXTRN	_strlen:PROC
; Function compile flags: /Odtp
;	COMDAT ?length@?$char_traits@D@std@@SAIPBD@Z
_TEXT	SEGMENT
__First$ = 8						; size = 4
?length@?$char_traits@D@std@@SAIPBD@Z PROC		; std::char_traits<char>::length, COMDAT
; File c:\program files (x86)\microsoft visual studio 10.0\vc\include\iosfwd
; Line 490
	push	ebp
	mov	ebp, esp
; Line 491
	mov	eax, DWORD PTR __First$[ebp]
	push	eax
	call	_strlen
	add	esp, 4
; Line 492
	pop	ebp
	ret	0
?length@?$char_traits@D@std@@SAIPBD@Z ENDP		; std::char_traits<char>::length
_TEXT	ENDS
PUBLIC	?deallocate@?$allocator@D@std@@QAEXPADI@Z	; std::allocator<char>::deallocate
; Function compile flags: /Odtp
;	COMDAT ?_Tidy@?$basic_string@DU?$char_traits@D@std@@V?$allocator@D@2@@std@@QAEX_NI@Z
_TEXT	SEGMENT
_this$ = -8						; size = 4
__Ptr$99929 = -4					; size = 4
__Built$ = 8						; size = 1
__Newsize$ = 12						; size = 4
?_Tidy@?$basic_string@DU?$char_traits@D@std@@V?$allocator@D@2@@std@@QAEX_NI@Z PROC ; std::basic_string<char,std::char_traits<char>,std::allocator<char> >::_Tidy, COMDAT
; _this$ = ecx
; File c:\program files (x86)\microsoft visual studio 10.0\vc\include\xstring
; Line 1987
	push	ebp
	mov	ebp, esp
	sub	esp, 8
	mov	DWORD PTR _this$[ebp], ecx
; Line 1988
	movzx	eax, BYTE PTR __Built$[ebp]
	test	eax, eax
	jne	SHORT $LN4@Tidy
	jmp	SHORT $LN3@Tidy
$LN4@Tidy:
; Line 1990
	mov	ecx, DWORD PTR _this$[ebp]
	cmp	DWORD PTR [ecx+20], 16			; 00000010H
	jb	SHORT $LN3@Tidy
; Line 1992
	mov	edx, DWORD PTR _this$[ebp]
	mov	eax, DWORD PTR [edx]
	mov	DWORD PTR __Ptr$99929[ebp], eax
; Line 1993
	cmp	DWORD PTR __Newsize$[ebp], 0
	jbe	SHORT $LN1@Tidy
; Line 1994
	mov	ecx, DWORD PTR __Newsize$[ebp]
	push	ecx
	mov	edx, DWORD PTR __Ptr$99929[ebp]
	push	edx
	mov	eax, DWORD PTR _this$[ebp]
	push	eax
	call	?copy@?$char_traits@D@std@@SAPADPADPBDI@Z ; std::char_traits<char>::copy
	add	esp, 12					; 0000000cH
$LN1@Tidy:
; Line 1995
	mov	ecx, DWORD PTR _this$[ebp]
	mov	edx, DWORD PTR [ecx+20]
	add	edx, 1
	push	edx
	mov	eax, DWORD PTR __Ptr$99929[ebp]
	push	eax
	mov	ecx, DWORD PTR _this$[ebp]
	add	ecx, 24					; 00000018H
	call	?deallocate@?$allocator@D@std@@QAEXPADI@Z ; std::allocator<char>::deallocate
$LN3@Tidy:
; Line 1997
	mov	ecx, DWORD PTR _this$[ebp]
	mov	DWORD PTR [ecx+20], 15			; 0000000fH
; Line 1998
	mov	edx, DWORD PTR __Newsize$[ebp]
	push	edx
	mov	ecx, DWORD PTR _this$[ebp]
	call	?_Eos@?$basic_string@DU?$char_traits@D@std@@V?$allocator@D@2@@std@@QAEXI@Z ; std::basic_string<char,std::char_traits<char>,std::allocator<char> >::_Eos
; Line 1999
	mov	esp, ebp
	pop	ebp
	ret	8
?_Tidy@?$basic_string@DU?$char_traits@D@std@@V?$allocator@D@2@@std@@QAEX_NI@Z ENDP ; std::basic_string<char,std::char_traits<char>,std::allocator<char> >::_Tidy
; Function compile flags: /Odtp
_TEXT	ENDS
;	COMDAT ?_Myptr@?$basic_string@DU?$char_traits@D@std@@V?$allocator@D@2@@std@@QBEPBDXZ
_TEXT	SEGMENT
tv80 = -8						; size = 4
_this$ = -4						; size = 4
?_Myptr@?$basic_string@DU?$char_traits@D@std@@V?$allocator@D@2@@std@@QBEPBDXZ PROC ; std::basic_string<char,std::char_traits<char>,std::allocator<char> >::_Myptr, COMDAT
; _this$ = ecx
; Line 2008
	push	ebp
	mov	ebp, esp
	sub	esp, 8
	mov	DWORD PTR _this$[ebp], ecx
; Line 2010
	mov	eax, DWORD PTR _this$[ebp]
	cmp	DWORD PTR [eax+20], 16			; 00000010H
	jb	SHORT $LN3@Myptr
	mov	ecx, DWORD PTR _this$[ebp]
	mov	edx, DWORD PTR [ecx]
	mov	DWORD PTR tv80[ebp], edx
	jmp	SHORT $LN4@Myptr
$LN3@Myptr:
	mov	eax, DWORD PTR _this$[ebp]
	mov	DWORD PTR tv80[ebp], eax
$LN4@Myptr:
	mov	eax, DWORD PTR tv80[ebp]
; Line 2011
	mov	esp, ebp
	pop	ebp
	ret	0
?_Myptr@?$basic_string@DU?$char_traits@D@std@@V?$allocator@D@2@@std@@QBEPBDXZ ENDP ; std::basic_string<char,std::char_traits<char>,std::allocator<char> >::_Myptr
; Function compile flags: /Odtp
_TEXT	ENDS
;	COMDAT ??0?$_String_val@DV?$allocator@D@std@@@std@@QAE@V?$allocator@D@1@@Z
_TEXT	SEGMENT
_this$ = -4						; size = 4
__Al$ = 8						; size = 1
??0?$_String_val@DV?$allocator@D@std@@@std@@QAE@V?$allocator@D@1@@Z PROC ; std::_String_val<char,std::allocator<char> >::_String_val<char,std::allocator<char> >, COMDAT
; _this$ = ecx
; Line 454
	push	ebp
	mov	ebp, esp
	push	ecx
	mov	DWORD PTR _this$[ebp], ecx
	lea	eax, DWORD PTR __Al$[ebp]
	push	eax
	mov	ecx, DWORD PTR _this$[ebp]
	add	ecx, 24					; 00000018H
	call	??0?$allocator@D@std@@QAE@ABV01@@Z	; std::allocator<char>::allocator<char>
; Line 455
	mov	eax, DWORD PTR _this$[ebp]
	mov	esp, ebp
	pop	ebp
	ret	4
??0?$_String_val@DV?$allocator@D@std@@@std@@QAE@V?$allocator@D@1@@Z ENDP ; std::_String_val<char,std::allocator<char> >::_String_val<char,std::allocator<char> >
; Function compile flags: /Odtp
_TEXT	ENDS
;	COMDAT ??1?$_String_val@DV?$allocator@D@std@@@std@@QAE@XZ
_TEXT	SEGMENT
_this$ = -4						; size = 4
??1?$_String_val@DV?$allocator@D@std@@@std@@QAE@XZ PROC	; std::_String_val<char,std::allocator<char> >::~_String_val<char,std::allocator<char> >, COMDAT
; _this$ = ecx
; Line 458
	push	ebp
	mov	ebp, esp
	push	ecx
	mov	DWORD PTR _this$[ebp], ecx
; Line 459
	mov	esp, ebp
	pop	ebp
	ret	0
??1?$_String_val@DV?$allocator@D@std@@@std@@QAE@XZ ENDP	; std::_String_val<char,std::allocator<char> >::~_String_val<char,std::allocator<char> >
; Function compile flags: /Odtp
_TEXT	ENDS
;	COMDAT ??0?$allocator@D@std@@QAE@ABV01@@Z
_TEXT	SEGMENT
_this$ = -4						; size = 4
___formal$ = 8						; size = 4
??0?$allocator@D@std@@QAE@ABV01@@Z PROC			; std::allocator<char>::allocator<char>, COMDAT
; _this$ = ecx
; File c:\program files (x86)\microsoft visual studio 10.0\vc\include\xmemory
; Line 165
	push	ebp
	mov	ebp, esp
	push	ecx
	mov	DWORD PTR _this$[ebp], ecx
; Line 167
	mov	eax, DWORD PTR _this$[ebp]
	mov	esp, ebp
	pop	ebp
	ret	4
??0?$allocator@D@std@@QAE@ABV01@@Z ENDP			; std::allocator<char>::allocator<char>
; Function compile flags: /Odtp
_TEXT	ENDS
;	COMDAT ?capacity@?$vector@PAVBucket@agent@monitoring@ibmras@@V?$allocator@PAVBucket@agent@monitoring@ibmras@@@std@@@std@@QBEIXZ
_TEXT	SEGMENT
_this$ = -4						; size = 4
?capacity@?$vector@PAVBucket@agent@monitoring@ibmras@@V?$allocator@PAVBucket@agent@monitoring@ibmras@@@std@@@std@@QBEIXZ PROC ; std::vector<ibmras::monitoring::agent::Bucket *,std::allocator<ibmras::monitoring::agent::Bucket *> >::capacity, COMDAT
; _this$ = ecx
; File c:\program files (x86)\microsoft visual studio 10.0\vc\include\vector
; Line 776
	push	ebp
	mov	ebp, esp
	push	ecx
	mov	DWORD PTR _this$[ebp], ecx
; Line 777
	mov	eax, DWORD PTR _this$[ebp]
	mov	ecx, DWORD PTR _this$[ebp]
	mov	eax, DWORD PTR [eax+8]
	sub	eax, DWORD PTR [ecx]
	sar	eax, 2
; Line 778
	mov	esp, ebp
	pop	ebp
	ret	0
?capacity@?$vector@PAVBucket@agent@monitoring@ibmras@@V?$allocator@PAVBucket@agent@monitoring@ibmras@@@std@@@std@@QBEIXZ ENDP ; std::vector<ibmras::monitoring::agent::Bucket *,std::allocator<ibmras::monitoring::agent::Bucket *> >::capacity
_TEXT	ENDS
PUBLIC	??0?$_Vector_const_iterator@V?$_Vector_val@PAVBucket@agent@monitoring@ibmras@@V?$allocator@PAVBucket@agent@monitoring@ibmras@@@std@@@std@@@std@@QAE@PAPAVBucket@agent@monitoring@ibmras@@PBU_Container_base0@1@@Z ; std::_Vector_const_iterator<std::_Vector_val<ibmras::monitoring::agent::Bucket *,std::allocator<ibmras::monitoring::agent::Bucket *> > >::_Vector_const_iterator<std::_Vector_val<ibmras::monitoring::agent::Bucket *,std::allocator<ibmras::monitoring::agent::Bucket *> > >
; Function compile flags: /Odtp
;	COMDAT ?begin@?$vector@PAVBucket@agent@monitoring@ibmras@@V?$allocator@PAVBucket@agent@monitoring@ibmras@@@std@@@std@@QBE?AV?$_Vector_const_iterator@V?$_Vector_val@PAVBucket@agent@monitoring@ibmras@@V?$allocator@PAVBucket@agent@monitoring@ibmras@@@std@@@std@@@2@XZ
_TEXT	SEGMENT
_this$ = -4						; size = 4
___$ReturnUdt$ = 8					; size = 4
?begin@?$vector@PAVBucket@agent@monitoring@ibmras@@V?$allocator@PAVBucket@agent@monitoring@ibmras@@@std@@@std@@QBE?AV?$_Vector_const_iterator@V?$_Vector_val@PAVBucket@agent@monitoring@ibmras@@V?$allocator@PAVBucket@agent@monitoring@ibmras@@@std@@@std@@@2@XZ PROC ; std::vector<ibmras::monitoring::agent::Bucket *,std::allocator<ibmras::monitoring::agent::Bucket *> >::begin, COMDAT
; _this$ = ecx
; Line 786
	push	ebp
	mov	ebp, esp
	push	ecx
	mov	DWORD PTR _this$[ebp], ecx
; Line 787
	mov	eax, DWORD PTR _this$[ebp]
	push	eax
	mov	ecx, DWORD PTR _this$[ebp]
	mov	edx, DWORD PTR [ecx]
	push	edx
	mov	ecx, DWORD PTR ___$ReturnUdt$[ebp]
	call	??0?$_Vector_const_iterator@V?$_Vector_val@PAVBucket@agent@monitoring@ibmras@@V?$allocator@PAVBucket@agent@monitoring@ibmras@@@std@@@std@@@std@@QAE@PAPAVBucket@agent@monitoring@ibmras@@PBU_Container_base0@1@@Z ; std::_Vector_const_iterator<std::_Vector_val<ibmras::monitoring::agent::Bucket *,std::allocator<ibmras::monitoring::agent::Bucket *> > >::_Vector_const_iterator<std::_Vector_val<ibmras::monitoring::agent::Bucket *,std::allocator<ibmras::monitoring::agent::Bucket *> > >
	mov	eax, DWORD PTR ___$ReturnUdt$[ebp]
; Line 788
	mov	esp, ebp
	pop	ebp
	ret	4
?begin@?$vector@PAVBucket@agent@monitoring@ibmras@@V?$allocator@PAVBucket@agent@monitoring@ibmras@@@std@@@std@@QBE?AV?$_Vector_const_iterator@V?$_Vector_val@PAVBucket@agent@monitoring@ibmras@@V?$allocator@PAVBucket@agent@monitoring@ibmras@@@std@@@std@@@2@XZ ENDP ; std::vector<ibmras::monitoring::agent::Bucket *,std::allocator<ibmras::monitoring::agent::Bucket *> >::begin
; Function compile flags: /Odtp
_TEXT	ENDS
;	COMDAT ?end@?$vector@PAVBucket@agent@monitoring@ibmras@@V?$allocator@PAVBucket@agent@monitoring@ibmras@@@std@@@std@@QBE?AV?$_Vector_const_iterator@V?$_Vector_val@PAVBucket@agent@monitoring@ibmras@@V?$allocator@PAVBucket@agent@monitoring@ibmras@@@std@@@std@@@2@XZ
_TEXT	SEGMENT
_this$ = -4						; size = 4
___$ReturnUdt$ = 8					; size = 4
?end@?$vector@PAVBucket@agent@monitoring@ibmras@@V?$allocator@PAVBucket@agent@monitoring@ibmras@@@std@@@std@@QBE?AV?$_Vector_const_iterator@V?$_Vector_val@PAVBucket@agent@monitoring@ibmras@@V?$allocator@PAVBucket@agent@monitoring@ibmras@@@std@@@std@@@2@XZ PROC ; std::vector<ibmras::monitoring::agent::Bucket *,std::allocator<ibmras::monitoring::agent::Bucket *> >::end, COMDAT
; _this$ = ecx
; Line 796
	push	ebp
	mov	ebp, esp
	push	ecx
	mov	DWORD PTR _this$[ebp], ecx
; Line 797
	mov	eax, DWORD PTR _this$[ebp]
	push	eax
	mov	ecx, DWORD PTR _this$[ebp]
	mov	edx, DWORD PTR [ecx+4]
	push	edx
	mov	ecx, DWORD PTR ___$ReturnUdt$[ebp]
	call	??0?$_Vector_const_iterator@V?$_Vector_val@PAVBucket@agent@monitoring@ibmras@@V?$allocator@PAVBucket@agent@monitoring@ibmras@@@std@@@std@@@std@@QAE@PAPAVBucket@agent@monitoring@ibmras@@PBU_Container_base0@1@@Z ; std::_Vector_const_iterator<std::_Vector_val<ibmras::monitoring::agent::Bucket *,std::allocator<ibmras::monitoring::agent::Bucket *> > >::_Vector_const_iterator<std::_Vector_val<ibmras::monitoring::agent::Bucket *,std::allocator<ibmras::monitoring::agent::Bucket *> > >
	mov	eax, DWORD PTR ___$ReturnUdt$[ebp]
; Line 798
	mov	esp, ebp
	pop	ebp
	ret	4
?end@?$vector@PAVBucket@agent@monitoring@ibmras@@V?$allocator@PAVBucket@agent@monitoring@ibmras@@@std@@@std@@QBE?AV?$_Vector_const_iterator@V?$_Vector_val@PAVBucket@agent@monitoring@ibmras@@V?$allocator@PAVBucket@agent@monitoring@ibmras@@@std@@@std@@@2@XZ ENDP ; std::vector<ibmras::monitoring::agent::Bucket *,std::allocator<ibmras::monitoring::agent::Bucket *> >::end
; Function compile flags: /Odtp
_TEXT	ENDS
;	COMDAT ?size@?$vector@PAVBucket@agent@monitoring@ibmras@@V?$allocator@PAVBucket@agent@monitoring@ibmras@@@std@@@std@@QBEIXZ
_TEXT	SEGMENT
_this$ = -4						; size = 4
?size@?$vector@PAVBucket@agent@monitoring@ibmras@@V?$allocator@PAVBucket@agent@monitoring@ibmras@@@std@@@std@@QBEIXZ PROC ; std::vector<ibmras::monitoring::agent::Bucket *,std::allocator<ibmras::monitoring::agent::Bucket *> >::size, COMDAT
; _this$ = ecx
; Line 878
	push	ebp
	mov	ebp, esp
	push	ecx
	mov	DWORD PTR _this$[ebp], ecx
; Line 879
	mov	eax, DWORD PTR _this$[ebp]
	mov	ecx, DWORD PTR _this$[ebp]
	mov	eax, DWORD PTR [eax+4]
	sub	eax, DWORD PTR [ecx]
	sar	eax, 2
; Line 880
	mov	esp, ebp
	pop	ebp
	ret	0
?size@?$vector@PAVBucket@agent@monitoring@ibmras@@V?$allocator@PAVBucket@agent@monitoring@ibmras@@@std@@@std@@QBEIXZ ENDP ; std::vector<ibmras::monitoring::agent::Bucket *,std::allocator<ibmras::monitoring::agent::Bucket *> >::size
_TEXT	ENDS
PUBLIC	?erase@?$vector@PAVBucket@agent@monitoring@ibmras@@V?$allocator@PAVBucket@agent@monitoring@ibmras@@@std@@@std@@QAE?AV?$_Vector_iterator@V?$_Vector_val@PAVBucket@agent@monitoring@ibmras@@V?$allocator@PAVBucket@agent@monitoring@ibmras@@@std@@@std@@@2@V?$_Vector_const_iterator@V?$_Vector_val@PAVBucket@agent@monitoring@ibmras@@V?$allocator@PAVBucket@agent@monitoring@ibmras@@@std@@@std@@@2@0@Z ; std::vector<ibmras::monitoring::agent::Bucket *,std::allocator<ibmras::monitoring::agent::Bucket *> >::erase
PUBLIC	?begin@?$vector@PAVBucket@agent@monitoring@ibmras@@V?$allocator@PAVBucket@agent@monitoring@ibmras@@@std@@@std@@QAE?AV?$_Vector_iterator@V?$_Vector_val@PAVBucket@agent@monitoring@ibmras@@V?$allocator@PAVBucket@agent@monitoring@ibmras@@@std@@@std@@@2@XZ ; std::vector<ibmras::monitoring::agent::Bucket *,std::allocator<ibmras::monitoring::agent::Bucket *> >::begin
PUBLIC	?end@?$vector@PAVBucket@agent@monitoring@ibmras@@V?$allocator@PAVBucket@agent@monitoring@ibmras@@@std@@@std@@QAE?AV?$_Vector_iterator@V?$_Vector_val@PAVBucket@agent@monitoring@ibmras@@V?$allocator@PAVBucket@agent@monitoring@ibmras@@@std@@@std@@@2@XZ ; std::vector<ibmras::monitoring::agent::Bucket *,std::allocator<ibmras::monitoring::agent::Bucket *> >::end
; Function compile flags: /Odtp
;	COMDAT ?clear@?$vector@PAVBucket@agent@monitoring@ibmras@@V?$allocator@PAVBucket@agent@monitoring@ibmras@@@std@@@std@@QAEXXZ
_TEXT	SEGMENT
_this$ = -24						; size = 4
$T104437 = -20						; size = 4
$T104436 = -16						; size = 4
$T104435 = -12						; size = 4
$T104434 = -8						; size = 4
$T104433 = -4						; size = 4
?clear@?$vector@PAVBucket@agent@monitoring@ibmras@@V?$allocator@PAVBucket@agent@monitoring@ibmras@@@std@@@std@@QAEXXZ PROC ; std::vector<ibmras::monitoring::agent::Bucket *,std::allocator<ibmras::monitoring::agent::Bucket *> >::clear, COMDAT
; _this$ = ecx
; Line 1217
	push	ebp
	mov	ebp, esp
	sub	esp, 24					; 00000018H
	mov	DWORD PTR _this$[ebp], ecx
; Line 1218
	lea	eax, DWORD PTR $T104434[ebp]
	push	eax
	mov	ecx, DWORD PTR _this$[ebp]
	call	?end@?$vector@PAVBucket@agent@monitoring@ibmras@@V?$allocator@PAVBucket@agent@monitoring@ibmras@@@std@@@std@@QAE?AV?$_Vector_iterator@V?$_Vector_val@PAVBucket@agent@monitoring@ibmras@@V?$allocator@PAVBucket@agent@monitoring@ibmras@@@std@@@std@@@2@XZ ; std::vector<ibmras::monitoring::agent::Bucket *,std::allocator<ibmras::monitoring::agent::Bucket *> >::end
	mov	ecx, DWORD PTR [eax]
	mov	DWORD PTR $T104433[ebp], ecx
	lea	edx, DWORD PTR $T104436[ebp]
	push	edx
	mov	ecx, DWORD PTR _this$[ebp]
	call	?begin@?$vector@PAVBucket@agent@monitoring@ibmras@@V?$allocator@PAVBucket@agent@monitoring@ibmras@@@std@@@std@@QAE?AV?$_Vector_iterator@V?$_Vector_val@PAVBucket@agent@monitoring@ibmras@@V?$allocator@PAVBucket@agent@monitoring@ibmras@@@std@@@std@@@2@XZ ; std::vector<ibmras::monitoring::agent::Bucket *,std::allocator<ibmras::monitoring::agent::Bucket *> >::begin
	mov	eax, DWORD PTR [eax]
	mov	DWORD PTR $T104435[ebp], eax
	mov	ecx, DWORD PTR $T104433[ebp]
	push	ecx
	mov	edx, DWORD PTR $T104435[ebp]
	push	edx
	lea	eax, DWORD PTR $T104437[ebp]
	push	eax
	mov	ecx, DWORD PTR _this$[ebp]
	call	?erase@?$vector@PAVBucket@agent@monitoring@ibmras@@V?$allocator@PAVBucket@agent@monitoring@ibmras@@@std@@@std@@QAE?AV?$_Vector_iterator@V?$_Vector_val@PAVBucket@agent@monitoring@ibmras@@V?$allocator@PAVBucket@agent@monitoring@ibmras@@@std@@@std@@@2@V?$_Vector_const_iterator@V?$_Vector_val@PAVBucket@agent@monitoring@ibmras@@V?$allocator@PAVBucket@agent@monitoring@ibmras@@@std@@@std@@@2@0@Z ; std::vector<ibmras::monitoring::agent::Bucket *,std::allocator<ibmras::monitoring::agent::Bucket *> >::erase
; Line 1219
	mov	esp, ebp
	pop	ebp
	ret	0
?clear@?$vector@PAVBucket@agent@monitoring@ibmras@@V?$allocator@PAVBucket@agent@monitoring@ibmras@@@std@@@std@@QAEXXZ ENDP ; std::vector<ibmras::monitoring::agent::Bucket *,std::allocator<ibmras::monitoring::agent::Bucket *> >::clear
_TEXT	ENDS
PUBLIC	?allocate@?$allocator@PAVBucket@agent@monitoring@ibmras@@@std@@QAEPAPAVBucket@agent@monitoring@ibmras@@I@Z ; std::allocator<ibmras::monitoring::agent::Bucket *>::allocate
PUBLIC	?_Xlen@?$vector@PAVBucket@agent@monitoring@ibmras@@V?$allocator@PAVBucket@agent@monitoring@ibmras@@@std@@@std@@IBEXXZ ; std::vector<ibmras::monitoring::agent::Bucket *,std::allocator<ibmras::monitoring::agent::Bucket *> >::_Xlen
PUBLIC	?max_size@?$vector@PAVBucket@agent@monitoring@ibmras@@V?$allocator@PAVBucket@agent@monitoring@ibmras@@@std@@@std@@QBEIXZ ; std::vector<ibmras::monitoring::agent::Bucket *,std::allocator<ibmras::monitoring::agent::Bucket *> >::max_size
; Function compile flags: /Odtp
;	COMDAT ?_Buy@?$vector@PAVBucket@agent@monitoring@ibmras@@V?$allocator@PAVBucket@agent@monitoring@ibmras@@@std@@@std@@IAE_NI@Z
_TEXT	SEGMENT
_this$ = -4						; size = 4
__Capacity$ = 8						; size = 4
?_Buy@?$vector@PAVBucket@agent@monitoring@ibmras@@V?$allocator@PAVBucket@agent@monitoring@ibmras@@@std@@@std@@IAE_NI@Z PROC ; std::vector<ibmras::monitoring::agent::Bucket *,std::allocator<ibmras::monitoring::agent::Bucket *> >::_Buy, COMDAT
; _this$ = ecx
; Line 1250
	push	ebp
	mov	ebp, esp
	push	ecx
	mov	DWORD PTR _this$[ebp], ecx
; Line 1251
	mov	eax, DWORD PTR _this$[ebp]
	mov	DWORD PTR [eax], 0
; Line 1252
	mov	ecx, DWORD PTR _this$[ebp]
	mov	DWORD PTR [ecx+4], 0
; Line 1253
	mov	edx, DWORD PTR _this$[ebp]
	mov	DWORD PTR [edx+8], 0
; Line 1255
	cmp	DWORD PTR __Capacity$[ebp], 0
	jne	SHORT $LN4@Buy
; Line 1256
	xor	al, al
	jmp	SHORT $LN6@Buy
	jmp	SHORT $LN3@Buy
$LN4@Buy:
; Line 1257
	mov	ecx, DWORD PTR _this$[ebp]
	call	?max_size@?$vector@PAVBucket@agent@monitoring@ibmras@@V?$allocator@PAVBucket@agent@monitoring@ibmras@@@std@@@std@@QBEIXZ ; std::vector<ibmras::monitoring::agent::Bucket *,std::allocator<ibmras::monitoring::agent::Bucket *> >::max_size
	cmp	eax, DWORD PTR __Capacity$[ebp]
	jae	SHORT $LN2@Buy
; Line 1258
	mov	ecx, DWORD PTR _this$[ebp]
	call	?_Xlen@?$vector@PAVBucket@agent@monitoring@ibmras@@V?$allocator@PAVBucket@agent@monitoring@ibmras@@@std@@@std@@IBEXXZ ; std::vector<ibmras::monitoring::agent::Bucket *,std::allocator<ibmras::monitoring::agent::Bucket *> >::_Xlen
; Line 1259
	jmp	SHORT $LN3@Buy
$LN2@Buy:
; Line 1261
	mov	eax, DWORD PTR __Capacity$[ebp]
	push	eax
	mov	ecx, DWORD PTR _this$[ebp]
	add	ecx, 12					; 0000000cH
	call	?allocate@?$allocator@PAVBucket@agent@monitoring@ibmras@@@std@@QAEPAPAVBucket@agent@monitoring@ibmras@@I@Z ; std::allocator<ibmras::monitoring::agent::Bucket *>::allocate
	mov	ecx, DWORD PTR _this$[ebp]
	mov	DWORD PTR [ecx], eax
; Line 1262
	mov	edx, DWORD PTR _this$[ebp]
	mov	eax, DWORD PTR _this$[ebp]
	mov	ecx, DWORD PTR [eax]
	mov	DWORD PTR [edx+4], ecx
; Line 1263
	mov	edx, DWORD PTR _this$[ebp]
	mov	eax, DWORD PTR [edx]
	mov	ecx, DWORD PTR __Capacity$[ebp]
	lea	edx, DWORD PTR [eax+ecx*4]
	mov	eax, DWORD PTR _this$[ebp]
	mov	DWORD PTR [eax+8], edx
$LN3@Buy:
; Line 1265
	mov	al, 1
$LN6@Buy:
; Line 1266
	mov	esp, ebp
	pop	ebp
	ret	4
?_Buy@?$vector@PAVBucket@agent@monitoring@ibmras@@V?$allocator@PAVBucket@agent@monitoring@ibmras@@@std@@@std@@IAE_NI@Z ENDP ; std::vector<ibmras::monitoring::agent::Bucket *,std::allocator<ibmras::monitoring::agent::Bucket *> >::_Buy
_TEXT	ENDS
PUBLIC	??$_Destroy_range@V?$allocator@PAVBucket@agent@monitoring@ibmras@@@std@@@std@@YAXPAPAVBucket@agent@monitoring@ibmras@@0AAV?$allocator@PAVBucket@agent@monitoring@ibmras@@@0@@Z ; std::_Destroy_range<std::allocator<ibmras::monitoring::agent::Bucket *> >
; Function compile flags: /Odtp
;	COMDAT ?_Destroy@?$vector@PAVBucket@agent@monitoring@ibmras@@V?$allocator@PAVBucket@agent@monitoring@ibmras@@@std@@@std@@IAEXPAPAVBucket@agent@monitoring@ibmras@@0@Z
_TEXT	SEGMENT
_this$ = -4						; size = 4
__First$ = 8						; size = 4
__Last$ = 12						; size = 4
?_Destroy@?$vector@PAVBucket@agent@monitoring@ibmras@@V?$allocator@PAVBucket@agent@monitoring@ibmras@@@std@@@std@@IAEXPAPAVBucket@agent@monitoring@ibmras@@0@Z PROC ; std::vector<ibmras::monitoring::agent::Bucket *,std::allocator<ibmras::monitoring::agent::Bucket *> >::_Destroy, COMDAT
; _this$ = ecx
; Line 1269
	push	ebp
	mov	ebp, esp
	push	ecx
	mov	DWORD PTR _this$[ebp], ecx
; Line 1270
	mov	eax, DWORD PTR _this$[ebp]
	add	eax, 12					; 0000000cH
	push	eax
	mov	ecx, DWORD PTR __Last$[ebp]
	push	ecx
	mov	edx, DWORD PTR __First$[ebp]
	push	edx
	call	??$_Destroy_range@V?$allocator@PAVBucket@agent@monitoring@ibmras@@@std@@@std@@YAXPAPAVBucket@agent@monitoring@ibmras@@0AAV?$allocator@PAVBucket@agent@monitoring@ibmras@@@0@@Z ; std::_Destroy_range<std::allocator<ibmras::monitoring::agent::Bucket *> >
	add	esp, 12					; 0000000cH
; Line 1271
	mov	esp, ebp
	pop	ebp
	ret	8
?_Destroy@?$vector@PAVBucket@agent@monitoring@ibmras@@V?$allocator@PAVBucket@agent@monitoring@ibmras@@@std@@@std@@IAEXPAPAVBucket@agent@monitoring@ibmras@@0@Z ENDP ; std::vector<ibmras::monitoring::agent::Bucket *,std::allocator<ibmras::monitoring::agent::Bucket *> >::_Destroy
; Function compile flags: /Odtp
_TEXT	ENDS
;	COMDAT ?_Tidy@?$vector@PAVBucket@agent@monitoring@ibmras@@V?$allocator@PAVBucket@agent@monitoring@ibmras@@@std@@@std@@IAEXXZ
_TEXT	SEGMENT
_this$ = -4						; size = 4
?_Tidy@?$vector@PAVBucket@agent@monitoring@ibmras@@V?$allocator@PAVBucket@agent@monitoring@ibmras@@@std@@@std@@IAEXXZ PROC ; std::vector<ibmras::monitoring::agent::Bucket *,std::allocator<ibmras::monitoring::agent::Bucket *> >::_Tidy, COMDAT
; _this$ = ecx
; Line 1301
	push	ebp
	mov	ebp, esp
	push	ecx
	mov	DWORD PTR _this$[ebp], ecx
; Line 1302
	mov	eax, DWORD PTR _this$[ebp]
	cmp	DWORD PTR [eax], 0
	je	SHORT $LN1@Tidy@2
; Line 1304
	mov	ecx, DWORD PTR _this$[ebp]
	call	DWORD PTR __imp_?_Orphan_all@_Container_base0@std@@QAEXXZ
; Line 1305
	mov	ecx, DWORD PTR _this$[ebp]
	mov	edx, DWORD PTR [ecx+4]
	push	edx
	mov	eax, DWORD PTR _this$[ebp]
	mov	ecx, DWORD PTR [eax]
	push	ecx
	mov	ecx, DWORD PTR _this$[ebp]
	call	?_Destroy@?$vector@PAVBucket@agent@monitoring@ibmras@@V?$allocator@PAVBucket@agent@monitoring@ibmras@@@std@@@std@@IAEXPAPAVBucket@agent@monitoring@ibmras@@0@Z ; std::vector<ibmras::monitoring::agent::Bucket *,std::allocator<ibmras::monitoring::agent::Bucket *> >::_Destroy
; Line 1307
	mov	edx, DWORD PTR _this$[ebp]
	mov	eax, DWORD PTR _this$[ebp]
	mov	ecx, DWORD PTR [edx+8]
	sub	ecx, DWORD PTR [eax]
	sar	ecx, 2
	push	ecx
	mov	edx, DWORD PTR _this$[ebp]
	mov	eax, DWORD PTR [edx]
	push	eax
	mov	ecx, DWORD PTR _this$[ebp]
	add	ecx, 12					; 0000000cH
	call	?deallocate@?$allocator@PAVBucket@agent@monitoring@ibmras@@@std@@QAEXPAPAVBucket@agent@monitoring@ibmras@@I@Z ; std::allocator<ibmras::monitoring::agent::Bucket *>::deallocate
$LN1@Tidy@2:
; Line 1309
	mov	ecx, DWORD PTR _this$[ebp]
	mov	DWORD PTR [ecx], 0
; Line 1310
	mov	edx, DWORD PTR _this$[ebp]
	mov	DWORD PTR [edx+4], 0
; Line 1311
	mov	eax, DWORD PTR _this$[ebp]
	mov	DWORD PTR [eax+8], 0
; Line 1312
	mov	esp, ebp
	pop	ebp
	ret	0
?_Tidy@?$vector@PAVBucket@agent@monitoring@ibmras@@V?$allocator@PAVBucket@agent@monitoring@ibmras@@@std@@@std@@IAEXXZ ENDP ; std::vector<ibmras::monitoring::agent::Bucket *,std::allocator<ibmras::monitoring::agent::Bucket *> >::_Tidy
; Function compile flags: /Odtp
_TEXT	ENDS
;	COMDAT ??0?$_Vector_val@PAVBucket@agent@monitoring@ibmras@@V?$allocator@PAVBucket@agent@monitoring@ibmras@@@std@@@std@@QAE@V?$allocator@PAVBucket@agent@monitoring@ibmras@@@1@@Z
_TEXT	SEGMENT
_this$ = -4						; size = 4
__Al$ = 8						; size = 1
??0?$_Vector_val@PAVBucket@agent@monitoring@ibmras@@V?$allocator@PAVBucket@agent@monitoring@ibmras@@@std@@@std@@QAE@V?$allocator@PAVBucket@agent@monitoring@ibmras@@@1@@Z PROC ; std::_Vector_val<ibmras::monitoring::agent::Bucket *,std::allocator<ibmras::monitoring::agent::Bucket *> >::_Vector_val<ibmras::monitoring::agent::Bucket *,std::allocator<ibmras::monitoring::agent::Bucket *> >, COMDAT
; _this$ = ecx
; Line 426
	push	ebp
	mov	ebp, esp
	push	ecx
	mov	DWORD PTR _this$[ebp], ecx
	lea	eax, DWORD PTR __Al$[ebp]
	push	eax
	mov	ecx, DWORD PTR _this$[ebp]
	add	ecx, 12					; 0000000cH
	call	??0?$allocator@PAVBucket@agent@monitoring@ibmras@@@std@@QAE@ABV01@@Z ; std::allocator<ibmras::monitoring::agent::Bucket *>::allocator<ibmras::monitoring::agent::Bucket *>
; Line 427
	mov	ecx, DWORD PTR _this$[ebp]
	mov	DWORD PTR [ecx], 0
; Line 428
	mov	edx, DWORD PTR _this$[ebp]
	mov	DWORD PTR [edx+4], 0
; Line 429
	mov	eax, DWORD PTR _this$[ebp]
	mov	DWORD PTR [eax+8], 0
; Line 430
	mov	eax, DWORD PTR _this$[ebp]
	mov	esp, ebp
	pop	ebp
	ret	4
??0?$_Vector_val@PAVBucket@agent@monitoring@ibmras@@V?$allocator@PAVBucket@agent@monitoring@ibmras@@@std@@@std@@QAE@V?$allocator@PAVBucket@agent@monitoring@ibmras@@@1@@Z ENDP ; std::_Vector_val<ibmras::monitoring::agent::Bucket *,std::allocator<ibmras::monitoring::agent::Bucket *> >::_Vector_val<ibmras::monitoring::agent::Bucket *,std::allocator<ibmras::monitoring::agent::Bucket *> >
; Function compile flags: /Odtp
_TEXT	ENDS
;	COMDAT ??1?$_Vector_val@PAVBucket@agent@monitoring@ibmras@@V?$allocator@PAVBucket@agent@monitoring@ibmras@@@std@@@std@@QAE@XZ
_TEXT	SEGMENT
_this$ = -4						; size = 4
??1?$_Vector_val@PAVBucket@agent@monitoring@ibmras@@V?$allocator@PAVBucket@agent@monitoring@ibmras@@@std@@@std@@QAE@XZ PROC ; std::_Vector_val<ibmras::monitoring::agent::Bucket *,std::allocator<ibmras::monitoring::agent::Bucket *> >::~_Vector_val<ibmras::monitoring::agent::Bucket *,std::allocator<ibmras::monitoring::agent::Bucket *> >, COMDAT
; _this$ = ecx
; Line 433
	push	ebp
	mov	ebp, esp
	push	ecx
	mov	DWORD PTR _this$[ebp], ecx
; Line 434
	mov	esp, ebp
	pop	ebp
	ret	0
??1?$_Vector_val@PAVBucket@agent@monitoring@ibmras@@V?$allocator@PAVBucket@agent@monitoring@ibmras@@@std@@@std@@QAE@XZ ENDP ; std::_Vector_val<ibmras::monitoring::agent::Bucket *,std::allocator<ibmras::monitoring::agent::Bucket *> >::~_Vector_val<ibmras::monitoring::agent::Bucket *,std::allocator<ibmras::monitoring::agent::Bucket *> >
; Function compile flags: /Odtp
_TEXT	ENDS
;	COMDAT ??0?$allocator@PAVBucket@agent@monitoring@ibmras@@@std@@QAE@XZ
_TEXT	SEGMENT
_this$ = -4						; size = 4
??0?$allocator@PAVBucket@agent@monitoring@ibmras@@@std@@QAE@XZ PROC ; std::allocator<ibmras::monitoring::agent::Bucket *>::allocator<ibmras::monitoring::agent::Bucket *>, COMDAT
; _this$ = ecx
; File c:\program files (x86)\microsoft visual studio 10.0\vc\include\xmemory
; Line 161
	push	ebp
	mov	ebp, esp
	push	ecx
	mov	DWORD PTR _this$[ebp], ecx
; Line 163
	mov	eax, DWORD PTR _this$[ebp]
	mov	esp, ebp
	pop	ebp
	ret	0
??0?$allocator@PAVBucket@agent@monitoring@ibmras@@@std@@QAE@XZ ENDP ; std::allocator<ibmras::monitoring::agent::Bucket *>::allocator<ibmras::monitoring::agent::Bucket *>
; Function compile flags: /Odtp
_TEXT	ENDS
;	COMDAT ??0?$allocator@PAVBucket@agent@monitoring@ibmras@@@std@@QAE@ABV01@@Z
_TEXT	SEGMENT
_this$ = -4						; size = 4
___formal$ = 8						; size = 4
??0?$allocator@PAVBucket@agent@monitoring@ibmras@@@std@@QAE@ABV01@@Z PROC ; std::allocator<ibmras::monitoring::agent::Bucket *>::allocator<ibmras::monitoring::agent::Bucket *>, COMDAT
; _this$ = ecx
; Line 165
	push	ebp
	mov	ebp, esp
	push	ecx
	mov	DWORD PTR _this$[ebp], ecx
; Line 167
	mov	eax, DWORD PTR _this$[ebp]
	mov	esp, ebp
	pop	ebp
	ret	4
??0?$allocator@PAVBucket@agent@monitoring@ibmras@@@std@@QAE@ABV01@@Z ENDP ; std::allocator<ibmras::monitoring::agent::Bucket *>::allocator<ibmras::monitoring::agent::Bucket *>
; Function compile flags: /Odtp
_TEXT	ENDS
;	COMDAT ?deallocate@?$allocator@PAVBucket@agent@monitoring@ibmras@@@std@@QAEXPAPAVBucket@agent@monitoring@ibmras@@I@Z
_TEXT	SEGMENT
_this$ = -4						; size = 4
__Ptr$ = 8						; size = 4
___formal$ = 12						; size = 4
?deallocate@?$allocator@PAVBucket@agent@monitoring@ibmras@@@std@@QAEXPAPAVBucket@agent@monitoring@ibmras@@I@Z PROC ; std::allocator<ibmras::monitoring::agent::Bucket *>::deallocate, COMDAT
; _this$ = ecx
; Line 181
	push	ebp
	mov	ebp, esp
	push	ecx
	mov	DWORD PTR _this$[ebp], ecx
; Line 182
	mov	eax, DWORD PTR __Ptr$[ebp]
	push	eax
	call	??3@YAXPAX@Z				; operator delete
	add	esp, 4
; Line 183
	mov	esp, ebp
	pop	ebp
	ret	8
?deallocate@?$allocator@PAVBucket@agent@monitoring@ibmras@@@std@@QAEXPAPAVBucket@agent@monitoring@ibmras@@I@Z ENDP ; std::allocator<ibmras::monitoring::agent::Bucket *>::deallocate
_TEXT	ENDS
PUBLIC	?_Inside@?$basic_string@DU?$char_traits@D@std@@V?$allocator@D@2@@std@@QAE_NPBD@Z ; std::basic_string<char,std::char_traits<char>,std::allocator<char> >::_Inside
; Function compile flags: /Odtp
;	COMDAT ?assign@?$basic_string@DU?$char_traits@D@std@@V?$allocator@D@2@@std@@QAEAAV12@PBDI@Z
_TEXT	SEGMENT
_this$ = -4						; size = 4
__Ptr$ = 8						; size = 4
__Count$ = 12						; size = 4
?assign@?$basic_string@DU?$char_traits@D@std@@V?$allocator@D@2@@std@@QAEAAV12@PBDI@Z PROC ; std::basic_string<char,std::char_traits<char>,std::allocator<char> >::assign, COMDAT
; _this$ = ecx
; File c:\program files (x86)\microsoft visual studio 10.0\vc\include\xstring
; Line 910
	push	ebp
	mov	ebp, esp
	push	ecx
	mov	DWORD PTR _this$[ebp], ecx
; Line 916
	mov	eax, DWORD PTR __Ptr$[ebp]
	push	eax
	mov	ecx, DWORD PTR _this$[ebp]
	call	?_Inside@?$basic_string@DU?$char_traits@D@std@@V?$allocator@D@2@@std@@QAE_NPBD@Z ; std::basic_string<char,std::char_traits<char>,std::allocator<char> >::_Inside
	movzx	ecx, al
	test	ecx, ecx
	je	SHORT $LN2@assign@2
; Line 917
	mov	edx, DWORD PTR __Count$[ebp]
	push	edx
	mov	ecx, DWORD PTR _this$[ebp]
	call	?_Myptr@?$basic_string@DU?$char_traits@D@std@@V?$allocator@D@2@@std@@QAEPADXZ ; std::basic_string<char,std::char_traits<char>,std::allocator<char> >::_Myptr
	mov	ecx, DWORD PTR __Ptr$[ebp]
	sub	ecx, eax
	push	ecx
	mov	edx, DWORD PTR _this$[ebp]
	push	edx
	mov	ecx, DWORD PTR _this$[ebp]
	call	?assign@?$basic_string@DU?$char_traits@D@std@@V?$allocator@D@2@@std@@QAEAAV12@ABV12@II@Z ; std::basic_string<char,std::char_traits<char>,std::allocator<char> >::assign
	jmp	SHORT $LN3@assign@2
$LN2@assign@2:
; Line 919
	push	0
	mov	eax, DWORD PTR __Count$[ebp]
	push	eax
	mov	ecx, DWORD PTR _this$[ebp]
	call	?_Grow@?$basic_string@DU?$char_traits@D@std@@V?$allocator@D@2@@std@@QAE_NI_N@Z ; std::basic_string<char,std::char_traits<char>,std::allocator<char> >::_Grow
	movzx	ecx, al
	test	ecx, ecx
	je	SHORT $LN1@assign@2
; Line 921
	mov	edx, DWORD PTR __Count$[ebp]
	push	edx
	mov	eax, DWORD PTR __Ptr$[ebp]
	push	eax
	mov	ecx, DWORD PTR _this$[ebp]
	call	?_Myptr@?$basic_string@DU?$char_traits@D@std@@V?$allocator@D@2@@std@@QAEPADXZ ; std::basic_string<char,std::char_traits<char>,std::allocator<char> >::_Myptr
	push	eax
	call	?copy@?$char_traits@D@std@@SAPADPADPBDI@Z ; std::char_traits<char>::copy
	add	esp, 12					; 0000000cH
; Line 922
	mov	ecx, DWORD PTR __Count$[ebp]
	push	ecx
	mov	ecx, DWORD PTR _this$[ebp]
	call	?_Eos@?$basic_string@DU?$char_traits@D@std@@V?$allocator@D@2@@std@@QAEXI@Z ; std::basic_string<char,std::char_traits<char>,std::allocator<char> >::_Eos
$LN1@assign@2:
; Line 924
	mov	eax, DWORD PTR _this$[ebp]
$LN3@assign@2:
; Line 925
	mov	esp, ebp
	pop	ebp
	ret	8
?assign@?$basic_string@DU?$char_traits@D@std@@V?$allocator@D@2@@std@@QAEAAV12@PBDI@Z ENDP ; std::basic_string<char,std::char_traits<char>,std::allocator<char> >::assign
_TEXT	ENDS
PUBLIC	?move@?$char_traits@D@std@@SAPADPADPBDI@Z	; std::char_traits<char>::move
; Function compile flags: /Odtp
;	COMDAT ?erase@?$basic_string@DU?$char_traits@D@std@@V?$allocator@D@2@@std@@QAEAAV12@II@Z
_TEXT	SEGMENT
_this$ = -8						; size = 4
__Newsize$100962 = -4					; size = 4
__Off$ = 8						; size = 4
__Count$ = 12						; size = 4
?erase@?$basic_string@DU?$char_traits@D@std@@V?$allocator@D@2@@std@@QAEAAV12@II@Z PROC ; std::basic_string<char,std::char_traits<char>,std::allocator<char> >::erase, COMDAT
; _this$ = ecx
; Line 1108
	push	ebp
	mov	ebp, esp
	sub	esp, 8
	mov	DWORD PTR _this$[ebp], ecx
; Line 1109
	mov	eax, DWORD PTR _this$[ebp]
	mov	ecx, DWORD PTR [eax+16]
	cmp	ecx, DWORD PTR __Off$[ebp]
	jae	SHORT $LN3@erase
; Line 1110
	mov	ecx, DWORD PTR _this$[ebp]
	call	?_Xran@?$basic_string@DU?$char_traits@D@std@@V?$allocator@D@2@@std@@QBEXXZ ; std::basic_string<char,std::char_traits<char>,std::allocator<char> >::_Xran
$LN3@erase:
; Line 1111
	mov	edx, DWORD PTR _this$[ebp]
	mov	eax, DWORD PTR [edx+16]
	sub	eax, DWORD PTR __Off$[ebp]
	cmp	eax, DWORD PTR __Count$[ebp]
	jae	SHORT $LN2@erase
; Line 1112
	mov	ecx, DWORD PTR _this$[ebp]
	mov	edx, DWORD PTR [ecx+16]
	sub	edx, DWORD PTR __Off$[ebp]
	mov	DWORD PTR __Count$[ebp], edx
$LN2@erase:
; Line 1113
	cmp	DWORD PTR __Count$[ebp], 0
	jbe	SHORT $LN1@erase
; Line 1116
	mov	eax, DWORD PTR _this$[ebp]
	mov	ecx, DWORD PTR [eax+16]
	sub	ecx, DWORD PTR __Off$[ebp]
	sub	ecx, DWORD PTR __Count$[ebp]
	push	ecx
	mov	ecx, DWORD PTR _this$[ebp]
	call	?_Myptr@?$basic_string@DU?$char_traits@D@std@@V?$allocator@D@2@@std@@QAEPADXZ ; std::basic_string<char,std::char_traits<char>,std::allocator<char> >::_Myptr
	add	eax, DWORD PTR __Off$[ebp]
	add	eax, DWORD PTR __Count$[ebp]
	push	eax
	mov	ecx, DWORD PTR _this$[ebp]
	call	?_Myptr@?$basic_string@DU?$char_traits@D@std@@V?$allocator@D@2@@std@@QAEPADXZ ; std::basic_string<char,std::char_traits<char>,std::allocator<char> >::_Myptr
	add	eax, DWORD PTR __Off$[ebp]
	push	eax
	call	?move@?$char_traits@D@std@@SAPADPADPBDI@Z ; std::char_traits<char>::move
	add	esp, 12					; 0000000cH
; Line 1117
	mov	edx, DWORD PTR _this$[ebp]
	mov	eax, DWORD PTR [edx+16]
	sub	eax, DWORD PTR __Count$[ebp]
	mov	DWORD PTR __Newsize$100962[ebp], eax
; Line 1118
	mov	ecx, DWORD PTR __Newsize$100962[ebp]
	push	ecx
	mov	ecx, DWORD PTR _this$[ebp]
	call	?_Eos@?$basic_string@DU?$char_traits@D@std@@V?$allocator@D@2@@std@@QAEXI@Z ; std::basic_string<char,std::char_traits<char>,std::allocator<char> >::_Eos
$LN1@erase:
; Line 1120
	mov	eax, DWORD PTR _this$[ebp]
$LN5@erase:
; Line 1121
	mov	esp, ebp
	pop	ebp
	ret	8
?erase@?$basic_string@DU?$char_traits@D@std@@V?$allocator@D@2@@std@@QAEAAV12@II@Z ENDP ; std::basic_string<char,std::char_traits<char>,std::allocator<char> >::erase
_TEXT	ENDS
EXTRN	__imp__memmove:PROC
; Function compile flags: /Odtp
;	COMDAT ?move@?$char_traits@D@std@@SAPADPADPBDI@Z
_TEXT	SEGMENT
__First1$ = 8						; size = 4
__First2$ = 12						; size = 4
__Count$ = 16						; size = 4
?move@?$char_traits@D@std@@SAPADPADPBDI@Z PROC		; std::char_traits<char>::move, COMDAT
; File c:\program files (x86)\microsoft visual studio 10.0\vc\include\iosfwd
; Line 516
	push	ebp
	mov	ebp, esp
; Line 517
	mov	eax, DWORD PTR __Count$[ebp]
	push	eax
	mov	ecx, DWORD PTR __First2$[ebp]
	push	ecx
	mov	edx, DWORD PTR __First1$[ebp]
	push	edx
	call	DWORD PTR __imp__memmove
	add	esp, 12					; 0000000cH
; Line 518
	pop	ebp
	ret	0
?move@?$char_traits@D@std@@SAPADPADPBDI@Z ENDP		; std::char_traits<char>::move
_TEXT	ENDS
PUBLIC	?assign@?$char_traits@D@std@@SAXAADABD@Z	; std::char_traits<char>::assign
; Function compile flags: /Odtp
;	COMDAT ?_Eos@?$basic_string@DU?$char_traits@D@std@@V?$allocator@D@2@@std@@QAEXI@Z
_TEXT	SEGMENT
_this$ = -8						; size = 4
$T104462 = -1						; size = 1
__Newsize$ = 8						; size = 4
?_Eos@?$basic_string@DU?$char_traits@D@std@@V?$allocator@D@2@@std@@QAEXI@Z PROC ; std::basic_string<char,std::char_traits<char>,std::allocator<char> >::_Eos, COMDAT
; _this$ = ecx
; File c:\program files (x86)\microsoft visual studio 10.0\vc\include\xstring
; Line 1952
	push	ebp
	mov	ebp, esp
	sub	esp, 8
	mov	DWORD PTR _this$[ebp], ecx
; Line 1953
	mov	BYTE PTR $T104462[ebp], 0
	mov	eax, DWORD PTR _this$[ebp]
	mov	ecx, DWORD PTR __Newsize$[ebp]
	mov	DWORD PTR [eax+16], ecx
	lea	edx, DWORD PTR $T104462[ebp]
	push	edx
	mov	ecx, DWORD PTR _this$[ebp]
	call	?_Myptr@?$basic_string@DU?$char_traits@D@std@@V?$allocator@D@2@@std@@QAEPADXZ ; std::basic_string<char,std::char_traits<char>,std::allocator<char> >::_Myptr
	add	eax, DWORD PTR __Newsize$[ebp]
	push	eax
	call	?assign@?$char_traits@D@std@@SAXAADABD@Z ; std::char_traits<char>::assign
	add	esp, 8
; Line 1954
	mov	esp, ebp
	pop	ebp
	ret	4
?_Eos@?$basic_string@DU?$char_traits@D@std@@V?$allocator@D@2@@std@@QAEXI@Z ENDP ; std::basic_string<char,std::char_traits<char>,std::allocator<char> >::_Eos
; Function compile flags: /Odtp
_TEXT	ENDS
;	COMDAT ?assign@?$char_traits@D@std@@SAXAADABD@Z
_TEXT	SEGMENT
__Left$ = 8						; size = 4
__Right$ = 12						; size = 4
?assign@?$char_traits@D@std@@SAXAADABD@Z PROC		; std::char_traits<char>::assign, COMDAT
; File c:\program files (x86)\microsoft visual studio 10.0\vc\include\iosfwd
; Line 526
	push	ebp
	mov	ebp, esp
; Line 527
	mov	eax, DWORD PTR __Left$[ebp]
	mov	ecx, DWORD PTR __Right$[ebp]
	mov	dl, BYTE PTR [ecx]
	mov	BYTE PTR [eax], dl
; Line 528
	pop	ebp
	ret	0
?assign@?$char_traits@D@std@@SAXAADABD@Z ENDP		; std::char_traits<char>::assign
_TEXT	ENDS
PUBLIC	?_Copy@?$basic_string@DU?$char_traits@D@std@@V?$allocator@D@2@@std@@QAEXII@Z ; std::basic_string<char,std::char_traits<char>,std::allocator<char> >::_Copy
PUBLIC	?_Xlen@?$basic_string@DU?$char_traits@D@std@@V?$allocator@D@2@@std@@QBEXXZ ; std::basic_string<char,std::char_traits<char>,std::allocator<char> >::_Xlen
PUBLIC	?max_size@?$basic_string@DU?$char_traits@D@std@@V?$allocator@D@2@@std@@QBEIXZ ; std::basic_string<char,std::char_traits<char>,std::allocator<char> >::max_size
; Function compile flags: /Odtp
;	COMDAT ?_Grow@?$basic_string@DU?$char_traits@D@std@@V?$allocator@D@2@@std@@QAE_NI_N@Z
_TEXT	SEGMENT
tv129 = -8						; size = 4
_this$ = -4						; size = 4
__Newsize$ = 8						; size = 4
__Trim$ = 12						; size = 1
?_Grow@?$basic_string@DU?$char_traits@D@std@@V?$allocator@D@2@@std@@QAE_NI_N@Z PROC ; std::basic_string<char,std::char_traits<char>,std::allocator<char> >::_Grow, COMDAT
; _this$ = ecx
; File c:\program files (x86)\microsoft visual studio 10.0\vc\include\xstring
; Line 1958
	push	ebp
	mov	ebp, esp
	sub	esp, 8
	mov	DWORD PTR _this$[ebp], ecx
; Line 1959
	mov	ecx, DWORD PTR _this$[ebp]
	call	?max_size@?$basic_string@DU?$char_traits@D@std@@V?$allocator@D@2@@std@@QBEIXZ ; std::basic_string<char,std::char_traits<char>,std::allocator<char> >::max_size
	cmp	eax, DWORD PTR __Newsize$[ebp]
	jae	SHORT $LN6@Grow
; Line 1960
	mov	ecx, DWORD PTR _this$[ebp]
	call	?_Xlen@?$basic_string@DU?$char_traits@D@std@@V?$allocator@D@2@@std@@QBEXXZ ; std::basic_string<char,std::char_traits<char>,std::allocator<char> >::_Xlen
$LN6@Grow:
; Line 1961
	mov	eax, DWORD PTR _this$[ebp]
	mov	ecx, DWORD PTR [eax+20]
	cmp	ecx, DWORD PTR __Newsize$[ebp]
	jae	SHORT $LN5@Grow
; Line 1962
	mov	edx, DWORD PTR _this$[ebp]
	mov	eax, DWORD PTR [edx+16]
	push	eax
	mov	ecx, DWORD PTR __Newsize$[ebp]
	push	ecx
	mov	ecx, DWORD PTR _this$[ebp]
	call	?_Copy@?$basic_string@DU?$char_traits@D@std@@V?$allocator@D@2@@std@@QAEXII@Z ; std::basic_string<char,std::char_traits<char>,std::allocator<char> >::_Copy
	jmp	SHORT $LN4@Grow
$LN5@Grow:
; Line 1963
	movzx	edx, BYTE PTR __Trim$[ebp]
	test	edx, edx
	je	SHORT $LN3@Grow
	cmp	DWORD PTR __Newsize$[ebp], 16		; 00000010H
	jae	SHORT $LN3@Grow
; Line 1965
	mov	eax, DWORD PTR _this$[ebp]
	mov	ecx, DWORD PTR __Newsize$[ebp]
	cmp	ecx, DWORD PTR [eax+16]
	jae	SHORT $LN9@Grow
	mov	edx, DWORD PTR __Newsize$[ebp]
	mov	DWORD PTR tv129[ebp], edx
	jmp	SHORT $LN10@Grow
$LN9@Grow:
	mov	eax, DWORD PTR _this$[ebp]
	mov	ecx, DWORD PTR [eax+16]
	mov	DWORD PTR tv129[ebp], ecx
$LN10@Grow:
	mov	edx, DWORD PTR tv129[ebp]
	push	edx
	push	1
	mov	ecx, DWORD PTR _this$[ebp]
	call	?_Tidy@?$basic_string@DU?$char_traits@D@std@@V?$allocator@D@2@@std@@QAEX_NI@Z ; std::basic_string<char,std::char_traits<char>,std::allocator<char> >::_Tidy
	jmp	SHORT $LN4@Grow
$LN3@Grow:
; Line 1966
	cmp	DWORD PTR __Newsize$[ebp], 0
	jne	SHORT $LN4@Grow
; Line 1967
	push	0
	mov	ecx, DWORD PTR _this$[ebp]
	call	?_Eos@?$basic_string@DU?$char_traits@D@std@@V?$allocator@D@2@@std@@QAEXI@Z ; std::basic_string<char,std::char_traits<char>,std::allocator<char> >::_Eos
$LN4@Grow:
; Line 1968
	xor	eax, eax
	cmp	eax, DWORD PTR __Newsize$[ebp]
	sbb	eax, eax
	neg	eax
$LN8@Grow:
; Line 1969
	mov	esp, ebp
	pop	ebp
	ret	8
?_Grow@?$basic_string@DU?$char_traits@D@std@@V?$allocator@D@2@@std@@QAE_NI_N@Z ENDP ; std::basic_string<char,std::char_traits<char>,std::allocator<char> >::_Grow
; Function compile flags: /Odtp
_TEXT	ENDS
;	COMDAT ?_Myptr@?$basic_string@DU?$char_traits@D@std@@V?$allocator@D@2@@std@@QAEPADXZ
_TEXT	SEGMENT
tv80 = -8						; size = 4
_this$ = -4						; size = 4
?_Myptr@?$basic_string@DU?$char_traits@D@std@@V?$allocator@D@2@@std@@QAEPADXZ PROC ; std::basic_string<char,std::char_traits<char>,std::allocator<char> >::_Myptr, COMDAT
; _this$ = ecx
; Line 2002
	push	ebp
	mov	ebp, esp
	sub	esp, 8
	mov	DWORD PTR _this$[ebp], ecx
; Line 2004
	mov	eax, DWORD PTR _this$[ebp]
	cmp	DWORD PTR [eax+20], 16			; 00000010H
	jb	SHORT $LN3@Myptr@2
	mov	ecx, DWORD PTR _this$[ebp]
	mov	edx, DWORD PTR [ecx]
	mov	DWORD PTR tv80[ebp], edx
	jmp	SHORT $LN4@Myptr@2
$LN3@Myptr@2:
	mov	eax, DWORD PTR _this$[ebp]
	mov	DWORD PTR tv80[ebp], eax
$LN4@Myptr@2:
	mov	eax, DWORD PTR tv80[ebp]
; Line 2005
	mov	esp, ebp
	pop	ebp
	ret	0
?_Myptr@?$basic_string@DU?$char_traits@D@std@@V?$allocator@D@2@@std@@QAEPADXZ ENDP ; std::basic_string<char,std::char_traits<char>,std::allocator<char> >::_Myptr
_TEXT	ENDS
PUBLIC	??_C@_0BI@CFPLBAOH@invalid?5string?5position?$AA@ ; `string'
EXTRN	__imp_?_Xout_of_range@std@@YAXPBD@Z:PROC
;	COMDAT ??_C@_0BI@CFPLBAOH@invalid?5string?5position?$AA@
CONST	SEGMENT
??_C@_0BI@CFPLBAOH@invalid?5string?5position?$AA@ DB 'invalid string posi'
	DB	'tion', 00H					; `string'
; Function compile flags: /Odtp
CONST	ENDS
;	COMDAT ?_Xran@?$basic_string@DU?$char_traits@D@std@@V?$allocator@D@2@@std@@QBEXXZ
_TEXT	SEGMENT
_this$ = -4						; size = 4
?_Xran@?$basic_string@DU?$char_traits@D@std@@V?$allocator@D@2@@std@@QBEXXZ PROC ; std::basic_string<char,std::char_traits<char>,std::allocator<char> >::_Xran, COMDAT
; _this$ = ecx
; Line 2019
	push	ebp
	mov	ebp, esp
	push	ecx
	mov	DWORD PTR _this$[ebp], ecx
; Line 2020
	push	OFFSET ??_C@_0BI@CFPLBAOH@invalid?5string?5position?$AA@
	call	DWORD PTR __imp_?_Xout_of_range@std@@YAXPBD@Z
$LN2@Xran:
; Line 2021
	mov	esp, ebp
	pop	ebp
	ret	0
?_Xran@?$basic_string@DU?$char_traits@D@std@@V?$allocator@D@2@@std@@QBEXXZ ENDP ; std::basic_string<char,std::char_traits<char>,std::allocator<char> >::_Xran
; Function compile flags: /Odtp
_TEXT	ENDS
;	COMDAT ?deallocate@?$allocator@D@std@@QAEXPADI@Z
_TEXT	SEGMENT
_this$ = -4						; size = 4
__Ptr$ = 8						; size = 4
___formal$ = 12						; size = 4
?deallocate@?$allocator@D@std@@QAEXPADI@Z PROC		; std::allocator<char>::deallocate, COMDAT
; _this$ = ecx
; File c:\program files (x86)\microsoft visual studio 10.0\vc\include\xmemory
; Line 181
	push	ebp
	mov	ebp, esp
	push	ecx
	mov	DWORD PTR _this$[ebp], ecx
; Line 182
	mov	eax, DWORD PTR __Ptr$[ebp]
	push	eax
	call	??3@YAXPAX@Z				; operator delete
	add	esp, 4
; Line 183
	mov	esp, ebp
	pop	ebp
	ret	8
?deallocate@?$allocator@D@std@@QAEXPADI@Z ENDP		; std::allocator<char>::deallocate
_TEXT	ENDS
PUBLIC	??0?$_Vector_iterator@V?$_Vector_val@PAVBucket@agent@monitoring@ibmras@@V?$allocator@PAVBucket@agent@monitoring@ibmras@@@std@@@std@@@std@@QAE@PAPAVBucket@agent@monitoring@ibmras@@PBU_Container_base0@1@@Z ; std::_Vector_iterator<std::_Vector_val<ibmras::monitoring::agent::Bucket *,std::allocator<ibmras::monitoring::agent::Bucket *> > >::_Vector_iterator<std::_Vector_val<ibmras::monitoring::agent::Bucket *,std::allocator<ibmras::monitoring::agent::Bucket *> > >
; Function compile flags: /Odtp
;	COMDAT ?begin@?$vector@PAVBucket@agent@monitoring@ibmras@@V?$allocator@PAVBucket@agent@monitoring@ibmras@@@std@@@std@@QAE?AV?$_Vector_iterator@V?$_Vector_val@PAVBucket@agent@monitoring@ibmras@@V?$allocator@PAVBucket@agent@monitoring@ibmras@@@std@@@std@@@2@XZ
_TEXT	SEGMENT
_this$ = -4						; size = 4
___$ReturnUdt$ = 8					; size = 4
?begin@?$vector@PAVBucket@agent@monitoring@ibmras@@V?$allocator@PAVBucket@agent@monitoring@ibmras@@@std@@@std@@QAE?AV?$_Vector_iterator@V?$_Vector_val@PAVBucket@agent@monitoring@ibmras@@V?$allocator@PAVBucket@agent@monitoring@ibmras@@@std@@@std@@@2@XZ PROC ; std::vector<ibmras::monitoring::agent::Bucket *,std::allocator<ibmras::monitoring::agent::Bucket *> >::begin, COMDAT
; _this$ = ecx
; File c:\program files (x86)\microsoft visual studio 10.0\vc\include\vector
; Line 781
	push	ebp
	mov	ebp, esp
	push	ecx
	mov	DWORD PTR _this$[ebp], ecx
; Line 782
	mov	eax, DWORD PTR _this$[ebp]
	push	eax
	mov	ecx, DWORD PTR _this$[ebp]
	mov	edx, DWORD PTR [ecx]
	push	edx
	mov	ecx, DWORD PTR ___$ReturnUdt$[ebp]
	call	??0?$_Vector_iterator@V?$_Vector_val@PAVBucket@agent@monitoring@ibmras@@V?$allocator@PAVBucket@agent@monitoring@ibmras@@@std@@@std@@@std@@QAE@PAPAVBucket@agent@monitoring@ibmras@@PBU_Container_base0@1@@Z ; std::_Vector_iterator<std::_Vector_val<ibmras::monitoring::agent::Bucket *,std::allocator<ibmras::monitoring::agent::Bucket *> > >::_Vector_iterator<std::_Vector_val<ibmras::monitoring::agent::Bucket *,std::allocator<ibmras::monitoring::agent::Bucket *> > >
	mov	eax, DWORD PTR ___$ReturnUdt$[ebp]
; Line 783
	mov	esp, ebp
	pop	ebp
	ret	4
?begin@?$vector@PAVBucket@agent@monitoring@ibmras@@V?$allocator@PAVBucket@agent@monitoring@ibmras@@@std@@@std@@QAE?AV?$_Vector_iterator@V?$_Vector_val@PAVBucket@agent@monitoring@ibmras@@V?$allocator@PAVBucket@agent@monitoring@ibmras@@@std@@@std@@@2@XZ ENDP ; std::vector<ibmras::monitoring::agent::Bucket *,std::allocator<ibmras::monitoring::agent::Bucket *> >::begin
; Function compile flags: /Odtp
_TEXT	ENDS
;	COMDAT ?end@?$vector@PAVBucket@agent@monitoring@ibmras@@V?$allocator@PAVBucket@agent@monitoring@ibmras@@@std@@@std@@QAE?AV?$_Vector_iterator@V?$_Vector_val@PAVBucket@agent@monitoring@ibmras@@V?$allocator@PAVBucket@agent@monitoring@ibmras@@@std@@@std@@@2@XZ
_TEXT	SEGMENT
_this$ = -4						; size = 4
___$ReturnUdt$ = 8					; size = 4
?end@?$vector@PAVBucket@agent@monitoring@ibmras@@V?$allocator@PAVBucket@agent@monitoring@ibmras@@@std@@@std@@QAE?AV?$_Vector_iterator@V?$_Vector_val@PAVBucket@agent@monitoring@ibmras@@V?$allocator@PAVBucket@agent@monitoring@ibmras@@@std@@@std@@@2@XZ PROC ; std::vector<ibmras::monitoring::agent::Bucket *,std::allocator<ibmras::monitoring::agent::Bucket *> >::end, COMDAT
; _this$ = ecx
; Line 791
	push	ebp
	mov	ebp, esp
	push	ecx
	mov	DWORD PTR _this$[ebp], ecx
; Line 792
	mov	eax, DWORD PTR _this$[ebp]
	push	eax
	mov	ecx, DWORD PTR _this$[ebp]
	mov	edx, DWORD PTR [ecx+4]
	push	edx
	mov	ecx, DWORD PTR ___$ReturnUdt$[ebp]
	call	??0?$_Vector_iterator@V?$_Vector_val@PAVBucket@agent@monitoring@ibmras@@V?$allocator@PAVBucket@agent@monitoring@ibmras@@@std@@@std@@@std@@QAE@PAPAVBucket@agent@monitoring@ibmras@@PBU_Container_base0@1@@Z ; std::_Vector_iterator<std::_Vector_val<ibmras::monitoring::agent::Bucket *,std::allocator<ibmras::monitoring::agent::Bucket *> > >::_Vector_iterator<std::_Vector_val<ibmras::monitoring::agent::Bucket *,std::allocator<ibmras::monitoring::agent::Bucket *> > >
	mov	eax, DWORD PTR ___$ReturnUdt$[ebp]
; Line 793
	mov	esp, ebp
	pop	ebp
	ret	4
?end@?$vector@PAVBucket@agent@monitoring@ibmras@@V?$allocator@PAVBucket@agent@monitoring@ibmras@@@std@@@std@@QAE?AV?$_Vector_iterator@V?$_Vector_val@PAVBucket@agent@monitoring@ibmras@@V?$allocator@PAVBucket@agent@monitoring@ibmras@@@std@@@std@@@2@XZ ENDP ; std::vector<ibmras::monitoring::agent::Bucket *,std::allocator<ibmras::monitoring::agent::Bucket *> >::end
_TEXT	ENDS
PUBLIC	?max_size@?$allocator@PAVBucket@agent@monitoring@ibmras@@@std@@QBEIXZ ; std::allocator<ibmras::monitoring::agent::Bucket *>::max_size
; Function compile flags: /Odtp
;	COMDAT ?max_size@?$vector@PAVBucket@agent@monitoring@ibmras@@V?$allocator@PAVBucket@agent@monitoring@ibmras@@@std@@@std@@QBEIXZ
_TEXT	SEGMENT
_this$ = -4						; size = 4
?max_size@?$vector@PAVBucket@agent@monitoring@ibmras@@V?$allocator@PAVBucket@agent@monitoring@ibmras@@@std@@@std@@QBEIXZ PROC ; std::vector<ibmras::monitoring::agent::Bucket *,std::allocator<ibmras::monitoring::agent::Bucket *> >::max_size, COMDAT
; _this$ = ecx
; Line 883
	push	ebp
	mov	ebp, esp
	push	ecx
	mov	DWORD PTR _this$[ebp], ecx
; Line 884
	mov	ecx, DWORD PTR _this$[ebp]
	add	ecx, 12					; 0000000cH
	call	?max_size@?$allocator@PAVBucket@agent@monitoring@ibmras@@@std@@QBEIXZ ; std::allocator<ibmras::monitoring::agent::Bucket *>::max_size
; Line 885
	mov	esp, ebp
	pop	ebp
	ret	0
?max_size@?$vector@PAVBucket@agent@monitoring@ibmras@@V?$allocator@PAVBucket@agent@monitoring@ibmras@@@std@@@std@@QBEIXZ ENDP ; std::vector<ibmras::monitoring::agent::Bucket *,std::allocator<ibmras::monitoring::agent::Bucket *> >::max_size
_TEXT	ENDS
PUBLIC	??$_Move@PAPAVBucket@agent@monitoring@ibmras@@PAPAV1234@@std@@YAPAPAVBucket@agent@monitoring@ibmras@@PAPAV1234@00@Z ; std::_Move<ibmras::monitoring::agent::Bucket * *,ibmras::monitoring::agent::Bucket * *>
PUBLIC	??9?$_Vector_const_iterator@V?$_Vector_val@PAVBucket@agent@monitoring@ibmras@@V?$allocator@PAVBucket@agent@monitoring@ibmras@@@std@@@std@@@std@@QBE_NABV01@@Z ; std::_Vector_const_iterator<std::_Vector_val<ibmras::monitoring::agent::Bucket *,std::allocator<ibmras::monitoring::agent::Bucket *> > >::operator!=
PUBLIC	?_Make_iter@?$vector@PAVBucket@agent@monitoring@ibmras@@V?$allocator@PAVBucket@agent@monitoring@ibmras@@@std@@@std@@QBE?AV?$_Vector_iterator@V?$_Vector_val@PAVBucket@agent@monitoring@ibmras@@V?$allocator@PAVBucket@agent@monitoring@ibmras@@@std@@@std@@@2@V?$_Vector_const_iterator@V?$_Vector_val@PAVBucket@agent@monitoring@ibmras@@V?$allocator@PAVBucket@agent@monitoring@ibmras@@@std@@@std@@@2@@Z ; std::vector<ibmras::monitoring::agent::Bucket *,std::allocator<ibmras::monitoring::agent::Bucket *> >::_Make_iter
; Function compile flags: /Odtp
;	COMDAT ?erase@?$vector@PAVBucket@agent@monitoring@ibmras@@V?$allocator@PAVBucket@agent@monitoring@ibmras@@@std@@@std@@QAE?AV?$_Vector_iterator@V?$_Vector_val@PAVBucket@agent@monitoring@ibmras@@V?$allocator@PAVBucket@agent@monitoring@ibmras@@@std@@@std@@@2@V?$_Vector_const_iterator@V?$_Vector_val@PAVBucket@agent@monitoring@ibmras@@V?$allocator@PAVBucket@agent@monitoring@ibmras@@@std@@@std@@@2@0@Z
_TEXT	SEGMENT
_this$ = -20						; size = 4
$T104485 = -16						; size = 4
__Ptr$101377 = -12					; size = 4
__Last$ = -8						; size = 4
__First$ = -4						; size = 4
___$ReturnUdt$ = 8					; size = 4
__First_arg$ = 12					; size = 4
__Last_arg$ = 16					; size = 4
?erase@?$vector@PAVBucket@agent@monitoring@ibmras@@V?$allocator@PAVBucket@agent@monitoring@ibmras@@@std@@@std@@QAE?AV?$_Vector_iterator@V?$_Vector_val@PAVBucket@agent@monitoring@ibmras@@V?$allocator@PAVBucket@agent@monitoring@ibmras@@@std@@@std@@@2@V?$_Vector_const_iterator@V?$_Vector_val@PAVBucket@agent@monitoring@ibmras@@V?$allocator@PAVBucket@agent@monitoring@ibmras@@@std@@@std@@@2@0@Z PROC ; std::vector<ibmras::monitoring::agent::Bucket *,std::allocator<ibmras::monitoring::agent::Bucket *> >::erase, COMDAT
; _this$ = ecx
; Line 1190
	push	ebp
	mov	ebp, esp
	sub	esp, 20					; 00000014H
	mov	DWORD PTR _this$[ebp], ecx
; Line 1191
	mov	eax, DWORD PTR __First_arg$[ebp]
	push	eax
	lea	ecx, DWORD PTR __First$[ebp]
	push	ecx
	mov	ecx, DWORD PTR _this$[ebp]
	call	?_Make_iter@?$vector@PAVBucket@agent@monitoring@ibmras@@V?$allocator@PAVBucket@agent@monitoring@ibmras@@@std@@@std@@QBE?AV?$_Vector_iterator@V?$_Vector_val@PAVBucket@agent@monitoring@ibmras@@V?$allocator@PAVBucket@agent@monitoring@ibmras@@@std@@@std@@@2@V?$_Vector_const_iterator@V?$_Vector_val@PAVBucket@agent@monitoring@ibmras@@V?$allocator@PAVBucket@agent@monitoring@ibmras@@@std@@@std@@@2@@Z ; std::vector<ibmras::monitoring::agent::Bucket *,std::allocator<ibmras::monitoring::agent::Bucket *> >::_Make_iter
; Line 1192
	mov	edx, DWORD PTR __Last_arg$[ebp]
	push	edx
	lea	eax, DWORD PTR __Last$[ebp]
	push	eax
	mov	ecx, DWORD PTR _this$[ebp]
	call	?_Make_iter@?$vector@PAVBucket@agent@monitoring@ibmras@@V?$allocator@PAVBucket@agent@monitoring@ibmras@@@std@@@std@@QBE?AV?$_Vector_iterator@V?$_Vector_val@PAVBucket@agent@monitoring@ibmras@@V?$allocator@PAVBucket@agent@monitoring@ibmras@@@std@@@std@@@2@V?$_Vector_const_iterator@V?$_Vector_val@PAVBucket@agent@monitoring@ibmras@@V?$allocator@PAVBucket@agent@monitoring@ibmras@@@std@@@std@@@2@@Z ; std::vector<ibmras::monitoring::agent::Bucket *,std::allocator<ibmras::monitoring::agent::Bucket *> >::_Make_iter
; Line 1194
	lea	ecx, DWORD PTR __Last$[ebp]
	push	ecx
	lea	ecx, DWORD PTR __First$[ebp]
	call	??9?$_Vector_const_iterator@V?$_Vector_val@PAVBucket@agent@monitoring@ibmras@@V?$allocator@PAVBucket@agent@monitoring@ibmras@@@std@@@std@@@std@@QBE_NABV01@@Z ; std::_Vector_const_iterator<std::_Vector_val<ibmras::monitoring::agent::Bucket *,std::allocator<ibmras::monitoring::agent::Bucket *> > >::operator!=
	movzx	edx, al
	test	edx, edx
	je	SHORT $LN1@erase@2
; Line 1207
	mov	eax, DWORD PTR __First$[ebp]
	push	eax
	mov	ecx, DWORD PTR _this$[ebp]
	mov	edx, DWORD PTR [ecx+4]
	push	edx
	mov	eax, DWORD PTR __Last$[ebp]
	push	eax
	call	??$_Move@PAPAVBucket@agent@monitoring@ibmras@@PAPAV1234@@std@@YAPAPAVBucket@agent@monitoring@ibmras@@PAPAV1234@00@Z ; std::_Move<ibmras::monitoring::agent::Bucket * *,ibmras::monitoring::agent::Bucket * *>
	add	esp, 12					; 0000000cH
	mov	DWORD PTR __Ptr$101377[ebp], eax
; Line 1210
	mov	ecx, DWORD PTR _this$[ebp]
	mov	edx, DWORD PTR [ecx+4]
	push	edx
	mov	eax, DWORD PTR __Ptr$101377[ebp]
	push	eax
	mov	ecx, DWORD PTR _this$[ebp]
	call	?_Destroy@?$vector@PAVBucket@agent@monitoring@ibmras@@V?$allocator@PAVBucket@agent@monitoring@ibmras@@@std@@@std@@IAEXPAPAVBucket@agent@monitoring@ibmras@@0@Z ; std::vector<ibmras::monitoring::agent::Bucket *,std::allocator<ibmras::monitoring::agent::Bucket *> >::_Destroy
; Line 1211
	mov	ecx, DWORD PTR _this$[ebp]
	mov	edx, DWORD PTR __Ptr$101377[ebp]
	mov	DWORD PTR [ecx+4], edx
$LN1@erase@2:
; Line 1213
	mov	eax, DWORD PTR __First$[ebp]
	mov	DWORD PTR $T104485[ebp], eax
	mov	ecx, DWORD PTR $T104485[ebp]
	push	ecx
	mov	edx, DWORD PTR ___$ReturnUdt$[ebp]
	push	edx
	mov	ecx, DWORD PTR _this$[ebp]
	call	?_Make_iter@?$vector@PAVBucket@agent@monitoring@ibmras@@V?$allocator@PAVBucket@agent@monitoring@ibmras@@@std@@@std@@QBE?AV?$_Vector_iterator@V?$_Vector_val@PAVBucket@agent@monitoring@ibmras@@V?$allocator@PAVBucket@agent@monitoring@ibmras@@@std@@@std@@@2@V?$_Vector_const_iterator@V?$_Vector_val@PAVBucket@agent@monitoring@ibmras@@V?$allocator@PAVBucket@agent@monitoring@ibmras@@@std@@@std@@@2@@Z ; std::vector<ibmras::monitoring::agent::Bucket *,std::allocator<ibmras::monitoring::agent::Bucket *> >::_Make_iter
	mov	eax, DWORD PTR ___$ReturnUdt$[ebp]
; Line 1214
	mov	esp, ebp
	pop	ebp
	ret	12					; 0000000cH
?erase@?$vector@PAVBucket@agent@monitoring@ibmras@@V?$allocator@PAVBucket@agent@monitoring@ibmras@@@std@@@std@@QAE?AV?$_Vector_iterator@V?$_Vector_val@PAVBucket@agent@monitoring@ibmras@@V?$allocator@PAVBucket@agent@monitoring@ibmras@@@std@@@std@@@2@V?$_Vector_const_iterator@V?$_Vector_val@PAVBucket@agent@monitoring@ibmras@@V?$allocator@PAVBucket@agent@monitoring@ibmras@@@std@@@std@@@2@0@Z ENDP ; std::vector<ibmras::monitoring::agent::Bucket *,std::allocator<ibmras::monitoring::agent::Bucket *> >::erase
_TEXT	ENDS
PUBLIC	??_C@_0BD@OLBABOEK@vector?$DMT?$DO?5too?5long?$AA@ ; `string'
EXTRN	__imp_?_Xlength_error@std@@YAXPBD@Z:PROC
;	COMDAT ??_C@_0BD@OLBABOEK@vector?$DMT?$DO?5too?5long?$AA@
CONST	SEGMENT
??_C@_0BD@OLBABOEK@vector?$DMT?$DO?5too?5long?$AA@ DB 'vector<T> too long'
	DB	00H						; `string'
; Function compile flags: /Odtp
CONST	ENDS
;	COMDAT ?_Xlen@?$vector@PAVBucket@agent@monitoring@ibmras@@V?$allocator@PAVBucket@agent@monitoring@ibmras@@@std@@@std@@IBEXXZ
_TEXT	SEGMENT
_this$ = -4						; size = 4
?_Xlen@?$vector@PAVBucket@agent@monitoring@ibmras@@V?$allocator@PAVBucket@agent@monitoring@ibmras@@@std@@@std@@IBEXXZ PROC ; std::vector<ibmras::monitoring::agent::Bucket *,std::allocator<ibmras::monitoring::agent::Bucket *> >::_Xlen, COMDAT
; _this$ = ecx
; Line 1426
	push	ebp
	mov	ebp, esp
	push	ecx
	mov	DWORD PTR _this$[ebp], ecx
; Line 1427
	push	OFFSET ??_C@_0BD@OLBABOEK@vector?$DMT?$DO?5too?5long?$AA@
	call	DWORD PTR __imp_?_Xlength_error@std@@YAXPBD@Z
$LN2@Xlen:
; Line 1428
	mov	esp, ebp
	pop	ebp
	ret	0
?_Xlen@?$vector@PAVBucket@agent@monitoring@ibmras@@V?$allocator@PAVBucket@agent@monitoring@ibmras@@@std@@@std@@IBEXXZ ENDP ; std::vector<ibmras::monitoring::agent::Bucket *,std::allocator<ibmras::monitoring::agent::Bucket *> >::_Xlen
_TEXT	ENDS
PUBLIC	??$_Allocate@PAVBucket@agent@monitoring@ibmras@@@std@@YAPAPAVBucket@agent@monitoring@ibmras@@IPAPAV1234@@Z ; std::_Allocate<ibmras::monitoring::agent::Bucket *>
; Function compile flags: /Odtp
;	COMDAT ?allocate@?$allocator@PAVBucket@agent@monitoring@ibmras@@@std@@QAEPAPAVBucket@agent@monitoring@ibmras@@I@Z
_TEXT	SEGMENT
_this$ = -4						; size = 4
__Count$ = 8						; size = 4
?allocate@?$allocator@PAVBucket@agent@monitoring@ibmras@@@std@@QAEPAPAVBucket@agent@monitoring@ibmras@@I@Z PROC ; std::allocator<ibmras::monitoring::agent::Bucket *>::allocate, COMDAT
; _this$ = ecx
; File c:\program files (x86)\microsoft visual studio 10.0\vc\include\xmemory
; Line 186
	push	ebp
	mov	ebp, esp
	push	ecx
	mov	DWORD PTR _this$[ebp], ecx
; Line 187
	push	0
	mov	eax, DWORD PTR __Count$[ebp]
	push	eax
	call	??$_Allocate@PAVBucket@agent@monitoring@ibmras@@@std@@YAPAPAVBucket@agent@monitoring@ibmras@@IPAPAV1234@@Z ; std::_Allocate<ibmras::monitoring::agent::Bucket *>
	add	esp, 8
; Line 188
	mov	esp, ebp
	pop	ebp
	ret	4
?allocate@?$allocator@PAVBucket@agent@monitoring@ibmras@@@std@@QAEPAPAVBucket@agent@monitoring@ibmras@@I@Z ENDP ; std::allocator<ibmras::monitoring::agent::Bucket *>::allocate
_TEXT	ENDS
PUBLIC	?_Adopt@_Iterator_base0@std@@QAEXPBX@Z		; std::_Iterator_base0::_Adopt
; Function compile flags: /Odtp
;	COMDAT ??0?$_Vector_const_iterator@V?$_Vector_val@PAVBucket@agent@monitoring@ibmras@@V?$allocator@PAVBucket@agent@monitoring@ibmras@@@std@@@std@@@std@@QAE@PAPAVBucket@agent@monitoring@ibmras@@PBU_Container_base0@1@@Z
_TEXT	SEGMENT
_this$ = -4						; size = 4
__Parg$ = 8						; size = 4
__Pvector$ = 12						; size = 4
??0?$_Vector_const_iterator@V?$_Vector_val@PAVBucket@agent@monitoring@ibmras@@V?$allocator@PAVBucket@agent@monitoring@ibmras@@@std@@@std@@@std@@QAE@PAPAVBucket@agent@monitoring@ibmras@@PBU_Container_base0@1@@Z PROC ; std::_Vector_const_iterator<std::_Vector_val<ibmras::monitoring::agent::Bucket *,std::allocator<ibmras::monitoring::agent::Bucket *> > >::_Vector_const_iterator<std::_Vector_val<ibmras::monitoring::agent::Bucket *,std::allocator<ibmras::monitoring::agent::Bucket *> > >, COMDAT
; _this$ = ecx
; File c:\program files (x86)\microsoft visual studio 10.0\vc\include\vector
; Line 45
	push	ebp
	mov	ebp, esp
	push	ecx
	mov	DWORD PTR _this$[ebp], ecx
	mov	eax, DWORD PTR _this$[ebp]
	mov	ecx, DWORD PTR __Parg$[ebp]
	mov	DWORD PTR [eax], ecx
; Line 46
	mov	edx, DWORD PTR __Pvector$[ebp]
	push	edx
	mov	ecx, DWORD PTR _this$[ebp]
	call	?_Adopt@_Iterator_base0@std@@QAEXPBX@Z	; std::_Iterator_base0::_Adopt
; Line 47
	mov	eax, DWORD PTR _this$[ebp]
	mov	esp, ebp
	pop	ebp
	ret	8
??0?$_Vector_const_iterator@V?$_Vector_val@PAVBucket@agent@monitoring@ibmras@@V?$allocator@PAVBucket@agent@monitoring@ibmras@@@std@@@std@@@std@@QAE@PAPAVBucket@agent@monitoring@ibmras@@PBU_Container_base0@1@@Z ENDP ; std::_Vector_const_iterator<std::_Vector_val<ibmras::monitoring::agent::Bucket *,std::allocator<ibmras::monitoring::agent::Bucket *> > >::_Vector_const_iterator<std::_Vector_val<ibmras::monitoring::agent::Bucket *,std::allocator<ibmras::monitoring::agent::Bucket *> > >
; Function compile flags: /Odtp
_TEXT	ENDS
;	COMDAT ?_Adopt@_Iterator_base0@std@@QAEXPBX@Z
_TEXT	SEGMENT
_this$ = -4						; size = 4
___formal$ = 8						; size = 4
?_Adopt@_Iterator_base0@std@@QAEXPBX@Z PROC		; std::_Iterator_base0::_Adopt, COMDAT
; _this$ = ecx
; File c:\program files (x86)\microsoft visual studio 10.0\vc\include\xutility
; Line 48
	push	ebp
	mov	ebp, esp
	push	ecx
	mov	DWORD PTR _this$[ebp], ecx
; Line 49
	mov	esp, ebp
	pop	ebp
	ret	4
?_Adopt@_Iterator_base0@std@@QAEXPBX@Z ENDP		; std::_Iterator_base0::_Adopt
_TEXT	ENDS
PUBLIC	?max_size@?$allocator@D@std@@QBEIXZ		; std::allocator<char>::max_size
; Function compile flags: /Odtp
;	COMDAT ?max_size@?$basic_string@DU?$char_traits@D@std@@V?$allocator@D@2@@std@@QBEIXZ
_TEXT	SEGMENT
tv73 = -12						; size = 4
_this$ = -8						; size = 4
__Num$ = -4						; size = 4
?max_size@?$basic_string@DU?$char_traits@D@std@@V?$allocator@D@2@@std@@QBEIXZ PROC ; std::basic_string<char,std::char_traits<char>,std::allocator<char> >::max_size, COMDAT
; _this$ = ecx
; File c:\program files (x86)\microsoft visual studio 10.0\vc\include\xstring
; Line 1515
	push	ebp
	mov	ebp, esp
	sub	esp, 12					; 0000000cH
	mov	DWORD PTR _this$[ebp], ecx
; Line 1516
	mov	ecx, DWORD PTR _this$[ebp]
	add	ecx, 24					; 00000018H
	call	?max_size@?$allocator@D@std@@QBEIXZ	; std::allocator<char>::max_size
	mov	DWORD PTR __Num$[ebp], eax
; Line 1517
	cmp	DWORD PTR __Num$[ebp], 1
	ja	SHORT $LN3@max_size
	mov	DWORD PTR tv73[ebp], 1
	jmp	SHORT $LN4@max_size
$LN3@max_size:
	mov	eax, DWORD PTR __Num$[ebp]
	sub	eax, 1
	mov	DWORD PTR tv73[ebp], eax
$LN4@max_size:
	mov	eax, DWORD PTR tv73[ebp]
; Line 1518
	mov	esp, ebp
	pop	ebp
	ret	0
?max_size@?$basic_string@DU?$char_traits@D@std@@V?$allocator@D@2@@std@@QBEIXZ ENDP ; std::basic_string<char,std::char_traits<char>,std::allocator<char> >::max_size
_TEXT	ENDS
PUBLIC	?allocate@?$allocator@D@std@@QAEPADI@Z		; std::allocator<char>::allocate
;	COMDAT xdata$x
xdata$x	SEGMENT
__catchsym$?_Copy@?$basic_string@DU?$char_traits@D@std@@V?$allocator@D@2@@std@@QAEXII@Z$5 DD 040H
	DD	00H
	DD	00H
	DD	FLAT:__catch$?_Copy@?$basic_string@DU?$char_traits@D@std@@V?$allocator@D@2@@std@@QAEXII@Z$0
__catchsym$?_Copy@?$basic_string@DU?$char_traits@D@std@@V?$allocator@D@2@@std@@QAEXII@Z$4 DD 040H
	DD	00H
	DD	00H
	DD	FLAT:__catch$?_Copy@?$basic_string@DU?$char_traits@D@std@@V?$allocator@D@2@@std@@QAEXII@Z$1
__unwindtable$?_Copy@?$basic_string@DU?$char_traits@D@std@@V?$allocator@D@2@@std@@QAEXII@Z DD 0ffffffffH
	DD	00H
	DD	0ffffffffH
	DD	00H
	DD	01H
	DD	00H
	DD	01H
	DD	00H
__ehfuncinfo$?_Copy@?$basic_string@DU?$char_traits@D@std@@V?$allocator@D@2@@std@@QAEXII@Z DD 019930522H
	DD	04H
	DD	FLAT:__unwindtable$?_Copy@?$basic_string@DU?$char_traits@D@std@@V?$allocator@D@2@@std@@QAEXII@Z
	DD	02H
	DD	FLAT:__tryblocktable$?_Copy@?$basic_string@DU?$char_traits@D@std@@V?$allocator@D@2@@std@@QAEXII@Z
	DD	2 DUP(00H)
	DD	00H
	DD	01H
__tryblocktable$?_Copy@?$basic_string@DU?$char_traits@D@std@@V?$allocator@D@2@@std@@QAEXII@Z DD 02H
	DD	02H
	DD	03H
	DD	01H
	DD	FLAT:__catchsym$?_Copy@?$basic_string@DU?$char_traits@D@std@@V?$allocator@D@2@@std@@QAEXII@Z$4
	DD	00H
	DD	00H
	DD	03H
	DD	01H
	DD	FLAT:__catchsym$?_Copy@?$basic_string@DU?$char_traits@D@std@@V?$allocator@D@2@@std@@QAEXII@Z$5
; Function compile flags: /Odtp
xdata$x	ENDS
;	COMDAT ?_Copy@?$basic_string@DU?$char_traits@D@std@@V?$allocator@D@2@@std@@QAEXII@Z
_TEXT	SEGMENT
tv184 = -36						; size = 4
tv183 = -32						; size = 4
_this$ = -28						; size = 4
__Newres$ = -24						; size = 4
__Ptr$ = -20						; size = 4
__$EHRec$ = -16						; size = 16
__Newsize$ = 8						; size = 4
__Oldlen$ = 12						; size = 4
?_Copy@?$basic_string@DU?$char_traits@D@std@@V?$allocator@D@2@@std@@QAEXII@Z PROC ; std::basic_string<char,std::char_traits<char>,std::allocator<char> >::_Copy, COMDAT
; _this$ = ecx
; Line 1918
	push	ebp
	mov	ebp, esp
	push	-1
	push	__ehhandler$?_Copy@?$basic_string@DU?$char_traits@D@std@@V?$allocator@D@2@@std@@QAEXII@Z
	mov	eax, DWORD PTR fs:0
	push	eax
	push	ecx
	sub	esp, 20					; 00000014H
	push	ebx
	push	esi
	push	edi
	mov	eax, DWORD PTR ___security_cookie
	xor	eax, ebp
	push	eax
	lea	eax, DWORD PTR __$EHRec$[ebp+4]
	mov	DWORD PTR fs:0, eax
	mov	DWORD PTR __$EHRec$[ebp], esp
	mov	DWORD PTR _this$[ebp], ecx
; Line 1919
	mov	eax, DWORD PTR __Newsize$[ebp]
	or	eax, 15					; 0000000fH
	mov	DWORD PTR __Newres$[ebp], eax
; Line 1920
	mov	ecx, DWORD PTR _this$[ebp]
	call	?max_size@?$basic_string@DU?$char_traits@D@std@@V?$allocator@D@2@@std@@QBEIXZ ; std::basic_string<char,std::char_traits<char>,std::allocator<char> >::max_size
	cmp	eax, DWORD PTR __Newres$[ebp]
	jae	SHORT $LN9@Copy
; Line 1921
	mov	ecx, DWORD PTR __Newsize$[ebp]
	mov	DWORD PTR __Newres$[ebp], ecx
	jmp	SHORT $LN8@Copy
$LN9@Copy:
; Line 1922
	mov	eax, DWORD PTR __Newres$[ebp]
	xor	edx, edx
	mov	ecx, 3
	div	ecx
	mov	edx, DWORD PTR _this$[ebp]
	mov	ecx, DWORD PTR [edx+20]
	shr	ecx, 1
	cmp	ecx, eax
	ja	SHORT $LN7@Copy
	jmp	SHORT $LN8@Copy
$LN7@Copy:
; Line 1924
	mov	edx, DWORD PTR _this$[ebp]
	mov	esi, DWORD PTR [edx+20]
	shr	esi, 1
	mov	ecx, DWORD PTR _this$[ebp]
	call	?max_size@?$basic_string@DU?$char_traits@D@std@@V?$allocator@D@2@@std@@QBEIXZ ; std::basic_string<char,std::char_traits<char>,std::allocator<char> >::max_size
	sub	eax, esi
	mov	ecx, DWORD PTR _this$[ebp]
	cmp	DWORD PTR [ecx+20], eax
	ja	SHORT $LN5@Copy
; Line 1926
	mov	edx, DWORD PTR _this$[ebp]
	mov	eax, DWORD PTR [edx+20]
	shr	eax, 1
	mov	ecx, DWORD PTR _this$[ebp]
	add	eax, DWORD PTR [ecx+20]
	mov	DWORD PTR __Newres$[ebp], eax
; Line 1927
	jmp	SHORT $LN8@Copy
$LN5@Copy:
; Line 1928
	mov	ecx, DWORD PTR _this$[ebp]
	call	?max_size@?$basic_string@DU?$char_traits@D@std@@V?$allocator@D@2@@std@@QBEIXZ ; std::basic_string<char,std::char_traits<char>,std::allocator<char> >::max_size
	mov	DWORD PTR __Newres$[ebp], eax
$LN8@Copy:
; Line 1931
	mov	DWORD PTR __$EHRec$[ebp+12], 0
; Line 1932
	mov	edx, DWORD PTR __Newres$[ebp]
	add	edx, 1
	push	edx
	mov	ecx, DWORD PTR _this$[ebp]
	add	ecx, 24					; 00000018H
	call	?allocate@?$allocator@D@std@@QAEPADI@Z	; std::allocator<char>::allocate
	mov	DWORD PTR tv183[ebp], eax
	mov	eax, DWORD PTR tv183[ebp]
	mov	DWORD PTR __Ptr$[ebp], eax
	jmp	SHORT $LN12@Copy
__catch$?_Copy@?$basic_string@DU?$char_traits@D@std@@V?$allocator@D@2@@std@@QAEXII@Z$0:
; Line 1933
	mov	DWORD PTR __$EHRec$[ebp], esp
; Line 1934
	mov	ecx, DWORD PTR __Newsize$[ebp]
	mov	DWORD PTR __Newres$[ebp], ecx
; Line 1935
	mov	BYTE PTR __$EHRec$[ebp+12], 2
; Line 1936
	mov	edx, DWORD PTR __Newres$[ebp]
	add	edx, 1
	push	edx
	mov	ecx, DWORD PTR _this$[ebp]
	add	ecx, 24					; 00000018H
	call	?allocate@?$allocator@D@std@@QAEPADI@Z	; std::allocator<char>::allocate
	mov	DWORD PTR tv184[ebp], eax
	mov	eax, DWORD PTR tv184[ebp]
	mov	DWORD PTR __Ptr$[ebp], eax
	jmp	SHORT $LN14@Copy
__catch$?_Copy@?$basic_string@DU?$char_traits@D@std@@V?$allocator@D@2@@std@@QAEXII@Z$1:
; Line 1938
	push	0
	push	1
	mov	ecx, DWORD PTR _this$[ebp]
	call	?_Tidy@?$basic_string@DU?$char_traits@D@std@@V?$allocator@D@2@@std@@QAEX_NI@Z ; std::basic_string<char,std::char_traits<char>,std::allocator<char> >::_Tidy
; Line 1939
	push	0
	push	0
	call	__CxxThrowException@8
; Line 1940
	mov	DWORD PTR __$EHRec$[ebp+12], 1
	mov	eax, __tryend$?_Copy@?$basic_string@DU?$char_traits@D@std@@V?$allocator@D@2@@std@@QAEXII@Z$2
	ret	0
$LN14@Copy:
	mov	DWORD PTR __$EHRec$[ebp+12], 1
__tryend$?_Copy@?$basic_string@DU?$char_traits@D@std@@V?$allocator@D@2@@std@@QAEXII@Z$2:
; Line 1941
	mov	DWORD PTR __$EHRec$[ebp+12], 1
	mov	eax, __tryend$?_Copy@?$basic_string@DU?$char_traits@D@std@@V?$allocator@D@2@@std@@QAEXII@Z$3
	ret	0
$LN12@Copy:
	mov	DWORD PTR __$EHRec$[ebp+12], -1
__tryend$?_Copy@?$basic_string@DU?$char_traits@D@std@@V?$allocator@D@2@@std@@QAEXII@Z$3:
; Line 1943
	cmp	DWORD PTR __Oldlen$[ebp], 0
	jbe	SHORT $LN1@Copy
; Line 1944
	mov	ecx, DWORD PTR __Oldlen$[ebp]
	push	ecx
	mov	ecx, DWORD PTR _this$[ebp]
	call	?_Myptr@?$basic_string@DU?$char_traits@D@std@@V?$allocator@D@2@@std@@QAEPADXZ ; std::basic_string<char,std::char_traits<char>,std::allocator<char> >::_Myptr
	push	eax
	mov	edx, DWORD PTR __Ptr$[ebp]
	push	edx
	call	?copy@?$char_traits@D@std@@SAPADPADPBDI@Z ; std::char_traits<char>::copy
	add	esp, 12					; 0000000cH
$LN1@Copy:
; Line 1945
	push	0
	push	1
	mov	ecx, DWORD PTR _this$[ebp]
	call	?_Tidy@?$basic_string@DU?$char_traits@D@std@@V?$allocator@D@2@@std@@QAEX_NI@Z ; std::basic_string<char,std::char_traits<char>,std::allocator<char> >::_Tidy
; Line 1946
	mov	eax, DWORD PTR _this$[ebp]
	mov	ecx, DWORD PTR __Ptr$[ebp]
	mov	DWORD PTR [eax], ecx
; Line 1947
	mov	edx, DWORD PTR _this$[ebp]
	mov	eax, DWORD PTR __Newres$[ebp]
	mov	DWORD PTR [edx+20], eax
; Line 1948
	mov	ecx, DWORD PTR __Oldlen$[ebp]
	push	ecx
	mov	ecx, DWORD PTR _this$[ebp]
	call	?_Eos@?$basic_string@DU?$char_traits@D@std@@V?$allocator@D@2@@std@@QAEXI@Z ; std::basic_string<char,std::char_traits<char>,std::allocator<char> >::_Eos
$LN11@Copy:
; Line 1949
	mov	ecx, DWORD PTR __$EHRec$[ebp+4]
	mov	DWORD PTR fs:0, ecx
	pop	ecx
	pop	edi
	pop	esi
	pop	ebx
	mov	esp, ebp
	pop	ebp
	ret	8
_TEXT	ENDS
;	COMDAT text$x
text$x	SEGMENT
__ehhandler$?_Copy@?$basic_string@DU?$char_traits@D@std@@V?$allocator@D@2@@std@@QAEXII@Z:
	mov	edx, DWORD PTR [esp+8]
	lea	eax, DWORD PTR [edx+12]
	mov	ecx, DWORD PTR [edx-40]
	xor	ecx, eax
	call	@__security_check_cookie@4
	mov	eax, OFFSET __ehfuncinfo$?_Copy@?$basic_string@DU?$char_traits@D@std@@V?$allocator@D@2@@std@@QAEXII@Z
	jmp	___CxxFrameHandler3
text$x	ENDS
?_Copy@?$basic_string@DU?$char_traits@D@std@@V?$allocator@D@2@@std@@QAEXII@Z ENDP ; std::basic_string<char,std::char_traits<char>,std::allocator<char> >::_Copy
; Function compile flags: /Odtp
;	COMDAT ?_Inside@?$basic_string@DU?$char_traits@D@std@@V?$allocator@D@2@@std@@QAE_NPBD@Z
_TEXT	SEGMENT
_this$ = -4						; size = 4
__Ptr$ = 8						; size = 4
?_Inside@?$basic_string@DU?$char_traits@D@std@@V?$allocator@D@2@@std@@QAE_NPBD@Z PROC ; std::basic_string<char,std::char_traits<char>,std::allocator<char> >::_Inside, COMDAT
; _this$ = ecx
; Line 1972
	push	ebp
	mov	ebp, esp
	push	ecx
	mov	DWORD PTR _this$[ebp], ecx
; Line 1973
	cmp	DWORD PTR __Ptr$[ebp], 0
	je	SHORT $LN2@Inside
	mov	ecx, DWORD PTR _this$[ebp]
	call	?_Myptr@?$basic_string@DU?$char_traits@D@std@@V?$allocator@D@2@@std@@QAEPADXZ ; std::basic_string<char,std::char_traits<char>,std::allocator<char> >::_Myptr
	cmp	DWORD PTR __Ptr$[ebp], eax
	jb	SHORT $LN2@Inside
	mov	ecx, DWORD PTR _this$[ebp]
	call	?_Myptr@?$basic_string@DU?$char_traits@D@std@@V?$allocator@D@2@@std@@QAEPADXZ ; std::basic_string<char,std::char_traits<char>,std::allocator<char> >::_Myptr
	mov	ecx, DWORD PTR _this$[ebp]
	add	eax, DWORD PTR [ecx+16]
	cmp	eax, DWORD PTR __Ptr$[ebp]
	ja	SHORT $LN3@Inside
$LN2@Inside:
; Line 1974
	xor	al, al
	jmp	SHORT $LN4@Inside
; Line 1975
	jmp	SHORT $LN4@Inside
$LN3@Inside:
; Line 1976
	mov	al, 1
$LN4@Inside:
; Line 1977
	mov	esp, ebp
	pop	ebp
	ret	4
?_Inside@?$basic_string@DU?$char_traits@D@std@@V?$allocator@D@2@@std@@QAE_NPBD@Z ENDP ; std::basic_string<char,std::char_traits<char>,std::allocator<char> >::_Inside
_TEXT	ENDS
PUBLIC	??_C@_0BA@JFNIOLAK@string?5too?5long?$AA@	; `string'
;	COMDAT ??_C@_0BA@JFNIOLAK@string?5too?5long?$AA@
CONST	SEGMENT
??_C@_0BA@JFNIOLAK@string?5too?5long?$AA@ DB 'string too long', 00H ; `string'
; Function compile flags: /Odtp
CONST	ENDS
;	COMDAT ?_Xlen@?$basic_string@DU?$char_traits@D@std@@V?$allocator@D@2@@std@@QBEXXZ
_TEXT	SEGMENT
_this$ = -4						; size = 4
?_Xlen@?$basic_string@DU?$char_traits@D@std@@V?$allocator@D@2@@std@@QBEXXZ PROC ; std::basic_string<char,std::char_traits<char>,std::allocator<char> >::_Xlen, COMDAT
; _this$ = ecx
; Line 2014
	push	ebp
	mov	ebp, esp
	push	ecx
	mov	DWORD PTR _this$[ebp], ecx
; Line 2015
	push	OFFSET ??_C@_0BA@JFNIOLAK@string?5too?5long?$AA@
	call	DWORD PTR __imp_?_Xlength_error@std@@YAXPBD@Z
$LN2@Xlen@2:
; Line 2016
	mov	esp, ebp
	pop	ebp
	ret	0
?_Xlen@?$basic_string@DU?$char_traits@D@std@@V?$allocator@D@2@@std@@QBEXXZ ENDP ; std::basic_string<char,std::char_traits<char>,std::allocator<char> >::_Xlen
; Function compile flags: /Odtp
_TEXT	ENDS
;	COMDAT ?_Make_iter@?$vector@PAVBucket@agent@monitoring@ibmras@@V?$allocator@PAVBucket@agent@monitoring@ibmras@@@std@@@std@@QBE?AV?$_Vector_iterator@V?$_Vector_val@PAVBucket@agent@monitoring@ibmras@@V?$allocator@PAVBucket@agent@monitoring@ibmras@@@std@@@std@@@2@V?$_Vector_const_iterator@V?$_Vector_val@PAVBucket@agent@monitoring@ibmras@@V?$allocator@PAVBucket@agent@monitoring@ibmras@@@std@@@std@@@2@@Z
_TEXT	SEGMENT
_this$ = -4						; size = 4
___$ReturnUdt$ = 8					; size = 4
__Where$ = 12						; size = 4
?_Make_iter@?$vector@PAVBucket@agent@monitoring@ibmras@@V?$allocator@PAVBucket@agent@monitoring@ibmras@@@std@@@std@@QBE?AV?$_Vector_iterator@V?$_Vector_val@PAVBucket@agent@monitoring@ibmras@@V?$allocator@PAVBucket@agent@monitoring@ibmras@@@std@@@std@@@2@V?$_Vector_const_iterator@V?$_Vector_val@PAVBucket@agent@monitoring@ibmras@@V?$allocator@PAVBucket@agent@monitoring@ibmras@@@std@@@std@@@2@@Z PROC ; std::vector<ibmras::monitoring::agent::Bucket *,std::allocator<ibmras::monitoring::agent::Bucket *> >::_Make_iter, COMDAT
; _this$ = ecx
; File c:\program files (x86)\microsoft visual studio 10.0\vc\include\vector
; Line 801
	push	ebp
	mov	ebp, esp
	push	ecx
	mov	DWORD PTR _this$[ebp], ecx
; Line 802
	mov	eax, DWORD PTR _this$[ebp]
	push	eax
	mov	ecx, DWORD PTR __Where$[ebp]
	push	ecx
	mov	ecx, DWORD PTR ___$ReturnUdt$[ebp]
	call	??0?$_Vector_iterator@V?$_Vector_val@PAVBucket@agent@monitoring@ibmras@@V?$allocator@PAVBucket@agent@monitoring@ibmras@@@std@@@std@@@std@@QAE@PAPAVBucket@agent@monitoring@ibmras@@PBU_Container_base0@1@@Z ; std::_Vector_iterator<std::_Vector_val<ibmras::monitoring::agent::Bucket *,std::allocator<ibmras::monitoring::agent::Bucket *> > >::_Vector_iterator<std::_Vector_val<ibmras::monitoring::agent::Bucket *,std::allocator<ibmras::monitoring::agent::Bucket *> > >
	mov	eax, DWORD PTR ___$ReturnUdt$[ebp]
; Line 803
	mov	esp, ebp
	pop	ebp
	ret	8
?_Make_iter@?$vector@PAVBucket@agent@monitoring@ibmras@@V?$allocator@PAVBucket@agent@monitoring@ibmras@@@std@@@std@@QBE?AV?$_Vector_iterator@V?$_Vector_val@PAVBucket@agent@monitoring@ibmras@@V?$allocator@PAVBucket@agent@monitoring@ibmras@@@std@@@std@@@2@V?$_Vector_const_iterator@V?$_Vector_val@PAVBucket@agent@monitoring@ibmras@@V?$allocator@PAVBucket@agent@monitoring@ibmras@@@std@@@std@@@2@@Z ENDP ; std::vector<ibmras::monitoring::agent::Bucket *,std::allocator<ibmras::monitoring::agent::Bucket *> >::_Make_iter
; Function compile flags: /Odtp
_TEXT	ENDS
;	COMDAT ?max_size@?$allocator@PAVBucket@agent@monitoring@ibmras@@@std@@QBEIXZ
_TEXT	SEGMENT
tv65 = -12						; size = 4
_this$ = -8						; size = 4
__Count$ = -4						; size = 4
?max_size@?$allocator@PAVBucket@agent@monitoring@ibmras@@@std@@QBEIXZ PROC ; std::allocator<ibmras::monitoring::agent::Bucket *>::max_size, COMDAT
; _this$ = ecx
; File c:\program files (x86)\microsoft visual studio 10.0\vc\include\xmemory
; Line 217
	push	ebp
	mov	ebp, esp
	sub	esp, 12					; 0000000cH
	mov	DWORD PTR _this$[ebp], ecx
; Line 218
	mov	DWORD PTR __Count$[ebp], 1073741823	; 3fffffffH
; Line 219
	cmp	DWORD PTR __Count$[ebp], 0
	jbe	SHORT $LN3@max_size@2
	mov	eax, DWORD PTR __Count$[ebp]
	mov	DWORD PTR tv65[ebp], eax
	jmp	SHORT $LN4@max_size@2
$LN3@max_size@2:
	mov	DWORD PTR tv65[ebp], 1
$LN4@max_size@2:
	mov	eax, DWORD PTR tv65[ebp]
; Line 220
	mov	esp, ebp
	pop	ebp
	ret	0
?max_size@?$allocator@PAVBucket@agent@monitoring@ibmras@@@std@@QBEIXZ ENDP ; std::allocator<ibmras::monitoring::agent::Bucket *>::max_size
_TEXT	ENDS
PUBLIC	??8?$_Vector_const_iterator@V?$_Vector_val@PAVBucket@agent@monitoring@ibmras@@V?$allocator@PAVBucket@agent@monitoring@ibmras@@@std@@@std@@@std@@QBE_NABV01@@Z ; std::_Vector_const_iterator<std::_Vector_val<ibmras::monitoring::agent::Bucket *,std::allocator<ibmras::monitoring::agent::Bucket *> > >::operator==
; Function compile flags: /Odtp
;	COMDAT ??9?$_Vector_const_iterator@V?$_Vector_val@PAVBucket@agent@monitoring@ibmras@@V?$allocator@PAVBucket@agent@monitoring@ibmras@@@std@@@std@@@std@@QBE_NABV01@@Z
_TEXT	SEGMENT
_this$ = -4						; size = 4
__Right$ = 8						; size = 4
??9?$_Vector_const_iterator@V?$_Vector_val@PAVBucket@agent@monitoring@ibmras@@V?$allocator@PAVBucket@agent@monitoring@ibmras@@@std@@@std@@@std@@QBE_NABV01@@Z PROC ; std::_Vector_const_iterator<std::_Vector_val<ibmras::monitoring::agent::Bucket *,std::allocator<ibmras::monitoring::agent::Bucket *> > >::operator!=, COMDAT
; _this$ = ecx
; File c:\program files (x86)\microsoft visual studio 10.0\vc\include\vector
; Line 207
	push	ebp
	mov	ebp, esp
	push	ecx
	mov	DWORD PTR _this$[ebp], ecx
; Line 208
	mov	eax, DWORD PTR __Right$[ebp]
	push	eax
	mov	ecx, DWORD PTR _this$[ebp]
	call	??8?$_Vector_const_iterator@V?$_Vector_val@PAVBucket@agent@monitoring@ibmras@@V?$allocator@PAVBucket@agent@monitoring@ibmras@@@std@@@std@@@std@@QBE_NABV01@@Z ; std::_Vector_const_iterator<std::_Vector_val<ibmras::monitoring::agent::Bucket *,std::allocator<ibmras::monitoring::agent::Bucket *> > >::operator==
	movzx	eax, al
	neg	eax
	sbb	eax, eax
	add	eax, 1
; Line 209
	mov	esp, ebp
	pop	ebp
	ret	4
??9?$_Vector_const_iterator@V?$_Vector_val@PAVBucket@agent@monitoring@ibmras@@V?$allocator@PAVBucket@agent@monitoring@ibmras@@@std@@@std@@@std@@QBE_NABV01@@Z ENDP ; std::_Vector_const_iterator<std::_Vector_val<ibmras::monitoring::agent::Bucket *,std::allocator<ibmras::monitoring::agent::Bucket *> > >::operator!=
; Function compile flags: /Odtp
_TEXT	ENDS
;	COMDAT ??0?$_Vector_iterator@V?$_Vector_val@PAVBucket@agent@monitoring@ibmras@@V?$allocator@PAVBucket@agent@monitoring@ibmras@@@std@@@std@@@std@@QAE@PAPAVBucket@agent@monitoring@ibmras@@PBU_Container_base0@1@@Z
_TEXT	SEGMENT
_this$ = -4						; size = 4
__Parg$ = 8						; size = 4
__Pvector$ = 12						; size = 4
??0?$_Vector_iterator@V?$_Vector_val@PAVBucket@agent@monitoring@ibmras@@V?$allocator@PAVBucket@agent@monitoring@ibmras@@@std@@@std@@@std@@QAE@PAPAVBucket@agent@monitoring@ibmras@@PBU_Container_base0@1@@Z PROC ; std::_Vector_iterator<std::_Vector_val<ibmras::monitoring::agent::Bucket *,std::allocator<ibmras::monitoring::agent::Bucket *> > >::_Vector_iterator<std::_Vector_val<ibmras::monitoring::agent::Bucket *,std::allocator<ibmras::monitoring::agent::Bucket *> > >, COMDAT
; _this$ = ecx
; Line 304
	push	ebp
	mov	ebp, esp
	push	ecx
	mov	DWORD PTR _this$[ebp], ecx
	mov	eax, DWORD PTR __Pvector$[ebp]
	push	eax
	mov	ecx, DWORD PTR __Parg$[ebp]
	push	ecx
	mov	ecx, DWORD PTR _this$[ebp]
	call	??0?$_Vector_const_iterator@V?$_Vector_val@PAVBucket@agent@monitoring@ibmras@@V?$allocator@PAVBucket@agent@monitoring@ibmras@@@std@@@std@@@std@@QAE@PAPAVBucket@agent@monitoring@ibmras@@PBU_Container_base0@1@@Z ; std::_Vector_const_iterator<std::_Vector_val<ibmras::monitoring::agent::Bucket *,std::allocator<ibmras::monitoring::agent::Bucket *> > >::_Vector_const_iterator<std::_Vector_val<ibmras::monitoring::agent::Bucket *,std::allocator<ibmras::monitoring::agent::Bucket *> > >
; Line 305
	mov	eax, DWORD PTR _this$[ebp]
	mov	esp, ebp
	pop	ebp
	ret	8
??0?$_Vector_iterator@V?$_Vector_val@PAVBucket@agent@monitoring@ibmras@@V?$allocator@PAVBucket@agent@monitoring@ibmras@@@std@@@std@@@std@@QAE@PAPAVBucket@agent@monitoring@ibmras@@PBU_Container_base0@1@@Z ENDP ; std::_Vector_iterator<std::_Vector_val<ibmras::monitoring::agent::Bucket *,std::allocator<ibmras::monitoring::agent::Bucket *> > >::_Vector_iterator<std::_Vector_val<ibmras::monitoring::agent::Bucket *,std::allocator<ibmras::monitoring::agent::Bucket *> > >
_TEXT	ENDS
PUBLIC	??$_Allocate@D@std@@YAPADIPAD@Z			; std::_Allocate<char>
; Function compile flags: /Odtp
;	COMDAT ?allocate@?$allocator@D@std@@QAEPADI@Z
_TEXT	SEGMENT
_this$ = -4						; size = 4
__Count$ = 8						; size = 4
?allocate@?$allocator@D@std@@QAEPADI@Z PROC		; std::allocator<char>::allocate, COMDAT
; _this$ = ecx
; File c:\program files (x86)\microsoft visual studio 10.0\vc\include\xmemory
; Line 186
	push	ebp
	mov	ebp, esp
	push	ecx
	mov	DWORD PTR _this$[ebp], ecx
; Line 187
	push	0
	mov	eax, DWORD PTR __Count$[ebp]
	push	eax
	call	??$_Allocate@D@std@@YAPADIPAD@Z		; std::_Allocate<char>
	add	esp, 8
; Line 188
	mov	esp, ebp
	pop	ebp
	ret	4
?allocate@?$allocator@D@std@@QAEPADI@Z ENDP		; std::allocator<char>::allocate
; Function compile flags: /Odtp
_TEXT	ENDS
;	COMDAT ?max_size@?$allocator@D@std@@QBEIXZ
_TEXT	SEGMENT
tv65 = -12						; size = 4
_this$ = -8						; size = 4
__Count$ = -4						; size = 4
?max_size@?$allocator@D@std@@QBEIXZ PROC		; std::allocator<char>::max_size, COMDAT
; _this$ = ecx
; Line 217
	push	ebp
	mov	ebp, esp
	sub	esp, 12					; 0000000cH
	mov	DWORD PTR _this$[ebp], ecx
; Line 218
	mov	DWORD PTR __Count$[ebp], -1
; Line 219
	cmp	DWORD PTR __Count$[ebp], 0
	jbe	SHORT $LN3@max_size@3
	mov	eax, DWORD PTR __Count$[ebp]
	mov	DWORD PTR tv65[ebp], eax
	jmp	SHORT $LN4@max_size@3
$LN3@max_size@3:
	mov	DWORD PTR tv65[ebp], 1
$LN4@max_size@3:
	mov	eax, DWORD PTR tv65[ebp]
; Line 220
	mov	esp, ebp
	pop	ebp
	ret	0
?max_size@?$allocator@D@std@@QBEIXZ ENDP		; std::allocator<char>::max_size
_TEXT	ENDS
PUBLIC	?_Compat@?$_Vector_const_iterator@V?$_Vector_val@PAVBucket@agent@monitoring@ibmras@@V?$allocator@PAVBucket@agent@monitoring@ibmras@@@std@@@std@@@std@@QBEXABV12@@Z ; std::_Vector_const_iterator<std::_Vector_val<ibmras::monitoring::agent::Bucket *,std::allocator<ibmras::monitoring::agent::Bucket *> > >::_Compat
; Function compile flags: /Odtp
;	COMDAT ??8?$_Vector_const_iterator@V?$_Vector_val@PAVBucket@agent@monitoring@ibmras@@V?$allocator@PAVBucket@agent@monitoring@ibmras@@@std@@@std@@@std@@QBE_NABV01@@Z
_TEXT	SEGMENT
_this$ = -4						; size = 4
__Right$ = 8						; size = 4
??8?$_Vector_const_iterator@V?$_Vector_val@PAVBucket@agent@monitoring@ibmras@@V?$allocator@PAVBucket@agent@monitoring@ibmras@@@std@@@std@@@std@@QBE_NABV01@@Z PROC ; std::_Vector_const_iterator<std::_Vector_val<ibmras::monitoring::agent::Bucket *,std::allocator<ibmras::monitoring::agent::Bucket *> > >::operator==, COMDAT
; _this$ = ecx
; File c:\program files (x86)\microsoft visual studio 10.0\vc\include\vector
; Line 201
	push	ebp
	mov	ebp, esp
	push	ecx
	mov	DWORD PTR _this$[ebp], ecx
; Line 202
	mov	eax, DWORD PTR __Right$[ebp]
	push	eax
	mov	ecx, DWORD PTR _this$[ebp]
	call	?_Compat@?$_Vector_const_iterator@V?$_Vector_val@PAVBucket@agent@monitoring@ibmras@@V?$allocator@PAVBucket@agent@monitoring@ibmras@@@std@@@std@@@std@@QBEXABV12@@Z ; std::_Vector_const_iterator<std::_Vector_val<ibmras::monitoring::agent::Bucket *,std::allocator<ibmras::monitoring::agent::Bucket *> > >::_Compat
; Line 203
	mov	ecx, DWORD PTR _this$[ebp]
	mov	edx, DWORD PTR __Right$[ebp]
	mov	eax, DWORD PTR [ecx]
	xor	ecx, ecx
	cmp	eax, DWORD PTR [edx]
	sete	cl
	mov	al, cl
; Line 204
	mov	esp, ebp
	pop	ebp
	ret	4
??8?$_Vector_const_iterator@V?$_Vector_val@PAVBucket@agent@monitoring@ibmras@@V?$allocator@PAVBucket@agent@monitoring@ibmras@@@std@@@std@@@std@@QBE_NABV01@@Z ENDP ; std::_Vector_const_iterator<std::_Vector_val<ibmras::monitoring::agent::Bucket *,std::allocator<ibmras::monitoring::agent::Bucket *> > >::operator==
; Function compile flags: /Odtp
_TEXT	ENDS
;	COMDAT ?_Compat@?$_Vector_const_iterator@V?$_Vector_val@PAVBucket@agent@monitoring@ibmras@@V?$allocator@PAVBucket@agent@monitoring@ibmras@@@std@@@std@@@std@@QBEXABV12@@Z
_TEXT	SEGMENT
_this$ = -4						; size = 4
___formal$ = 8						; size = 4
?_Compat@?$_Vector_const_iterator@V?$_Vector_val@PAVBucket@agent@monitoring@ibmras@@V?$allocator@PAVBucket@agent@monitoring@ibmras@@@std@@@std@@@std@@QBEXABV12@@Z PROC ; std::_Vector_const_iterator<std::_Vector_val<ibmras::monitoring::agent::Bucket *,std::allocator<ibmras::monitoring::agent::Bucket *> > >::_Compat, COMDAT
; _this$ = ecx
; Line 252
	push	ebp
	mov	ebp, esp
	push	ecx
	mov	DWORD PTR _this$[ebp], ecx
; Line 253
	mov	esp, ebp
	pop	ebp
	ret	4
?_Compat@?$_Vector_const_iterator@V?$_Vector_val@PAVBucket@agent@monitoring@ibmras@@V?$allocator@PAVBucket@agent@monitoring@ibmras@@@std@@@std@@@std@@QBEXABV12@@Z ENDP ; std::_Vector_const_iterator<std::_Vector_val<ibmras::monitoring::agent::Bucket *,std::allocator<ibmras::monitoring::agent::Bucket *> > >::_Compat
_TEXT	ENDS
PUBLIC	??$_Uninitialized_copy@V?$_Vector_const_iterator@V?$_Vector_val@PAVBucket@agent@monitoring@ibmras@@V?$allocator@PAVBucket@agent@monitoring@ibmras@@@std@@@std@@@std@@PAPAVBucket@agent@monitoring@ibmras@@V?$allocator@PAVBucket@agent@monitoring@ibmras@@@2@@std@@YAPAPAVBucket@agent@monitoring@ibmras@@V?$_Vector_const_iterator@V?$_Vector_val@PAVBucket@agent@monitoring@ibmras@@V?$allocator@PAVBucket@agent@monitoring@ibmras@@@std@@@std@@@0@0PAPAV1234@AAV?$allocator@PAVBucket@agent@monitoring@ibmras@@@0@@Z ; std::_Uninitialized_copy<std::_Vector_const_iterator<std::_Vector_val<ibmras::monitoring::agent::Bucket *,std::allocator<ibmras::monitoring::agent::Bucket *> > >,ibmras::monitoring::agent::Bucket * *,std::allocator<ibmras::monitoring::agent::Bucket *> >
; Function compile flags: /Odtp
;	COMDAT ??$_Ucopy@V?$_Vector_const_iterator@V?$_Vector_val@PAVBucket@agent@monitoring@ibmras@@V?$allocator@PAVBucket@agent@monitoring@ibmras@@@std@@@std@@@std@@@?$vector@PAVBucket@agent@monitoring@ibmras@@V?$allocator@PAVBucket@agent@monitoring@ibmras@@@std@@@std@@IAEPAPAVBucket@agent@monitoring@ibmras@@V?$_Vector_const_iterator@V?$_Vector_val@PAVBucket@agent@monitoring@ibmras@@V?$allocator@PAVBucket@agent@monitoring@ibmras@@@std@@@std@@@1@0PAPAV2345@@Z
_TEXT	SEGMENT
_this$ = -4						; size = 4
__First$ = 8						; size = 4
__Last$ = 12						; size = 4
__Ptr$ = 16						; size = 4
??$_Ucopy@V?$_Vector_const_iterator@V?$_Vector_val@PAVBucket@agent@monitoring@ibmras@@V?$allocator@PAVBucket@agent@monitoring@ibmras@@@std@@@std@@@std@@@?$vector@PAVBucket@agent@monitoring@ibmras@@V?$allocator@PAVBucket@agent@monitoring@ibmras@@@std@@@std@@IAEPAPAVBucket@agent@monitoring@ibmras@@V?$_Vector_const_iterator@V?$_Vector_val@PAVBucket@agent@monitoring@ibmras@@V?$allocator@PAVBucket@agent@monitoring@ibmras@@@std@@@std@@@1@0PAPAV2345@@Z PROC ; std::vector<ibmras::monitoring::agent::Bucket *,std::allocator<ibmras::monitoring::agent::Bucket *> >::_Ucopy<std::_Vector_const_iterator<std::_Vector_val<ibmras::monitoring::agent::Bucket *,std::allocator<ibmras::monitoring::agent::Bucket *> > > >, COMDAT
; _this$ = ecx
; Line 1315
	push	ebp
	mov	ebp, esp
	push	ecx
	mov	DWORD PTR _this$[ebp], ecx
; Line 1318
	mov	eax, DWORD PTR _this$[ebp]
	add	eax, 12					; 0000000cH
	push	eax
	mov	ecx, DWORD PTR __Ptr$[ebp]
	push	ecx
	mov	edx, DWORD PTR __Last$[ebp]
	push	edx
	mov	eax, DWORD PTR __First$[ebp]
	push	eax
	call	??$_Uninitialized_copy@V?$_Vector_const_iterator@V?$_Vector_val@PAVBucket@agent@monitoring@ibmras@@V?$allocator@PAVBucket@agent@monitoring@ibmras@@@std@@@std@@@std@@PAPAVBucket@agent@monitoring@ibmras@@V?$allocator@PAVBucket@agent@monitoring@ibmras@@@2@@std@@YAPAPAVBucket@agent@monitoring@ibmras@@V?$_Vector_const_iterator@V?$_Vector_val@PAVBucket@agent@monitoring@ibmras@@V?$allocator@PAVBucket@agent@monitoring@ibmras@@@std@@@std@@@0@0PAPAV1234@AAV?$allocator@PAVBucket@agent@monitoring@ibmras@@@0@@Z ; std::_Uninitialized_copy<std::_Vector_const_iterator<std::_Vector_val<ibmras::monitoring::agent::Bucket *,std::allocator<ibmras::monitoring::agent::Bucket *> > >,ibmras::monitoring::agent::Bucket * *,std::allocator<ibmras::monitoring::agent::Bucket *> >
	add	esp, 16					; 00000010H
; Line 1319
	mov	esp, ebp
	pop	ebp
	ret	12					; 0000000cH
??$_Ucopy@V?$_Vector_const_iterator@V?$_Vector_val@PAVBucket@agent@monitoring@ibmras@@V?$allocator@PAVBucket@agent@monitoring@ibmras@@@std@@@std@@@std@@@?$vector@PAVBucket@agent@monitoring@ibmras@@V?$allocator@PAVBucket@agent@monitoring@ibmras@@@std@@@std@@IAEPAPAVBucket@agent@monitoring@ibmras@@V?$_Vector_const_iterator@V?$_Vector_val@PAVBucket@agent@monitoring@ibmras@@V?$allocator@PAVBucket@agent@monitoring@ibmras@@@std@@@std@@@1@0PAPAV2345@@Z ENDP ; std::vector<ibmras::monitoring::agent::Bucket *,std::allocator<ibmras::monitoring::agent::Bucket *> >::_Ucopy<std::_Vector_const_iterator<std::_Vector_val<ibmras::monitoring::agent::Bucket *,std::allocator<ibmras::monitoring::agent::Bucket *> > > >
_TEXT	ENDS
PUBLIC	??$_Copy_impl@PAPAVBucket@agent@monitoring@ibmras@@PAPAV1234@@std@@YAPAPAVBucket@agent@monitoring@ibmras@@PAPAV1234@00U_Scalar_ptr_iterator_tag@0@@Z ; std::_Copy_impl<ibmras::monitoring::agent::Bucket * *,ibmras::monitoring::agent::Bucket * *>
PUBLIC	??$_Ptr_cat@PAVBucket@agent@monitoring@ibmras@@PAV1234@@std@@YA?AU_Scalar_ptr_iterator_tag@0@PAPAVBucket@agent@monitoring@ibmras@@0@Z ; std::_Ptr_cat<ibmras::monitoring::agent::Bucket *,ibmras::monitoring::agent::Bucket *>
; Function compile flags: /Odtp
;	COMDAT ??$_Copy_impl@PAPAVBucket@agent@monitoring@ibmras@@PAPAV1234@@std@@YAPAPAVBucket@agent@monitoring@ibmras@@PAPAV1234@00@Z
_TEXT	SEGMENT
$T104546 = -1						; size = 1
__First$ = 8						; size = 4
__Last$ = 12						; size = 4
__Dest$ = 16						; size = 4
??$_Copy_impl@PAPAVBucket@agent@monitoring@ibmras@@PAPAV1234@@std@@YAPAPAVBucket@agent@monitoring@ibmras@@PAPAV1234@00@Z PROC ; std::_Copy_impl<ibmras::monitoring::agent::Bucket * *,ibmras::monitoring::agent::Bucket * *>, COMDAT
; File c:\program files (x86)\microsoft visual studio 10.0\vc\include\xutility
; Line 2163
	push	ebp
	mov	ebp, esp
	push	ecx
; Line 2165
	mov	eax, DWORD PTR __Dest$[ebp]
	push	eax
	mov	ecx, DWORD PTR __First$[ebp]
	push	ecx
	call	??$_Ptr_cat@PAVBucket@agent@monitoring@ibmras@@PAV1234@@std@@YA?AU_Scalar_ptr_iterator_tag@0@PAPAVBucket@agent@monitoring@ibmras@@0@Z ; std::_Ptr_cat<ibmras::monitoring::agent::Bucket *,ibmras::monitoring::agent::Bucket *>
	add	esp, 8
	mov	BYTE PTR $T104546[ebp], al
	movzx	edx, BYTE PTR $T104546[ebp]
	push	edx
	mov	eax, DWORD PTR __Dest$[ebp]
	push	eax
	mov	ecx, DWORD PTR __Last$[ebp]
	push	ecx
	mov	edx, DWORD PTR __First$[ebp]
	push	edx
	call	??$_Copy_impl@PAPAVBucket@agent@monitoring@ibmras@@PAPAV1234@@std@@YAPAPAVBucket@agent@monitoring@ibmras@@PAPAV1234@00U_Scalar_ptr_iterator_tag@0@@Z ; std::_Copy_impl<ibmras::monitoring::agent::Bucket * *,ibmras::monitoring::agent::Bucket * *>
	add	esp, 16					; 00000010H
; Line 2166
	mov	esp, ebp
	pop	ebp
	ret	0
??$_Copy_impl@PAPAVBucket@agent@monitoring@ibmras@@PAPAV1234@@std@@YAPAPAVBucket@agent@monitoring@ibmras@@PAPAV1234@00@Z ENDP ; std::_Copy_impl<ibmras::monitoring::agent::Bucket * *,ibmras::monitoring::agent::Bucket * *>
_TEXT	ENDS
PUBLIC	??$_Uninitialized_copy@PAPAVBucket@agent@monitoring@ibmras@@PAPAV1234@V?$allocator@PAVBucket@agent@monitoring@ibmras@@@std@@@std@@YAPAPAVBucket@agent@monitoring@ibmras@@PAPAV1234@00AAV?$allocator@PAVBucket@agent@monitoring@ibmras@@@0@@Z ; std::_Uninitialized_copy<ibmras::monitoring::agent::Bucket * *,ibmras::monitoring::agent::Bucket * *,std::allocator<ibmras::monitoring::agent::Bucket *> >
; Function compile flags: /Odtp
;	COMDAT ??$_Ucopy@PAPAVBucket@agent@monitoring@ibmras@@@?$vector@PAVBucket@agent@monitoring@ibmras@@V?$allocator@PAVBucket@agent@monitoring@ibmras@@@std@@@std@@IAEPAPAVBucket@agent@monitoring@ibmras@@PAPAV2345@00@Z
_TEXT	SEGMENT
_this$ = -4						; size = 4
__First$ = 8						; size = 4
__Last$ = 12						; size = 4
__Ptr$ = 16						; size = 4
??$_Ucopy@PAPAVBucket@agent@monitoring@ibmras@@@?$vector@PAVBucket@agent@monitoring@ibmras@@V?$allocator@PAVBucket@agent@monitoring@ibmras@@@std@@@std@@IAEPAPAVBucket@agent@monitoring@ibmras@@PAPAV2345@00@Z PROC ; std::vector<ibmras::monitoring::agent::Bucket *,std::allocator<ibmras::monitoring::agent::Bucket *> >::_Ucopy<ibmras::monitoring::agent::Bucket * *>, COMDAT
; _this$ = ecx
; File c:\program files (x86)\microsoft visual studio 10.0\vc\include\vector
; Line 1315
	push	ebp
	mov	ebp, esp
	push	ecx
	mov	DWORD PTR _this$[ebp], ecx
; Line 1318
	mov	eax, DWORD PTR _this$[ebp]
	add	eax, 12					; 0000000cH
	push	eax
	mov	ecx, DWORD PTR __Ptr$[ebp]
	push	ecx
	mov	edx, DWORD PTR __Last$[ebp]
	push	edx
	mov	eax, DWORD PTR __First$[ebp]
	push	eax
	call	??$_Uninitialized_copy@PAPAVBucket@agent@monitoring@ibmras@@PAPAV1234@V?$allocator@PAVBucket@agent@monitoring@ibmras@@@std@@@std@@YAPAPAVBucket@agent@monitoring@ibmras@@PAPAV1234@00AAV?$allocator@PAVBucket@agent@monitoring@ibmras@@@0@@Z ; std::_Uninitialized_copy<ibmras::monitoring::agent::Bucket * *,ibmras::monitoring::agent::Bucket * *,std::allocator<ibmras::monitoring::agent::Bucket *> >
	add	esp, 16					; 00000010H
; Line 1319
	mov	esp, ebp
	pop	ebp
	ret	12					; 0000000cH
??$_Ucopy@PAPAVBucket@agent@monitoring@ibmras@@@?$vector@PAVBucket@agent@monitoring@ibmras@@V?$allocator@PAVBucket@agent@monitoring@ibmras@@@std@@@std@@IAEPAPAVBucket@agent@monitoring@ibmras@@PAPAV2345@00@Z ENDP ; std::vector<ibmras::monitoring::agent::Bucket *,std::allocator<ibmras::monitoring::agent::Bucket *> >::_Ucopy<ibmras::monitoring::agent::Bucket * *>
_TEXT	ENDS
PUBLIC	??$_Destroy_range@V?$allocator@PAVBucket@agent@monitoring@ibmras@@@std@@@std@@YAXPAPAVBucket@agent@monitoring@ibmras@@0AAV?$allocator@PAVBucket@agent@monitoring@ibmras@@@0@U_Scalar_ptr_iterator_tag@0@@Z ; std::_Destroy_range<std::allocator<ibmras::monitoring::agent::Bucket *> >
; Function compile flags: /Odtp
;	COMDAT ??$_Destroy_range@V?$allocator@PAVBucket@agent@monitoring@ibmras@@@std@@@std@@YAXPAPAVBucket@agent@monitoring@ibmras@@0AAV?$allocator@PAVBucket@agent@monitoring@ibmras@@@0@@Z
_TEXT	SEGMENT
$T104551 = -1						; size = 1
__First$ = 8						; size = 4
__Last$ = 12						; size = 4
__Al$ = 16						; size = 4
??$_Destroy_range@V?$allocator@PAVBucket@agent@monitoring@ibmras@@@std@@@std@@YAXPAPAVBucket@agent@monitoring@ibmras@@0AAV?$allocator@PAVBucket@agent@monitoring@ibmras@@@0@@Z PROC ; std::_Destroy_range<std::allocator<ibmras::monitoring::agent::Bucket *> >, COMDAT
; File c:\program files (x86)\microsoft visual studio 10.0\vc\include\xmemory
; Line 87
	push	ebp
	mov	ebp, esp
	push	ecx
; Line 88
	mov	eax, DWORD PTR __Last$[ebp]
	push	eax
	mov	ecx, DWORD PTR __First$[ebp]
	push	ecx
	call	??$_Ptr_cat@PAVBucket@agent@monitoring@ibmras@@PAV1234@@std@@YA?AU_Scalar_ptr_iterator_tag@0@PAPAVBucket@agent@monitoring@ibmras@@0@Z ; std::_Ptr_cat<ibmras::monitoring::agent::Bucket *,ibmras::monitoring::agent::Bucket *>
	add	esp, 8
	mov	BYTE PTR $T104551[ebp], al
	movzx	edx, BYTE PTR $T104551[ebp]
	push	edx
	mov	eax, DWORD PTR __Al$[ebp]
	push	eax
	mov	ecx, DWORD PTR __Last$[ebp]
	push	ecx
	mov	edx, DWORD PTR __First$[ebp]
	push	edx
	call	??$_Destroy_range@V?$allocator@PAVBucket@agent@monitoring@ibmras@@@std@@@std@@YAXPAPAVBucket@agent@monitoring@ibmras@@0AAV?$allocator@PAVBucket@agent@monitoring@ibmras@@@0@U_Scalar_ptr_iterator_tag@0@@Z ; std::_Destroy_range<std::allocator<ibmras::monitoring::agent::Bucket *> >
	add	esp, 16					; 00000010H
; Line 89
	mov	esp, ebp
	pop	ebp
	ret	0
??$_Destroy_range@V?$allocator@PAVBucket@agent@monitoring@ibmras@@@std@@@std@@YAXPAPAVBucket@agent@monitoring@ibmras@@0AAV?$allocator@PAVBucket@agent@monitoring@ibmras@@@0@@Z ENDP ; std::_Destroy_range<std::allocator<ibmras::monitoring::agent::Bucket *> >
_TEXT	ENDS
PUBLIC	??$_Move@PAPAVBucket@agent@monitoring@ibmras@@PAPAV1234@@std@@YAPAPAVBucket@agent@monitoring@ibmras@@PAPAV1234@00U_Scalar_ptr_iterator_tag@0@@Z ; std::_Move<ibmras::monitoring::agent::Bucket * *,ibmras::monitoring::agent::Bucket * *>
; Function compile flags: /Odtp
;	COMDAT ??$_Move@PAPAVBucket@agent@monitoring@ibmras@@PAPAV1234@@std@@YAPAPAVBucket@agent@monitoring@ibmras@@PAPAV1234@00@Z
_TEXT	SEGMENT
$T104554 = -1						; size = 1
__First$ = 8						; size = 4
__Last$ = 12						; size = 4
__Dest$ = 16						; size = 4
??$_Move@PAPAVBucket@agent@monitoring@ibmras@@PAPAV1234@@std@@YAPAPAVBucket@agent@monitoring@ibmras@@PAPAV1234@00@Z PROC ; std::_Move<ibmras::monitoring::agent::Bucket * *,ibmras::monitoring::agent::Bucket * *>, COMDAT
; File c:\program files (x86)\microsoft visual studio 10.0\vc\include\xutility
; Line 2533
	push	ebp
	mov	ebp, esp
	push	ecx
; Line 2535
	mov	eax, DWORD PTR __Dest$[ebp]
	push	eax
	mov	ecx, DWORD PTR __First$[ebp]
	push	ecx
	call	??$_Ptr_cat@PAVBucket@agent@monitoring@ibmras@@PAV1234@@std@@YA?AU_Scalar_ptr_iterator_tag@0@PAPAVBucket@agent@monitoring@ibmras@@0@Z ; std::_Ptr_cat<ibmras::monitoring::agent::Bucket *,ibmras::monitoring::agent::Bucket *>
	add	esp, 8
	mov	BYTE PTR $T104554[ebp], al
	movzx	edx, BYTE PTR $T104554[ebp]
	push	edx
	mov	eax, DWORD PTR __Dest$[ebp]
	push	eax
	mov	ecx, DWORD PTR __Last$[ebp]
	push	ecx
	mov	edx, DWORD PTR __First$[ebp]
	push	edx
	call	??$_Move@PAPAVBucket@agent@monitoring@ibmras@@PAPAV1234@@std@@YAPAPAVBucket@agent@monitoring@ibmras@@PAPAV1234@00U_Scalar_ptr_iterator_tag@0@@Z ; std::_Move<ibmras::monitoring::agent::Bucket * *,ibmras::monitoring::agent::Bucket * *>
	add	esp, 16					; 00000010H
; Line 2536
	mov	esp, ebp
	pop	ebp
	ret	0
??$_Move@PAPAVBucket@agent@monitoring@ibmras@@PAPAV1234@@std@@YAPAPAVBucket@agent@monitoring@ibmras@@PAPAV1234@00@Z ENDP ; std::_Move<ibmras::monitoring::agent::Bucket * *,ibmras::monitoring::agent::Bucket * *>
_TEXT	ENDS
PUBLIC	__TI2?AVbad_alloc@std@@
PUBLIC	??0bad_alloc@std@@QAE@PBD@Z			; std::bad_alloc::bad_alloc
PUBLIC	??1bad_alloc@std@@UAE@XZ			; std::bad_alloc::~bad_alloc
PUBLIC	__CTA2?AVbad_alloc@std@@
PUBLIC	__CT??_R0?AVbad_alloc@std@@@8??0bad_alloc@std@@QAE@ABV01@@Z12
PUBLIC	??_R0?AVbad_alloc@std@@@8			; std::bad_alloc `RTTI Type Descriptor'
PUBLIC	??0bad_alloc@std@@QAE@ABV01@@Z			; std::bad_alloc::bad_alloc
PUBLIC	__CT??_R0?AVexception@std@@@8??0exception@std@@QAE@ABV01@@Z12
PUBLIC	??_R0?AVexception@std@@@8			; std::exception `RTTI Type Descriptor'
EXTRN	??0exception@std@@QAE@ABV01@@Z:PROC		; std::exception::exception
;	COMDAT ??_R0?AVexception@std@@@8
; File c:\program files (x86)\microsoft visual studio 10.0\vc\include\xmemory
_DATA	SEGMENT
??_R0?AVexception@std@@@8 DD FLAT:??_7type_info@@6B@	; std::exception `RTTI Type Descriptor'
	DD	00H
	DB	'.?AVexception@std@@', 00H
_DATA	ENDS
;	COMDAT __CT??_R0?AVexception@std@@@8??0exception@std@@QAE@ABV01@@Z12
xdata$x	SEGMENT
__CT??_R0?AVexception@std@@@8??0exception@std@@QAE@ABV01@@Z12 DD 00H
	DD	FLAT:??_R0?AVexception@std@@@8
	DD	00H
	DD	0ffffffffH
	ORG $+4
	DD	0cH
	DD	FLAT:??0exception@std@@QAE@ABV01@@Z
xdata$x	ENDS
;	COMDAT ??_R0?AVbad_alloc@std@@@8
_DATA	SEGMENT
??_R0?AVbad_alloc@std@@@8 DD FLAT:??_7type_info@@6B@	; std::bad_alloc `RTTI Type Descriptor'
	DD	00H
	DB	'.?AVbad_alloc@std@@', 00H
_DATA	ENDS
;	COMDAT __CT??_R0?AVbad_alloc@std@@@8??0bad_alloc@std@@QAE@ABV01@@Z12
xdata$x	SEGMENT
__CT??_R0?AVbad_alloc@std@@@8??0bad_alloc@std@@QAE@ABV01@@Z12 DD 00H
	DD	FLAT:??_R0?AVbad_alloc@std@@@8
	DD	00H
	DD	0ffffffffH
	ORG $+4
	DD	0cH
	DD	FLAT:??0bad_alloc@std@@QAE@ABV01@@Z
xdata$x	ENDS
;	COMDAT __CTA2?AVbad_alloc@std@@
xdata$x	SEGMENT
__CTA2?AVbad_alloc@std@@ DD 02H
	DD	FLAT:__CT??_R0?AVbad_alloc@std@@@8??0bad_alloc@std@@QAE@ABV01@@Z12
	DD	FLAT:__CT??_R0?AVexception@std@@@8??0exception@std@@QAE@ABV01@@Z12
xdata$x	ENDS
;	COMDAT __TI2?AVbad_alloc@std@@
xdata$x	SEGMENT
__TI2?AVbad_alloc@std@@ DD 00H
	DD	FLAT:??1bad_alloc@std@@UAE@XZ
	DD	00H
	DD	FLAT:__CTA2?AVbad_alloc@std@@
; Function compile flags: /Odtp
xdata$x	ENDS
;	COMDAT ??$_Allocate@PAVBucket@agent@monitoring@ibmras@@@std@@YAPAPAVBucket@agent@monitoring@ibmras@@IPAPAV1234@@Z
_TEXT	SEGMENT
$T104557 = -16						; size = 12
__Ptr$ = -4						; size = 4
__Count$ = 8						; size = 4
___formal$ = 12						; size = 4
??$_Allocate@PAVBucket@agent@monitoring@ibmras@@@std@@YAPAPAVBucket@agent@monitoring@ibmras@@IPAPAV1234@@Z PROC ; std::_Allocate<ibmras::monitoring::agent::Bucket *>, COMDAT
; Line 30
	push	ebp
	mov	ebp, esp
	sub	esp, 16					; 00000010H
; Line 31
	mov	DWORD PTR __Ptr$[ebp], 0
; Line 33
	cmp	DWORD PTR __Count$[ebp], 0
	ja	SHORT $LN4@Allocate
; Line 34
	mov	DWORD PTR __Count$[ebp], 0
; Line 35
	jmp	SHORT $LN3@Allocate
$LN4@Allocate:
; Line 36
	cmp	DWORD PTR __Count$[ebp], 1073741823	; 3fffffffH
	ja	SHORT $LN1@Allocate
	mov	eax, DWORD PTR __Count$[ebp]
	shl	eax, 2
	push	eax
	call	??2@YAPAXI@Z				; operator new
	add	esp, 4
	mov	DWORD PTR __Ptr$[ebp], eax
	cmp	DWORD PTR __Ptr$[ebp], 0
	jne	SHORT $LN3@Allocate
$LN1@Allocate:
; Line 37
	push	0
	lea	ecx, DWORD PTR $T104557[ebp]
	call	??0bad_alloc@std@@QAE@PBD@Z		; std::bad_alloc::bad_alloc
	push	OFFSET __TI2?AVbad_alloc@std@@
	lea	ecx, DWORD PTR $T104557[ebp]
	push	ecx
	call	__CxxThrowException@8
$LN3@Allocate:
; Line 39
	mov	eax, DWORD PTR __Ptr$[ebp]
$LN6@Allocate:
; Line 40
	mov	esp, ebp
	pop	ebp
	ret	0
??$_Allocate@PAVBucket@agent@monitoring@ibmras@@@std@@YAPAPAVBucket@agent@monitoring@ibmras@@IPAPAV1234@@Z ENDP ; std::_Allocate<ibmras::monitoring::agent::Bucket *>
_TEXT	ENDS
PUBLIC	??_7bad_alloc@std@@6B@				; std::bad_alloc::`vftable'
PUBLIC	??_R4bad_alloc@std@@6B@				; std::bad_alloc::`RTTI Complete Object Locator'
PUBLIC	??_R3bad_alloc@std@@8				; std::bad_alloc::`RTTI Class Hierarchy Descriptor'
PUBLIC	??_R2bad_alloc@std@@8				; std::bad_alloc::`RTTI Base Class Array'
PUBLIC	??_R1A@?0A@EA@bad_alloc@std@@8			; std::bad_alloc::`RTTI Base Class Descriptor at (0,-1,0,64)'
PUBLIC	??_R1A@?0A@EA@exception@std@@8			; std::exception::`RTTI Base Class Descriptor at (0,-1,0,64)'
PUBLIC	??_R3exception@std@@8				; std::exception::`RTTI Class Hierarchy Descriptor'
PUBLIC	??_R2exception@std@@8				; std::exception::`RTTI Base Class Array'
EXTRN	__imp_??0exception@std@@QAE@ABQBD@Z:PROC
EXTRN	??_Ebad_alloc@std@@UAEPAXI@Z:PROC		; std::bad_alloc::`vector deleting destructor'
EXTRN	?what@exception@std@@UBEPBDXZ:PROC		; std::exception::what
;	COMDAT ??_R2exception@std@@8
; File c:\program files (x86)\microsoft visual studio 10.0\vc\include\exception
rdata$r	SEGMENT
??_R2exception@std@@8 DD FLAT:??_R1A@?0A@EA@exception@std@@8 ; std::exception::`RTTI Base Class Array'
rdata$r	ENDS
;	COMDAT ??_R3exception@std@@8
rdata$r	SEGMENT
??_R3exception@std@@8 DD 00H				; std::exception::`RTTI Class Hierarchy Descriptor'
	DD	00H
	DD	01H
	DD	FLAT:??_R2exception@std@@8
rdata$r	ENDS
;	COMDAT ??_R1A@?0A@EA@exception@std@@8
rdata$r	SEGMENT
??_R1A@?0A@EA@exception@std@@8 DD FLAT:??_R0?AVexception@std@@@8 ; std::exception::`RTTI Base Class Descriptor at (0,-1,0,64)'
	DD	00H
	DD	00H
	DD	0ffffffffH
	DD	00H
	DD	040H
	DD	FLAT:??_R3exception@std@@8
rdata$r	ENDS
;	COMDAT ??_R1A@?0A@EA@bad_alloc@std@@8
rdata$r	SEGMENT
??_R1A@?0A@EA@bad_alloc@std@@8 DD FLAT:??_R0?AVbad_alloc@std@@@8 ; std::bad_alloc::`RTTI Base Class Descriptor at (0,-1,0,64)'
	DD	01H
	DD	00H
	DD	0ffffffffH
	DD	00H
	DD	040H
	DD	FLAT:??_R3bad_alloc@std@@8
rdata$r	ENDS
;	COMDAT ??_R2bad_alloc@std@@8
rdata$r	SEGMENT
??_R2bad_alloc@std@@8 DD FLAT:??_R1A@?0A@EA@bad_alloc@std@@8 ; std::bad_alloc::`RTTI Base Class Array'
	DD	FLAT:??_R1A@?0A@EA@exception@std@@8
rdata$r	ENDS
;	COMDAT ??_R3bad_alloc@std@@8
rdata$r	SEGMENT
??_R3bad_alloc@std@@8 DD 00H				; std::bad_alloc::`RTTI Class Hierarchy Descriptor'
	DD	00H
	DD	02H
	DD	FLAT:??_R2bad_alloc@std@@8
rdata$r	ENDS
;	COMDAT ??_R4bad_alloc@std@@6B@
rdata$r	SEGMENT
??_R4bad_alloc@std@@6B@ DD 00H				; std::bad_alloc::`RTTI Complete Object Locator'
	DD	00H
	DD	00H
	DD	FLAT:??_R0?AVbad_alloc@std@@@8
	DD	FLAT:??_R3bad_alloc@std@@8
rdata$r	ENDS
;	COMDAT ??_7bad_alloc@std@@6B@
CONST	SEGMENT
??_7bad_alloc@std@@6B@ DD FLAT:??_R4bad_alloc@std@@6B@	; std::bad_alloc::`vftable'
	DD	FLAT:??_Ebad_alloc@std@@UAEPAXI@Z
	DD	FLAT:?what@exception@std@@UBEPBDXZ
; Function compile flags: /Odtp
CONST	ENDS
;	COMDAT ??0bad_alloc@std@@QAE@PBD@Z
_TEXT	SEGMENT
_this$ = -4						; size = 4
__Message$ = 8						; size = 4
??0bad_alloc@std@@QAE@PBD@Z PROC			; std::bad_alloc::bad_alloc, COMDAT
; _this$ = ecx
; Line 345
	push	ebp
	mov	ebp, esp
	push	ecx
	mov	DWORD PTR _this$[ebp], ecx
	lea	eax, DWORD PTR __Message$[ebp]
	push	eax
	mov	ecx, DWORD PTR _this$[ebp]
	call	DWORD PTR __imp_??0exception@std@@QAE@ABQBD@Z
	mov	ecx, DWORD PTR _this$[ebp]
	mov	DWORD PTR [ecx], OFFSET ??_7bad_alloc@std@@6B@
; Line 346
	mov	eax, DWORD PTR _this$[ebp]
	mov	esp, ebp
	pop	ebp
	ret	4
??0bad_alloc@std@@QAE@PBD@Z ENDP			; std::bad_alloc::bad_alloc
_TEXT	ENDS
EXTRN	__imp_??1exception@std@@UAE@XZ:PROC
; Function compile flags: /Odtp
;	COMDAT ??1bad_alloc@std@@UAE@XZ
_TEXT	SEGMENT
_this$ = -4						; size = 4
??1bad_alloc@std@@UAE@XZ PROC				; std::bad_alloc::~bad_alloc, COMDAT
; _this$ = ecx
; Line 354
	push	ebp
	mov	ebp, esp
	push	ecx
	mov	DWORD PTR _this$[ebp], ecx
	mov	eax, DWORD PTR _this$[ebp]
	mov	DWORD PTR [eax], OFFSET ??_7bad_alloc@std@@6B@
; Line 355
	mov	ecx, DWORD PTR _this$[ebp]
	call	DWORD PTR __imp_??1exception@std@@UAE@XZ
	mov	esp, ebp
	pop	ebp
	ret	0
??1bad_alloc@std@@UAE@XZ ENDP				; std::bad_alloc::~bad_alloc
; Function compile flags: /Odtp
_TEXT	ENDS
;	COMDAT ??_Gbad_alloc@std@@UAEPAXI@Z
_TEXT	SEGMENT
_this$ = -4						; size = 4
___flags$ = 8						; size = 4
??_Gbad_alloc@std@@UAEPAXI@Z PROC			; std::bad_alloc::`scalar deleting destructor', COMDAT
; _this$ = ecx
	push	ebp
	mov	ebp, esp
	push	ecx
	mov	DWORD PTR _this$[ebp], ecx
	mov	ecx, DWORD PTR _this$[ebp]
	call	??1bad_alloc@std@@UAE@XZ		; std::bad_alloc::~bad_alloc
	mov	eax, DWORD PTR ___flags$[ebp]
	and	eax, 1
	je	SHORT $LN1@scalar@3
	mov	ecx, DWORD PTR _this$[ebp]
	push	ecx
	call	??3@YAXPAX@Z				; operator delete
	add	esp, 4
$LN1@scalar@3:
	mov	eax, DWORD PTR _this$[ebp]
	mov	esp, ebp
	pop	ebp
	ret	4
??_Gbad_alloc@std@@UAEPAXI@Z ENDP			; std::bad_alloc::`scalar deleting destructor'
; Function compile flags: /Odtp
_TEXT	ENDS
;	COMDAT ??$_Allocate@D@std@@YAPADIPAD@Z
_TEXT	SEGMENT
$T104566 = -16						; size = 12
__Ptr$ = -4						; size = 4
__Count$ = 8						; size = 4
___formal$ = 12						; size = 4
??$_Allocate@D@std@@YAPADIPAD@Z PROC			; std::_Allocate<char>, COMDAT
; File c:\program files (x86)\microsoft visual studio 10.0\vc\include\xmemory
; Line 30
	push	ebp
	mov	ebp, esp
	sub	esp, 16					; 00000010H
; Line 31
	mov	DWORD PTR __Ptr$[ebp], 0
; Line 33
	cmp	DWORD PTR __Count$[ebp], 0
	ja	SHORT $LN4@Allocate@2
; Line 34
	mov	DWORD PTR __Count$[ebp], 0
; Line 35
	jmp	SHORT $LN3@Allocate@2
$LN4@Allocate@2:
; Line 36
	cmp	DWORD PTR __Count$[ebp], -1
	ja	SHORT $LN1@Allocate@2
	mov	eax, DWORD PTR __Count$[ebp]
	push	eax
	call	??2@YAPAXI@Z				; operator new
	add	esp, 4
	mov	DWORD PTR __Ptr$[ebp], eax
	cmp	DWORD PTR __Ptr$[ebp], 0
	jne	SHORT $LN3@Allocate@2
$LN1@Allocate@2:
; Line 37
	push	0
	lea	ecx, DWORD PTR $T104566[ebp]
	call	??0bad_alloc@std@@QAE@PBD@Z		; std::bad_alloc::bad_alloc
	push	OFFSET __TI2?AVbad_alloc@std@@
	lea	ecx, DWORD PTR $T104566[ebp]
	push	ecx
	call	__CxxThrowException@8
$LN3@Allocate@2:
; Line 39
	mov	eax, DWORD PTR __Ptr$[ebp]
$LN6@Allocate@2:
; Line 40
	mov	esp, ebp
	pop	ebp
	ret	0
??$_Allocate@D@std@@YAPADIPAD@Z ENDP			; std::_Allocate<char>
_TEXT	ENDS
EXTRN	__imp_??0exception@std@@QAE@ABV01@@Z:PROC
; Function compile flags: /Odtp
;	COMDAT ??0bad_alloc@std@@QAE@ABV01@@Z
_TEXT	SEGMENT
_this$ = -4						; size = 4
___that$ = 8						; size = 4
??0bad_alloc@std@@QAE@ABV01@@Z PROC			; std::bad_alloc::bad_alloc, COMDAT
; _this$ = ecx
	push	ebp
	mov	ebp, esp
	push	ecx
	mov	DWORD PTR _this$[ebp], ecx
	mov	eax, DWORD PTR ___that$[ebp]
	push	eax
	mov	ecx, DWORD PTR _this$[ebp]
	call	DWORD PTR __imp_??0exception@std@@QAE@ABV01@@Z
	mov	ecx, DWORD PTR _this$[ebp]
	mov	DWORD PTR [ecx], OFFSET ??_7bad_alloc@std@@6B@
	mov	eax, DWORD PTR _this$[ebp]
	mov	esp, ebp
	pop	ebp
	ret	4
??0bad_alloc@std@@QAE@ABV01@@Z ENDP			; std::bad_alloc::bad_alloc
_TEXT	ENDS
PUBLIC	??$_Uninit_copy@V?$_Vector_const_iterator@V?$_Vector_val@PAVBucket@agent@monitoring@ibmras@@V?$allocator@PAVBucket@agent@monitoring@ibmras@@@std@@@std@@@std@@PAPAVBucket@agent@monitoring@ibmras@@V?$allocator@PAVBucket@agent@monitoring@ibmras@@@2@@std@@YAPAPAVBucket@agent@monitoring@ibmras@@V?$_Vector_const_iterator@V?$_Vector_val@PAVBucket@agent@monitoring@ibmras@@V?$allocator@PAVBucket@agent@monitoring@ibmras@@@std@@@std@@@0@0PAPAV1234@AAV?$allocator@PAVBucket@agent@monitoring@ibmras@@@0@U_Nonscalar_ptr_iterator_tag@0@@Z ; std::_Uninit_copy<std::_Vector_const_iterator<std::_Vector_val<ibmras::monitoring::agent::Bucket *,std::allocator<ibmras::monitoring::agent::Bucket *> > >,ibmras::monitoring::agent::Bucket * *,std::allocator<ibmras::monitoring::agent::Bucket *> >
PUBLIC	??$_Ptr_cat@V?$_Vector_const_iterator@V?$_Vector_val@PAVBucket@agent@monitoring@ibmras@@V?$allocator@PAVBucket@agent@monitoring@ibmras@@@std@@@std@@@std@@PAPAVBucket@agent@monitoring@ibmras@@@std@@YA?AU_Nonscalar_ptr_iterator_tag@0@AAV?$_Vector_const_iterator@V?$_Vector_val@PAVBucket@agent@monitoring@ibmras@@V?$allocator@PAVBucket@agent@monitoring@ibmras@@@std@@@std@@@0@AAPAPAVBucket@agent@monitoring@ibmras@@@Z ; std::_Ptr_cat<std::_Vector_const_iterator<std::_Vector_val<ibmras::monitoring::agent::Bucket *,std::allocator<ibmras::monitoring::agent::Bucket *> > >,ibmras::monitoring::agent::Bucket * *>
; Function compile flags: /Odtp
;	COMDAT ??$_Uninitialized_copy@V?$_Vector_const_iterator@V?$_Vector_val@PAVBucket@agent@monitoring@ibmras@@V?$allocator@PAVBucket@agent@monitoring@ibmras@@@std@@@std@@@std@@PAPAVBucket@agent@monitoring@ibmras@@V?$allocator@PAVBucket@agent@monitoring@ibmras@@@2@@std@@YAPAPAVBucket@agent@monitoring@ibmras@@V?$_Vector_const_iterator@V?$_Vector_val@PAVBucket@agent@monitoring@ibmras@@V?$allocator@PAVBucket@agent@monitoring@ibmras@@@std@@@std@@@0@0PAPAV1234@AAV?$allocator@PAVBucket@agent@monitoring@ibmras@@@0@@Z
_TEXT	SEGMENT
$T104572 = -1						; size = 1
__First$ = 8						; size = 4
__Last$ = 12						; size = 4
__Dest$ = 16						; size = 4
__Al$ = 20						; size = 4
??$_Uninitialized_copy@V?$_Vector_const_iterator@V?$_Vector_val@PAVBucket@agent@monitoring@ibmras@@V?$allocator@PAVBucket@agent@monitoring@ibmras@@@std@@@std@@@std@@PAPAVBucket@agent@monitoring@ibmras@@V?$allocator@PAVBucket@agent@monitoring@ibmras@@@2@@std@@YAPAPAVBucket@agent@monitoring@ibmras@@V?$_Vector_const_iterator@V?$_Vector_val@PAVBucket@agent@monitoring@ibmras@@V?$allocator@PAVBucket@agent@monitoring@ibmras@@@std@@@std@@@0@0PAPAV1234@AAV?$allocator@PAVBucket@agent@monitoring@ibmras@@@0@@Z PROC ; std::_Uninitialized_copy<std::_Vector_const_iterator<std::_Vector_val<ibmras::monitoring::agent::Bucket *,std::allocator<ibmras::monitoring::agent::Bucket *> > >,ibmras::monitoring::agent::Bucket * *,std::allocator<ibmras::monitoring::agent::Bucket *> >, COMDAT
; File c:\program files (x86)\microsoft visual studio 10.0\vc\include\memory
; Line 412
	push	ebp
	mov	ebp, esp
	push	ecx
; Line 414
	lea	eax, DWORD PTR __Dest$[ebp]
	push	eax
	lea	ecx, DWORD PTR __First$[ebp]
	push	ecx
	call	??$_Ptr_cat@V?$_Vector_const_iterator@V?$_Vector_val@PAVBucket@agent@monitoring@ibmras@@V?$allocator@PAVBucket@agent@monitoring@ibmras@@@std@@@std@@@std@@PAPAVBucket@agent@monitoring@ibmras@@@std@@YA?AU_Nonscalar_ptr_iterator_tag@0@AAV?$_Vector_const_iterator@V?$_Vector_val@PAVBucket@agent@monitoring@ibmras@@V?$allocator@PAVBucket@agent@monitoring@ibmras@@@std@@@std@@@0@AAPAPAVBucket@agent@monitoring@ibmras@@@Z ; std::_Ptr_cat<std::_Vector_const_iterator<std::_Vector_val<ibmras::monitoring::agent::Bucket *,std::allocator<ibmras::monitoring::agent::Bucket *> > >,ibmras::monitoring::agent::Bucket * *>
	add	esp, 8
	mov	BYTE PTR $T104572[ebp], al
	movzx	edx, BYTE PTR $T104572[ebp]
	push	edx
	mov	eax, DWORD PTR __Al$[ebp]
	push	eax
	mov	ecx, DWORD PTR __Dest$[ebp]
	push	ecx
	mov	edx, DWORD PTR __Last$[ebp]
	push	edx
	mov	eax, DWORD PTR __First$[ebp]
	push	eax
	call	??$_Uninit_copy@V?$_Vector_const_iterator@V?$_Vector_val@PAVBucket@agent@monitoring@ibmras@@V?$allocator@PAVBucket@agent@monitoring@ibmras@@@std@@@std@@@std@@PAPAVBucket@agent@monitoring@ibmras@@V?$allocator@PAVBucket@agent@monitoring@ibmras@@@2@@std@@YAPAPAVBucket@agent@monitoring@ibmras@@V?$_Vector_const_iterator@V?$_Vector_val@PAVBucket@agent@monitoring@ibmras@@V?$allocator@PAVBucket@agent@monitoring@ibmras@@@std@@@std@@@0@0PAPAV1234@AAV?$allocator@PAVBucket@agent@monitoring@ibmras@@@0@U_Nonscalar_ptr_iterator_tag@0@@Z ; std::_Uninit_copy<std::_Vector_const_iterator<std::_Vector_val<ibmras::monitoring::agent::Bucket *,std::allocator<ibmras::monitoring::agent::Bucket *> > >,ibmras::monitoring::agent::Bucket * *,std::allocator<ibmras::monitoring::agent::Bucket *> >
	add	esp, 20					; 00000014H
; Line 415
	mov	esp, ebp
	pop	ebp
	ret	0
??$_Uninitialized_copy@V?$_Vector_const_iterator@V?$_Vector_val@PAVBucket@agent@monitoring@ibmras@@V?$allocator@PAVBucket@agent@monitoring@ibmras@@@std@@@std@@@std@@PAPAVBucket@agent@monitoring@ibmras@@V?$allocator@PAVBucket@agent@monitoring@ibmras@@@2@@std@@YAPAPAVBucket@agent@monitoring@ibmras@@V?$_Vector_const_iterator@V?$_Vector_val@PAVBucket@agent@monitoring@ibmras@@V?$allocator@PAVBucket@agent@monitoring@ibmras@@@std@@@std@@@0@0PAPAV1234@AAV?$allocator@PAVBucket@agent@monitoring@ibmras@@@0@@Z ENDP ; std::_Uninitialized_copy<std::_Vector_const_iterator<std::_Vector_val<ibmras::monitoring::agent::Bucket *,std::allocator<ibmras::monitoring::agent::Bucket *> > >,ibmras::monitoring::agent::Bucket * *,std::allocator<ibmras::monitoring::agent::Bucket *> >
; Function compile flags: /Odtp
_TEXT	ENDS
;	COMDAT ??$_Ptr_cat@PAVBucket@agent@monitoring@ibmras@@PAV1234@@std@@YA?AU_Scalar_ptr_iterator_tag@0@PAPAVBucket@agent@monitoring@ibmras@@0@Z
_TEXT	SEGMENT
__Cat$ = -1						; size = 1
___formal$ = 8						; size = 4
___formal$ = 12						; size = 4
??$_Ptr_cat@PAVBucket@agent@monitoring@ibmras@@PAV1234@@std@@YA?AU_Scalar_ptr_iterator_tag@0@PAPAVBucket@agent@monitoring@ibmras@@0@Z PROC ; std::_Ptr_cat<ibmras::monitoring::agent::Bucket *,ibmras::monitoring::agent::Bucket *>, COMDAT
; File c:\program files (x86)\microsoft visual studio 10.0\vc\include\xutility
; Line 516
	push	ebp
	mov	ebp, esp
	push	ecx
; Line 518
	mov	al, BYTE PTR __Cat$[ebp]
; Line 519
	mov	esp, ebp
	pop	ebp
	ret	0
??$_Ptr_cat@PAVBucket@agent@monitoring@ibmras@@PAV1234@@std@@YA?AU_Scalar_ptr_iterator_tag@0@PAPAVBucket@agent@monitoring@ibmras@@0@Z ENDP ; std::_Ptr_cat<ibmras::monitoring::agent::Bucket *,ibmras::monitoring::agent::Bucket *>
; Function compile flags: /Odtp
_TEXT	ENDS
;	COMDAT ??$_Copy_impl@PAPAVBucket@agent@monitoring@ibmras@@PAPAV1234@@std@@YAPAPAVBucket@agent@monitoring@ibmras@@PAPAV1234@00U_Scalar_ptr_iterator_tag@0@@Z
_TEXT	SEGMENT
__Count$ = -4						; size = 4
__First$ = 8						; size = 4
__Last$ = 12						; size = 4
__Dest$ = 16						; size = 4
___formal$ = 20						; size = 1
??$_Copy_impl@PAPAVBucket@agent@monitoring@ibmras@@PAPAV1234@@std@@YAPAPAVBucket@agent@monitoring@ibmras@@PAPAV1234@00U_Scalar_ptr_iterator_tag@0@@Z PROC ; std::_Copy_impl<ibmras::monitoring::agent::Bucket * *,ibmras::monitoring::agent::Bucket * *>, COMDAT
; Line 2152
	push	ebp
	mov	ebp, esp
	push	ecx
; Line 2153
	mov	eax, DWORD PTR __Last$[ebp]
	sub	eax, DWORD PTR __First$[ebp]
	sar	eax, 2
	mov	DWORD PTR __Count$[ebp], eax
; Line 2155
	mov	ecx, DWORD PTR __Count$[ebp]
	shl	ecx, 2
	push	ecx
	mov	edx, DWORD PTR __First$[ebp]
	push	edx
	mov	eax, DWORD PTR __Dest$[ebp]
	push	eax
	call	DWORD PTR __imp__memmove
	add	esp, 12					; 0000000cH
; Line 2156
	mov	ecx, DWORD PTR __Count$[ebp]
	mov	edx, DWORD PTR __Dest$[ebp]
	lea	eax, DWORD PTR [edx+ecx*4]
; Line 2157
	mov	esp, ebp
	pop	ebp
	ret	0
??$_Copy_impl@PAPAVBucket@agent@monitoring@ibmras@@PAPAV1234@@std@@YAPAPAVBucket@agent@monitoring@ibmras@@PAPAV1234@00U_Scalar_ptr_iterator_tag@0@@Z ENDP ; std::_Copy_impl<ibmras::monitoring::agent::Bucket * *,ibmras::monitoring::agent::Bucket * *>
_TEXT	ENDS
PUBLIC	??$_Uninit_copy@PAVBucket@agent@monitoring@ibmras@@PAV1234@@std@@YAPAPAVBucket@agent@monitoring@ibmras@@PAPAV1234@00AAV?$allocator@PAVBucket@agent@monitoring@ibmras@@@0@U_Scalar_ptr_iterator_tag@0@@Z ; std::_Uninit_copy<ibmras::monitoring::agent::Bucket *,ibmras::monitoring::agent::Bucket *>
; Function compile flags: /Odtp
;	COMDAT ??$_Uninitialized_copy@PAPAVBucket@agent@monitoring@ibmras@@PAPAV1234@V?$allocator@PAVBucket@agent@monitoring@ibmras@@@std@@@std@@YAPAPAVBucket@agent@monitoring@ibmras@@PAPAV1234@00AAV?$allocator@PAVBucket@agent@monitoring@ibmras@@@0@@Z
_TEXT	SEGMENT
$T104579 = -1						; size = 1
__First$ = 8						; size = 4
__Last$ = 12						; size = 4
__Dest$ = 16						; size = 4
__Al$ = 20						; size = 4
??$_Uninitialized_copy@PAPAVBucket@agent@monitoring@ibmras@@PAPAV1234@V?$allocator@PAVBucket@agent@monitoring@ibmras@@@std@@@std@@YAPAPAVBucket@agent@monitoring@ibmras@@PAPAV1234@00AAV?$allocator@PAVBucket@agent@monitoring@ibmras@@@0@@Z PROC ; std::_Uninitialized_copy<ibmras::monitoring::agent::Bucket * *,ibmras::monitoring::agent::Bucket * *,std::allocator<ibmras::monitoring::agent::Bucket *> >, COMDAT
; File c:\program files (x86)\microsoft visual studio 10.0\vc\include\memory
; Line 412
	push	ebp
	mov	ebp, esp
	push	ecx
; Line 414
	mov	eax, DWORD PTR __Dest$[ebp]
	push	eax
	mov	ecx, DWORD PTR __First$[ebp]
	push	ecx
	call	??$_Ptr_cat@PAVBucket@agent@monitoring@ibmras@@PAV1234@@std@@YA?AU_Scalar_ptr_iterator_tag@0@PAPAVBucket@agent@monitoring@ibmras@@0@Z ; std::_Ptr_cat<ibmras::monitoring::agent::Bucket *,ibmras::monitoring::agent::Bucket *>
	add	esp, 8
	mov	BYTE PTR $T104579[ebp], al
	movzx	edx, BYTE PTR $T104579[ebp]
	push	edx
	mov	eax, DWORD PTR __Al$[ebp]
	push	eax
	mov	ecx, DWORD PTR __Dest$[ebp]
	push	ecx
	mov	edx, DWORD PTR __Last$[ebp]
	push	edx
	mov	eax, DWORD PTR __First$[ebp]
	push	eax
	call	??$_Uninit_copy@PAVBucket@agent@monitoring@ibmras@@PAV1234@@std@@YAPAPAVBucket@agent@monitoring@ibmras@@PAPAV1234@00AAV?$allocator@PAVBucket@agent@monitoring@ibmras@@@0@U_Scalar_ptr_iterator_tag@0@@Z ; std::_Uninit_copy<ibmras::monitoring::agent::Bucket *,ibmras::monitoring::agent::Bucket *>
	add	esp, 20					; 00000014H
; Line 415
	mov	esp, ebp
	pop	ebp
	ret	0
??$_Uninitialized_copy@PAPAVBucket@agent@monitoring@ibmras@@PAPAV1234@V?$allocator@PAVBucket@agent@monitoring@ibmras@@@std@@@std@@YAPAPAVBucket@agent@monitoring@ibmras@@PAPAV1234@00AAV?$allocator@PAVBucket@agent@monitoring@ibmras@@@0@@Z ENDP ; std::_Uninitialized_copy<ibmras::monitoring::agent::Bucket * *,ibmras::monitoring::agent::Bucket * *,std::allocator<ibmras::monitoring::agent::Bucket *> >
; Function compile flags: /Odtp
_TEXT	ENDS
;	COMDAT ??$_Destroy_range@V?$allocator@PAVBucket@agent@monitoring@ibmras@@@std@@@std@@YAXPAPAVBucket@agent@monitoring@ibmras@@0AAV?$allocator@PAVBucket@agent@monitoring@ibmras@@@0@U_Scalar_ptr_iterator_tag@0@@Z
_TEXT	SEGMENT
__First$ = 8						; size = 4
__Last$ = 12						; size = 4
__Al$ = 16						; size = 4
___formal$ = 20						; size = 1
??$_Destroy_range@V?$allocator@PAVBucket@agent@monitoring@ibmras@@@std@@@std@@YAXPAPAVBucket@agent@monitoring@ibmras@@0AAV?$allocator@PAVBucket@agent@monitoring@ibmras@@@0@U_Scalar_ptr_iterator_tag@0@@Z PROC ; std::_Destroy_range<std::allocator<ibmras::monitoring::agent::Bucket *> >, COMDAT
; File c:\program files (x86)\microsoft visual studio 10.0\vc\include\xmemory
; Line 104
	push	ebp
	mov	ebp, esp
; Line 105
	pop	ebp
	ret	0
??$_Destroy_range@V?$allocator@PAVBucket@agent@monitoring@ibmras@@@std@@@std@@YAXPAPAVBucket@agent@monitoring@ibmras@@0AAV?$allocator@PAVBucket@agent@monitoring@ibmras@@@0@U_Scalar_ptr_iterator_tag@0@@Z ENDP ; std::_Destroy_range<std::allocator<ibmras::monitoring::agent::Bucket *> >
; Function compile flags: /Odtp
_TEXT	ENDS
;	COMDAT ??$_Move@PAPAVBucket@agent@monitoring@ibmras@@PAPAV1234@@std@@YAPAPAVBucket@agent@monitoring@ibmras@@PAPAV1234@00U_Scalar_ptr_iterator_tag@0@@Z
_TEXT	SEGMENT
__Count$ = -4						; size = 4
__First$ = 8						; size = 4
__Last$ = 12						; size = 4
__Dest$ = 16						; size = 4
___formal$ = 20						; size = 1
??$_Move@PAPAVBucket@agent@monitoring@ibmras@@PAPAV1234@@std@@YAPAPAVBucket@agent@monitoring@ibmras@@PAPAV1234@00U_Scalar_ptr_iterator_tag@0@@Z PROC ; std::_Move<ibmras::monitoring::agent::Bucket * *,ibmras::monitoring::agent::Bucket * *>, COMDAT
; File c:\program files (x86)\microsoft visual studio 10.0\vc\include\xutility
; Line 2522
	push	ebp
	mov	ebp, esp
	push	ecx
; Line 2523
	mov	eax, DWORD PTR __Last$[ebp]
	sub	eax, DWORD PTR __First$[ebp]
	sar	eax, 2
	mov	DWORD PTR __Count$[ebp], eax
; Line 2525
	mov	ecx, DWORD PTR __Count$[ebp]
	shl	ecx, 2
	push	ecx
	mov	edx, DWORD PTR __First$[ebp]
	push	edx
	mov	eax, DWORD PTR __Dest$[ebp]
	push	eax
	call	DWORD PTR __imp__memmove
	add	esp, 12					; 0000000cH
; Line 2526
	mov	ecx, DWORD PTR __Count$[ebp]
	mov	edx, DWORD PTR __Dest$[ebp]
	lea	eax, DWORD PTR [edx+ecx*4]
; Line 2527
	mov	esp, ebp
	pop	ebp
	ret	0
??$_Move@PAPAVBucket@agent@monitoring@ibmras@@PAPAV1234@@std@@YAPAPAVBucket@agent@monitoring@ibmras@@PAPAV1234@00U_Scalar_ptr_iterator_tag@0@@Z ENDP ; std::_Move<ibmras::monitoring::agent::Bucket * *,ibmras::monitoring::agent::Bucket * *>
; Function compile flags: /Odtp
_TEXT	ENDS
;	COMDAT ??$_Ptr_cat@V?$_Vector_const_iterator@V?$_Vector_val@PAVBucket@agent@monitoring@ibmras@@V?$allocator@PAVBucket@agent@monitoring@ibmras@@@std@@@std@@@std@@PAPAVBucket@agent@monitoring@ibmras@@@std@@YA?AU_Nonscalar_ptr_iterator_tag@0@AAV?$_Vector_const_iterator@V?$_Vector_val@PAVBucket@agent@monitoring@ibmras@@V?$allocator@PAVBucket@agent@monitoring@ibmras@@@std@@@std@@@0@AAPAPAVBucket@agent@monitoring@ibmras@@@Z
_TEXT	SEGMENT
__Cat$ = -1						; size = 1
___formal$ = 8						; size = 4
___formal$ = 12						; size = 4
??$_Ptr_cat@V?$_Vector_const_iterator@V?$_Vector_val@PAVBucket@agent@monitoring@ibmras@@V?$allocator@PAVBucket@agent@monitoring@ibmras@@@std@@@std@@@std@@PAPAVBucket@agent@monitoring@ibmras@@@std@@YA?AU_Nonscalar_ptr_iterator_tag@0@AAV?$_Vector_const_iterator@V?$_Vector_val@PAVBucket@agent@monitoring@ibmras@@V?$allocator@PAVBucket@agent@monitoring@ibmras@@@std@@@std@@@0@AAPAPAVBucket@agent@monitoring@ibmras@@@Z PROC ; std::_Ptr_cat<std::_Vector_const_iterator<std::_Vector_val<ibmras::monitoring::agent::Bucket *,std::allocator<ibmras::monitoring::agent::Bucket *> > >,ibmras::monitoring::agent::Bucket * *>, COMDAT
; Line 485
	push	ebp
	mov	ebp, esp
	push	ecx
; Line 487
	mov	al, BYTE PTR __Cat$[ebp]
; Line 488
	mov	esp, ebp
	pop	ebp
	ret	0
??$_Ptr_cat@V?$_Vector_const_iterator@V?$_Vector_val@PAVBucket@agent@monitoring@ibmras@@V?$allocator@PAVBucket@agent@monitoring@ibmras@@@std@@@std@@@std@@PAPAVBucket@agent@monitoring@ibmras@@@std@@YA?AU_Nonscalar_ptr_iterator_tag@0@AAV?$_Vector_const_iterator@V?$_Vector_val@PAVBucket@agent@monitoring@ibmras@@V?$allocator@PAVBucket@agent@monitoring@ibmras@@@std@@@std@@@0@AAPAPAVBucket@agent@monitoring@ibmras@@@Z ENDP ; std::_Ptr_cat<std::_Vector_const_iterator<std::_Vector_val<ibmras::monitoring::agent::Bucket *,std::allocator<ibmras::monitoring::agent::Bucket *> > >,ibmras::monitoring::agent::Bucket * *>
_TEXT	ENDS
PUBLIC	??$_Dest_val@V?$allocator@PAVBucket@agent@monitoring@ibmras@@@std@@PAVBucket@agent@monitoring@ibmras@@@std@@YAXAAV?$allocator@PAVBucket@agent@monitoring@ibmras@@@0@PAPAVBucket@agent@monitoring@ibmras@@@Z ; std::_Dest_val<std::allocator<ibmras::monitoring::agent::Bucket *>,ibmras::monitoring::agent::Bucket *>
PUBLIC	??$_Cons_val@V?$allocator@PAVBucket@agent@monitoring@ibmras@@@std@@PAVBucket@agent@monitoring@ibmras@@ABQAV3456@@std@@YAXAAV?$allocator@PAVBucket@agent@monitoring@ibmras@@@0@PAPAVBucket@agent@monitoring@ibmras@@ABQAV2345@@Z ; std::_Cons_val<std::allocator<ibmras::monitoring::agent::Bucket *>,ibmras::monitoring::agent::Bucket *,ibmras::monitoring::agent::Bucket * const &>
PUBLIC	??D?$_Vector_const_iterator@V?$_Vector_val@PAVBucket@agent@monitoring@ibmras@@V?$allocator@PAVBucket@agent@monitoring@ibmras@@@std@@@std@@@std@@QBEABQAVBucket@agent@monitoring@ibmras@@XZ ; std::_Vector_const_iterator<std::_Vector_val<ibmras::monitoring::agent::Bucket *,std::allocator<ibmras::monitoring::agent::Bucket *> > >::operator*
PUBLIC	??E?$_Vector_const_iterator@V?$_Vector_val@PAVBucket@agent@monitoring@ibmras@@V?$allocator@PAVBucket@agent@monitoring@ibmras@@@std@@@std@@@std@@QAEAAV01@XZ ; std::_Vector_const_iterator<std::_Vector_val<ibmras::monitoring::agent::Bucket *,std::allocator<ibmras::monitoring::agent::Bucket *> > >::operator++
;	COMDAT xdata$x
; File c:\program files (x86)\microsoft visual studio 10.0\vc\include\memory
xdata$x	SEGMENT
__catchsym$??$_Uninit_copy@V?$_Vector_const_iterator@V?$_Vector_val@PAVBucket@agent@monitoring@ibmras@@V?$allocator@PAVBucket@agent@monitoring@ibmras@@@std@@@std@@@std@@PAPAVBucket@agent@monitoring@ibmras@@V?$allocator@PAVBucket@agent@monitoring@ibmras@@@2@@std@@YAPAPAVBucket@agent@monitoring@ibmras@@V?$_Vector_const_iterator@V?$_Vector_val@PAVBucket@agent@monitoring@ibmras@@V?$allocator@PAVBucket@agent@monitoring@ibmras@@@std@@@std@@@0@0PAPAV1234@AAV?$allocator@PAVBucket@agent@monitoring@ibmras@@@0@U_Nonscalar_ptr_iterator_tag@0@@Z$2 DD 040H
	DD	00H
	DD	00H
	DD	FLAT:__catch$??$_Uninit_copy@V?$_Vector_const_iterator@V?$_Vector_val@PAVBucket@agent@monitoring@ibmras@@V?$allocator@PAVBucket@agent@monitoring@ibmras@@@std@@@std@@@std@@PAPAVBucket@agent@monitoring@ibmras@@V?$allocator@PAVBucket@agent@monitoring@ibmras@@@2@@std@@YAPAPAVBucket@agent@monitoring@ibmras@@V?$_Vector_const_iterator@V?$_Vector_val@PAVBucket@agent@monitoring@ibmras@@V?$allocator@PAVBucket@agent@monitoring@ibmras@@@std@@@std@@@0@0PAPAV1234@AAV?$allocator@PAVBucket@agent@monitoring@ibmras@@@0@U_Nonscalar_ptr_iterator_tag@0@@Z$0
__unwindtable$??$_Uninit_copy@V?$_Vector_const_iterator@V?$_Vector_val@PAVBucket@agent@monitoring@ibmras@@V?$allocator@PAVBucket@agent@monitoring@ibmras@@@std@@@std@@@std@@PAPAVBucket@agent@monitoring@ibmras@@V?$allocator@PAVBucket@agent@monitoring@ibmras@@@2@@std@@YAPAPAVBucket@agent@monitoring@ibmras@@V?$_Vector_const_iterator@V?$_Vector_val@PAVBucket@agent@monitoring@ibmras@@V?$allocator@PAVBucket@agent@monitoring@ibmras@@@std@@@std@@@0@0PAPAV1234@AAV?$allocator@PAVBucket@agent@monitoring@ibmras@@@0@U_Nonscalar_ptr_iterator_tag@0@@Z DD 0ffffffffH
	DD	00H
	DD	0ffffffffH
	DD	00H
__tryblocktable$??$_Uninit_copy@V?$_Vector_const_iterator@V?$_Vector_val@PAVBucket@agent@monitoring@ibmras@@V?$allocator@PAVBucket@agent@monitoring@ibmras@@@std@@@std@@@std@@PAPAVBucket@agent@monitoring@ibmras@@V?$allocator@PAVBucket@agent@monitoring@ibmras@@@2@@std@@YAPAPAVBucket@agent@monitoring@ibmras@@V?$_Vector_const_iterator@V?$_Vector_val@PAVBucket@agent@monitoring@ibmras@@V?$allocator@PAVBucket@agent@monitoring@ibmras@@@std@@@std@@@0@0PAPAV1234@AAV?$allocator@PAVBucket@agent@monitoring@ibmras@@@0@U_Nonscalar_ptr_iterator_tag@0@@Z DD 00H
	DD	00H
	DD	01H
	DD	01H
	DD	FLAT:__catchsym$??$_Uninit_copy@V?$_Vector_const_iterator@V?$_Vector_val@PAVBucket@agent@monitoring@ibmras@@V?$allocator@PAVBucket@agent@monitoring@ibmras@@@std@@@std@@@std@@PAPAVBucket@agent@monitoring@ibmras@@V?$allocator@PAVBucket@agent@monitoring@ibmras@@@2@@std@@YAPAPAVBucket@agent@monitoring@ibmras@@V?$_Vector_const_iterator@V?$_Vector_val@PAVBucket@agent@monitoring@ibmras@@V?$allocator@PAVBucket@agent@monitoring@ibmras@@@std@@@std@@@0@0PAPAV1234@AAV?$allocator@PAVBucket@agent@monitoring@ibmras@@@0@U_Nonscalar_ptr_iterator_tag@0@@Z$2
__ehfuncinfo$??$_Uninit_copy@V?$_Vector_const_iterator@V?$_Vector_val@PAVBucket@agent@monitoring@ibmras@@V?$allocator@PAVBucket@agent@monitoring@ibmras@@@std@@@std@@@std@@PAPAVBucket@agent@monitoring@ibmras@@V?$allocator@PAVBucket@agent@monitoring@ibmras@@@2@@std@@YAPAPAVBucket@agent@monitoring@ibmras@@V?$_Vector_const_iterator@V?$_Vector_val@PAVBucket@agent@monitoring@ibmras@@V?$allocator@PAVBucket@agent@monitoring@ibmras@@@std@@@std@@@0@0PAPAV1234@AAV?$allocator@PAVBucket@agent@monitoring@ibmras@@@0@U_Nonscalar_ptr_iterator_tag@0@@Z DD 019930522H
	DD	02H
	DD	FLAT:__unwindtable$??$_Uninit_copy@V?$_Vector_const_iterator@V?$_Vector_val@PAVBucket@agent@monitoring@ibmras@@V?$allocator@PAVBucket@agent@monitoring@ibmras@@@std@@@std@@@std@@PAPAVBucket@agent@monitoring@ibmras@@V?$allocator@PAVBucket@agent@monitoring@ibmras@@@2@@std@@YAPAPAVBucket@agent@monitoring@ibmras@@V?$_Vector_const_iterator@V?$_Vector_val@PAVBucket@agent@monitoring@ibmras@@V?$allocator@PAVBucket@agent@monitoring@ibmras@@@std@@@std@@@0@0PAPAV1234@AAV?$allocator@PAVBucket@agent@monitoring@ibmras@@@0@U_Nonscalar_ptr_iterator_tag@0@@Z
	DD	01H
	DD	FLAT:__tryblocktable$??$_Uninit_copy@V?$_Vector_const_iterator@V?$_Vector_val@PAVBucket@agent@monitoring@ibmras@@V?$allocator@PAVBucket@agent@monitoring@ibmras@@@std@@@std@@@std@@PAPAVBucket@agent@monitoring@ibmras@@V?$allocator@PAVBucket@agent@monitoring@ibmras@@@2@@std@@YAPAPAVBucket@agent@monitoring@ibmras@@V?$_Vector_const_iterator@V?$_Vector_val@PAVBucket@agent@monitoring@ibmras@@V?$allocator@PAVBucket@agent@monitoring@ibmras@@@std@@@std@@@0@0PAPAV1234@AAV?$allocator@PAVBucket@agent@monitoring@ibmras@@@0@U_Nonscalar_ptr_iterator_tag@0@@Z
	DD	2 DUP(00H)
	DD	00H
	DD	01H
; Function compile flags: /Odtp
xdata$x	ENDS
;	COMDAT ??$_Uninit_copy@V?$_Vector_const_iterator@V?$_Vector_val@PAVBucket@agent@monitoring@ibmras@@V?$allocator@PAVBucket@agent@monitoring@ibmras@@@std@@@std@@@std@@PAPAVBucket@agent@monitoring@ibmras@@V?$allocator@PAVBucket@agent@monitoring@ibmras@@@2@@std@@YAPAPAVBucket@agent@monitoring@ibmras@@V?$_Vector_const_iterator@V?$_Vector_val@PAVBucket@agent@monitoring@ibmras@@V?$allocator@PAVBucket@agent@monitoring@ibmras@@@std@@@std@@@0@0PAPAV1234@AAV?$allocator@PAVBucket@agent@monitoring@ibmras@@@0@U_Nonscalar_ptr_iterator_tag@0@@Z
_TEXT	SEGMENT
tv84 = -28						; size = 4
tv83 = -21						; size = 1
__Next$ = -20						; size = 4
__$EHRec$ = -16						; size = 16
__First$ = 8						; size = 4
__Last$ = 12						; size = 4
__Dest$ = 16						; size = 4
__Al$ = 20						; size = 4
___formal$ = 24						; size = 1
??$_Uninit_copy@V?$_Vector_const_iterator@V?$_Vector_val@PAVBucket@agent@monitoring@ibmras@@V?$allocator@PAVBucket@agent@monitoring@ibmras@@@std@@@std@@@std@@PAPAVBucket@agent@monitoring@ibmras@@V?$allocator@PAVBucket@agent@monitoring@ibmras@@@2@@std@@YAPAPAVBucket@agent@monitoring@ibmras@@V?$_Vector_const_iterator@V?$_Vector_val@PAVBucket@agent@monitoring@ibmras@@V?$allocator@PAVBucket@agent@monitoring@ibmras@@@std@@@std@@@0@0PAPAV1234@AAV?$allocator@PAVBucket@agent@monitoring@ibmras@@@0@U_Nonscalar_ptr_iterator_tag@0@@Z PROC ; std::_Uninit_copy<std::_Vector_const_iterator<std::_Vector_val<ibmras::monitoring::agent::Bucket *,std::allocator<ibmras::monitoring::agent::Bucket *> > >,ibmras::monitoring::agent::Bucket * *,std::allocator<ibmras::monitoring::agent::Bucket *> >, COMDAT
; Line 369
	push	ebp
	mov	ebp, esp
	push	-1
	push	__ehhandler$??$_Uninit_copy@V?$_Vector_const_iterator@V?$_Vector_val@PAVBucket@agent@monitoring@ibmras@@V?$allocator@PAVBucket@agent@monitoring@ibmras@@@std@@@std@@@std@@PAPAVBucket@agent@monitoring@ibmras@@V?$allocator@PAVBucket@agent@monitoring@ibmras@@@2@@std@@YAPAPAVBucket@agent@monitoring@ibmras@@V?$_Vector_const_iterator@V?$_Vector_val@PAVBucket@agent@monitoring@ibmras@@V?$allocator@PAVBucket@agent@monitoring@ibmras@@@std@@@std@@@0@0PAPAV1234@AAV?$allocator@PAVBucket@agent@monitoring@ibmras@@@0@U_Nonscalar_ptr_iterator_tag@0@@Z
	mov	eax, DWORD PTR fs:0
	push	eax
	push	ecx
	sub	esp, 12					; 0000000cH
	push	ebx
	push	esi
	push	edi
	mov	eax, DWORD PTR ___security_cookie
	xor	eax, ebp
	push	eax
	lea	eax, DWORD PTR __$EHRec$[ebp+4]
	mov	DWORD PTR fs:0, eax
	mov	DWORD PTR __$EHRec$[ebp], esp
; Line 372
	mov	eax, DWORD PTR __Dest$[ebp]
	mov	DWORD PTR __Next$[ebp], eax
; Line 374
	mov	DWORD PTR __$EHRec$[ebp+12], 0
; Line 375
	jmp	SHORT $LN6@Uninit_cop
$LN5@Uninit_cop:
	mov	ecx, DWORD PTR __Dest$[ebp]
	add	ecx, 4
	mov	DWORD PTR __Dest$[ebp], ecx
	lea	ecx, DWORD PTR __First$[ebp]
	call	??E?$_Vector_const_iterator@V?$_Vector_val@PAVBucket@agent@monitoring@ibmras@@V?$allocator@PAVBucket@agent@monitoring@ibmras@@@std@@@std@@@std@@QAEAAV01@XZ ; std::_Vector_const_iterator<std::_Vector_val<ibmras::monitoring::agent::Bucket *,std::allocator<ibmras::monitoring::agent::Bucket *> > >::operator++
$LN6@Uninit_cop:
	lea	edx, DWORD PTR __Last$[ebp]
	push	edx
	lea	ecx, DWORD PTR __First$[ebp]
	call	??9?$_Vector_const_iterator@V?$_Vector_val@PAVBucket@agent@monitoring@ibmras@@V?$allocator@PAVBucket@agent@monitoring@ibmras@@@std@@@std@@@std@@QBE_NABV01@@Z ; std::_Vector_const_iterator<std::_Vector_val<ibmras::monitoring::agent::Bucket *,std::allocator<ibmras::monitoring::agent::Bucket *> > >::operator!=
	mov	BYTE PTR tv83[ebp], al
	movzx	eax, BYTE PTR tv83[ebp]
	test	eax, eax
	je	SHORT $LN4@Uninit_cop
; Line 376
	lea	ecx, DWORD PTR __First$[ebp]
	call	??D?$_Vector_const_iterator@V?$_Vector_val@PAVBucket@agent@monitoring@ibmras@@V?$allocator@PAVBucket@agent@monitoring@ibmras@@@std@@@std@@@std@@QBEABQAVBucket@agent@monitoring@ibmras@@XZ ; std::_Vector_const_iterator<std::_Vector_val<ibmras::monitoring::agent::Bucket *,std::allocator<ibmras::monitoring::agent::Bucket *> > >::operator*
	mov	DWORD PTR tv84[ebp], eax
	mov	ecx, DWORD PTR tv84[ebp]
	push	ecx
	mov	edx, DWORD PTR __Dest$[ebp]
	push	edx
	mov	eax, DWORD PTR __Al$[ebp]
	push	eax
	call	??$_Cons_val@V?$allocator@PAVBucket@agent@monitoring@ibmras@@@std@@PAVBucket@agent@monitoring@ibmras@@ABQAV3456@@std@@YAXAAV?$allocator@PAVBucket@agent@monitoring@ibmras@@@0@PAPAVBucket@agent@monitoring@ibmras@@ABQAV2345@@Z ; std::_Cons_val<std::allocator<ibmras::monitoring::agent::Bucket *>,ibmras::monitoring::agent::Bucket *,ibmras::monitoring::agent::Bucket * const &>
	add	esp, 12					; 0000000cH
	jmp	SHORT $LN5@Uninit_cop
$LN4@Uninit_cop:
	jmp	SHORT $LN10@Uninit_cop
__catch$??$_Uninit_copy@V?$_Vector_const_iterator@V?$_Vector_val@PAVBucket@agent@monitoring@ibmras@@V?$allocator@PAVBucket@agent@monitoring@ibmras@@@std@@@std@@@std@@PAPAVBucket@agent@monitoring@ibmras@@V?$allocator@PAVBucket@agent@monitoring@ibmras@@@2@@std@@YAPAPAVBucket@agent@monitoring@ibmras@@V?$_Vector_const_iterator@V?$_Vector_val@PAVBucket@agent@monitoring@ibmras@@V?$allocator@PAVBucket@agent@monitoring@ibmras@@@std@@@std@@@0@0PAPAV1234@AAV?$allocator@PAVBucket@agent@monitoring@ibmras@@@0@U_Nonscalar_ptr_iterator_tag@0@@Z$0:
; Line 378
	jmp	SHORT $LN3@Uninit_cop
$LN2@Uninit_cop:
	mov	ecx, DWORD PTR __Next$[ebp]
	add	ecx, 4
	mov	DWORD PTR __Next$[ebp], ecx
$LN3@Uninit_cop:
	mov	edx, DWORD PTR __Next$[ebp]
	cmp	edx, DWORD PTR __Dest$[ebp]
	je	SHORT $LN1@Uninit_cop
; Line 379
	mov	eax, DWORD PTR __Next$[ebp]
	push	eax
	mov	ecx, DWORD PTR __Al$[ebp]
	push	ecx
	call	??$_Dest_val@V?$allocator@PAVBucket@agent@monitoring@ibmras@@@std@@PAVBucket@agent@monitoring@ibmras@@@std@@YAXAAV?$allocator@PAVBucket@agent@monitoring@ibmras@@@0@PAPAVBucket@agent@monitoring@ibmras@@@Z ; std::_Dest_val<std::allocator<ibmras::monitoring::agent::Bucket *>,ibmras::monitoring::agent::Bucket *>
	add	esp, 8
	jmp	SHORT $LN2@Uninit_cop
$LN1@Uninit_cop:
; Line 380
	push	0
	push	0
	call	__CxxThrowException@8
; Line 381
	mov	DWORD PTR __$EHRec$[ebp+12], -1
	mov	eax, __tryend$??$_Uninit_copy@V?$_Vector_const_iterator@V?$_Vector_val@PAVBucket@agent@monitoring@ibmras@@V?$allocator@PAVBucket@agent@monitoring@ibmras@@@std@@@std@@@std@@PAPAVBucket@agent@monitoring@ibmras@@V?$allocator@PAVBucket@agent@monitoring@ibmras@@@2@@std@@YAPAPAVBucket@agent@monitoring@ibmras@@V?$_Vector_const_iterator@V?$_Vector_val@PAVBucket@agent@monitoring@ibmras@@V?$allocator@PAVBucket@agent@monitoring@ibmras@@@std@@@std@@@0@0PAPAV1234@AAV?$allocator@PAVBucket@agent@monitoring@ibmras@@@0@U_Nonscalar_ptr_iterator_tag@0@@Z$1
	ret	0
$LN10@Uninit_cop:
	mov	DWORD PTR __$EHRec$[ebp+12], -1
__tryend$??$_Uninit_copy@V?$_Vector_const_iterator@V?$_Vector_val@PAVBucket@agent@monitoring@ibmras@@V?$allocator@PAVBucket@agent@monitoring@ibmras@@@std@@@std@@@std@@PAPAVBucket@agent@monitoring@ibmras@@V?$allocator@PAVBucket@agent@monitoring@ibmras@@@2@@std@@YAPAPAVBucket@agent@monitoring@ibmras@@V?$_Vector_const_iterator@V?$_Vector_val@PAVBucket@agent@monitoring@ibmras@@V?$allocator@PAVBucket@agent@monitoring@ibmras@@@std@@@std@@@0@0PAPAV1234@AAV?$allocator@PAVBucket@agent@monitoring@ibmras@@@0@U_Nonscalar_ptr_iterator_tag@0@@Z$1:
; Line 382
	mov	eax, DWORD PTR __Dest$[ebp]
$LN9@Uninit_cop:
; Line 383
	mov	ecx, DWORD PTR __$EHRec$[ebp+4]
	mov	DWORD PTR fs:0, ecx
	pop	ecx
	pop	edi
	pop	esi
	pop	ebx
	mov	esp, ebp
	pop	ebp
	ret	0
_TEXT	ENDS
;	COMDAT text$x
text$x	SEGMENT
__ehhandler$??$_Uninit_copy@V?$_Vector_const_iterator@V?$_Vector_val@PAVBucket@agent@monitoring@ibmras@@V?$allocator@PAVBucket@agent@monitoring@ibmras@@@std@@@std@@@std@@PAPAVBucket@agent@monitoring@ibmras@@V?$allocator@PAVBucket@agent@monitoring@ibmras@@@2@@std@@YAPAPAVBucket@agent@monitoring@ibmras@@V?$_Vector_const_iterator@V?$_Vector_val@PAVBucket@agent@monitoring@ibmras@@V?$allocator@PAVBucket@agent@monitoring@ibmras@@@std@@@std@@@0@0PAPAV1234@AAV?$allocator@PAVBucket@agent@monitoring@ibmras@@@0@U_Nonscalar_ptr_iterator_tag@0@@Z:
	mov	edx, DWORD PTR [esp+8]
	lea	eax, DWORD PTR [edx+12]
	mov	ecx, DWORD PTR [edx-32]
	xor	ecx, eax
	call	@__security_check_cookie@4
	mov	eax, OFFSET __ehfuncinfo$??$_Uninit_copy@V?$_Vector_const_iterator@V?$_Vector_val@PAVBucket@agent@monitoring@ibmras@@V?$allocator@PAVBucket@agent@monitoring@ibmras@@@std@@@std@@@std@@PAPAVBucket@agent@monitoring@ibmras@@V?$allocator@PAVBucket@agent@monitoring@ibmras@@@2@@std@@YAPAPAVBucket@agent@monitoring@ibmras@@V?$_Vector_const_iterator@V?$_Vector_val@PAVBucket@agent@monitoring@ibmras@@V?$allocator@PAVBucket@agent@monitoring@ibmras@@@std@@@std@@@0@0PAPAV1234@AAV?$allocator@PAVBucket@agent@monitoring@ibmras@@@0@U_Nonscalar_ptr_iterator_tag@0@@Z
	jmp	___CxxFrameHandler3
text$x	ENDS
??$_Uninit_copy@V?$_Vector_const_iterator@V?$_Vector_val@PAVBucket@agent@monitoring@ibmras@@V?$allocator@PAVBucket@agent@monitoring@ibmras@@@std@@@std@@@std@@PAPAVBucket@agent@monitoring@ibmras@@V?$allocator@PAVBucket@agent@monitoring@ibmras@@@2@@std@@YAPAPAVBucket@agent@monitoring@ibmras@@V?$_Vector_const_iterator@V?$_Vector_val@PAVBucket@agent@monitoring@ibmras@@V?$allocator@PAVBucket@agent@monitoring@ibmras@@@std@@@std@@@0@0PAPAV1234@AAV?$allocator@PAVBucket@agent@monitoring@ibmras@@@0@U_Nonscalar_ptr_iterator_tag@0@@Z ENDP ; std::_Uninit_copy<std::_Vector_const_iterator<std::_Vector_val<ibmras::monitoring::agent::Bucket *,std::allocator<ibmras::monitoring::agent::Bucket *> > >,ibmras::monitoring::agent::Bucket * *,std::allocator<ibmras::monitoring::agent::Bucket *> >
; Function compile flags: /Odtp
;	COMDAT ??$_Uninit_copy@PAVBucket@agent@monitoring@ibmras@@PAV1234@@std@@YAPAPAVBucket@agent@monitoring@ibmras@@PAPAV1234@00AAV?$allocator@PAVBucket@agent@monitoring@ibmras@@@0@U_Scalar_ptr_iterator_tag@0@@Z
_TEXT	SEGMENT
__Count$ = -4						; size = 4
__First$ = 8						; size = 4
__Last$ = 12						; size = 4
__Dest$ = 16						; size = 4
___formal$ = 20						; size = 4
___formal$ = 24						; size = 1
??$_Uninit_copy@PAVBucket@agent@monitoring@ibmras@@PAV1234@@std@@YAPAPAVBucket@agent@monitoring@ibmras@@PAPAV1234@00AAV?$allocator@PAVBucket@agent@monitoring@ibmras@@@0@U_Scalar_ptr_iterator_tag@0@@Z PROC ; std::_Uninit_copy<ibmras::monitoring::agent::Bucket *,ibmras::monitoring::agent::Bucket *>, COMDAT
; Line 399
	push	ebp
	mov	ebp, esp
	push	ecx
; Line 402
	mov	eax, DWORD PTR __Last$[ebp]
	sub	eax, DWORD PTR __First$[ebp]
	sar	eax, 2
	mov	DWORD PTR __Count$[ebp], eax
; Line 404
	mov	ecx, DWORD PTR __Count$[ebp]
	shl	ecx, 2
	push	ecx
	mov	edx, DWORD PTR __First$[ebp]
	push	edx
	mov	eax, DWORD PTR __Dest$[ebp]
	push	eax
	call	DWORD PTR __imp__memmove
	add	esp, 12					; 0000000cH
	mov	ecx, DWORD PTR __Count$[ebp]
	lea	eax, DWORD PTR [eax+ecx*4]
; Line 405
	mov	esp, ebp
	pop	ebp
	ret	0
??$_Uninit_copy@PAVBucket@agent@monitoring@ibmras@@PAV1234@@std@@YAPAPAVBucket@agent@monitoring@ibmras@@PAPAV1234@00AAV?$allocator@PAVBucket@agent@monitoring@ibmras@@@0@U_Scalar_ptr_iterator_tag@0@@Z ENDP ; std::_Uninit_copy<ibmras::monitoring::agent::Bucket *,ibmras::monitoring::agent::Bucket *>
; Function compile flags: /Odtp
_TEXT	ENDS
;	COMDAT ??D?$_Vector_const_iterator@V?$_Vector_val@PAVBucket@agent@monitoring@ibmras@@V?$allocator@PAVBucket@agent@monitoring@ibmras@@@std@@@std@@@std@@QBEABQAVBucket@agent@monitoring@ibmras@@XZ
_TEXT	SEGMENT
_this$ = -4						; size = 4
??D?$_Vector_const_iterator@V?$_Vector_val@PAVBucket@agent@monitoring@ibmras@@V?$allocator@PAVBucket@agent@monitoring@ibmras@@@std@@@std@@@std@@QBEABQAVBucket@agent@monitoring@ibmras@@XZ PROC ; std::_Vector_const_iterator<std::_Vector_val<ibmras::monitoring::agent::Bucket *,std::allocator<ibmras::monitoring::agent::Bucket *> > >::operator*, COMDAT
; _this$ = ecx
; File c:\program files (x86)\microsoft visual studio 10.0\vc\include\vector
; Line 63
	push	ebp
	mov	ebp, esp
	push	ecx
	mov	DWORD PTR _this$[ebp], ecx
; Line 84
	mov	eax, DWORD PTR _this$[ebp]
	mov	eax, DWORD PTR [eax]
; Line 85
	mov	esp, ebp
	pop	ebp
	ret	0
??D?$_Vector_const_iterator@V?$_Vector_val@PAVBucket@agent@monitoring@ibmras@@V?$allocator@PAVBucket@agent@monitoring@ibmras@@@std@@@std@@@std@@QBEABQAVBucket@agent@monitoring@ibmras@@XZ ENDP ; std::_Vector_const_iterator<std::_Vector_val<ibmras::monitoring::agent::Bucket *,std::allocator<ibmras::monitoring::agent::Bucket *> > >::operator*
; Function compile flags: /Odtp
_TEXT	ENDS
;	COMDAT ??E?$_Vector_const_iterator@V?$_Vector_val@PAVBucket@agent@monitoring@ibmras@@V?$allocator@PAVBucket@agent@monitoring@ibmras@@@std@@@std@@@std@@QAEAAV01@XZ
_TEXT	SEGMENT
_this$ = -4						; size = 4
??E?$_Vector_const_iterator@V?$_Vector_val@PAVBucket@agent@monitoring@ibmras@@V?$allocator@PAVBucket@agent@monitoring@ibmras@@@std@@@std@@@std@@QAEAAV01@XZ PROC ; std::_Vector_const_iterator<std::_Vector_val<ibmras::monitoring::agent::Bucket *,std::allocator<ibmras::monitoring::agent::Bucket *> > >::operator++, COMDAT
; _this$ = ecx
; Line 93
	push	ebp
	mov	ebp, esp
	push	ecx
	mov	DWORD PTR _this$[ebp], ecx
; Line 110
	mov	eax, DWORD PTR _this$[ebp]
	mov	ecx, DWORD PTR [eax]
	add	ecx, 4
	mov	edx, DWORD PTR _this$[ebp]
	mov	DWORD PTR [edx], ecx
; Line 111
	mov	eax, DWORD PTR _this$[ebp]
; Line 112
	mov	esp, ebp
	pop	ebp
	ret	0
??E?$_Vector_const_iterator@V?$_Vector_val@PAVBucket@agent@monitoring@ibmras@@V?$allocator@PAVBucket@agent@monitoring@ibmras@@@std@@@std@@@std@@QAEAAV01@XZ ENDP ; std::_Vector_const_iterator<std::_Vector_val<ibmras::monitoring::agent::Bucket *,std::allocator<ibmras::monitoring::agent::Bucket *> > >::operator++
_TEXT	ENDS
PUBLIC	?construct@?$allocator@PAVBucket@agent@monitoring@ibmras@@@std@@QAEXPAPAVBucket@agent@monitoring@ibmras@@ABQAV3456@@Z ; std::allocator<ibmras::monitoring::agent::Bucket *>::construct
PUBLIC	??$forward@ABQAVBucket@agent@monitoring@ibmras@@@std@@YAABQAVBucket@agent@monitoring@ibmras@@ABQAV1234@@Z ; std::forward<ibmras::monitoring::agent::Bucket * const &>
; Function compile flags: /Odtp
;	COMDAT ??$_Cons_val@V?$allocator@PAVBucket@agent@monitoring@ibmras@@@std@@PAVBucket@agent@monitoring@ibmras@@ABQAV3456@@std@@YAXAAV?$allocator@PAVBucket@agent@monitoring@ibmras@@@0@PAPAVBucket@agent@monitoring@ibmras@@ABQAV2345@@Z
_TEXT	SEGMENT
__Alval$ = 8						; size = 4
__Pdest$ = 12						; size = 4
__Src$ = 16						; size = 4
??$_Cons_val@V?$allocator@PAVBucket@agent@monitoring@ibmras@@@std@@PAVBucket@agent@monitoring@ibmras@@ABQAV3456@@std@@YAXAAV?$allocator@PAVBucket@agent@monitoring@ibmras@@@0@PAPAVBucket@agent@monitoring@ibmras@@ABQAV2345@@Z PROC ; std::_Cons_val<std::allocator<ibmras::monitoring::agent::Bucket *>,ibmras::monitoring::agent::Bucket *,ibmras::monitoring::agent::Bucket * const &>, COMDAT
; File c:\program files (x86)\microsoft visual studio 10.0\vc\include\xmemory
; Line 279
	push	ebp
	mov	ebp, esp
; Line 280
	mov	eax, DWORD PTR __Src$[ebp]
	push	eax
	call	??$forward@ABQAVBucket@agent@monitoring@ibmras@@@std@@YAABQAVBucket@agent@monitoring@ibmras@@ABQAV1234@@Z ; std::forward<ibmras::monitoring::agent::Bucket * const &>
	add	esp, 4
	push	eax
	mov	ecx, DWORD PTR __Pdest$[ebp]
	push	ecx
	mov	ecx, DWORD PTR __Alval$[ebp]
	call	?construct@?$allocator@PAVBucket@agent@monitoring@ibmras@@@std@@QAEXPAPAVBucket@agent@monitoring@ibmras@@ABQAV3456@@Z ; std::allocator<ibmras::monitoring::agent::Bucket *>::construct
; Line 281
	pop	ebp
	ret	0
??$_Cons_val@V?$allocator@PAVBucket@agent@monitoring@ibmras@@@std@@PAVBucket@agent@monitoring@ibmras@@ABQAV3456@@std@@YAXAAV?$allocator@PAVBucket@agent@monitoring@ibmras@@@0@PAPAVBucket@agent@monitoring@ibmras@@ABQAV2345@@Z ENDP ; std::_Cons_val<std::allocator<ibmras::monitoring::agent::Bucket *>,ibmras::monitoring::agent::Bucket *,ibmras::monitoring::agent::Bucket * const &>
_TEXT	ENDS
PUBLIC	?destroy@?$allocator@PAVBucket@agent@monitoring@ibmras@@@std@@QAEXPAPAVBucket@agent@monitoring@ibmras@@@Z ; std::allocator<ibmras::monitoring::agent::Bucket *>::destroy
; Function compile flags: /Odtp
;	COMDAT ??$_Dest_val@V?$allocator@PAVBucket@agent@monitoring@ibmras@@@std@@PAVBucket@agent@monitoring@ibmras@@@std@@YAXAAV?$allocator@PAVBucket@agent@monitoring@ibmras@@@0@PAPAVBucket@agent@monitoring@ibmras@@@Z
_TEXT	SEGMENT
__Alval$ = 8						; size = 4
__Pdest$ = 12						; size = 4
??$_Dest_val@V?$allocator@PAVBucket@agent@monitoring@ibmras@@@std@@PAVBucket@agent@monitoring@ibmras@@@std@@YAXAAV?$allocator@PAVBucket@agent@monitoring@ibmras@@@0@PAPAVBucket@agent@monitoring@ibmras@@@Z PROC ; std::_Dest_val<std::allocator<ibmras::monitoring::agent::Bucket *>,ibmras::monitoring::agent::Bucket *>, COMDAT
; Line 286
	push	ebp
	mov	ebp, esp
; Line 287
	mov	eax, DWORD PTR __Pdest$[ebp]
	push	eax
	mov	ecx, DWORD PTR __Alval$[ebp]
	call	?destroy@?$allocator@PAVBucket@agent@monitoring@ibmras@@@std@@QAEXPAPAVBucket@agent@monitoring@ibmras@@@Z ; std::allocator<ibmras::monitoring::agent::Bucket *>::destroy
; Line 288
	pop	ebp
	ret	0
??$_Dest_val@V?$allocator@PAVBucket@agent@monitoring@ibmras@@@std@@PAVBucket@agent@monitoring@ibmras@@@std@@YAXAAV?$allocator@PAVBucket@agent@monitoring@ibmras@@@0@PAPAVBucket@agent@monitoring@ibmras@@@Z ENDP ; std::_Dest_val<std::allocator<ibmras::monitoring::agent::Bucket *>,ibmras::monitoring::agent::Bucket *>
_TEXT	ENDS
PUBLIC	??$_Construct@PAVBucket@agent@monitoring@ibmras@@ABQAV1234@@std@@YAXPAPAVBucket@agent@monitoring@ibmras@@ABQAV1234@@Z ; std::_Construct<ibmras::monitoring::agent::Bucket *,ibmras::monitoring::agent::Bucket * const &>
; Function compile flags: /Odtp
;	COMDAT ?construct@?$allocator@PAVBucket@agent@monitoring@ibmras@@@std@@QAEXPAPAVBucket@agent@monitoring@ibmras@@ABQAV3456@@Z
_TEXT	SEGMENT
_this$ = -4						; size = 4
__Ptr$ = 8						; size = 4
__Val$ = 12						; size = 4
?construct@?$allocator@PAVBucket@agent@monitoring@ibmras@@@std@@QAEXPAPAVBucket@agent@monitoring@ibmras@@ABQAV3456@@Z PROC ; std::allocator<ibmras::monitoring::agent::Bucket *>::construct, COMDAT
; _this$ = ecx
; Line 196
	push	ebp
	mov	ebp, esp
	push	ecx
	mov	DWORD PTR _this$[ebp], ecx
; Line 197
	mov	eax, DWORD PTR __Val$[ebp]
	push	eax
	mov	ecx, DWORD PTR __Ptr$[ebp]
	push	ecx
	call	??$_Construct@PAVBucket@agent@monitoring@ibmras@@ABQAV1234@@std@@YAXPAPAVBucket@agent@monitoring@ibmras@@ABQAV1234@@Z ; std::_Construct<ibmras::monitoring::agent::Bucket *,ibmras::monitoring::agent::Bucket * const &>
	add	esp, 8
; Line 198
	mov	esp, ebp
	pop	ebp
	ret	8
?construct@?$allocator@PAVBucket@agent@monitoring@ibmras@@@std@@QAEXPAPAVBucket@agent@monitoring@ibmras@@ABQAV3456@@Z ENDP ; std::allocator<ibmras::monitoring::agent::Bucket *>::construct
_TEXT	ENDS
PUBLIC	??$_Destroy@PAVBucket@agent@monitoring@ibmras@@@std@@YAXPAPAVBucket@agent@monitoring@ibmras@@@Z ; std::_Destroy<ibmras::monitoring::agent::Bucket *>
; Function compile flags: /Odtp
;	COMDAT ?destroy@?$allocator@PAVBucket@agent@monitoring@ibmras@@@std@@QAEXPAPAVBucket@agent@monitoring@ibmras@@@Z
_TEXT	SEGMENT
_this$ = -4						; size = 4
__Ptr$ = 8						; size = 4
?destroy@?$allocator@PAVBucket@agent@monitoring@ibmras@@@std@@QAEXPAPAVBucket@agent@monitoring@ibmras@@@Z PROC ; std::allocator<ibmras::monitoring::agent::Bucket *>::destroy, COMDAT
; _this$ = ecx
; Line 212
	push	ebp
	mov	ebp, esp
	push	ecx
	mov	DWORD PTR _this$[ebp], ecx
; Line 213
	mov	eax, DWORD PTR __Ptr$[ebp]
	push	eax
	call	??$_Destroy@PAVBucket@agent@monitoring@ibmras@@@std@@YAXPAPAVBucket@agent@monitoring@ibmras@@@Z ; std::_Destroy<ibmras::monitoring::agent::Bucket *>
	add	esp, 4
; Line 214
	mov	esp, ebp
	pop	ebp
	ret	4
?destroy@?$allocator@PAVBucket@agent@monitoring@ibmras@@@std@@QAEXPAPAVBucket@agent@monitoring@ibmras@@@Z ENDP ; std::allocator<ibmras::monitoring::agent::Bucket *>::destroy
; Function compile flags: /Odtp
_TEXT	ENDS
;	COMDAT ??$forward@ABQAVBucket@agent@monitoring@ibmras@@@std@@YAABQAVBucket@agent@monitoring@ibmras@@ABQAV1234@@Z
_TEXT	SEGMENT
__Arg$ = 8						; size = 4
??$forward@ABQAVBucket@agent@monitoring@ibmras@@@std@@YAABQAVBucket@agent@monitoring@ibmras@@ABQAV1234@@Z PROC ; std::forward<ibmras::monitoring::agent::Bucket * const &>, COMDAT
; File c:\program files (x86)\microsoft visual studio 10.0\vc\include\utility
; Line 78
	push	ebp
	mov	ebp, esp
; Line 79
	mov	eax, DWORD PTR __Arg$[ebp]
; Line 80
	pop	ebp
	ret	0
??$forward@ABQAVBucket@agent@monitoring@ibmras@@@std@@YAABQAVBucket@agent@monitoring@ibmras@@ABQAV1234@@Z ENDP ; std::forward<ibmras::monitoring::agent::Bucket * const &>
_TEXT	ENDS
PUBLIC	??3@YAXPAX0@Z					; operator delete
PUBLIC	??2@YAPAXIPAX@Z					; operator new
;	COMDAT xdata$x
; File c:\program files (x86)\microsoft visual studio 10.0\vc\include\xmemory
xdata$x	SEGMENT
__unwindtable$??$_Construct@PAVBucket@agent@monitoring@ibmras@@ABQAV1234@@std@@YAXPAPAVBucket@agent@monitoring@ibmras@@ABQAV1234@@Z DD 0ffffffffH
	DD	FLAT:__unwindfunclet$??$_Construct@PAVBucket@agent@monitoring@ibmras@@ABQAV1234@@std@@YAXPAPAVBucket@agent@monitoring@ibmras@@ABQAV1234@@Z$0
__ehfuncinfo$??$_Construct@PAVBucket@agent@monitoring@ibmras@@ABQAV1234@@std@@YAXPAPAVBucket@agent@monitoring@ibmras@@ABQAV1234@@Z DD 019930522H
	DD	01H
	DD	FLAT:__unwindtable$??$_Construct@PAVBucket@agent@monitoring@ibmras@@ABQAV1234@@std@@YAXPAPAVBucket@agent@monitoring@ibmras@@ABQAV1234@@Z
	DD	2 DUP(00H)
	DD	2 DUP(00H)
	DD	00H
	DD	01H
; Function compile flags: /Odtp
xdata$x	ENDS
;	COMDAT ??$_Construct@PAVBucket@agent@monitoring@ibmras@@ABQAV1234@@std@@YAXPAPAVBucket@agent@monitoring@ibmras@@ABQAV1234@@Z
_TEXT	SEGMENT
tv73 = -28						; size = 4
$T104620 = -24						; size = 4
$T104619 = -20						; size = 4
__Vptr$ = -16						; size = 4
__$EHRec$ = -12						; size = 12
__Ptr$ = 8						; size = 4
__Val$ = 12						; size = 4
??$_Construct@PAVBucket@agent@monitoring@ibmras@@ABQAV1234@@std@@YAXPAPAVBucket@agent@monitoring@ibmras@@ABQAV1234@@Z PROC ; std::_Construct<ibmras::monitoring::agent::Bucket *,ibmras::monitoring::agent::Bucket * const &>, COMDAT
; Line 46
	push	ebp
	mov	ebp, esp
	push	-1
	push	__ehhandler$??$_Construct@PAVBucket@agent@monitoring@ibmras@@ABQAV1234@@std@@YAXPAPAVBucket@agent@monitoring@ibmras@@ABQAV1234@@Z
	mov	eax, DWORD PTR fs:0
	push	eax
	sub	esp, 16					; 00000010H
	mov	eax, DWORD PTR ___security_cookie
	xor	eax, ebp
	push	eax
	lea	eax, DWORD PTR __$EHRec$[ebp]
	mov	DWORD PTR fs:0, eax
; Line 47
	mov	eax, DWORD PTR __Ptr$[ebp]
	mov	DWORD PTR __Vptr$[ebp], eax
; Line 48
	mov	ecx, DWORD PTR __Vptr$[ebp]
	push	ecx
	push	4
	call	??2@YAPAXIPAX@Z				; operator new
	add	esp, 8
	mov	DWORD PTR $T104620[ebp], eax
	mov	DWORD PTR __$EHRec$[ebp+8], 0
	cmp	DWORD PTR $T104620[ebp], 0
	je	SHORT $LN3@Construct
	mov	edx, DWORD PTR __Val$[ebp]
	push	edx
	call	??$forward@ABQAVBucket@agent@monitoring@ibmras@@@std@@YAABQAVBucket@agent@monitoring@ibmras@@ABQAV1234@@Z ; std::forward<ibmras::monitoring::agent::Bucket * const &>
	add	esp, 4
	mov	ecx, DWORD PTR $T104620[ebp]
	mov	edx, DWORD PTR [eax]
	mov	DWORD PTR [ecx], edx
	mov	eax, DWORD PTR $T104620[ebp]
	mov	DWORD PTR tv73[ebp], eax
	jmp	SHORT $LN4@Construct
$LN3@Construct:
	mov	DWORD PTR tv73[ebp], 0
$LN4@Construct:
	mov	ecx, DWORD PTR tv73[ebp]
	mov	DWORD PTR $T104619[ebp], ecx
	mov	DWORD PTR __$EHRec$[ebp+8], -1
; Line 49
	mov	ecx, DWORD PTR __$EHRec$[ebp]
	mov	DWORD PTR fs:0, ecx
	pop	ecx
	mov	esp, ebp
	pop	ebp
	ret	0
_TEXT	ENDS
;	COMDAT text$x
text$x	SEGMENT
__unwindfunclet$??$_Construct@PAVBucket@agent@monitoring@ibmras@@ABQAV1234@@std@@YAXPAPAVBucket@agent@monitoring@ibmras@@ABQAV1234@@Z$0:
	mov	eax, DWORD PTR __Vptr$[ebp]
	push	eax
	mov	ecx, DWORD PTR $T104620[ebp]
	push	ecx
	call	??3@YAXPAX0@Z				; operator delete
	add	esp, 8
	ret	0
__ehhandler$??$_Construct@PAVBucket@agent@monitoring@ibmras@@ABQAV1234@@std@@YAXPAPAVBucket@agent@monitoring@ibmras@@ABQAV1234@@Z:
	mov	edx, DWORD PTR [esp+8]
	lea	eax, DWORD PTR [edx+12]
	mov	ecx, DWORD PTR [edx-20]
	xor	ecx, eax
	call	@__security_check_cookie@4
	mov	eax, OFFSET __ehfuncinfo$??$_Construct@PAVBucket@agent@monitoring@ibmras@@ABQAV1234@@std@@YAXPAPAVBucket@agent@monitoring@ibmras@@ABQAV1234@@Z
	jmp	___CxxFrameHandler3
text$x	ENDS
??$_Construct@PAVBucket@agent@monitoring@ibmras@@ABQAV1234@@std@@YAXPAPAVBucket@agent@monitoring@ibmras@@ABQAV1234@@Z ENDP ; std::_Construct<ibmras::monitoring::agent::Bucket *,ibmras::monitoring::agent::Bucket * const &>
; Function compile flags: /Odtp
;	COMDAT ??2@YAPAXIPAX@Z
_TEXT	SEGMENT
___formal$ = 8						; size = 4
__Where$ = 12						; size = 4
??2@YAPAXIPAX@Z PROC					; operator new, COMDAT
; File c:\program files (x86)\microsoft visual studio 10.0\vc\include\new
; Line 56
	push	ebp
	mov	ebp, esp
; Line 57
	mov	eax, DWORD PTR __Where$[ebp]
; Line 58
	pop	ebp
	ret	0
??2@YAPAXIPAX@Z ENDP					; operator new
; Function compile flags: /Odtp
_TEXT	ENDS
;	COMDAT ??3@YAXPAX0@Z
_TEXT	SEGMENT
___formal$ = 8						; size = 4
___formal$ = 12						; size = 4
??3@YAXPAX0@Z PROC					; operator delete, COMDAT
; Line 61
	push	ebp
	mov	ebp, esp
; Line 62
	pop	ebp
	ret	0
??3@YAXPAX0@Z ENDP					; operator delete
; Function compile flags: /Odtp
_TEXT	ENDS
;	COMDAT ??$_Destroy@PAVBucket@agent@monitoring@ibmras@@@std@@YAXPAPAVBucket@agent@monitoring@ibmras@@@Z
_TEXT	SEGMENT
__Ptr$ = 8						; size = 4
??$_Destroy@PAVBucket@agent@monitoring@ibmras@@@std@@YAXPAPAVBucket@agent@monitoring@ibmras@@@Z PROC ; std::_Destroy<ibmras::monitoring::agent::Bucket *>, COMDAT
; File c:\program files (x86)\microsoft visual studio 10.0\vc\include\xmemory
; Line 62
	push	ebp
	mov	ebp, esp
; Line 64
	pop	ebp
	ret	0
??$_Destroy@PAVBucket@agent@monitoring@ibmras@@@std@@YAXPAPAVBucket@agent@monitoring@ibmras@@@Z ENDP ; std::_Destroy<ibmras::monitoring::agent::Bucket *>
_TEXT	ENDS
END
