; Listing generated by Microsoft (R) Optimizing Compiler Version 16.00.40219.01 

	TITLE	C:\workspaces\newagent2\runtime.tools\src\ibmras\monitoring\plugins\jni\locking\LockingDataProvider.cpp
	.686P
	.XMM
	include listing.inc
	.model	flat

INCLUDELIB MSVCRT
INCLUDELIB OLDNAMES

PUBLIC	?value@?$integral_constant@_N$0A@@tr1@std@@2_NB	; std::tr1::integral_constant<bool,0>::value
PUBLIC	?value@?$integral_constant@_N$00@tr1@std@@2_NB	; std::tr1::integral_constant<bool,1>::value
PUBLIC	?value@?$integral_constant@I$0A@@tr1@std@@2IB	; std::tr1::integral_constant<unsigned int,0>::value
PUBLIC	?_Rank@?$_Arithmetic_traits@_N@std@@2HB		; std::_Arithmetic_traits<bool>::_Rank
PUBLIC	?_Rank@?$_Arithmetic_traits@D@std@@2HB		; std::_Arithmetic_traits<char>::_Rank
PUBLIC	?_Rank@?$_Arithmetic_traits@C@std@@2HB		; std::_Arithmetic_traits<signed char>::_Rank
PUBLIC	?_Rank@?$_Arithmetic_traits@E@std@@2HB		; std::_Arithmetic_traits<unsigned char>::_Rank
PUBLIC	?_Rank@?$_Arithmetic_traits@F@std@@2HB		; std::_Arithmetic_traits<short>::_Rank
PUBLIC	?_Rank@?$_Arithmetic_traits@G@std@@2HB		; std::_Arithmetic_traits<unsigned short>::_Rank
PUBLIC	?_Rank@?$_Arithmetic_traits@H@std@@2HB		; std::_Arithmetic_traits<int>::_Rank
PUBLIC	?_Rank@?$_Arithmetic_traits@I@std@@2HB		; std::_Arithmetic_traits<unsigned int>::_Rank
PUBLIC	?_Rank@?$_Arithmetic_traits@J@std@@2HB		; std::_Arithmetic_traits<long>::_Rank
PUBLIC	?_Rank@?$_Arithmetic_traits@K@std@@2HB		; std::_Arithmetic_traits<unsigned long>::_Rank
PUBLIC	?_Rank@?$_Arithmetic_traits@_J@std@@2HB		; std::_Arithmetic_traits<__int64>::_Rank
PUBLIC	?_Rank@?$_Arithmetic_traits@_K@std@@2HB		; std::_Arithmetic_traits<unsigned __int64>::_Rank
PUBLIC	?_Rank@?$_Arithmetic_traits@M@std@@2HB		; std::_Arithmetic_traits<float>::_Rank
PUBLIC	?_Rank@?$_Arithmetic_traits@N@std@@2HB		; std::_Arithmetic_traits<double>::_Rank
PUBLIC	?_Rank@?$_Arithmetic_traits@O@std@@2HB		; std::_Arithmetic_traits<long double>::_Rank
PUBLIC	?collate@?$_Locbase@H@std@@2HB			; std::_Locbase<int>::collate
PUBLIC	?ctype@?$_Locbase@H@std@@2HB			; std::_Locbase<int>::ctype
PUBLIC	?monetary@?$_Locbase@H@std@@2HB			; std::_Locbase<int>::monetary
PUBLIC	?numeric@?$_Locbase@H@std@@2HB			; std::_Locbase<int>::numeric
PUBLIC	?time@?$_Locbase@H@std@@2HB			; std::_Locbase<int>::time
PUBLIC	?messages@?$_Locbase@H@std@@2HB			; std::_Locbase<int>::messages
PUBLIC	?all@?$_Locbase@H@std@@2HB			; std::_Locbase<int>::all
PUBLIC	?none@?$_Locbase@H@std@@2HB			; std::_Locbase<int>::none
PUBLIC	?skipws@?$_Iosb@H@std@@2W4_Fmtflags@12@B	; std::_Iosb<int>::skipws
PUBLIC	?unitbuf@?$_Iosb@H@std@@2W4_Fmtflags@12@B	; std::_Iosb<int>::unitbuf
PUBLIC	?uppercase@?$_Iosb@H@std@@2W4_Fmtflags@12@B	; std::_Iosb<int>::uppercase
PUBLIC	?showbase@?$_Iosb@H@std@@2W4_Fmtflags@12@B	; std::_Iosb<int>::showbase
PUBLIC	?showpoint@?$_Iosb@H@std@@2W4_Fmtflags@12@B	; std::_Iosb<int>::showpoint
PUBLIC	?showpos@?$_Iosb@H@std@@2W4_Fmtflags@12@B	; std::_Iosb<int>::showpos
PUBLIC	?left@?$_Iosb@H@std@@2W4_Fmtflags@12@B		; std::_Iosb<int>::left
PUBLIC	?right@?$_Iosb@H@std@@2W4_Fmtflags@12@B		; std::_Iosb<int>::right
PUBLIC	?internal@?$_Iosb@H@std@@2W4_Fmtflags@12@B	; std::_Iosb<int>::internal
PUBLIC	?dec@?$_Iosb@H@std@@2W4_Fmtflags@12@B		; std::_Iosb<int>::dec
PUBLIC	?oct@?$_Iosb@H@std@@2W4_Fmtflags@12@B		; std::_Iosb<int>::oct
PUBLIC	?hex@?$_Iosb@H@std@@2W4_Fmtflags@12@B		; std::_Iosb<int>::hex
PUBLIC	?scientific@?$_Iosb@H@std@@2W4_Fmtflags@12@B	; std::_Iosb<int>::scientific
PUBLIC	?fixed@?$_Iosb@H@std@@2W4_Fmtflags@12@B		; std::_Iosb<int>::fixed
PUBLIC	?hexfloat@?$_Iosb@H@std@@2W4_Fmtflags@12@B	; std::_Iosb<int>::hexfloat
PUBLIC	?boolalpha@?$_Iosb@H@std@@2W4_Fmtflags@12@B	; std::_Iosb<int>::boolalpha
PUBLIC	?_Stdio@?$_Iosb@H@std@@2W4_Fmtflags@12@B	; std::_Iosb<int>::_Stdio
PUBLIC	?adjustfield@?$_Iosb@H@std@@2W4_Fmtflags@12@B	; std::_Iosb<int>::adjustfield
PUBLIC	?basefield@?$_Iosb@H@std@@2W4_Fmtflags@12@B	; std::_Iosb<int>::basefield
PUBLIC	?floatfield@?$_Iosb@H@std@@2W4_Fmtflags@12@B	; std::_Iosb<int>::floatfield
PUBLIC	?goodbit@?$_Iosb@H@std@@2W4_Iostate@12@B	; std::_Iosb<int>::goodbit
PUBLIC	?eofbit@?$_Iosb@H@std@@2W4_Iostate@12@B		; std::_Iosb<int>::eofbit
PUBLIC	?failbit@?$_Iosb@H@std@@2W4_Iostate@12@B	; std::_Iosb<int>::failbit
PUBLIC	?badbit@?$_Iosb@H@std@@2W4_Iostate@12@B		; std::_Iosb<int>::badbit
PUBLIC	?_Hardfail@?$_Iosb@H@std@@2W4_Iostate@12@B	; std::_Iosb<int>::_Hardfail
PUBLIC	?in@?$_Iosb@H@std@@2W4_Openmode@12@B		; std::_Iosb<int>::in
PUBLIC	?out@?$_Iosb@H@std@@2W4_Openmode@12@B		; std::_Iosb<int>::out
PUBLIC	?ate@?$_Iosb@H@std@@2W4_Openmode@12@B		; std::_Iosb<int>::ate
PUBLIC	?app@?$_Iosb@H@std@@2W4_Openmode@12@B		; std::_Iosb<int>::app
PUBLIC	?trunc@?$_Iosb@H@std@@2W4_Openmode@12@B		; std::_Iosb<int>::trunc
PUBLIC	?_Nocreate@?$_Iosb@H@std@@2W4_Openmode@12@B	; std::_Iosb<int>::_Nocreate
PUBLIC	?_Noreplace@?$_Iosb@H@std@@2W4_Openmode@12@B	; std::_Iosb<int>::_Noreplace
PUBLIC	?binary@?$_Iosb@H@std@@2W4_Openmode@12@B	; std::_Iosb<int>::binary
PUBLIC	?beg@?$_Iosb@H@std@@2W4_Seekdir@12@B		; std::_Iosb<int>::beg
PUBLIC	?cur@?$_Iosb@H@std@@2W4_Seekdir@12@B		; std::_Iosb<int>::cur
PUBLIC	?end@?$_Iosb@H@std@@2W4_Seekdir@12@B		; std::_Iosb<int>::end
PUBLIC	?_EEM_DS@?$deque@VReceivedMessage@ConnectorManager@connector@monitoring@ibmras@@V?$allocator@VReceivedMessage@ConnectorManager@connector@monitoring@ibmras@@@std@@@std@@2HB ; std::deque<ibmras::monitoring::connector::ConnectorManager::ReceivedMessage,std::allocator<ibmras::monitoring::connector::ConnectorManager::ReceivedMessage> >::_EEM_DS
PUBLIC	?src@locking@jni@plugins@monitoring@ibmras@@3PAVJLAPullSource@12345@A ; ibmras::monitoring::plugins::jni::locking::src
PUBLIC	?enabled@locking@jni@plugins@monitoring@ibmras@@3_NA ; ibmras::monitoring::plugins::jni::locking::enabled
_BSS	SEGMENT
?src@locking@jni@plugins@monitoring@ibmras@@3PAVJLAPullSource@12345@A DD 01H DUP (?) ; ibmras::monitoring::plugins::jni::locking::src
_BSS	ENDS
_DATA	SEGMENT
?enabled@locking@jni@plugins@monitoring@ibmras@@3_NA DB 01H ; ibmras::monitoring::plugins::jni::locking::enabled
_DATA	ENDS
CONST	SEGMENT
$SG106240 DB	'DataProviderSources', 00H
$SG106292 DB	'on', 00H
	ORG $+1
$SG106299 DB	'Health Center (locking)', 00H
$SG106306 DB	'locking_subsystem=', 00H
	ORG $+1
$SG106308 DB	'on', 00H
	ORG $+1
$SG106310 DB	'off', 00H
$SG106313 DB	'configuration/locking', 00H
	ORG $+2
$SG106324 DB	'locking', 00H
$SG106325 DB	'Locking information', 00H
$SG106619 DB	',', 00H
	ORG $+2
$SG106620 DB	'reportTime,', 00H
$SG106654 DB	'> reportJLA', 00H
$SG106656 DB	'< reportJLA', 00H
$SG106685 DB	'%s, %5.0f, %8d, %8d, %8d, %8d, %8d, %8d, %5.0f, %8.0f,  '
	DB	'%s,', 00H
$SG106687 DB	'javaMonitor', 00H
$SG106689 DB	'systemMonitor', 00H
	ORG $+2
$SG106691 DB	'reportcomplete', 00H
	ORG $+1
$SG106701 DB	'> monitor_dump_event', 00H
	ORG $+3
$SG106726 DB	'IntervalTime, %I64d,', 00H
	ORG $+3
$SG106731 DB	'%d, %s', 00H
	ORG $+1
$SG106747 DB	'Stopping JLM, Java Monitor Count %d', 0aH, 00H
	ORG $+3
$SG106753 DB	'Stopping JLM, Raw Monitor Count %d', 0aH, 00H
$SG106756 DB	'Stopping JLM, Bad Data', 0aH, 00H
$SG106782 DB	'%d, %s', 00H
	ORG $+1
$SG106796 DB	'%d, %s', 00H
	ORG $+1
$SG106804 DB	'%s', 00H
	ORG $+1
$SG106806 DB	'%s', 00H
	ORG $+1
$SG106811 DB	'monitor_dump_event: cleanup', 00H
$SG106814 DB	'monitor_dump_event: returnReport', 00H
	ORG $+3
$SG106832 DB	'< monitor_dump_event', 00H
CONST	ENDS
;	COMDAT ?_EEM_DS@?$deque@VReceivedMessage@ConnectorManager@connector@monitoring@ibmras@@V?$allocator@VReceivedMessage@ConnectorManager@connector@monitoring@ibmras@@@std@@@std@@2HB
CONST	SEGMENT
?_EEM_DS@?$deque@VReceivedMessage@ConnectorManager@connector@monitoring@ibmras@@V?$allocator@VReceivedMessage@ConnectorManager@connector@monitoring@ibmras@@@std@@@std@@2HB DD 01H ; std::deque<ibmras::monitoring::connector::ConnectorManager::ReceivedMessage,std::allocator<ibmras::monitoring::connector::ConnectorManager::ReceivedMessage> >::_EEM_DS
CONST	ENDS
;	COMDAT ?end@?$_Iosb@H@std@@2W4_Seekdir@12@B
CONST	SEGMENT
?end@?$_Iosb@H@std@@2W4_Seekdir@12@B DD 02H		; std::_Iosb<int>::end
CONST	ENDS
;	COMDAT ?cur@?$_Iosb@H@std@@2W4_Seekdir@12@B
CONST	SEGMENT
?cur@?$_Iosb@H@std@@2W4_Seekdir@12@B DD 01H		; std::_Iosb<int>::cur
CONST	ENDS
;	COMDAT ?beg@?$_Iosb@H@std@@2W4_Seekdir@12@B
CONST	SEGMENT
?beg@?$_Iosb@H@std@@2W4_Seekdir@12@B DD 00H		; std::_Iosb<int>::beg
CONST	ENDS
;	COMDAT ?binary@?$_Iosb@H@std@@2W4_Openmode@12@B
CONST	SEGMENT
?binary@?$_Iosb@H@std@@2W4_Openmode@12@B DD 020H	; std::_Iosb<int>::binary
CONST	ENDS
;	COMDAT ?_Noreplace@?$_Iosb@H@std@@2W4_Openmode@12@B
CONST	SEGMENT
?_Noreplace@?$_Iosb@H@std@@2W4_Openmode@12@B DD 080H	; std::_Iosb<int>::_Noreplace
CONST	ENDS
;	COMDAT ?_Nocreate@?$_Iosb@H@std@@2W4_Openmode@12@B
CONST	SEGMENT
?_Nocreate@?$_Iosb@H@std@@2W4_Openmode@12@B DD 040H	; std::_Iosb<int>::_Nocreate
CONST	ENDS
;	COMDAT ?trunc@?$_Iosb@H@std@@2W4_Openmode@12@B
CONST	SEGMENT
?trunc@?$_Iosb@H@std@@2W4_Openmode@12@B DD 010H		; std::_Iosb<int>::trunc
CONST	ENDS
;	COMDAT ?app@?$_Iosb@H@std@@2W4_Openmode@12@B
CONST	SEGMENT
?app@?$_Iosb@H@std@@2W4_Openmode@12@B DD 08H		; std::_Iosb<int>::app
CONST	ENDS
;	COMDAT ?ate@?$_Iosb@H@std@@2W4_Openmode@12@B
CONST	SEGMENT
?ate@?$_Iosb@H@std@@2W4_Openmode@12@B DD 04H		; std::_Iosb<int>::ate
CONST	ENDS
;	COMDAT ?out@?$_Iosb@H@std@@2W4_Openmode@12@B
CONST	SEGMENT
?out@?$_Iosb@H@std@@2W4_Openmode@12@B DD 02H		; std::_Iosb<int>::out
CONST	ENDS
;	COMDAT ?in@?$_Iosb@H@std@@2W4_Openmode@12@B
CONST	SEGMENT
?in@?$_Iosb@H@std@@2W4_Openmode@12@B DD 01H		; std::_Iosb<int>::in
CONST	ENDS
;	COMDAT ?_Hardfail@?$_Iosb@H@std@@2W4_Iostate@12@B
CONST	SEGMENT
?_Hardfail@?$_Iosb@H@std@@2W4_Iostate@12@B DD 010H	; std::_Iosb<int>::_Hardfail
CONST	ENDS
;	COMDAT ?badbit@?$_Iosb@H@std@@2W4_Iostate@12@B
CONST	SEGMENT
?badbit@?$_Iosb@H@std@@2W4_Iostate@12@B DD 04H		; std::_Iosb<int>::badbit
CONST	ENDS
;	COMDAT ?failbit@?$_Iosb@H@std@@2W4_Iostate@12@B
CONST	SEGMENT
?failbit@?$_Iosb@H@std@@2W4_Iostate@12@B DD 02H		; std::_Iosb<int>::failbit
CONST	ENDS
;	COMDAT ?eofbit@?$_Iosb@H@std@@2W4_Iostate@12@B
CONST	SEGMENT
?eofbit@?$_Iosb@H@std@@2W4_Iostate@12@B DD 01H		; std::_Iosb<int>::eofbit
CONST	ENDS
;	COMDAT ?goodbit@?$_Iosb@H@std@@2W4_Iostate@12@B
CONST	SEGMENT
?goodbit@?$_Iosb@H@std@@2W4_Iostate@12@B DD 00H		; std::_Iosb<int>::goodbit
CONST	ENDS
;	COMDAT ?floatfield@?$_Iosb@H@std@@2W4_Fmtflags@12@B
CONST	SEGMENT
?floatfield@?$_Iosb@H@std@@2W4_Fmtflags@12@B DD 03000H	; std::_Iosb<int>::floatfield
CONST	ENDS
;	COMDAT ?basefield@?$_Iosb@H@std@@2W4_Fmtflags@12@B
CONST	SEGMENT
?basefield@?$_Iosb@H@std@@2W4_Fmtflags@12@B DD 0e00H	; std::_Iosb<int>::basefield
CONST	ENDS
;	COMDAT ?adjustfield@?$_Iosb@H@std@@2W4_Fmtflags@12@B
CONST	SEGMENT
?adjustfield@?$_Iosb@H@std@@2W4_Fmtflags@12@B DD 01c0H	; std::_Iosb<int>::adjustfield
CONST	ENDS
;	COMDAT ?_Stdio@?$_Iosb@H@std@@2W4_Fmtflags@12@B
CONST	SEGMENT
?_Stdio@?$_Iosb@H@std@@2W4_Fmtflags@12@B DD 08000H	; std::_Iosb<int>::_Stdio
CONST	ENDS
;	COMDAT ?boolalpha@?$_Iosb@H@std@@2W4_Fmtflags@12@B
CONST	SEGMENT
?boolalpha@?$_Iosb@H@std@@2W4_Fmtflags@12@B DD 04000H	; std::_Iosb<int>::boolalpha
CONST	ENDS
;	COMDAT ?hexfloat@?$_Iosb@H@std@@2W4_Fmtflags@12@B
CONST	SEGMENT
?hexfloat@?$_Iosb@H@std@@2W4_Fmtflags@12@B DD 03000H	; std::_Iosb<int>::hexfloat
CONST	ENDS
;	COMDAT ?fixed@?$_Iosb@H@std@@2W4_Fmtflags@12@B
CONST	SEGMENT
?fixed@?$_Iosb@H@std@@2W4_Fmtflags@12@B DD 02000H	; std::_Iosb<int>::fixed
CONST	ENDS
;	COMDAT ?scientific@?$_Iosb@H@std@@2W4_Fmtflags@12@B
CONST	SEGMENT
?scientific@?$_Iosb@H@std@@2W4_Fmtflags@12@B DD 01000H	; std::_Iosb<int>::scientific
CONST	ENDS
;	COMDAT ?hex@?$_Iosb@H@std@@2W4_Fmtflags@12@B
CONST	SEGMENT
?hex@?$_Iosb@H@std@@2W4_Fmtflags@12@B DD 0800H		; std::_Iosb<int>::hex
CONST	ENDS
;	COMDAT ?oct@?$_Iosb@H@std@@2W4_Fmtflags@12@B
CONST	SEGMENT
?oct@?$_Iosb@H@std@@2W4_Fmtflags@12@B DD 0400H		; std::_Iosb<int>::oct
CONST	ENDS
;	COMDAT ?dec@?$_Iosb@H@std@@2W4_Fmtflags@12@B
CONST	SEGMENT
?dec@?$_Iosb@H@std@@2W4_Fmtflags@12@B DD 0200H		; std::_Iosb<int>::dec
CONST	ENDS
;	COMDAT ?internal@?$_Iosb@H@std@@2W4_Fmtflags@12@B
CONST	SEGMENT
?internal@?$_Iosb@H@std@@2W4_Fmtflags@12@B DD 0100H	; std::_Iosb<int>::internal
CONST	ENDS
;	COMDAT ?right@?$_Iosb@H@std@@2W4_Fmtflags@12@B
CONST	SEGMENT
?right@?$_Iosb@H@std@@2W4_Fmtflags@12@B DD 080H		; std::_Iosb<int>::right
CONST	ENDS
;	COMDAT ?left@?$_Iosb@H@std@@2W4_Fmtflags@12@B
CONST	SEGMENT
?left@?$_Iosb@H@std@@2W4_Fmtflags@12@B DD 040H		; std::_Iosb<int>::left
CONST	ENDS
;	COMDAT ?showpos@?$_Iosb@H@std@@2W4_Fmtflags@12@B
CONST	SEGMENT
?showpos@?$_Iosb@H@std@@2W4_Fmtflags@12@B DD 020H	; std::_Iosb<int>::showpos
CONST	ENDS
;	COMDAT ?showpoint@?$_Iosb@H@std@@2W4_Fmtflags@12@B
CONST	SEGMENT
?showpoint@?$_Iosb@H@std@@2W4_Fmtflags@12@B DD 010H	; std::_Iosb<int>::showpoint
CONST	ENDS
;	COMDAT ?showbase@?$_Iosb@H@std@@2W4_Fmtflags@12@B
CONST	SEGMENT
?showbase@?$_Iosb@H@std@@2W4_Fmtflags@12@B DD 08H	; std::_Iosb<int>::showbase
CONST	ENDS
;	COMDAT ?uppercase@?$_Iosb@H@std@@2W4_Fmtflags@12@B
CONST	SEGMENT
?uppercase@?$_Iosb@H@std@@2W4_Fmtflags@12@B DD 04H	; std::_Iosb<int>::uppercase
CONST	ENDS
;	COMDAT ?unitbuf@?$_Iosb@H@std@@2W4_Fmtflags@12@B
CONST	SEGMENT
?unitbuf@?$_Iosb@H@std@@2W4_Fmtflags@12@B DD 02H	; std::_Iosb<int>::unitbuf
CONST	ENDS
;	COMDAT ?skipws@?$_Iosb@H@std@@2W4_Fmtflags@12@B
CONST	SEGMENT
?skipws@?$_Iosb@H@std@@2W4_Fmtflags@12@B DD 01H		; std::_Iosb<int>::skipws
CONST	ENDS
;	COMDAT ?none@?$_Locbase@H@std@@2HB
CONST	SEGMENT
?none@?$_Locbase@H@std@@2HB DD 00H			; std::_Locbase<int>::none
CONST	ENDS
;	COMDAT ?all@?$_Locbase@H@std@@2HB
CONST	SEGMENT
?all@?$_Locbase@H@std@@2HB DD 03fH			; std::_Locbase<int>::all
CONST	ENDS
;	COMDAT ?messages@?$_Locbase@H@std@@2HB
CONST	SEGMENT
?messages@?$_Locbase@H@std@@2HB DD 020H			; std::_Locbase<int>::messages
CONST	ENDS
;	COMDAT ?time@?$_Locbase@H@std@@2HB
CONST	SEGMENT
?time@?$_Locbase@H@std@@2HB DD 010H			; std::_Locbase<int>::time
CONST	ENDS
;	COMDAT ?numeric@?$_Locbase@H@std@@2HB
CONST	SEGMENT
?numeric@?$_Locbase@H@std@@2HB DD 08H			; std::_Locbase<int>::numeric
CONST	ENDS
;	COMDAT ?monetary@?$_Locbase@H@std@@2HB
CONST	SEGMENT
?monetary@?$_Locbase@H@std@@2HB DD 04H			; std::_Locbase<int>::monetary
CONST	ENDS
;	COMDAT ?ctype@?$_Locbase@H@std@@2HB
CONST	SEGMENT
?ctype@?$_Locbase@H@std@@2HB DD 02H			; std::_Locbase<int>::ctype
CONST	ENDS
;	COMDAT ?collate@?$_Locbase@H@std@@2HB
CONST	SEGMENT
?collate@?$_Locbase@H@std@@2HB DD 01H			; std::_Locbase<int>::collate
CONST	ENDS
;	COMDAT ?_Rank@?$_Arithmetic_traits@O@std@@2HB
CONST	SEGMENT
?_Rank@?$_Arithmetic_traits@O@std@@2HB DD 09H		; std::_Arithmetic_traits<long double>::_Rank
CONST	ENDS
;	COMDAT ?_Rank@?$_Arithmetic_traits@N@std@@2HB
CONST	SEGMENT
?_Rank@?$_Arithmetic_traits@N@std@@2HB DD 08H		; std::_Arithmetic_traits<double>::_Rank
CONST	ENDS
;	COMDAT ?_Rank@?$_Arithmetic_traits@M@std@@2HB
CONST	SEGMENT
?_Rank@?$_Arithmetic_traits@M@std@@2HB DD 07H		; std::_Arithmetic_traits<float>::_Rank
CONST	ENDS
;	COMDAT ?_Rank@?$_Arithmetic_traits@_K@std@@2HB
CONST	SEGMENT
?_Rank@?$_Arithmetic_traits@_K@std@@2HB DD 06H		; std::_Arithmetic_traits<unsigned __int64>::_Rank
CONST	ENDS
;	COMDAT ?_Rank@?$_Arithmetic_traits@_J@std@@2HB
CONST	SEGMENT
?_Rank@?$_Arithmetic_traits@_J@std@@2HB DD 06H		; std::_Arithmetic_traits<__int64>::_Rank
CONST	ENDS
;	COMDAT ?_Rank@?$_Arithmetic_traits@K@std@@2HB
CONST	SEGMENT
?_Rank@?$_Arithmetic_traits@K@std@@2HB DD 05H		; std::_Arithmetic_traits<unsigned long>::_Rank
CONST	ENDS
;	COMDAT ?_Rank@?$_Arithmetic_traits@J@std@@2HB
CONST	SEGMENT
?_Rank@?$_Arithmetic_traits@J@std@@2HB DD 05H		; std::_Arithmetic_traits<long>::_Rank
CONST	ENDS
;	COMDAT ?_Rank@?$_Arithmetic_traits@I@std@@2HB
CONST	SEGMENT
?_Rank@?$_Arithmetic_traits@I@std@@2HB DD 04H		; std::_Arithmetic_traits<unsigned int>::_Rank
CONST	ENDS
;	COMDAT ?_Rank@?$_Arithmetic_traits@H@std@@2HB
CONST	SEGMENT
?_Rank@?$_Arithmetic_traits@H@std@@2HB DD 04H		; std::_Arithmetic_traits<int>::_Rank
CONST	ENDS
;	COMDAT ?_Rank@?$_Arithmetic_traits@G@std@@2HB
CONST	SEGMENT
?_Rank@?$_Arithmetic_traits@G@std@@2HB DD 03H		; std::_Arithmetic_traits<unsigned short>::_Rank
CONST	ENDS
;	COMDAT ?_Rank@?$_Arithmetic_traits@F@std@@2HB
CONST	SEGMENT
?_Rank@?$_Arithmetic_traits@F@std@@2HB DD 03H		; std::_Arithmetic_traits<short>::_Rank
CONST	ENDS
;	COMDAT ?_Rank@?$_Arithmetic_traits@E@std@@2HB
CONST	SEGMENT
?_Rank@?$_Arithmetic_traits@E@std@@2HB DD 02H		; std::_Arithmetic_traits<unsigned char>::_Rank
CONST	ENDS
;	COMDAT ?_Rank@?$_Arithmetic_traits@C@std@@2HB
CONST	SEGMENT
?_Rank@?$_Arithmetic_traits@C@std@@2HB DD 02H		; std::_Arithmetic_traits<signed char>::_Rank
CONST	ENDS
;	COMDAT ?_Rank@?$_Arithmetic_traits@D@std@@2HB
CONST	SEGMENT
?_Rank@?$_Arithmetic_traits@D@std@@2HB DD 02H		; std::_Arithmetic_traits<char>::_Rank
CONST	ENDS
;	COMDAT ?_Rank@?$_Arithmetic_traits@_N@std@@2HB
CONST	SEGMENT
?_Rank@?$_Arithmetic_traits@_N@std@@2HB DD 01H		; std::_Arithmetic_traits<bool>::_Rank
CONST	ENDS
;	COMDAT ?value@?$integral_constant@I$0A@@tr1@std@@2IB
CONST	SEGMENT
?value@?$integral_constant@I$0A@@tr1@std@@2IB DD 00H	; std::tr1::integral_constant<unsigned int,0>::value
CONST	ENDS
;	COMDAT ?value@?$integral_constant@_N$00@tr1@std@@2_NB
CONST	SEGMENT
?value@?$integral_constant@_N$00@tr1@std@@2_NB DB 01H	; std::tr1::integral_constant<bool,1>::value
CONST	ENDS
;	COMDAT ?value@?$integral_constant@_N$0A@@tr1@std@@2_NB
CONST	SEGMENT
?value@?$integral_constant@_N$0A@@tr1@std@@2_NB DB 00H	; std::tr1::integral_constant<bool,0>::value
CONST	ENDS
PUBLIC	??4Lock@port@common@ibmras@@QAEAAV0123@ABV0123@@Z ; ibmras::common::port::Lock::operator=
; Function compile flags: /Odtp
;	COMDAT ??4Lock@port@common@ibmras@@QAEAAV0123@ABV0123@@Z
_TEXT	SEGMENT
_this$ = -4						; size = 4
___that$ = 8						; size = 4
??4Lock@port@common@ibmras@@QAEAAV0123@ABV0123@@Z PROC	; ibmras::common::port::Lock::operator=, COMDAT
; _this$ = ecx
	push	ebp
	mov	ebp, esp
	push	ecx
	mov	DWORD PTR _this$[ebp], ecx
	mov	eax, DWORD PTR ___that$[ebp]
	mov	ecx, DWORD PTR [eax]
	mov	edx, DWORD PTR _this$[ebp]
	mov	DWORD PTR [edx], ecx
	mov	eax, DWORD PTR _this$[ebp]
	mov	esp, ebp
	pop	ebp
	ret	4
??4Lock@port@common@ibmras@@QAEAAV0123@ABV0123@@Z ENDP	; ibmras::common::port::Lock::operator=
_TEXT	ENDS
PUBLIC	??0?$basic_string@DU?$char_traits@D@std@@V?$allocator@D@2@@std@@QAE@ABV01@@Z ; std::basic_string<char,std::char_traits<char>,std::allocator<char> >::basic_string<char,std::char_traits<char>,std::allocator<char> >
PUBLIC	??_7Logger@common@ibmras@@6B@			; ibmras::common::Logger::`vftable'
PUBLIC	??0Logger@common@ibmras@@QAE@ABV012@@Z		; ibmras::common::Logger::Logger
PUBLIC	??_R4Logger@common@ibmras@@6B@			; ibmras::common::Logger::`RTTI Complete Object Locator'
PUBLIC	??_R0?AVLogger@common@ibmras@@@8		; ibmras::common::Logger `RTTI Type Descriptor'
PUBLIC	??_R3Logger@common@ibmras@@8			; ibmras::common::Logger::`RTTI Class Hierarchy Descriptor'
PUBLIC	??_R2Logger@common@ibmras@@8			; ibmras::common::Logger::`RTTI Base Class Array'
PUBLIC	??_R1A@?0A@EA@Logger@common@ibmras@@8		; ibmras::common::Logger::`RTTI Base Class Descriptor at (0,-1,0,64)'
PUBLIC	??_ELogger@common@ibmras@@UAEPAXI@Z		; ibmras::common::Logger::`vector deleting destructor'
EXTRN	??_7type_info@@6B@:QWORD			; type_info::`vftable'
;	COMDAT ??_R1A@?0A@EA@Logger@common@ibmras@@8
rdata$r	SEGMENT
??_R1A@?0A@EA@Logger@common@ibmras@@8 DD FLAT:??_R0?AVLogger@common@ibmras@@@8 ; ibmras::common::Logger::`RTTI Base Class Descriptor at (0,-1,0,64)'
	DD	00H
	DD	00H
	DD	0ffffffffH
	DD	00H
	DD	040H
	DD	FLAT:??_R3Logger@common@ibmras@@8
rdata$r	ENDS
;	COMDAT ??_R2Logger@common@ibmras@@8
rdata$r	SEGMENT
??_R2Logger@common@ibmras@@8 DD FLAT:??_R1A@?0A@EA@Logger@common@ibmras@@8 ; ibmras::common::Logger::`RTTI Base Class Array'
rdata$r	ENDS
;	COMDAT ??_R3Logger@common@ibmras@@8
rdata$r	SEGMENT
??_R3Logger@common@ibmras@@8 DD 00H			; ibmras::common::Logger::`RTTI Class Hierarchy Descriptor'
	DD	00H
	DD	01H
	DD	FLAT:??_R2Logger@common@ibmras@@8
rdata$r	ENDS
;	COMDAT ??_R0?AVLogger@common@ibmras@@@8
_DATA	SEGMENT
??_R0?AVLogger@common@ibmras@@@8 DD FLAT:??_7type_info@@6B@ ; ibmras::common::Logger `RTTI Type Descriptor'
	DD	00H
	DB	'.?AVLogger@common@ibmras@@', 00H
_DATA	ENDS
;	COMDAT ??_R4Logger@common@ibmras@@6B@
rdata$r	SEGMENT
??_R4Logger@common@ibmras@@6B@ DD 00H			; ibmras::common::Logger::`RTTI Complete Object Locator'
	DD	00H
	DD	00H
	DD	FLAT:??_R0?AVLogger@common@ibmras@@@8
	DD	FLAT:??_R3Logger@common@ibmras@@8
rdata$r	ENDS
;	COMDAT ??_7Logger@common@ibmras@@6B@
CONST	SEGMENT
??_7Logger@common@ibmras@@6B@ DD FLAT:??_R4Logger@common@ibmras@@6B@ ; ibmras::common::Logger::`vftable'
	DD	FLAT:??_ELogger@common@ibmras@@UAEPAXI@Z
; Function compile flags: /Odtp
CONST	ENDS
;	COMDAT ??0Logger@common@ibmras@@QAE@ABV012@@Z
_TEXT	SEGMENT
_this$ = -4						; size = 4
___that$ = 8						; size = 4
??0Logger@common@ibmras@@QAE@ABV012@@Z PROC		; ibmras::common::Logger::Logger, COMDAT
; _this$ = ecx
	push	ebp
	mov	ebp, esp
	push	ecx
	mov	DWORD PTR _this$[ebp], ecx
	mov	eax, DWORD PTR _this$[ebp]
	mov	DWORD PTR [eax], OFFSET ??_7Logger@common@ibmras@@6B@
	mov	ecx, DWORD PTR _this$[ebp]
	mov	edx, DWORD PTR ___that$[ebp]
	mov	eax, DWORD PTR [edx+4]
	mov	DWORD PTR [ecx+4], eax
	mov	ecx, DWORD PTR _this$[ebp]
	mov	edx, DWORD PTR ___that$[ebp]
	mov	eax, DWORD PTR [edx+8]
	mov	DWORD PTR [ecx+8], eax
	mov	ecx, DWORD PTR ___that$[ebp]
	add	ecx, 12					; 0000000cH
	push	ecx
	mov	ecx, DWORD PTR _this$[ebp]
	add	ecx, 12					; 0000000cH
	call	??0?$basic_string@DU?$char_traits@D@std@@V?$allocator@D@2@@std@@QAE@ABV01@@Z ; std::basic_string<char,std::char_traits<char>,std::allocator<char> >::basic_string<char,std::char_traits<char>,std::allocator<char> >
	mov	edx, DWORD PTR _this$[ebp]
	mov	eax, DWORD PTR ___that$[ebp]
	mov	ecx, DWORD PTR [eax+40]
	mov	DWORD PTR [edx+40], ecx
	mov	eax, DWORD PTR _this$[ebp]
	mov	esp, ebp
	pop	ebp
	ret	4
??0Logger@common@ibmras@@QAE@ABV012@@Z ENDP		; ibmras::common::Logger::Logger
_TEXT	ENDS
PUBLIC	??4?$basic_string@DU?$char_traits@D@std@@V?$allocator@D@2@@std@@QAEAAV01@ABV01@@Z ; std::basic_string<char,std::char_traits<char>,std::allocator<char> >::operator=
PUBLIC	??4Logger@common@ibmras@@QAEAAV012@ABV012@@Z	; ibmras::common::Logger::operator=
; Function compile flags: /Odtp
;	COMDAT ??4Logger@common@ibmras@@QAEAAV012@ABV012@@Z
_TEXT	SEGMENT
_this$ = -4						; size = 4
___that$ = 8						; size = 4
??4Logger@common@ibmras@@QAEAAV012@ABV012@@Z PROC	; ibmras::common::Logger::operator=, COMDAT
; _this$ = ecx
	push	ebp
	mov	ebp, esp
	push	ecx
	mov	DWORD PTR _this$[ebp], ecx
	mov	eax, DWORD PTR _this$[ebp]
	mov	ecx, DWORD PTR ___that$[ebp]
	mov	edx, DWORD PTR [ecx+4]
	mov	DWORD PTR [eax+4], edx
	mov	eax, DWORD PTR _this$[ebp]
	mov	ecx, DWORD PTR ___that$[ebp]
	mov	edx, DWORD PTR [ecx+8]
	mov	DWORD PTR [eax+8], edx
	mov	eax, DWORD PTR ___that$[ebp]
	add	eax, 12					; 0000000cH
	push	eax
	mov	ecx, DWORD PTR _this$[ebp]
	add	ecx, 12					; 0000000cH
	call	??4?$basic_string@DU?$char_traits@D@std@@V?$allocator@D@2@@std@@QAEAAV01@ABV01@@Z ; std::basic_string<char,std::char_traits<char>,std::allocator<char> >::operator=
	mov	ecx, DWORD PTR _this$[ebp]
	mov	edx, DWORD PTR ___that$[ebp]
	mov	eax, DWORD PTR [edx+40]
	mov	DWORD PTR [ecx+40], eax
	mov	eax, DWORD PTR _this$[ebp]
	mov	esp, ebp
	pop	ebp
	ret	4
??4Logger@common@ibmras@@QAEAAV012@ABV012@@Z ENDP	; ibmras::common::Logger::operator=
_TEXT	ENDS
PUBLIC	??_GLogger@common@ibmras@@UAEPAXI@Z		; ibmras::common::Logger::`scalar deleting destructor'
EXTRN	??3@YAXPAX@Z:PROC				; operator delete
EXTRN	??1Logger@common@ibmras@@UAE@XZ:PROC		; ibmras::common::Logger::~Logger
; Function compile flags: /Odtp
;	COMDAT ??_GLogger@common@ibmras@@UAEPAXI@Z
_TEXT	SEGMENT
_this$ = -4						; size = 4
___flags$ = 8						; size = 4
??_GLogger@common@ibmras@@UAEPAXI@Z PROC		; ibmras::common::Logger::`scalar deleting destructor', COMDAT
; _this$ = ecx
	push	ebp
	mov	ebp, esp
	push	ecx
	mov	DWORD PTR _this$[ebp], ecx
	mov	ecx, DWORD PTR _this$[ebp]
	call	??1Logger@common@ibmras@@UAE@XZ		; ibmras::common::Logger::~Logger
	mov	eax, DWORD PTR ___flags$[ebp]
	and	eax, 1
	je	SHORT $LN1@scalar
	mov	ecx, DWORD PTR _this$[ebp]
	push	ecx
	call	??3@YAXPAX@Z				; operator delete
	add	esp, 4
$LN1@scalar:
	mov	eax, DWORD PTR _this$[ebp]
	mov	esp, ebp
	pop	ebp
	ret	4
??_GLogger@common@ibmras@@UAEPAXI@Z ENDP		; ibmras::common::Logger::`scalar deleting destructor'
_TEXT	ENDS
EXTRN	??_V@YAXPAX@Z:PROC				; operator delete[]
EXTRN	??_M@YGXPAXIHP6EX0@Z@Z:PROC			; `eh vector destructor iterator'
; Function compile flags: /Odtp
;	COMDAT ??_ELogger@common@ibmras@@UAEPAXI@Z
_TEXT	SEGMENT
_this$ = -4						; size = 4
___flags$ = 8						; size = 4
??_ELogger@common@ibmras@@UAEPAXI@Z PROC		; ibmras::common::Logger::`vector deleting destructor', COMDAT
; _this$ = ecx
	push	ebp
	mov	ebp, esp
	push	ecx
	mov	DWORD PTR _this$[ebp], ecx
	mov	eax, DWORD PTR ___flags$[ebp]
	and	eax, 2
	je	SHORT $LN3@vector
	push	OFFSET ??1Logger@common@ibmras@@UAE@XZ	; ibmras::common::Logger::~Logger
	mov	ecx, DWORD PTR _this$[ebp]
	mov	edx, DWORD PTR [ecx-4]
	push	edx
	push	44					; 0000002cH
	mov	eax, DWORD PTR _this$[ebp]
	push	eax
	call	??_M@YGXPAXIHP6EX0@Z@Z
	mov	ecx, DWORD PTR ___flags$[ebp]
	and	ecx, 1
	je	SHORT $LN2@vector
	mov	edx, DWORD PTR _this$[ebp]
	sub	edx, 4
	push	edx
	call	??_V@YAXPAX@Z				; operator delete[]
	add	esp, 4
$LN2@vector:
	mov	eax, DWORD PTR _this$[ebp]
	sub	eax, 4
	jmp	SHORT $LN4@vector
$LN3@vector:
	mov	ecx, DWORD PTR _this$[ebp]
	call	??1Logger@common@ibmras@@UAE@XZ		; ibmras::common::Logger::~Logger
	mov	eax, DWORD PTR ___flags$[ebp]
	and	eax, 1
	je	SHORT $LN1@vector
	mov	ecx, DWORD PTR _this$[ebp]
	push	ecx
	call	??3@YAXPAX@Z				; operator delete
	add	esp, 4
$LN1@vector:
	mov	eax, DWORD PTR _this$[ebp]
$LN4@vector:
	mov	esp, ebp
	pop	ebp
	ret	4
??_ELogger@common@ibmras@@UAEPAXI@Z ENDP		; ibmras::common::Logger::`vector deleting destructor'
_TEXT	ENDS
PUBLIC	??1?$vector@PAVLogger@common@ibmras@@V?$allocator@PAVLogger@common@ibmras@@@std@@@std@@QAE@XZ ; std::vector<ibmras::common::Logger *,std::allocator<ibmras::common::Logger *> >::~vector<ibmras::common::Logger *,std::allocator<ibmras::common::Logger *> >
PUBLIC	??1LogManager@common@ibmras@@QAE@XZ		; ibmras::common::LogManager::~LogManager
; Function compile flags: /Odtp
;	COMDAT ??1LogManager@common@ibmras@@QAE@XZ
_TEXT	SEGMENT
_this$ = -4						; size = 4
??1LogManager@common@ibmras@@QAE@XZ PROC		; ibmras::common::LogManager::~LogManager, COMDAT
; _this$ = ecx
	push	ebp
	mov	ebp, esp
	push	ecx
	mov	DWORD PTR _this$[ebp], ecx
	mov	ecx, DWORD PTR _this$[ebp]
	add	ecx, 8
	call	??1?$vector@PAVLogger@common@ibmras@@V?$allocator@PAVLogger@common@ibmras@@@std@@@std@@QAE@XZ ; std::vector<ibmras::common::Logger *,std::allocator<ibmras::common::Logger *> >::~vector<ibmras::common::Logger *,std::allocator<ibmras::common::Logger *> >
	mov	esp, ebp
	pop	ebp
	ret	0
??1LogManager@common@ibmras@@QAE@XZ ENDP		; ibmras::common::LogManager::~LogManager
_TEXT	ENDS
PUBLIC	??0?$vector@PAVLogger@common@ibmras@@V?$allocator@PAVLogger@common@ibmras@@@std@@@std@@QAE@ABV01@@Z ; std::vector<ibmras::common::Logger *,std::allocator<ibmras::common::Logger *> >::vector<ibmras::common::Logger *,std::allocator<ibmras::common::Logger *> >
PUBLIC	??0LogManager@common@ibmras@@QAE@ABV012@@Z	; ibmras::common::LogManager::LogManager
; Function compile flags: /Odtp
;	COMDAT ??0LogManager@common@ibmras@@QAE@ABV012@@Z
_TEXT	SEGMENT
_this$ = -4						; size = 4
___that$ = 8						; size = 4
??0LogManager@common@ibmras@@QAE@ABV012@@Z PROC		; ibmras::common::LogManager::LogManager, COMDAT
; _this$ = ecx
	push	ebp
	mov	ebp, esp
	push	ecx
	mov	DWORD PTR _this$[ebp], ecx
	mov	eax, DWORD PTR _this$[ebp]
	mov	ecx, DWORD PTR ___that$[ebp]
	mov	edx, DWORD PTR [ecx]
	mov	DWORD PTR [eax], edx
	mov	eax, DWORD PTR _this$[ebp]
	mov	ecx, DWORD PTR ___that$[ebp]
	mov	dl, BYTE PTR [ecx+4]
	mov	BYTE PTR [eax+4], dl
	mov	eax, DWORD PTR ___that$[ebp]
	add	eax, 8
	push	eax
	mov	ecx, DWORD PTR _this$[ebp]
	add	ecx, 8
	call	??0?$vector@PAVLogger@common@ibmras@@V?$allocator@PAVLogger@common@ibmras@@@std@@@std@@QAE@ABV01@@Z ; std::vector<ibmras::common::Logger *,std::allocator<ibmras::common::Logger *> >::vector<ibmras::common::Logger *,std::allocator<ibmras::common::Logger *> >
	mov	ecx, DWORD PTR _this$[ebp]
	mov	edx, DWORD PTR ___that$[ebp]
	mov	eax, DWORD PTR [edx+24]
	mov	DWORD PTR [ecx+24], eax
	mov	eax, DWORD PTR _this$[ebp]
	mov	esp, ebp
	pop	ebp
	ret	4
??0LogManager@common@ibmras@@QAE@ABV012@@Z ENDP		; ibmras::common::LogManager::LogManager
_TEXT	ENDS
PUBLIC	??4?$vector@PAVLogger@common@ibmras@@V?$allocator@PAVLogger@common@ibmras@@@std@@@std@@QAEAAV01@ABV01@@Z ; std::vector<ibmras::common::Logger *,std::allocator<ibmras::common::Logger *> >::operator=
PUBLIC	??4LogManager@common@ibmras@@QAEAAV012@ABV012@@Z ; ibmras::common::LogManager::operator=
; Function compile flags: /Odtp
;	COMDAT ??4LogManager@common@ibmras@@QAEAAV012@ABV012@@Z
_TEXT	SEGMENT
_this$ = -4						; size = 4
___that$ = 8						; size = 4
??4LogManager@common@ibmras@@QAEAAV012@ABV012@@Z PROC	; ibmras::common::LogManager::operator=, COMDAT
; _this$ = ecx
	push	ebp
	mov	ebp, esp
	push	ecx
	mov	DWORD PTR _this$[ebp], ecx
	mov	eax, DWORD PTR _this$[ebp]
	mov	ecx, DWORD PTR ___that$[ebp]
	mov	edx, DWORD PTR [ecx]
	mov	DWORD PTR [eax], edx
	mov	eax, DWORD PTR _this$[ebp]
	mov	ecx, DWORD PTR ___that$[ebp]
	mov	dl, BYTE PTR [ecx+4]
	mov	BYTE PTR [eax+4], dl
	mov	eax, DWORD PTR ___that$[ebp]
	add	eax, 8
	push	eax
	mov	ecx, DWORD PTR _this$[ebp]
	add	ecx, 8
	call	??4?$vector@PAVLogger@common@ibmras@@V?$allocator@PAVLogger@common@ibmras@@@std@@@std@@QAEAAV01@ABV01@@Z ; std::vector<ibmras::common::Logger *,std::allocator<ibmras::common::Logger *> >::operator=
	mov	ecx, DWORD PTR _this$[ebp]
	mov	edx, DWORD PTR ___that$[ebp]
	mov	eax, DWORD PTR [edx+24]
	mov	DWORD PTR [ecx+24], eax
	mov	eax, DWORD PTR _this$[ebp]
	mov	esp, ebp
	pop	ebp
	ret	4
??4LogManager@common@ibmras@@QAEAAV012@ABV012@@Z ENDP	; ibmras::common::LogManager::operator=
_TEXT	ENDS
PUBLIC	??1?$basic_string@DU?$char_traits@D@std@@V?$allocator@D@2@@std@@QAE@XZ ; std::basic_string<char,std::char_traits<char>,std::allocator<char> >::~basic_string<char,std::char_traits<char>,std::allocator<char> >
PUBLIC	??1Bucket@agent@monitoring@ibmras@@QAE@XZ	; ibmras::monitoring::agent::Bucket::~Bucket
; Function compile flags: /Odtp
;	COMDAT ??1Bucket@agent@monitoring@ibmras@@QAE@XZ
_TEXT	SEGMENT
_this$ = -4						; size = 4
??1Bucket@agent@monitoring@ibmras@@QAE@XZ PROC		; ibmras::monitoring::agent::Bucket::~Bucket, COMDAT
; _this$ = ecx
	push	ebp
	mov	ebp, esp
	push	ecx
	mov	DWORD PTR _this$[ebp], ecx
	mov	ecx, DWORD PTR _this$[ebp]
	add	ecx, 8
	call	??1?$basic_string@DU?$char_traits@D@std@@V?$allocator@D@2@@std@@QAE@XZ ; std::basic_string<char,std::char_traits<char>,std::allocator<char> >::~basic_string<char,std::char_traits<char>,std::allocator<char> >
	mov	esp, ebp
	pop	ebp
	ret	0
??1Bucket@agent@monitoring@ibmras@@QAE@XZ ENDP		; ibmras::monitoring::agent::Bucket::~Bucket
_TEXT	ENDS
PUBLIC	??0Bucket@agent@monitoring@ibmras@@QAE@ABV0123@@Z ; ibmras::monitoring::agent::Bucket::Bucket
; Function compile flags: /Odtp
;	COMDAT ??0Bucket@agent@monitoring@ibmras@@QAE@ABV0123@@Z
_TEXT	SEGMENT
_this$ = -4						; size = 4
___that$ = 8						; size = 4
??0Bucket@agent@monitoring@ibmras@@QAE@ABV0123@@Z PROC	; ibmras::monitoring::agent::Bucket::Bucket, COMDAT
; _this$ = ecx
	push	ebp
	mov	ebp, esp
	push	ecx
	mov	DWORD PTR _this$[ebp], ecx
	mov	eax, DWORD PTR _this$[ebp]
	mov	ecx, DWORD PTR ___that$[ebp]
	mov	edx, DWORD PTR [ecx]
	mov	DWORD PTR [eax], edx
	mov	eax, DWORD PTR _this$[ebp]
	mov	ecx, DWORD PTR ___that$[ebp]
	mov	edx, DWORD PTR [ecx+4]
	mov	DWORD PTR [eax+4], edx
	mov	eax, DWORD PTR ___that$[ebp]
	add	eax, 8
	push	eax
	mov	ecx, DWORD PTR _this$[ebp]
	add	ecx, 8
	call	??0?$basic_string@DU?$char_traits@D@std@@V?$allocator@D@2@@std@@QAE@ABV01@@Z ; std::basic_string<char,std::char_traits<char>,std::allocator<char> >::basic_string<char,std::char_traits<char>,std::allocator<char> >
	mov	ecx, DWORD PTR _this$[ebp]
	mov	edx, DWORD PTR ___that$[ebp]
	mov	eax, DWORD PTR [edx+36]
	mov	DWORD PTR [ecx+36], eax
	mov	ecx, DWORD PTR _this$[ebp]
	mov	edx, DWORD PTR ___that$[ebp]
	mov	eax, DWORD PTR [edx+40]
	mov	DWORD PTR [ecx+40], eax
	mov	ecx, DWORD PTR _this$[ebp]
	mov	edx, DWORD PTR ___that$[ebp]
	mov	eax, DWORD PTR [edx+44]
	mov	DWORD PTR [ecx+44], eax
	mov	ecx, DWORD PTR _this$[ebp]
	mov	edx, DWORD PTR ___that$[ebp]
	mov	eax, DWORD PTR [edx+48]
	mov	DWORD PTR [ecx+48], eax
	mov	ecx, DWORD PTR _this$[ebp]
	mov	edx, DWORD PTR ___that$[ebp]
	mov	eax, DWORD PTR [edx+52]
	mov	DWORD PTR [ecx+52], eax
	mov	ecx, DWORD PTR _this$[ebp]
	mov	edx, DWORD PTR ___that$[ebp]
	mov	eax, DWORD PTR [edx+56]
	mov	DWORD PTR [ecx+56], eax
	mov	ecx, DWORD PTR _this$[ebp]
	mov	edx, DWORD PTR ___that$[ebp]
	mov	eax, DWORD PTR [edx+60]
	mov	DWORD PTR [ecx+60], eax
	mov	ecx, DWORD PTR _this$[ebp]
	mov	edx, DWORD PTR ___that$[ebp]
	mov	eax, DWORD PTR [edx+64]
	mov	DWORD PTR [ecx+64], eax
	mov	ecx, DWORD PTR _this$[ebp]
	mov	edx, DWORD PTR ___that$[ebp]
	mov	eax, DWORD PTR [edx+68]
	mov	DWORD PTR [ecx+68], eax
	mov	eax, DWORD PTR _this$[ebp]
	mov	esp, ebp
	pop	ebp
	ret	4
??0Bucket@agent@monitoring@ibmras@@QAE@ABV0123@@Z ENDP	; ibmras::monitoring::agent::Bucket::Bucket
_TEXT	ENDS
PUBLIC	??4Bucket@agent@monitoring@ibmras@@QAEAAV0123@ABV0123@@Z ; ibmras::monitoring::agent::Bucket::operator=
; Function compile flags: /Odtp
;	COMDAT ??4Bucket@agent@monitoring@ibmras@@QAEAAV0123@ABV0123@@Z
_TEXT	SEGMENT
_this$ = -4						; size = 4
___that$ = 8						; size = 4
??4Bucket@agent@monitoring@ibmras@@QAEAAV0123@ABV0123@@Z PROC ; ibmras::monitoring::agent::Bucket::operator=, COMDAT
; _this$ = ecx
	push	ebp
	mov	ebp, esp
	push	ecx
	mov	DWORD PTR _this$[ebp], ecx
	mov	eax, DWORD PTR _this$[ebp]
	mov	ecx, DWORD PTR ___that$[ebp]
	mov	edx, DWORD PTR [ecx]
	mov	DWORD PTR [eax], edx
	mov	eax, DWORD PTR _this$[ebp]
	mov	ecx, DWORD PTR ___that$[ebp]
	mov	edx, DWORD PTR [ecx+4]
	mov	DWORD PTR [eax+4], edx
	mov	eax, DWORD PTR ___that$[ebp]
	add	eax, 8
	push	eax
	mov	ecx, DWORD PTR _this$[ebp]
	add	ecx, 8
	call	??4?$basic_string@DU?$char_traits@D@std@@V?$allocator@D@2@@std@@QAEAAV01@ABV01@@Z ; std::basic_string<char,std::char_traits<char>,std::allocator<char> >::operator=
	mov	ecx, DWORD PTR _this$[ebp]
	mov	edx, DWORD PTR ___that$[ebp]
	mov	eax, DWORD PTR [edx+36]
	mov	DWORD PTR [ecx+36], eax
	mov	ecx, DWORD PTR _this$[ebp]
	mov	edx, DWORD PTR ___that$[ebp]
	mov	eax, DWORD PTR [edx+40]
	mov	DWORD PTR [ecx+40], eax
	mov	ecx, DWORD PTR _this$[ebp]
	mov	edx, DWORD PTR ___that$[ebp]
	mov	eax, DWORD PTR [edx+44]
	mov	DWORD PTR [ecx+44], eax
	mov	ecx, DWORD PTR _this$[ebp]
	mov	edx, DWORD PTR ___that$[ebp]
	mov	eax, DWORD PTR [edx+48]
	mov	DWORD PTR [ecx+48], eax
	mov	ecx, DWORD PTR _this$[ebp]
	mov	edx, DWORD PTR ___that$[ebp]
	mov	eax, DWORD PTR [edx+52]
	mov	DWORD PTR [ecx+52], eax
	mov	ecx, DWORD PTR _this$[ebp]
	mov	edx, DWORD PTR ___that$[ebp]
	mov	eax, DWORD PTR [edx+56]
	mov	DWORD PTR [ecx+56], eax
	mov	ecx, DWORD PTR _this$[ebp]
	mov	edx, DWORD PTR ___that$[ebp]
	mov	eax, DWORD PTR [edx+60]
	mov	DWORD PTR [ecx+60], eax
	mov	ecx, DWORD PTR _this$[ebp]
	mov	edx, DWORD PTR ___that$[ebp]
	mov	eax, DWORD PTR [edx+64]
	mov	DWORD PTR [ecx+64], eax
	mov	ecx, DWORD PTR _this$[ebp]
	mov	edx, DWORD PTR ___that$[ebp]
	mov	eax, DWORD PTR [edx+68]
	mov	DWORD PTR [ecx+68], eax
	mov	eax, DWORD PTR _this$[ebp]
	mov	esp, ebp
	pop	ebp
	ret	4
??4Bucket@agent@monitoring@ibmras@@QAEAAV0123@ABV0123@@Z ENDP ; ibmras::monitoring::agent::Bucket::operator=
_TEXT	ENDS
PUBLIC	??0?$vector@PAVBucket@agent@monitoring@ibmras@@V?$allocator@PAVBucket@agent@monitoring@ibmras@@@std@@@std@@QAE@XZ ; std::vector<ibmras::monitoring::agent::Bucket *,std::allocator<ibmras::monitoring::agent::Bucket *> >::vector<ibmras::monitoring::agent::Bucket *,std::allocator<ibmras::monitoring::agent::Bucket *> >
PUBLIC	??0BucketList@agent@monitoring@ibmras@@QAE@XZ	; ibmras::monitoring::agent::BucketList::BucketList
; Function compile flags: /Odtp
;	COMDAT ??0BucketList@agent@monitoring@ibmras@@QAE@XZ
_TEXT	SEGMENT
_this$ = -4						; size = 4
??0BucketList@agent@monitoring@ibmras@@QAE@XZ PROC	; ibmras::monitoring::agent::BucketList::BucketList, COMDAT
; _this$ = ecx
	push	ebp
	mov	ebp, esp
	push	ecx
	mov	DWORD PTR _this$[ebp], ecx
	mov	ecx, DWORD PTR _this$[ebp]
	call	??0?$vector@PAVBucket@agent@monitoring@ibmras@@V?$allocator@PAVBucket@agent@monitoring@ibmras@@@std@@@std@@QAE@XZ ; std::vector<ibmras::monitoring::agent::Bucket *,std::allocator<ibmras::monitoring::agent::Bucket *> >::vector<ibmras::monitoring::agent::Bucket *,std::allocator<ibmras::monitoring::agent::Bucket *> >
	mov	eax, DWORD PTR _this$[ebp]
	mov	esp, ebp
	pop	ebp
	ret	0
??0BucketList@agent@monitoring@ibmras@@QAE@XZ ENDP	; ibmras::monitoring::agent::BucketList::BucketList
_TEXT	ENDS
PUBLIC	??1?$vector@PAVBucket@agent@monitoring@ibmras@@V?$allocator@PAVBucket@agent@monitoring@ibmras@@@std@@@std@@QAE@XZ ; std::vector<ibmras::monitoring::agent::Bucket *,std::allocator<ibmras::monitoring::agent::Bucket *> >::~vector<ibmras::monitoring::agent::Bucket *,std::allocator<ibmras::monitoring::agent::Bucket *> >
PUBLIC	??1BucketList@agent@monitoring@ibmras@@QAE@XZ	; ibmras::monitoring::agent::BucketList::~BucketList
; Function compile flags: /Odtp
;	COMDAT ??1BucketList@agent@monitoring@ibmras@@QAE@XZ
_TEXT	SEGMENT
_this$ = -4						; size = 4
??1BucketList@agent@monitoring@ibmras@@QAE@XZ PROC	; ibmras::monitoring::agent::BucketList::~BucketList, COMDAT
; _this$ = ecx
	push	ebp
	mov	ebp, esp
	push	ecx
	mov	DWORD PTR _this$[ebp], ecx
	mov	ecx, DWORD PTR _this$[ebp]
	call	??1?$vector@PAVBucket@agent@monitoring@ibmras@@V?$allocator@PAVBucket@agent@monitoring@ibmras@@@std@@@std@@QAE@XZ ; std::vector<ibmras::monitoring::agent::Bucket *,std::allocator<ibmras::monitoring::agent::Bucket *> >::~vector<ibmras::monitoring::agent::Bucket *,std::allocator<ibmras::monitoring::agent::Bucket *> >
	mov	esp, ebp
	pop	ebp
	ret	0
??1BucketList@agent@monitoring@ibmras@@QAE@XZ ENDP	; ibmras::monitoring::agent::BucketList::~BucketList
_TEXT	ENDS
PUBLIC	??0?$vector@PAVBucket@agent@monitoring@ibmras@@V?$allocator@PAVBucket@agent@monitoring@ibmras@@@std@@@std@@QAE@ABV01@@Z ; std::vector<ibmras::monitoring::agent::Bucket *,std::allocator<ibmras::monitoring::agent::Bucket *> >::vector<ibmras::monitoring::agent::Bucket *,std::allocator<ibmras::monitoring::agent::Bucket *> >
PUBLIC	??0BucketList@agent@monitoring@ibmras@@QAE@ABV0123@@Z ; ibmras::monitoring::agent::BucketList::BucketList
; Function compile flags: /Odtp
;	COMDAT ??0BucketList@agent@monitoring@ibmras@@QAE@ABV0123@@Z
_TEXT	SEGMENT
_this$ = -4						; size = 4
___that$ = 8						; size = 4
??0BucketList@agent@monitoring@ibmras@@QAE@ABV0123@@Z PROC ; ibmras::monitoring::agent::BucketList::BucketList, COMDAT
; _this$ = ecx
	push	ebp
	mov	ebp, esp
	push	ecx
	mov	DWORD PTR _this$[ebp], ecx
	mov	eax, DWORD PTR ___that$[ebp]
	push	eax
	mov	ecx, DWORD PTR _this$[ebp]
	call	??0?$vector@PAVBucket@agent@monitoring@ibmras@@V?$allocator@PAVBucket@agent@monitoring@ibmras@@@std@@@std@@QAE@ABV01@@Z ; std::vector<ibmras::monitoring::agent::Bucket *,std::allocator<ibmras::monitoring::agent::Bucket *> >::vector<ibmras::monitoring::agent::Bucket *,std::allocator<ibmras::monitoring::agent::Bucket *> >
	mov	eax, DWORD PTR _this$[ebp]
	mov	esp, ebp
	pop	ebp
	ret	4
??0BucketList@agent@monitoring@ibmras@@QAE@ABV0123@@Z ENDP ; ibmras::monitoring::agent::BucketList::BucketList
_TEXT	ENDS
PUBLIC	??4?$vector@PAVBucket@agent@monitoring@ibmras@@V?$allocator@PAVBucket@agent@monitoring@ibmras@@@std@@@std@@QAEAAV01@ABV01@@Z ; std::vector<ibmras::monitoring::agent::Bucket *,std::allocator<ibmras::monitoring::agent::Bucket *> >::operator=
PUBLIC	??4BucketList@agent@monitoring@ibmras@@QAEAAV0123@ABV0123@@Z ; ibmras::monitoring::agent::BucketList::operator=
; Function compile flags: /Odtp
;	COMDAT ??4BucketList@agent@monitoring@ibmras@@QAEAAV0123@ABV0123@@Z
_TEXT	SEGMENT
_this$ = -4						; size = 4
___that$ = 8						; size = 4
??4BucketList@agent@monitoring@ibmras@@QAEAAV0123@ABV0123@@Z PROC ; ibmras::monitoring::agent::BucketList::operator=, COMDAT
; _this$ = ecx
	push	ebp
	mov	ebp, esp
	push	ecx
	mov	DWORD PTR _this$[ebp], ecx
	mov	eax, DWORD PTR ___that$[ebp]
	push	eax
	mov	ecx, DWORD PTR _this$[ebp]
	call	??4?$vector@PAVBucket@agent@monitoring@ibmras@@V?$allocator@PAVBucket@agent@monitoring@ibmras@@@std@@@std@@QAEAAV01@ABV01@@Z ; std::vector<ibmras::monitoring::agent::Bucket *,std::allocator<ibmras::monitoring::agent::Bucket *> >::operator=
	mov	eax, DWORD PTR _this$[ebp]
	mov	esp, ebp
	pop	ebp
	ret	4
??4BucketList@agent@monitoring@ibmras@@QAEAAV0123@ABV0123@@Z ENDP ; ibmras::monitoring::agent::BucketList::operator=
_TEXT	ENDS
PUBLIC	??1?$set@PAVConnector@connector@monitoring@ibmras@@U?$less@PAVConnector@connector@monitoring@ibmras@@@std@@V?$allocator@PAVConnector@connector@monitoring@ibmras@@@6@@std@@QAE@XZ ; std::set<ibmras::monitoring::connector::Connector *,std::less<ibmras::monitoring::connector::Connector *>,std::allocator<ibmras::monitoring::connector::Connector *> >::~set<ibmras::monitoring::connector::Connector *,std::less<ibmras::monitoring::connector::Connector *>,std::allocator<ibmras::monitoring::connector::Connector *> >
PUBLIC	??1?$queue@VReceivedMessage@ConnectorManager@connector@monitoring@ibmras@@V?$deque@VReceivedMessage@ConnectorManager@connector@monitoring@ibmras@@V?$allocator@VReceivedMessage@ConnectorManager@connector@monitoring@ibmras@@@std@@@std@@@std@@QAE@XZ ; std::queue<ibmras::monitoring::connector::ConnectorManager::ReceivedMessage,std::deque<ibmras::monitoring::connector::ConnectorManager::ReceivedMessage,std::allocator<ibmras::monitoring::connector::ConnectorManager::ReceivedMessage> > >::~queue<ibmras::monitoring::connector::ConnectorManager::ReceivedMessage,std::deque<ibmras::monitoring::connector::ConnectorManager::ReceivedMessage,std::allocator<ibmras::monitoring::connector::ConnectorManager::ReceivedMessage> > >
PUBLIC	??1ThreadData@port@common@ibmras@@QAE@XZ	; ibmras::common::port::ThreadData::~ThreadData
PUBLIC	??1Receiver@connector@monitoring@ibmras@@UAE@XZ	; ibmras::monitoring::connector::Receiver::~Receiver
PUBLIC	??1Connector@connector@monitoring@ibmras@@UAE@XZ ; ibmras::monitoring::connector::Connector::~Connector
PUBLIC	??0?$set@PAVReceiver@connector@monitoring@ibmras@@U?$less@PAVReceiver@connector@monitoring@ibmras@@@std@@V?$allocator@PAVReceiver@connector@monitoring@ibmras@@@6@@std@@QAE@ABV01@@Z ; std::set<ibmras::monitoring::connector::Receiver *,std::less<ibmras::monitoring::connector::Receiver *>,std::allocator<ibmras::monitoring::connector::Receiver *> >::set<ibmras::monitoring::connector::Receiver *,std::less<ibmras::monitoring::connector::Receiver *>,std::allocator<ibmras::monitoring::connector::Receiver *> >
PUBLIC	??0?$set@PAVConnector@connector@monitoring@ibmras@@U?$less@PAVConnector@connector@monitoring@ibmras@@@std@@V?$allocator@PAVConnector@connector@monitoring@ibmras@@@6@@std@@QAE@ABV01@@Z ; std::set<ibmras::monitoring::connector::Connector *,std::less<ibmras::monitoring::connector::Connector *>,std::allocator<ibmras::monitoring::connector::Connector *> >::set<ibmras::monitoring::connector::Connector *,std::less<ibmras::monitoring::connector::Connector *>,std::allocator<ibmras::monitoring::connector::Connector *> >
PUBLIC	??0?$queue@VReceivedMessage@ConnectorManager@connector@monitoring@ibmras@@V?$deque@VReceivedMessage@ConnectorManager@connector@monitoring@ibmras@@V?$allocator@VReceivedMessage@ConnectorManager@connector@monitoring@ibmras@@@std@@@std@@@std@@QAE@ABV01@@Z ; std::queue<ibmras::monitoring::connector::ConnectorManager::ReceivedMessage,std::deque<ibmras::monitoring::connector::ConnectorManager::ReceivedMessage,std::allocator<ibmras::monitoring::connector::ConnectorManager::ReceivedMessage> > >::queue<ibmras::monitoring::connector::ConnectorManager::ReceivedMessage,std::deque<ibmras::monitoring::connector::ConnectorManager::ReceivedMessage,std::allocator<ibmras::monitoring::connector::ConnectorManager::ReceivedMessage> > >
PUBLIC	??_7ConnectorManager@connector@monitoring@ibmras@@6BReceiver@123@@ ; ibmras::monitoring::connector::ConnectorManager::`vftable'
PUBLIC	??_7ConnectorManager@connector@monitoring@ibmras@@6BConnector@123@@ ; ibmras::monitoring::connector::ConnectorManager::`vftable'
PUBLIC	??0Receiver@connector@monitoring@ibmras@@QAE@ABV0123@@Z ; ibmras::monitoring::connector::Receiver::Receiver
PUBLIC	??0Connector@connector@monitoring@ibmras@@QAE@ABV0123@@Z ; ibmras::monitoring::connector::Connector::Connector
PUBLIC	??0ConnectorManager@connector@monitoring@ibmras@@QAE@ABV0123@@Z ; ibmras::monitoring::connector::ConnectorManager::ConnectorManager
PUBLIC	??_R4ConnectorManager@connector@monitoring@ibmras@@6BConnector@123@@ ; ibmras::monitoring::connector::ConnectorManager::`RTTI Complete Object Locator'
PUBLIC	??_R0?AVConnectorManager@connector@monitoring@ibmras@@@8 ; ibmras::monitoring::connector::ConnectorManager `RTTI Type Descriptor'
PUBLIC	??_R3ConnectorManager@connector@monitoring@ibmras@@8 ; ibmras::monitoring::connector::ConnectorManager::`RTTI Class Hierarchy Descriptor'
PUBLIC	??_R2ConnectorManager@connector@monitoring@ibmras@@8 ; ibmras::monitoring::connector::ConnectorManager::`RTTI Base Class Array'
PUBLIC	??_R1A@?0A@EA@ConnectorManager@connector@monitoring@ibmras@@8 ; ibmras::monitoring::connector::ConnectorManager::`RTTI Base Class Descriptor at (0,-1,0,64)'
PUBLIC	??_R1A@?0A@EA@Connector@connector@monitoring@ibmras@@8 ; ibmras::monitoring::connector::Connector::`RTTI Base Class Descriptor at (0,-1,0,64)'
PUBLIC	??_R0?AVConnector@connector@monitoring@ibmras@@@8 ; ibmras::monitoring::connector::Connector `RTTI Type Descriptor'
PUBLIC	??_R3Connector@connector@monitoring@ibmras@@8	; ibmras::monitoring::connector::Connector::`RTTI Class Hierarchy Descriptor'
PUBLIC	??_R2Connector@connector@monitoring@ibmras@@8	; ibmras::monitoring::connector::Connector::`RTTI Base Class Array'
PUBLIC	??_R13?0A@EA@Receiver@connector@monitoring@ibmras@@8 ; ibmras::monitoring::connector::Receiver::`RTTI Base Class Descriptor at (4,-1,0,64)'
PUBLIC	??_R0?AVReceiver@connector@monitoring@ibmras@@@8 ; ibmras::monitoring::connector::Receiver `RTTI Type Descriptor'
PUBLIC	??_R3Receiver@connector@monitoring@ibmras@@8	; ibmras::monitoring::connector::Receiver::`RTTI Class Hierarchy Descriptor'
PUBLIC	??_R2Receiver@connector@monitoring@ibmras@@8	; ibmras::monitoring::connector::Receiver::`RTTI Base Class Array'
PUBLIC	??_R1A@?0A@EA@Receiver@connector@monitoring@ibmras@@8 ; ibmras::monitoring::connector::Receiver::`RTTI Base Class Descriptor at (0,-1,0,64)'
PUBLIC	?getID@Connector@connector@monitoring@ibmras@@UAE?AV?$basic_string@DU?$char_traits@D@std@@V?$allocator@D@2@@std@@XZ ; ibmras::monitoring::connector::Connector::getID
PUBLIC	?registerReceiver@Connector@connector@monitoring@ibmras@@UAEXPAVReceiver@234@@Z ; ibmras::monitoring::connector::Connector::registerReceiver
PUBLIC	??_EConnectorManager@connector@monitoring@ibmras@@UAEPAXI@Z ; ibmras::monitoring::connector::ConnectorManager::`vector deleting destructor'
PUBLIC	??_R4ConnectorManager@connector@monitoring@ibmras@@6BReceiver@123@@ ; ibmras::monitoring::connector::ConnectorManager::`RTTI Complete Object Locator'
PUBLIC	??_EConnectorManager@connector@monitoring@ibmras@@W3AEPAXI@Z ; [thunk]:ibmras::monitoring::connector::ConnectorManager::`vector deleting destructor'
EXTRN	??1Lock@port@common@ibmras@@QAE@XZ:PROC		; ibmras::common::port::Lock::~Lock
EXTRN	___security_cookie:DWORD
EXTRN	___CxxFrameHandler3:PROC
EXTRN	@__security_check_cookie@4:PROC
EXTRN	?sendMessage@ConnectorManager@connector@monitoring@ibmras@@UAEHABV?$basic_string@DU?$char_traits@D@std@@V?$allocator@D@2@@std@@IPAX@Z:PROC ; ibmras::monitoring::connector::ConnectorManager::sendMessage
EXTRN	?start@ConnectorManager@connector@monitoring@ibmras@@UAEHXZ:PROC ; ibmras::monitoring::connector::ConnectorManager::start
EXTRN	?stop@ConnectorManager@connector@monitoring@ibmras@@UAEHXZ:PROC ; ibmras::monitoring::connector::ConnectorManager::stop
EXTRN	?receiveMessage@ConnectorManager@connector@monitoring@ibmras@@UAEXABV?$basic_string@DU?$char_traits@D@std@@V?$allocator@D@2@@std@@IPAX@Z:PROC ; ibmras::monitoring::connector::ConnectorManager::receiveMessage
;	COMDAT ??_R4ConnectorManager@connector@monitoring@ibmras@@6BReceiver@123@@
rdata$r	SEGMENT
??_R4ConnectorManager@connector@monitoring@ibmras@@6BReceiver@123@@ DD 00H ; ibmras::monitoring::connector::ConnectorManager::`RTTI Complete Object Locator'
	DD	04H
	DD	00H
	DD	FLAT:??_R0?AVConnectorManager@connector@monitoring@ibmras@@@8
	DD	FLAT:??_R3ConnectorManager@connector@monitoring@ibmras@@8
rdata$r	ENDS
;	COMDAT ??_R1A@?0A@EA@Receiver@connector@monitoring@ibmras@@8
rdata$r	SEGMENT
??_R1A@?0A@EA@Receiver@connector@monitoring@ibmras@@8 DD FLAT:??_R0?AVReceiver@connector@monitoring@ibmras@@@8 ; ibmras::monitoring::connector::Receiver::`RTTI Base Class Descriptor at (0,-1,0,64)'
	DD	00H
	DD	00H
	DD	0ffffffffH
	DD	00H
	DD	040H
	DD	FLAT:??_R3Receiver@connector@monitoring@ibmras@@8
rdata$r	ENDS
;	COMDAT ??_R2Receiver@connector@monitoring@ibmras@@8
rdata$r	SEGMENT
??_R2Receiver@connector@monitoring@ibmras@@8 DD FLAT:??_R1A@?0A@EA@Receiver@connector@monitoring@ibmras@@8 ; ibmras::monitoring::connector::Receiver::`RTTI Base Class Array'
rdata$r	ENDS
;	COMDAT ??_R3Receiver@connector@monitoring@ibmras@@8
rdata$r	SEGMENT
??_R3Receiver@connector@monitoring@ibmras@@8 DD 00H	; ibmras::monitoring::connector::Receiver::`RTTI Class Hierarchy Descriptor'
	DD	00H
	DD	01H
	DD	FLAT:??_R2Receiver@connector@monitoring@ibmras@@8
rdata$r	ENDS
;	COMDAT ??_R0?AVReceiver@connector@monitoring@ibmras@@@8
_DATA	SEGMENT
??_R0?AVReceiver@connector@monitoring@ibmras@@@8 DD FLAT:??_7type_info@@6B@ ; ibmras::monitoring::connector::Receiver `RTTI Type Descriptor'
	DD	00H
	DB	'.?AVReceiver@connector@monitoring@ibmras@@', 00H
_DATA	ENDS
;	COMDAT ??_R13?0A@EA@Receiver@connector@monitoring@ibmras@@8
rdata$r	SEGMENT
??_R13?0A@EA@Receiver@connector@monitoring@ibmras@@8 DD FLAT:??_R0?AVReceiver@connector@monitoring@ibmras@@@8 ; ibmras::monitoring::connector::Receiver::`RTTI Base Class Descriptor at (4,-1,0,64)'
	DD	00H
	DD	04H
	DD	0ffffffffH
	DD	00H
	DD	040H
	DD	FLAT:??_R3Receiver@connector@monitoring@ibmras@@8
rdata$r	ENDS
;	COMDAT ??_R2Connector@connector@monitoring@ibmras@@8
rdata$r	SEGMENT
??_R2Connector@connector@monitoring@ibmras@@8 DD FLAT:??_R1A@?0A@EA@Connector@connector@monitoring@ibmras@@8 ; ibmras::monitoring::connector::Connector::`RTTI Base Class Array'
rdata$r	ENDS
;	COMDAT ??_R3Connector@connector@monitoring@ibmras@@8
rdata$r	SEGMENT
??_R3Connector@connector@monitoring@ibmras@@8 DD 00H	; ibmras::monitoring::connector::Connector::`RTTI Class Hierarchy Descriptor'
	DD	00H
	DD	01H
	DD	FLAT:??_R2Connector@connector@monitoring@ibmras@@8
rdata$r	ENDS
;	COMDAT ??_R0?AVConnector@connector@monitoring@ibmras@@@8
_DATA	SEGMENT
??_R0?AVConnector@connector@monitoring@ibmras@@@8 DD FLAT:??_7type_info@@6B@ ; ibmras::monitoring::connector::Connector `RTTI Type Descriptor'
	DD	00H
	DB	'.?AVConnector@connector@monitoring@ibmras@@', 00H
_DATA	ENDS
;	COMDAT ??_R1A@?0A@EA@Connector@connector@monitoring@ibmras@@8
rdata$r	SEGMENT
??_R1A@?0A@EA@Connector@connector@monitoring@ibmras@@8 DD FLAT:??_R0?AVConnector@connector@monitoring@ibmras@@@8 ; ibmras::monitoring::connector::Connector::`RTTI Base Class Descriptor at (0,-1,0,64)'
	DD	00H
	DD	00H
	DD	0ffffffffH
	DD	00H
	DD	040H
	DD	FLAT:??_R3Connector@connector@monitoring@ibmras@@8
rdata$r	ENDS
;	COMDAT ??_R1A@?0A@EA@ConnectorManager@connector@monitoring@ibmras@@8
rdata$r	SEGMENT
??_R1A@?0A@EA@ConnectorManager@connector@monitoring@ibmras@@8 DD FLAT:??_R0?AVConnectorManager@connector@monitoring@ibmras@@@8 ; ibmras::monitoring::connector::ConnectorManager::`RTTI Base Class Descriptor at (0,-1,0,64)'
	DD	02H
	DD	00H
	DD	0ffffffffH
	DD	00H
	DD	040H
	DD	FLAT:??_R3ConnectorManager@connector@monitoring@ibmras@@8
rdata$r	ENDS
;	COMDAT ??_R2ConnectorManager@connector@monitoring@ibmras@@8
rdata$r	SEGMENT
??_R2ConnectorManager@connector@monitoring@ibmras@@8 DD FLAT:??_R1A@?0A@EA@ConnectorManager@connector@monitoring@ibmras@@8 ; ibmras::monitoring::connector::ConnectorManager::`RTTI Base Class Array'
	DD	FLAT:??_R1A@?0A@EA@Connector@connector@monitoring@ibmras@@8
	DD	FLAT:??_R13?0A@EA@Receiver@connector@monitoring@ibmras@@8
rdata$r	ENDS
;	COMDAT ??_R3ConnectorManager@connector@monitoring@ibmras@@8
rdata$r	SEGMENT
??_R3ConnectorManager@connector@monitoring@ibmras@@8 DD 00H ; ibmras::monitoring::connector::ConnectorManager::`RTTI Class Hierarchy Descriptor'
	DD	01H
	DD	03H
	DD	FLAT:??_R2ConnectorManager@connector@monitoring@ibmras@@8
rdata$r	ENDS
;	COMDAT ??_R0?AVConnectorManager@connector@monitoring@ibmras@@@8
_DATA	SEGMENT
??_R0?AVConnectorManager@connector@monitoring@ibmras@@@8 DD FLAT:??_7type_info@@6B@ ; ibmras::monitoring::connector::ConnectorManager `RTTI Type Descriptor'
	DD	00H
	DB	'.?AVConnectorManager@connector@monitoring@ibmras@@', 00H
_DATA	ENDS
;	COMDAT ??_R4ConnectorManager@connector@monitoring@ibmras@@6BConnector@123@@
rdata$r	SEGMENT
??_R4ConnectorManager@connector@monitoring@ibmras@@6BConnector@123@@ DD 00H ; ibmras::monitoring::connector::ConnectorManager::`RTTI Complete Object Locator'
	DD	00H
	DD	00H
	DD	FLAT:??_R0?AVConnectorManager@connector@monitoring@ibmras@@@8
	DD	FLAT:??_R3ConnectorManager@connector@monitoring@ibmras@@8
rdata$r	ENDS
;	COMDAT ??_7ConnectorManager@connector@monitoring@ibmras@@6BReceiver@123@@
CONST	SEGMENT
??_7ConnectorManager@connector@monitoring@ibmras@@6BReceiver@123@@ DD FLAT:??_R4ConnectorManager@connector@monitoring@ibmras@@6BReceiver@123@@ ; ibmras::monitoring::connector::ConnectorManager::`vftable'
	DD	FLAT:?receiveMessage@ConnectorManager@connector@monitoring@ibmras@@UAEXABV?$basic_string@DU?$char_traits@D@std@@V?$allocator@D@2@@std@@IPAX@Z
	DD	FLAT:??_EConnectorManager@connector@monitoring@ibmras@@W3AEPAXI@Z
CONST	ENDS
;	COMDAT ??_7ConnectorManager@connector@monitoring@ibmras@@6BConnector@123@@
CONST	SEGMENT
??_7ConnectorManager@connector@monitoring@ibmras@@6BConnector@123@@ DD FLAT:??_R4ConnectorManager@connector@monitoring@ibmras@@6BConnector@123@@ ; ibmras::monitoring::connector::ConnectorManager::`vftable'
	DD	FLAT:?getID@Connector@connector@monitoring@ibmras@@UAE?AV?$basic_string@DU?$char_traits@D@std@@V?$allocator@D@2@@std@@XZ
	DD	FLAT:?sendMessage@ConnectorManager@connector@monitoring@ibmras@@UAEHABV?$basic_string@DU?$char_traits@D@std@@V?$allocator@D@2@@std@@IPAX@Z
	DD	FLAT:?registerReceiver@Connector@connector@monitoring@ibmras@@UAEXPAVReceiver@234@@Z
	DD	FLAT:?start@ConnectorManager@connector@monitoring@ibmras@@UAEHXZ
	DD	FLAT:?stop@ConnectorManager@connector@monitoring@ibmras@@UAEHXZ
	DD	FLAT:??_EConnectorManager@connector@monitoring@ibmras@@UAEPAXI@Z
CONST	ENDS
;	COMDAT xdata$x
xdata$x	SEGMENT
__ehfuncinfo$??0ConnectorManager@connector@monitoring@ibmras@@QAE@ABV0123@@Z DD 019930522H
	DD	07H
	DD	FLAT:__unwindtable$??0ConnectorManager@connector@monitoring@ibmras@@QAE@ABV0123@@Z
	DD	2 DUP(00H)
	DD	2 DUP(00H)
	DD	00H
	DD	01H
__unwindtable$??0ConnectorManager@connector@monitoring@ibmras@@QAE@ABV0123@@Z DD 0ffffffffH
	DD	FLAT:__unwindfunclet$??0ConnectorManager@connector@monitoring@ibmras@@QAE@ABV0123@@Z$0
	DD	00H
	DD	FLAT:__unwindfunclet$??0ConnectorManager@connector@monitoring@ibmras@@QAE@ABV0123@@Z$1
	DD	01H
	DD	FLAT:__unwindfunclet$??0ConnectorManager@connector@monitoring@ibmras@@QAE@ABV0123@@Z$2
	DD	02H
	DD	FLAT:__unwindfunclet$??0ConnectorManager@connector@monitoring@ibmras@@QAE@ABV0123@@Z$3
	DD	03H
	DD	FLAT:__unwindfunclet$??0ConnectorManager@connector@monitoring@ibmras@@QAE@ABV0123@@Z$4
	DD	04H
	DD	FLAT:__unwindfunclet$??0ConnectorManager@connector@monitoring@ibmras@@QAE@ABV0123@@Z$5
	DD	05H
	DD	FLAT:__unwindfunclet$??0ConnectorManager@connector@monitoring@ibmras@@QAE@ABV0123@@Z$6
; Function compile flags: /Odtp
xdata$x	ENDS
;	COMDAT ??0ConnectorManager@connector@monitoring@ibmras@@QAE@ABV0123@@Z
_TEXT	SEGMENT
tv90 = -20						; size = 4
_this$ = -16						; size = 4
__$EHRec$ = -12						; size = 12
___that$ = 8						; size = 4
??0ConnectorManager@connector@monitoring@ibmras@@QAE@ABV0123@@Z PROC ; ibmras::monitoring::connector::ConnectorManager::ConnectorManager, COMDAT
; _this$ = ecx
	push	ebp
	mov	ebp, esp
	push	-1
	push	__ehhandler$??0ConnectorManager@connector@monitoring@ibmras@@QAE@ABV0123@@Z
	mov	eax, DWORD PTR fs:0
	push	eax
	sub	esp, 8
	mov	eax, DWORD PTR ___security_cookie
	xor	eax, ebp
	push	eax
	lea	eax, DWORD PTR __$EHRec$[ebp]
	mov	DWORD PTR fs:0, eax
	mov	DWORD PTR _this$[ebp], ecx
	mov	eax, DWORD PTR ___that$[ebp]
	push	eax
	mov	ecx, DWORD PTR _this$[ebp]
	call	??0Connector@connector@monitoring@ibmras@@QAE@ABV0123@@Z
	mov	DWORD PTR __$EHRec$[ebp+8], 0
	cmp	DWORD PTR ___that$[ebp], 0
	je	SHORT $LN3@ConnectorM
	mov	ecx, DWORD PTR ___that$[ebp]
	add	ecx, 4
	mov	DWORD PTR tv90[ebp], ecx
	jmp	SHORT $LN4@ConnectorM
$LN3@ConnectorM:
	mov	DWORD PTR tv90[ebp], 0
$LN4@ConnectorM:
	mov	edx, DWORD PTR tv90[ebp]
	push	edx
	mov	ecx, DWORD PTR _this$[ebp]
	add	ecx, 4
	call	??0Receiver@connector@monitoring@ibmras@@QAE@ABV0123@@Z
	mov	BYTE PTR __$EHRec$[ebp+8], 1
	mov	eax, DWORD PTR _this$[ebp]
	mov	DWORD PTR [eax], OFFSET ??_7ConnectorManager@connector@monitoring@ibmras@@6BConnector@123@@
	mov	ecx, DWORD PTR _this$[ebp]
	mov	DWORD PTR [ecx+4], OFFSET ??_7ConnectorManager@connector@monitoring@ibmras@@6BReceiver@123@@
	mov	edx, DWORD PTR _this$[ebp]
	mov	eax, DWORD PTR ___that$[ebp]
	mov	cl, BYTE PTR [eax+8]
	mov	BYTE PTR [edx+8], cl
	mov	edx, DWORD PTR ___that$[ebp]
	add	edx, 12					; 0000000cH
	mov	eax, DWORD PTR _this$[ebp]
	add	eax, 12					; 0000000cH
	mov	ecx, DWORD PTR [edx]
	mov	DWORD PTR [eax], ecx
	mov	ecx, DWORD PTR [edx+4]
	mov	DWORD PTR [eax+4], ecx
	mov	edx, DWORD PTR [edx+8]
	mov	DWORD PTR [eax+8], edx
	mov	BYTE PTR __$EHRec$[ebp+8], 2
	mov	eax, DWORD PTR ___that$[ebp]
	add	eax, 24					; 00000018H
	push	eax
	mov	ecx, DWORD PTR _this$[ebp]
	add	ecx, 24					; 00000018H
	call	??0?$queue@VReceivedMessage@ConnectorManager@connector@monitoring@ibmras@@V?$deque@VReceivedMessage@ConnectorManager@connector@monitoring@ibmras@@V?$allocator@VReceivedMessage@ConnectorManager@connector@monitoring@ibmras@@@std@@@std@@@std@@QAE@ABV01@@Z ; std::queue<ibmras::monitoring::connector::ConnectorManager::ReceivedMessage,std::deque<ibmras::monitoring::connector::ConnectorManager::ReceivedMessage,std::allocator<ibmras::monitoring::connector::ConnectorManager::ReceivedMessage> > >::queue<ibmras::monitoring::connector::ConnectorManager::ReceivedMessage,std::deque<ibmras::monitoring::connector::ConnectorManager::ReceivedMessage,std::allocator<ibmras::monitoring::connector::ConnectorManager::ReceivedMessage> > >
	mov	BYTE PTR __$EHRec$[ebp+8], 3
	mov	ecx, DWORD PTR ___that$[ebp]
	mov	edx, DWORD PTR [ecx+48]
	mov	eax, DWORD PTR _this$[ebp]
	mov	DWORD PTR [eax+48], edx
	mov	BYTE PTR __$EHRec$[ebp+8], 4
	mov	ecx, DWORD PTR ___that$[ebp]
	mov	edx, DWORD PTR [ecx+52]
	mov	eax, DWORD PTR _this$[ebp]
	mov	DWORD PTR [eax+52], edx
	mov	BYTE PTR __$EHRec$[ebp+8], 5
	mov	ecx, DWORD PTR ___that$[ebp]
	add	ecx, 56					; 00000038H
	push	ecx
	mov	ecx, DWORD PTR _this$[ebp]
	add	ecx, 56					; 00000038H
	call	??0?$set@PAVConnector@connector@monitoring@ibmras@@U?$less@PAVConnector@connector@monitoring@ibmras@@@std@@V?$allocator@PAVConnector@connector@monitoring@ibmras@@@6@@std@@QAE@ABV01@@Z ; std::set<ibmras::monitoring::connector::Connector *,std::less<ibmras::monitoring::connector::Connector *>,std::allocator<ibmras::monitoring::connector::Connector *> >::set<ibmras::monitoring::connector::Connector *,std::less<ibmras::monitoring::connector::Connector *>,std::allocator<ibmras::monitoring::connector::Connector *> >
	mov	BYTE PTR __$EHRec$[ebp+8], 6
	mov	edx, DWORD PTR ___that$[ebp]
	add	edx, 72					; 00000048H
	push	edx
	mov	ecx, DWORD PTR _this$[ebp]
	add	ecx, 72					; 00000048H
	call	??0?$set@PAVReceiver@connector@monitoring@ibmras@@U?$less@PAVReceiver@connector@monitoring@ibmras@@@std@@V?$allocator@PAVReceiver@connector@monitoring@ibmras@@@6@@std@@QAE@ABV01@@Z ; std::set<ibmras::monitoring::connector::Receiver *,std::less<ibmras::monitoring::connector::Receiver *>,std::allocator<ibmras::monitoring::connector::Receiver *> >::set<ibmras::monitoring::connector::Receiver *,std::less<ibmras::monitoring::connector::Receiver *>,std::allocator<ibmras::monitoring::connector::Receiver *> >
	mov	DWORD PTR __$EHRec$[ebp+8], -1
	mov	eax, DWORD PTR _this$[ebp]
	mov	ecx, DWORD PTR __$EHRec$[ebp]
	mov	DWORD PTR fs:0, ecx
	pop	ecx
	mov	esp, ebp
	pop	ebp
	ret	4
_TEXT	ENDS
;	COMDAT text$x
text$x	SEGMENT
__unwindfunclet$??0ConnectorManager@connector@monitoring@ibmras@@QAE@ABV0123@@Z$0:
	mov	ecx, DWORD PTR _this$[ebp]
	jmp	??1Connector@connector@monitoring@ibmras@@UAE@XZ ; ibmras::monitoring::connector::Connector::~Connector
__unwindfunclet$??0ConnectorManager@connector@monitoring@ibmras@@QAE@ABV0123@@Z$1:
	mov	ecx, DWORD PTR _this$[ebp]
	add	ecx, 4
	jmp	??1Receiver@connector@monitoring@ibmras@@UAE@XZ ; ibmras::monitoring::connector::Receiver::~Receiver
__unwindfunclet$??0ConnectorManager@connector@monitoring@ibmras@@QAE@ABV0123@@Z$2:
	mov	ecx, DWORD PTR _this$[ebp]
	add	ecx, 12					; 0000000cH
	jmp	??1ThreadData@port@common@ibmras@@QAE@XZ ; ibmras::common::port::ThreadData::~ThreadData
__unwindfunclet$??0ConnectorManager@connector@monitoring@ibmras@@QAE@ABV0123@@Z$3:
	mov	ecx, DWORD PTR _this$[ebp]
	add	ecx, 24					; 00000018H
	jmp	??1?$queue@VReceivedMessage@ConnectorManager@connector@monitoring@ibmras@@V?$deque@VReceivedMessage@ConnectorManager@connector@monitoring@ibmras@@V?$allocator@VReceivedMessage@ConnectorManager@connector@monitoring@ibmras@@@std@@@std@@@std@@QAE@XZ
__unwindfunclet$??0ConnectorManager@connector@monitoring@ibmras@@QAE@ABV0123@@Z$4:
	mov	ecx, DWORD PTR _this$[ebp]
	add	ecx, 48					; 00000030H
	jmp	??1Lock@port@common@ibmras@@QAE@XZ	; ibmras::common::port::Lock::~Lock
__unwindfunclet$??0ConnectorManager@connector@monitoring@ibmras@@QAE@ABV0123@@Z$5:
	mov	ecx, DWORD PTR _this$[ebp]
	add	ecx, 52					; 00000034H
	jmp	??1Lock@port@common@ibmras@@QAE@XZ	; ibmras::common::port::Lock::~Lock
__unwindfunclet$??0ConnectorManager@connector@monitoring@ibmras@@QAE@ABV0123@@Z$6:
	mov	ecx, DWORD PTR _this$[ebp]
	add	ecx, 56					; 00000038H
	jmp	??1?$set@PAVConnector@connector@monitoring@ibmras@@U?$less@PAVConnector@connector@monitoring@ibmras@@@std@@V?$allocator@PAVConnector@connector@monitoring@ibmras@@@6@@std@@QAE@XZ
__ehhandler$??0ConnectorManager@connector@monitoring@ibmras@@QAE@ABV0123@@Z:
	mov	edx, DWORD PTR [esp+8]
	lea	eax, DWORD PTR [edx+12]
	mov	ecx, DWORD PTR [edx-12]
	xor	ecx, eax
	call	@__security_check_cookie@4
	mov	eax, OFFSET __ehfuncinfo$??0ConnectorManager@connector@monitoring@ibmras@@QAE@ABV0123@@Z
	jmp	___CxxFrameHandler3
text$x	ENDS
??0ConnectorManager@connector@monitoring@ibmras@@QAE@ABV0123@@Z ENDP ; ibmras::monitoring::connector::ConnectorManager::ConnectorManager
; Function compile flags: /Odtp
;	COMDAT ??1ThreadData@port@common@ibmras@@QAE@XZ
_TEXT	SEGMENT
_this$ = -4						; size = 4
??1ThreadData@port@common@ibmras@@QAE@XZ PROC		; ibmras::common::port::ThreadData::~ThreadData, COMDAT
; _this$ = ecx
; File c:\workspaces\newagent2\runtime.tools\src\ibmras\common\port\threaddata.h
; Line 33
	push	ebp
	mov	ebp, esp
	push	ecx
	mov	DWORD PTR _this$[ebp], ecx
	mov	esp, ebp
	pop	ebp
	ret	0
??1ThreadData@port@common@ibmras@@QAE@XZ ENDP		; ibmras::common::port::ThreadData::~ThreadData
_TEXT	ENDS
PUBLIC	??_7Receiver@connector@monitoring@ibmras@@6B@	; ibmras::monitoring::connector::Receiver::`vftable'
PUBLIC	??_R4Receiver@connector@monitoring@ibmras@@6B@	; ibmras::monitoring::connector::Receiver::`RTTI Complete Object Locator'
EXTRN	__purecall:PROC
EXTRN	??_EReceiver@connector@monitoring@ibmras@@UAEPAXI@Z:PROC ; ibmras::monitoring::connector::Receiver::`vector deleting destructor'
;	COMDAT ??_R4Receiver@connector@monitoring@ibmras@@6B@
; File c:\workspaces\newagent2\runtime.tools\src\ibmras\monitoring\connector\receiver.h
rdata$r	SEGMENT
??_R4Receiver@connector@monitoring@ibmras@@6B@ DD 00H	; ibmras::monitoring::connector::Receiver::`RTTI Complete Object Locator'
	DD	00H
	DD	00H
	DD	FLAT:??_R0?AVReceiver@connector@monitoring@ibmras@@@8
	DD	FLAT:??_R3Receiver@connector@monitoring@ibmras@@8
rdata$r	ENDS
;	COMDAT ??_7Receiver@connector@monitoring@ibmras@@6B@
CONST	SEGMENT
??_7Receiver@connector@monitoring@ibmras@@6B@ DD FLAT:??_R4Receiver@connector@monitoring@ibmras@@6B@ ; ibmras::monitoring::connector::Receiver::`vftable'
	DD	FLAT:__purecall
	DD	FLAT:??_EReceiver@connector@monitoring@ibmras@@UAEPAXI@Z
; Function compile flags: /Odtp
CONST	ENDS
;	COMDAT ??1Receiver@connector@monitoring@ibmras@@UAE@XZ
_TEXT	SEGMENT
_this$ = -4						; size = 4
??1Receiver@connector@monitoring@ibmras@@UAE@XZ PROC	; ibmras::monitoring::connector::Receiver::~Receiver, COMDAT
; _this$ = ecx
; Line 27
	push	ebp
	mov	ebp, esp
	push	ecx
	mov	DWORD PTR _this$[ebp], ecx
	mov	eax, DWORD PTR _this$[ebp]
	mov	DWORD PTR [eax], OFFSET ??_7Receiver@connector@monitoring@ibmras@@6B@
; Line 28
	mov	esp, ebp
	pop	ebp
	ret	0
??1Receiver@connector@monitoring@ibmras@@UAE@XZ ENDP	; ibmras::monitoring::connector::Receiver::~Receiver
; Function compile flags: /Odtp
_TEXT	ENDS
;	COMDAT ??_GReceiver@connector@monitoring@ibmras@@UAEPAXI@Z
_TEXT	SEGMENT
_this$ = -4						; size = 4
___flags$ = 8						; size = 4
??_GReceiver@connector@monitoring@ibmras@@UAEPAXI@Z PROC ; ibmras::monitoring::connector::Receiver::`scalar deleting destructor', COMDAT
; _this$ = ecx
	push	ebp
	mov	ebp, esp
	push	ecx
	mov	DWORD PTR _this$[ebp], ecx
	mov	ecx, DWORD PTR _this$[ebp]
	call	??1Receiver@connector@monitoring@ibmras@@UAE@XZ ; ibmras::monitoring::connector::Receiver::~Receiver
	mov	eax, DWORD PTR ___flags$[ebp]
	and	eax, 1
	je	SHORT $LN1@scalar@2
	mov	ecx, DWORD PTR _this$[ebp]
	push	ecx
	call	??3@YAXPAX@Z				; operator delete
	add	esp, 4
$LN1@scalar@2:
	mov	eax, DWORD PTR _this$[ebp]
	mov	esp, ebp
	pop	ebp
	ret	4
??_GReceiver@connector@monitoring@ibmras@@UAEPAXI@Z ENDP ; ibmras::monitoring::connector::Receiver::`scalar deleting destructor'
_TEXT	ENDS
PUBLIC	??0?$basic_string@DU?$char_traits@D@std@@V?$allocator@D@2@@std@@QAE@PBD@Z ; std::basic_string<char,std::char_traits<char>,std::allocator<char> >::basic_string<char,std::char_traits<char>,std::allocator<char> >
PUBLIC	??_C@_09MILONDLI@Connector?$AA@			; `string'
;	COMDAT ??_C@_09MILONDLI@Connector?$AA@
; File c:\workspaces\newagent2\runtime.tools\src\ibmras\monitoring\connector\connector.h
CONST	SEGMENT
??_C@_09MILONDLI@Connector?$AA@ DB 'Connector', 00H	; `string'
; Function compile flags: /Odtp
CONST	ENDS
;	COMDAT ?getID@Connector@connector@monitoring@ibmras@@UAE?AV?$basic_string@DU?$char_traits@D@std@@V?$allocator@D@2@@std@@XZ
_TEXT	SEGMENT
_this$ = -8						; size = 4
$T119223 = -4						; size = 4
___$ReturnUdt$ = 8					; size = 4
?getID@Connector@connector@monitoring@ibmras@@UAE?AV?$basic_string@DU?$char_traits@D@std@@V?$allocator@D@2@@std@@XZ PROC ; ibmras::monitoring::connector::Connector::getID, COMDAT
; _this$ = ecx
; Line 24
	push	ebp
	mov	ebp, esp
	sub	esp, 8
	mov	DWORD PTR _this$[ebp], ecx
	mov	DWORD PTR $T119223[ebp], 0
	push	OFFSET ??_C@_09MILONDLI@Connector?$AA@
	mov	ecx, DWORD PTR ___$ReturnUdt$[ebp]
	call	??0?$basic_string@DU?$char_traits@D@std@@V?$allocator@D@2@@std@@QAE@PBD@Z ; std::basic_string<char,std::char_traits<char>,std::allocator<char> >::basic_string<char,std::char_traits<char>,std::allocator<char> >
	mov	eax, DWORD PTR $T119223[ebp]
	or	eax, 1
	mov	DWORD PTR $T119223[ebp], eax
	mov	eax, DWORD PTR ___$ReturnUdt$[ebp]
	mov	esp, ebp
	pop	ebp
	ret	4
?getID@Connector@connector@monitoring@ibmras@@UAE?AV?$basic_string@DU?$char_traits@D@std@@V?$allocator@D@2@@std@@XZ ENDP ; ibmras::monitoring::connector::Connector::getID
; Function compile flags: /Odtp
_TEXT	ENDS
;	COMDAT ?registerReceiver@Connector@connector@monitoring@ibmras@@UAEXPAVReceiver@234@@Z
_TEXT	SEGMENT
_this$ = -4						; size = 4
_receiver$ = 8						; size = 4
?registerReceiver@Connector@connector@monitoring@ibmras@@UAEXPAVReceiver@234@@Z PROC ; ibmras::monitoring::connector::Connector::registerReceiver, COMDAT
; _this$ = ecx
; Line 28
	push	ebp
	mov	ebp, esp
	push	ecx
	mov	DWORD PTR _this$[ebp], ecx
	mov	esp, ebp
	pop	ebp
	ret	4
?registerReceiver@Connector@connector@monitoring@ibmras@@UAEXPAVReceiver@234@@Z ENDP ; ibmras::monitoring::connector::Connector::registerReceiver
_TEXT	ENDS
PUBLIC	??_7Connector@connector@monitoring@ibmras@@6B@	; ibmras::monitoring::connector::Connector::`vftable'
PUBLIC	??_R4Connector@connector@monitoring@ibmras@@6B@	; ibmras::monitoring::connector::Connector::`RTTI Complete Object Locator'
PUBLIC	?sendMessage@Connector@connector@monitoring@ibmras@@UAEHABV?$basic_string@DU?$char_traits@D@std@@V?$allocator@D@2@@std@@IPAX@Z ; ibmras::monitoring::connector::Connector::sendMessage
PUBLIC	?start@Connector@connector@monitoring@ibmras@@UAEHXZ ; ibmras::monitoring::connector::Connector::start
PUBLIC	?stop@Connector@connector@monitoring@ibmras@@UAEHXZ ; ibmras::monitoring::connector::Connector::stop
EXTRN	??_EConnector@connector@monitoring@ibmras@@UAEPAXI@Z:PROC ; ibmras::monitoring::connector::Connector::`vector deleting destructor'
;	COMDAT ??_R4Connector@connector@monitoring@ibmras@@6B@
rdata$r	SEGMENT
??_R4Connector@connector@monitoring@ibmras@@6B@ DD 00H	; ibmras::monitoring::connector::Connector::`RTTI Complete Object Locator'
	DD	00H
	DD	00H
	DD	FLAT:??_R0?AVConnector@connector@monitoring@ibmras@@@8
	DD	FLAT:??_R3Connector@connector@monitoring@ibmras@@8
rdata$r	ENDS
;	COMDAT ??_7Connector@connector@monitoring@ibmras@@6B@
CONST	SEGMENT
??_7Connector@connector@monitoring@ibmras@@6B@ DD FLAT:??_R4Connector@connector@monitoring@ibmras@@6B@ ; ibmras::monitoring::connector::Connector::`vftable'
	DD	FLAT:?getID@Connector@connector@monitoring@ibmras@@UAE?AV?$basic_string@DU?$char_traits@D@std@@V?$allocator@D@2@@std@@XZ
	DD	FLAT:?sendMessage@Connector@connector@monitoring@ibmras@@UAEHABV?$basic_string@DU?$char_traits@D@std@@V?$allocator@D@2@@std@@IPAX@Z
	DD	FLAT:?registerReceiver@Connector@connector@monitoring@ibmras@@UAEXPAVReceiver@234@@Z
	DD	FLAT:?start@Connector@connector@monitoring@ibmras@@UAEHXZ
	DD	FLAT:?stop@Connector@connector@monitoring@ibmras@@UAEHXZ
	DD	FLAT:??_EConnector@connector@monitoring@ibmras@@UAEPAXI@Z
; Function compile flags: /Odtp
CONST	ENDS
;	COMDAT ??1Connector@connector@monitoring@ibmras@@UAE@XZ
_TEXT	SEGMENT
_this$ = -4						; size = 4
??1Connector@connector@monitoring@ibmras@@UAE@XZ PROC	; ibmras::monitoring::connector::Connector::~Connector, COMDAT
; _this$ = ecx
; Line 33
	push	ebp
	mov	ebp, esp
	push	ecx
	mov	DWORD PTR _this$[ebp], ecx
	mov	eax, DWORD PTR _this$[ebp]
	mov	DWORD PTR [eax], OFFSET ??_7Connector@connector@monitoring@ibmras@@6B@
	mov	esp, ebp
	pop	ebp
	ret	0
??1Connector@connector@monitoring@ibmras@@UAE@XZ ENDP	; ibmras::monitoring::connector::Connector::~Connector
; Function compile flags: /Odtp
_TEXT	ENDS
;	COMDAT ?sendMessage@Connector@connector@monitoring@ibmras@@UAEHABV?$basic_string@DU?$char_traits@D@std@@V?$allocator@D@2@@std@@IPAX@Z
_TEXT	SEGMENT
_this$ = -4						; size = 4
_sourceId$ = 8						; size = 4
_size$ = 12						; size = 4
_data$ = 16						; size = 4
?sendMessage@Connector@connector@monitoring@ibmras@@UAEHABV?$basic_string@DU?$char_traits@D@std@@V?$allocator@D@2@@std@@IPAX@Z PROC ; ibmras::monitoring::connector::Connector::sendMessage, COMDAT
; _this$ = ecx
; Line 26
	push	ebp
	mov	ebp, esp
	push	ecx
	mov	DWORD PTR _this$[ebp], ecx
	xor	eax, eax
	mov	esp, ebp
	pop	ebp
	ret	12					; 0000000cH
?sendMessage@Connector@connector@monitoring@ibmras@@UAEHABV?$basic_string@DU?$char_traits@D@std@@V?$allocator@D@2@@std@@IPAX@Z ENDP ; ibmras::monitoring::connector::Connector::sendMessage
; Function compile flags: /Odtp
_TEXT	ENDS
;	COMDAT ?start@Connector@connector@monitoring@ibmras@@UAEHXZ
_TEXT	SEGMENT
_this$ = -4						; size = 4
?start@Connector@connector@monitoring@ibmras@@UAEHXZ PROC ; ibmras::monitoring::connector::Connector::start, COMDAT
; _this$ = ecx
; Line 30
	push	ebp
	mov	ebp, esp
	push	ecx
	mov	DWORD PTR _this$[ebp], ecx
	xor	eax, eax
	mov	esp, ebp
	pop	ebp
	ret	0
?start@Connector@connector@monitoring@ibmras@@UAEHXZ ENDP ; ibmras::monitoring::connector::Connector::start
; Function compile flags: /Odtp
_TEXT	ENDS
;	COMDAT ?stop@Connector@connector@monitoring@ibmras@@UAEHXZ
_TEXT	SEGMENT
_this$ = -4						; size = 4
?stop@Connector@connector@monitoring@ibmras@@UAEHXZ PROC ; ibmras::monitoring::connector::Connector::stop, COMDAT
; _this$ = ecx
; Line 31
	push	ebp
	mov	ebp, esp
	push	ecx
	mov	DWORD PTR _this$[ebp], ecx
	xor	eax, eax
	mov	esp, ebp
	pop	ebp
	ret	0
?stop@Connector@connector@monitoring@ibmras@@UAEHXZ ENDP ; ibmras::monitoring::connector::Connector::stop
; Function compile flags: /Odtp
_TEXT	ENDS
;	COMDAT ??_GConnector@connector@monitoring@ibmras@@UAEPAXI@Z
_TEXT	SEGMENT
_this$ = -4						; size = 4
___flags$ = 8						; size = 4
??_GConnector@connector@monitoring@ibmras@@UAEPAXI@Z PROC ; ibmras::monitoring::connector::Connector::`scalar deleting destructor', COMDAT
; _this$ = ecx
	push	ebp
	mov	ebp, esp
	push	ecx
	mov	DWORD PTR _this$[ebp], ecx
	mov	ecx, DWORD PTR _this$[ebp]
	call	??1Connector@connector@monitoring@ibmras@@UAE@XZ ; ibmras::monitoring::connector::Connector::~Connector
	mov	eax, DWORD PTR ___flags$[ebp]
	and	eax, 1
	je	SHORT $LN1@scalar@3
	mov	ecx, DWORD PTR _this$[ebp]
	push	ecx
	call	??3@YAXPAX@Z				; operator delete
	add	esp, 4
$LN1@scalar@3:
	mov	eax, DWORD PTR _this$[ebp]
	mov	esp, ebp
	pop	ebp
	ret	4
??_GConnector@connector@monitoring@ibmras@@UAEPAXI@Z ENDP ; ibmras::monitoring::connector::Connector::`scalar deleting destructor'
_TEXT	ENDS
PUBLIC	??4?$set@PAVReceiver@connector@monitoring@ibmras@@U?$less@PAVReceiver@connector@monitoring@ibmras@@@std@@V?$allocator@PAVReceiver@connector@monitoring@ibmras@@@6@@std@@QAEAAV01@ABV01@@Z ; std::set<ibmras::monitoring::connector::Receiver *,std::less<ibmras::monitoring::connector::Receiver *>,std::allocator<ibmras::monitoring::connector::Receiver *> >::operator=
PUBLIC	??4?$set@PAVConnector@connector@monitoring@ibmras@@U?$less@PAVConnector@connector@monitoring@ibmras@@@std@@V?$allocator@PAVConnector@connector@monitoring@ibmras@@@6@@std@@QAEAAV01@ABV01@@Z ; std::set<ibmras::monitoring::connector::Connector *,std::less<ibmras::monitoring::connector::Connector *>,std::allocator<ibmras::monitoring::connector::Connector *> >::operator=
PUBLIC	??4?$queue@VReceivedMessage@ConnectorManager@connector@monitoring@ibmras@@V?$deque@VReceivedMessage@ConnectorManager@connector@monitoring@ibmras@@V?$allocator@VReceivedMessage@ConnectorManager@connector@monitoring@ibmras@@@std@@@std@@@std@@QAEAAV01@ABV01@@Z ; std::queue<ibmras::monitoring::connector::ConnectorManager::ReceivedMessage,std::deque<ibmras::monitoring::connector::ConnectorManager::ReceivedMessage,std::allocator<ibmras::monitoring::connector::ConnectorManager::ReceivedMessage> > >::operator=
PUBLIC	??4Receiver@connector@monitoring@ibmras@@QAEAAV0123@ABV0123@@Z ; ibmras::monitoring::connector::Receiver::operator=
PUBLIC	??4Connector@connector@monitoring@ibmras@@QAEAAV0123@ABV0123@@Z ; ibmras::monitoring::connector::Connector::operator=
PUBLIC	??4ConnectorManager@connector@monitoring@ibmras@@QAEAAV0123@ABV0123@@Z ; ibmras::monitoring::connector::ConnectorManager::operator=
; Function compile flags: /Odtp
;	COMDAT ??4ConnectorManager@connector@monitoring@ibmras@@QAEAAV0123@ABV0123@@Z
_TEXT	SEGMENT
tv84 = -8						; size = 4
_this$ = -4						; size = 4
___that$ = 8						; size = 4
??4ConnectorManager@connector@monitoring@ibmras@@QAEAAV0123@ABV0123@@Z PROC ; ibmras::monitoring::connector::ConnectorManager::operator=, COMDAT
; _this$ = ecx
	push	ebp
	mov	ebp, esp
	sub	esp, 8
	mov	DWORD PTR _this$[ebp], ecx
	mov	eax, DWORD PTR ___that$[ebp]
	push	eax
	mov	ecx, DWORD PTR _this$[ebp]
	call	??4Connector@connector@monitoring@ibmras@@QAEAAV0123@ABV0123@@Z
	cmp	DWORD PTR ___that$[ebp], 0
	je	SHORT $LN3@operator
	mov	ecx, DWORD PTR ___that$[ebp]
	add	ecx, 4
	mov	DWORD PTR tv84[ebp], ecx
	jmp	SHORT $LN4@operator
$LN3@operator:
	mov	DWORD PTR tv84[ebp], 0
$LN4@operator:
	mov	edx, DWORD PTR tv84[ebp]
	push	edx
	mov	ecx, DWORD PTR _this$[ebp]
	add	ecx, 4
	call	??4Receiver@connector@monitoring@ibmras@@QAEAAV0123@ABV0123@@Z
	mov	eax, DWORD PTR _this$[ebp]
	mov	ecx, DWORD PTR ___that$[ebp]
	mov	dl, BYTE PTR [ecx+8]
	mov	BYTE PTR [eax+8], dl
	mov	eax, DWORD PTR ___that$[ebp]
	add	eax, 12					; 0000000cH
	mov	ecx, DWORD PTR _this$[ebp]
	add	ecx, 12					; 0000000cH
	mov	edx, DWORD PTR [eax]
	mov	DWORD PTR [ecx], edx
	mov	edx, DWORD PTR [eax+4]
	mov	DWORD PTR [ecx+4], edx
	mov	eax, DWORD PTR [eax+8]
	mov	DWORD PTR [ecx+8], eax
	mov	ecx, DWORD PTR ___that$[ebp]
	add	ecx, 24					; 00000018H
	push	ecx
	mov	ecx, DWORD PTR _this$[ebp]
	add	ecx, 24					; 00000018H
	call	??4?$queue@VReceivedMessage@ConnectorManager@connector@monitoring@ibmras@@V?$deque@VReceivedMessage@ConnectorManager@connector@monitoring@ibmras@@V?$allocator@VReceivedMessage@ConnectorManager@connector@monitoring@ibmras@@@std@@@std@@@std@@QAEAAV01@ABV01@@Z ; std::queue<ibmras::monitoring::connector::ConnectorManager::ReceivedMessage,std::deque<ibmras::monitoring::connector::ConnectorManager::ReceivedMessage,std::allocator<ibmras::monitoring::connector::ConnectorManager::ReceivedMessage> > >::operator=
	mov	edx, DWORD PTR ___that$[ebp]
	mov	eax, DWORD PTR [edx+48]
	mov	ecx, DWORD PTR _this$[ebp]
	mov	DWORD PTR [ecx+48], eax
	mov	edx, DWORD PTR ___that$[ebp]
	mov	eax, DWORD PTR [edx+52]
	mov	ecx, DWORD PTR _this$[ebp]
	mov	DWORD PTR [ecx+52], eax
	mov	edx, DWORD PTR ___that$[ebp]
	add	edx, 56					; 00000038H
	push	edx
	mov	ecx, DWORD PTR _this$[ebp]
	add	ecx, 56					; 00000038H
	call	??4?$set@PAVConnector@connector@monitoring@ibmras@@U?$less@PAVConnector@connector@monitoring@ibmras@@@std@@V?$allocator@PAVConnector@connector@monitoring@ibmras@@@6@@std@@QAEAAV01@ABV01@@Z ; std::set<ibmras::monitoring::connector::Connector *,std::less<ibmras::monitoring::connector::Connector *>,std::allocator<ibmras::monitoring::connector::Connector *> >::operator=
	mov	eax, DWORD PTR ___that$[ebp]
	add	eax, 72					; 00000048H
	push	eax
	mov	ecx, DWORD PTR _this$[ebp]
	add	ecx, 72					; 00000048H
	call	??4?$set@PAVReceiver@connector@monitoring@ibmras@@U?$less@PAVReceiver@connector@monitoring@ibmras@@@std@@V?$allocator@PAVReceiver@connector@monitoring@ibmras@@@6@@std@@QAEAAV01@ABV01@@Z ; std::set<ibmras::monitoring::connector::Receiver *,std::less<ibmras::monitoring::connector::Receiver *>,std::allocator<ibmras::monitoring::connector::Receiver *> >::operator=
	mov	eax, DWORD PTR _this$[ebp]
	mov	esp, ebp
	pop	ebp
	ret	4
??4ConnectorManager@connector@monitoring@ibmras@@QAEAAV0123@ABV0123@@Z ENDP ; ibmras::monitoring::connector::ConnectorManager::operator=
_TEXT	ENDS
PUBLIC	??_GConnectorManager@connector@monitoring@ibmras@@UAEPAXI@Z ; ibmras::monitoring::connector::ConnectorManager::`scalar deleting destructor'
EXTRN	??1ConnectorManager@connector@monitoring@ibmras@@UAE@XZ:PROC ; ibmras::monitoring::connector::ConnectorManager::~ConnectorManager
; Function compile flags: /Odtp
;	COMDAT ??_GConnectorManager@connector@monitoring@ibmras@@UAEPAXI@Z
_TEXT	SEGMENT
_this$ = -4						; size = 4
___flags$ = 8						; size = 4
??_GConnectorManager@connector@monitoring@ibmras@@UAEPAXI@Z PROC ; ibmras::monitoring::connector::ConnectorManager::`scalar deleting destructor', COMDAT
; _this$ = ecx
	push	ebp
	mov	ebp, esp
	push	ecx
	mov	DWORD PTR _this$[ebp], ecx
	mov	ecx, DWORD PTR _this$[ebp]
	call	??1ConnectorManager@connector@monitoring@ibmras@@UAE@XZ ; ibmras::monitoring::connector::ConnectorManager::~ConnectorManager
	mov	eax, DWORD PTR ___flags$[ebp]
	and	eax, 1
	je	SHORT $LN1@scalar@4
	mov	ecx, DWORD PTR _this$[ebp]
	push	ecx
	call	??3@YAXPAX@Z				; operator delete
	add	esp, 4
$LN1@scalar@4:
	mov	eax, DWORD PTR _this$[ebp]
	mov	esp, ebp
	pop	ebp
	ret	4
??_GConnectorManager@connector@monitoring@ibmras@@UAEPAXI@Z ENDP ; ibmras::monitoring::connector::ConnectorManager::`scalar deleting destructor'
; Function compile flags: /Odtp
_TEXT	ENDS
;	COMDAT ??_EConnectorManager@connector@monitoring@ibmras@@UAEPAXI@Z
_TEXT	SEGMENT
_this$ = -4						; size = 4
___flags$ = 8						; size = 4
??_EConnectorManager@connector@monitoring@ibmras@@UAEPAXI@Z PROC ; ibmras::monitoring::connector::ConnectorManager::`vector deleting destructor', COMDAT
; _this$ = ecx
	push	ebp
	mov	ebp, esp
	push	ecx
	mov	DWORD PTR _this$[ebp], ecx
	mov	eax, DWORD PTR ___flags$[ebp]
	and	eax, 2
	je	SHORT $LN3@vector@2
	push	OFFSET ??1ConnectorManager@connector@monitoring@ibmras@@UAE@XZ ; ibmras::monitoring::connector::ConnectorManager::~ConnectorManager
	mov	ecx, DWORD PTR _this$[ebp]
	mov	edx, DWORD PTR [ecx-4]
	push	edx
	push	88					; 00000058H
	mov	eax, DWORD PTR _this$[ebp]
	push	eax
	call	??_M@YGXPAXIHP6EX0@Z@Z
	mov	ecx, DWORD PTR ___flags$[ebp]
	and	ecx, 1
	je	SHORT $LN2@vector@2
	mov	edx, DWORD PTR _this$[ebp]
	sub	edx, 4
	push	edx
	call	??_V@YAXPAX@Z				; operator delete[]
	add	esp, 4
$LN2@vector@2:
	mov	eax, DWORD PTR _this$[ebp]
	sub	eax, 4
	jmp	SHORT $LN4@vector@2
$LN3@vector@2:
	mov	ecx, DWORD PTR _this$[ebp]
	call	??1ConnectorManager@connector@monitoring@ibmras@@UAE@XZ ; ibmras::monitoring::connector::ConnectorManager::~ConnectorManager
	mov	eax, DWORD PTR ___flags$[ebp]
	and	eax, 1
	je	SHORT $LN1@vector@2
	mov	ecx, DWORD PTR _this$[ebp]
	push	ecx
	call	??3@YAXPAX@Z				; operator delete
	add	esp, 4
$LN1@vector@2:
	mov	eax, DWORD PTR _this$[ebp]
$LN4@vector@2:
	mov	esp, ebp
	pop	ebp
	ret	4
??_EConnectorManager@connector@monitoring@ibmras@@UAEPAXI@Z ENDP ; ibmras::monitoring::connector::ConnectorManager::`vector deleting destructor'
; Function compile flags: /Odtp
_TEXT	ENDS
;	COMDAT ??0Connector@connector@monitoring@ibmras@@QAE@ABV0123@@Z
_TEXT	SEGMENT
_this$ = -4						; size = 4
___that$ = 8						; size = 4
??0Connector@connector@monitoring@ibmras@@QAE@ABV0123@@Z PROC ; ibmras::monitoring::connector::Connector::Connector, COMDAT
; _this$ = ecx
	push	ebp
	mov	ebp, esp
	push	ecx
	mov	DWORD PTR _this$[ebp], ecx
	mov	eax, DWORD PTR _this$[ebp]
	mov	DWORD PTR [eax], OFFSET ??_7Connector@connector@monitoring@ibmras@@6B@
	mov	eax, DWORD PTR _this$[ebp]
	mov	esp, ebp
	pop	ebp
	ret	4
??0Connector@connector@monitoring@ibmras@@QAE@ABV0123@@Z ENDP ; ibmras::monitoring::connector::Connector::Connector
; Function compile flags: /Odtp
_TEXT	ENDS
;	COMDAT ??0Receiver@connector@monitoring@ibmras@@QAE@ABV0123@@Z
_TEXT	SEGMENT
_this$ = -4						; size = 4
___that$ = 8						; size = 4
??0Receiver@connector@monitoring@ibmras@@QAE@ABV0123@@Z PROC ; ibmras::monitoring::connector::Receiver::Receiver, COMDAT
; _this$ = ecx
	push	ebp
	mov	ebp, esp
	push	ecx
	mov	DWORD PTR _this$[ebp], ecx
	mov	eax, DWORD PTR _this$[ebp]
	mov	DWORD PTR [eax], OFFSET ??_7Receiver@connector@monitoring@ibmras@@6B@
	mov	eax, DWORD PTR _this$[ebp]
	mov	esp, ebp
	pop	ebp
	ret	4
??0Receiver@connector@monitoring@ibmras@@QAE@ABV0123@@Z ENDP ; ibmras::monitoring::connector::Receiver::Receiver
_TEXT	ENDS
PUBLIC	??1?$deque@VReceivedMessage@ConnectorManager@connector@monitoring@ibmras@@V?$allocator@VReceivedMessage@ConnectorManager@connector@monitoring@ibmras@@@std@@@std@@QAE@XZ ; std::deque<ibmras::monitoring::connector::ConnectorManager::ReceivedMessage,std::allocator<ibmras::monitoring::connector::ConnectorManager::ReceivedMessage> >::~deque<ibmras::monitoring::connector::ConnectorManager::ReceivedMessage,std::allocator<ibmras::monitoring::connector::ConnectorManager::ReceivedMessage> >
; Function compile flags: /Odtp
;	COMDAT ??1?$queue@VReceivedMessage@ConnectorManager@connector@monitoring@ibmras@@V?$deque@VReceivedMessage@ConnectorManager@connector@monitoring@ibmras@@V?$allocator@VReceivedMessage@ConnectorManager@connector@monitoring@ibmras@@@std@@@std@@@std@@QAE@XZ
_TEXT	SEGMENT
_this$ = -4						; size = 4
??1?$queue@VReceivedMessage@ConnectorManager@connector@monitoring@ibmras@@V?$deque@VReceivedMessage@ConnectorManager@connector@monitoring@ibmras@@V?$allocator@VReceivedMessage@ConnectorManager@connector@monitoring@ibmras@@@std@@@std@@@std@@QAE@XZ PROC ; std::queue<ibmras::monitoring::connector::ConnectorManager::ReceivedMessage,std::deque<ibmras::monitoring::connector::ConnectorManager::ReceivedMessage,std::allocator<ibmras::monitoring::connector::ConnectorManager::ReceivedMessage> > >::~queue<ibmras::monitoring::connector::ConnectorManager::ReceivedMessage,std::deque<ibmras::monitoring::connector::ConnectorManager::ReceivedMessage,std::allocator<ibmras::monitoring::connector::ConnectorManager::ReceivedMessage> > >, COMDAT
; _this$ = ecx
	push	ebp
	mov	ebp, esp
	push	ecx
	mov	DWORD PTR _this$[ebp], ecx
	mov	ecx, DWORD PTR _this$[ebp]
	call	??1?$deque@VReceivedMessage@ConnectorManager@connector@monitoring@ibmras@@V?$allocator@VReceivedMessage@ConnectorManager@connector@monitoring@ibmras@@@std@@@std@@QAE@XZ ; std::deque<ibmras::monitoring::connector::ConnectorManager::ReceivedMessage,std::allocator<ibmras::monitoring::connector::ConnectorManager::ReceivedMessage> >::~deque<ibmras::monitoring::connector::ConnectorManager::ReceivedMessage,std::allocator<ibmras::monitoring::connector::ConnectorManager::ReceivedMessage> >
	mov	esp, ebp
	pop	ebp
	ret	0
??1?$queue@VReceivedMessage@ConnectorManager@connector@monitoring@ibmras@@V?$deque@VReceivedMessage@ConnectorManager@connector@monitoring@ibmras@@V?$allocator@VReceivedMessage@ConnectorManager@connector@monitoring@ibmras@@@std@@@std@@@std@@QAE@XZ ENDP ; std::queue<ibmras::monitoring::connector::ConnectorManager::ReceivedMessage,std::deque<ibmras::monitoring::connector::ConnectorManager::ReceivedMessage,std::allocator<ibmras::monitoring::connector::ConnectorManager::ReceivedMessage> > >::~queue<ibmras::monitoring::connector::ConnectorManager::ReceivedMessage,std::deque<ibmras::monitoring::connector::ConnectorManager::ReceivedMessage,std::allocator<ibmras::monitoring::connector::ConnectorManager::ReceivedMessage> > >
_TEXT	ENDS
PUBLIC	??1?$_Tree@V?$_Tset_traits@PAVConnector@connector@monitoring@ibmras@@U?$less@PAVConnector@connector@monitoring@ibmras@@@std@@V?$allocator@PAVConnector@connector@monitoring@ibmras@@@6@$0A@@std@@@std@@QAE@XZ ; std::_Tree<std::_Tset_traits<ibmras::monitoring::connector::Connector *,std::less<ibmras::monitoring::connector::Connector *>,std::allocator<ibmras::monitoring::connector::Connector *>,0> >::~_Tree<std::_Tset_traits<ibmras::monitoring::connector::Connector *,std::less<ibmras::monitoring::connector::Connector *>,std::allocator<ibmras::monitoring::connector::Connector *>,0> >
; Function compile flags: /Odtp
;	COMDAT ??1?$set@PAVConnector@connector@monitoring@ibmras@@U?$less@PAVConnector@connector@monitoring@ibmras@@@std@@V?$allocator@PAVConnector@connector@monitoring@ibmras@@@6@@std@@QAE@XZ
_TEXT	SEGMENT
_this$ = -4						; size = 4
??1?$set@PAVConnector@connector@monitoring@ibmras@@U?$less@PAVConnector@connector@monitoring@ibmras@@@std@@V?$allocator@PAVConnector@connector@monitoring@ibmras@@@6@@std@@QAE@XZ PROC ; std::set<ibmras::monitoring::connector::Connector *,std::less<ibmras::monitoring::connector::Connector *>,std::allocator<ibmras::monitoring::connector::Connector *> >::~set<ibmras::monitoring::connector::Connector *,std::less<ibmras::monitoring::connector::Connector *>,std::allocator<ibmras::monitoring::connector::Connector *> >, COMDAT
; _this$ = ecx
	push	ebp
	mov	ebp, esp
	push	ecx
	mov	DWORD PTR _this$[ebp], ecx
	mov	ecx, DWORD PTR _this$[ebp]
	call	??1?$_Tree@V?$_Tset_traits@PAVConnector@connector@monitoring@ibmras@@U?$less@PAVConnector@connector@monitoring@ibmras@@@std@@V?$allocator@PAVConnector@connector@monitoring@ibmras@@@6@$0A@@std@@@std@@QAE@XZ ; std::_Tree<std::_Tset_traits<ibmras::monitoring::connector::Connector *,std::less<ibmras::monitoring::connector::Connector *>,std::allocator<ibmras::monitoring::connector::Connector *>,0> >::~_Tree<std::_Tset_traits<ibmras::monitoring::connector::Connector *,std::less<ibmras::monitoring::connector::Connector *>,std::allocator<ibmras::monitoring::connector::Connector *>,0> >
	mov	esp, ebp
	pop	ebp
	ret	0
??1?$set@PAVConnector@connector@monitoring@ibmras@@U?$less@PAVConnector@connector@monitoring@ibmras@@@std@@V?$allocator@PAVConnector@connector@monitoring@ibmras@@@6@@std@@QAE@XZ ENDP ; std::set<ibmras::monitoring::connector::Connector *,std::less<ibmras::monitoring::connector::Connector *>,std::allocator<ibmras::monitoring::connector::Connector *> >::~set<ibmras::monitoring::connector::Connector *,std::less<ibmras::monitoring::connector::Connector *>,std::allocator<ibmras::monitoring::connector::Connector *> >
; Function compile flags: /Odtp
_TEXT	ENDS
;	COMDAT ??4Connector@connector@monitoring@ibmras@@QAEAAV0123@ABV0123@@Z
_TEXT	SEGMENT
_this$ = -4						; size = 4
___that$ = 8						; size = 4
??4Connector@connector@monitoring@ibmras@@QAEAAV0123@ABV0123@@Z PROC ; ibmras::monitoring::connector::Connector::operator=, COMDAT
; _this$ = ecx
	push	ebp
	mov	ebp, esp
	push	ecx
	mov	DWORD PTR _this$[ebp], ecx
	mov	eax, DWORD PTR _this$[ebp]
	mov	esp, ebp
	pop	ebp
	ret	4
??4Connector@connector@monitoring@ibmras@@QAEAAV0123@ABV0123@@Z ENDP ; ibmras::monitoring::connector::Connector::operator=
; Function compile flags: /Odtp
_TEXT	ENDS
;	COMDAT ??4Receiver@connector@monitoring@ibmras@@QAEAAV0123@ABV0123@@Z
_TEXT	SEGMENT
_this$ = -4						; size = 4
___that$ = 8						; size = 4
??4Receiver@connector@monitoring@ibmras@@QAEAAV0123@ABV0123@@Z PROC ; ibmras::monitoring::connector::Receiver::operator=, COMDAT
; _this$ = ecx
	push	ebp
	mov	ebp, esp
	push	ecx
	mov	DWORD PTR _this$[ebp], ecx
	mov	eax, DWORD PTR _this$[ebp]
	mov	esp, ebp
	pop	ebp
	ret	4
??4Receiver@connector@monitoring@ibmras@@QAEAAV0123@ABV0123@@Z ENDP ; ibmras::monitoring::connector::Receiver::operator=
_TEXT	ENDS
PUBLIC	??1?$map@V?$basic_string@DU?$char_traits@D@std@@V?$allocator@D@2@@std@@V12@U?$less@V?$basic_string@DU?$char_traits@D@std@@V?$allocator@D@2@@std@@@2@V?$allocator@U?$pair@$$CBV?$basic_string@DU?$char_traits@D@std@@V?$allocator@D@2@@std@@V12@@std@@@2@@std@@QAE@XZ ; std::map<std::basic_string<char,std::char_traits<char>,std::allocator<char> >,std::basic_string<char,std::char_traits<char>,std::allocator<char> >,std::less<std::basic_string<char,std::char_traits<char>,std::allocator<char> > >,std::allocator<std::pair<std::basic_string<char,std::char_traits<char>,std::allocator<char> > const ,std::basic_string<char,std::char_traits<char>,std::allocator<char> > > > >::~map<std::basic_string<char,std::char_traits<char>,std::allocator<char> >,std::basic_string<char,std::char_traits<char>,std::allocator<char> >,std::less<std::basic_string<char,std::char_traits<char>,std::allocator<char> > >,std::allocator<std::pair<std::basic_string<char,std::char_traits<char>,std::allocator<char> > const ,std::basic_string<char,std::char_traits<char>,std::allocator<char> > > > >
PUBLIC	??_7Properties@common@ibmras@@6B@		; ibmras::common::Properties::`vftable'
PUBLIC	??1Properties@common@ibmras@@UAE@XZ		; ibmras::common::Properties::~Properties
PUBLIC	??_R4Properties@common@ibmras@@6B@		; ibmras::common::Properties::`RTTI Complete Object Locator'
PUBLIC	??_R0?AVProperties@common@ibmras@@@8		; ibmras::common::Properties `RTTI Type Descriptor'
PUBLIC	??_R3Properties@common@ibmras@@8		; ibmras::common::Properties::`RTTI Class Hierarchy Descriptor'
PUBLIC	??_R2Properties@common@ibmras@@8		; ibmras::common::Properties::`RTTI Base Class Array'
PUBLIC	??_R1A@?0A@EA@Properties@common@ibmras@@8	; ibmras::common::Properties::`RTTI Base Class Descriptor at (0,-1,0,64)'
PUBLIC	??_EProperties@common@ibmras@@UAEPAXI@Z		; ibmras::common::Properties::`vector deleting destructor'
EXTRN	?get@Properties@common@ibmras@@UAE?AV?$basic_string@DU?$char_traits@D@std@@V?$allocator@D@2@@std@@ABV45@0@Z:PROC ; ibmras::common::Properties::get
EXTRN	?exists@Properties@common@ibmras@@UAE_NABV?$basic_string@DU?$char_traits@D@std@@V?$allocator@D@2@@std@@@Z:PROC ; ibmras::common::Properties::exists
EXTRN	?put@Properties@common@ibmras@@UAEXABV?$basic_string@DU?$char_traits@D@std@@V?$allocator@D@2@@std@@0@Z:PROC ; ibmras::common::Properties::put
EXTRN	?add@Properties@common@ibmras@@UAEXABV?$basic_string@DU?$char_traits@D@std@@V?$allocator@D@2@@std@@@Z:PROC ; ibmras::common::Properties::add
EXTRN	?add@Properties@common@ibmras@@UAEXABV123@@Z:PROC ; ibmras::common::Properties::add
EXTRN	?getKeys@Properties@common@ibmras@@UAE?AV?$list@V?$basic_string@DU?$char_traits@D@std@@V?$allocator@D@2@@std@@V?$allocator@V?$basic_string@DU?$char_traits@D@std@@V?$allocator@D@2@@std@@@2@@std@@ABV?$basic_string@DU?$char_traits@D@std@@V?$allocator@D@2@@5@@Z:PROC ; ibmras::common::Properties::getKeys
EXTRN	?toString@Properties@common@ibmras@@UAE?AV?$basic_string@DU?$char_traits@D@std@@V?$allocator@D@2@@std@@XZ:PROC ; ibmras::common::Properties::toString
;	COMDAT ??_R1A@?0A@EA@Properties@common@ibmras@@8
; File c:\workspaces\newagent2\runtime.tools\src\ibmras\common\properties.h
rdata$r	SEGMENT
??_R1A@?0A@EA@Properties@common@ibmras@@8 DD FLAT:??_R0?AVProperties@common@ibmras@@@8 ; ibmras::common::Properties::`RTTI Base Class Descriptor at (0,-1,0,64)'
	DD	00H
	DD	00H
	DD	0ffffffffH
	DD	00H
	DD	040H
	DD	FLAT:??_R3Properties@common@ibmras@@8
rdata$r	ENDS
;	COMDAT ??_R2Properties@common@ibmras@@8
rdata$r	SEGMENT
??_R2Properties@common@ibmras@@8 DD FLAT:??_R1A@?0A@EA@Properties@common@ibmras@@8 ; ibmras::common::Properties::`RTTI Base Class Array'
rdata$r	ENDS
;	COMDAT ??_R3Properties@common@ibmras@@8
rdata$r	SEGMENT
??_R3Properties@common@ibmras@@8 DD 00H			; ibmras::common::Properties::`RTTI Class Hierarchy Descriptor'
	DD	00H
	DD	01H
	DD	FLAT:??_R2Properties@common@ibmras@@8
rdata$r	ENDS
;	COMDAT ??_R0?AVProperties@common@ibmras@@@8
_DATA	SEGMENT
??_R0?AVProperties@common@ibmras@@@8 DD FLAT:??_7type_info@@6B@ ; ibmras::common::Properties `RTTI Type Descriptor'
	DD	00H
	DB	'.?AVProperties@common@ibmras@@', 00H
_DATA	ENDS
;	COMDAT ??_R4Properties@common@ibmras@@6B@
rdata$r	SEGMENT
??_R4Properties@common@ibmras@@6B@ DD 00H		; ibmras::common::Properties::`RTTI Complete Object Locator'
	DD	00H
	DD	00H
	DD	FLAT:??_R0?AVProperties@common@ibmras@@@8
	DD	FLAT:??_R3Properties@common@ibmras@@8
rdata$r	ENDS
;	COMDAT ??_7Properties@common@ibmras@@6B@
CONST	SEGMENT
??_7Properties@common@ibmras@@6B@ DD FLAT:??_R4Properties@common@ibmras@@6B@ ; ibmras::common::Properties::`vftable'
	DD	FLAT:?get@Properties@common@ibmras@@UAE?AV?$basic_string@DU?$char_traits@D@std@@V?$allocator@D@2@@std@@ABV45@0@Z
	DD	FLAT:?exists@Properties@common@ibmras@@UAE_NABV?$basic_string@DU?$char_traits@D@std@@V?$allocator@D@2@@std@@@Z
	DD	FLAT:?put@Properties@common@ibmras@@UAEXABV?$basic_string@DU?$char_traits@D@std@@V?$allocator@D@2@@std@@0@Z
	DD	FLAT:?add@Properties@common@ibmras@@UAEXABV?$basic_string@DU?$char_traits@D@std@@V?$allocator@D@2@@std@@@Z
	DD	FLAT:?add@Properties@common@ibmras@@UAEXABV123@@Z
	DD	FLAT:?getKeys@Properties@common@ibmras@@UAE?AV?$list@V?$basic_string@DU?$char_traits@D@std@@V?$allocator@D@2@@std@@V?$allocator@V?$basic_string@DU?$char_traits@D@std@@V?$allocator@D@2@@std@@@2@@std@@ABV?$basic_string@DU?$char_traits@D@std@@V?$allocator@D@2@@5@@Z
	DD	FLAT:?toString@Properties@common@ibmras@@UAE?AV?$basic_string@DU?$char_traits@D@std@@V?$allocator@D@2@@std@@XZ
	DD	FLAT:??_EProperties@common@ibmras@@UAEPAXI@Z
; Function compile flags: /Odtp
CONST	ENDS
;	COMDAT ??1Properties@common@ibmras@@UAE@XZ
_TEXT	SEGMENT
_this$ = -4						; size = 4
??1Properties@common@ibmras@@UAE@XZ PROC		; ibmras::common::Properties::~Properties, COMDAT
; _this$ = ecx
; Line 34
	push	ebp
	mov	ebp, esp
	push	ecx
	mov	DWORD PTR _this$[ebp], ecx
	mov	eax, DWORD PTR _this$[ebp]
	mov	DWORD PTR [eax], OFFSET ??_7Properties@common@ibmras@@6B@
	mov	ecx, DWORD PTR _this$[ebp]
	add	ecx, 4
	call	??1?$map@V?$basic_string@DU?$char_traits@D@std@@V?$allocator@D@2@@std@@V12@U?$less@V?$basic_string@DU?$char_traits@D@std@@V?$allocator@D@2@@std@@@2@V?$allocator@U?$pair@$$CBV?$basic_string@DU?$char_traits@D@std@@V?$allocator@D@2@@std@@V12@@std@@@2@@std@@QAE@XZ
	mov	esp, ebp
	pop	ebp
	ret	0
??1Properties@common@ibmras@@UAE@XZ ENDP		; ibmras::common::Properties::~Properties
_TEXT	ENDS
PUBLIC	??0?$map@V?$basic_string@DU?$char_traits@D@std@@V?$allocator@D@2@@std@@V12@U?$less@V?$basic_string@DU?$char_traits@D@std@@V?$allocator@D@2@@std@@@2@V?$allocator@U?$pair@$$CBV?$basic_string@DU?$char_traits@D@std@@V?$allocator@D@2@@std@@V12@@std@@@2@@std@@QAE@XZ ; std::map<std::basic_string<char,std::char_traits<char>,std::allocator<char> >,std::basic_string<char,std::char_traits<char>,std::allocator<char> >,std::less<std::basic_string<char,std::char_traits<char>,std::allocator<char> > >,std::allocator<std::pair<std::basic_string<char,std::char_traits<char>,std::allocator<char> > const ,std::basic_string<char,std::char_traits<char>,std::allocator<char> > > > >::map<std::basic_string<char,std::char_traits<char>,std::allocator<char> >,std::basic_string<char,std::char_traits<char>,std::allocator<char> >,std::less<std::basic_string<char,std::char_traits<char>,std::allocator<char> > >,std::allocator<std::pair<std::basic_string<char,std::char_traits<char>,std::allocator<char> > const ,std::basic_string<char,std::char_traits<char>,std::allocator<char> > > > >
PUBLIC	??0Properties@common@ibmras@@QAE@XZ		; ibmras::common::Properties::Properties
; Function compile flags: /Odtp
;	COMDAT ??0Properties@common@ibmras@@QAE@XZ
_TEXT	SEGMENT
_this$ = -4						; size = 4
??0Properties@common@ibmras@@QAE@XZ PROC		; ibmras::common::Properties::Properties, COMDAT
; _this$ = ecx
	push	ebp
	mov	ebp, esp
	push	ecx
	mov	DWORD PTR _this$[ebp], ecx
	mov	eax, DWORD PTR _this$[ebp]
	mov	DWORD PTR [eax], OFFSET ??_7Properties@common@ibmras@@6B@
	mov	ecx, DWORD PTR _this$[ebp]
	add	ecx, 4
	call	??0?$map@V?$basic_string@DU?$char_traits@D@std@@V?$allocator@D@2@@std@@V12@U?$less@V?$basic_string@DU?$char_traits@D@std@@V?$allocator@D@2@@std@@@2@V?$allocator@U?$pair@$$CBV?$basic_string@DU?$char_traits@D@std@@V?$allocator@D@2@@std@@V12@@std@@@2@@std@@QAE@XZ ; std::map<std::basic_string<char,std::char_traits<char>,std::allocator<char> >,std::basic_string<char,std::char_traits<char>,std::allocator<char> >,std::less<std::basic_string<char,std::char_traits<char>,std::allocator<char> > >,std::allocator<std::pair<std::basic_string<char,std::char_traits<char>,std::allocator<char> > const ,std::basic_string<char,std::char_traits<char>,std::allocator<char> > > > >::map<std::basic_string<char,std::char_traits<char>,std::allocator<char> >,std::basic_string<char,std::char_traits<char>,std::allocator<char> >,std::less<std::basic_string<char,std::char_traits<char>,std::allocator<char> > >,std::allocator<std::pair<std::basic_string<char,std::char_traits<char>,std::allocator<char> > const ,std::basic_string<char,std::char_traits<char>,std::allocator<char> > > > >
	mov	eax, DWORD PTR _this$[ebp]
	mov	esp, ebp
	pop	ebp
	ret	0
??0Properties@common@ibmras@@QAE@XZ ENDP		; ibmras::common::Properties::Properties
_TEXT	ENDS
PUBLIC	??0?$map@V?$basic_string@DU?$char_traits@D@std@@V?$allocator@D@2@@std@@V12@U?$less@V?$basic_string@DU?$char_traits@D@std@@V?$allocator@D@2@@std@@@2@V?$allocator@U?$pair@$$CBV?$basic_string@DU?$char_traits@D@std@@V?$allocator@D@2@@std@@V12@@std@@@2@@std@@QAE@ABV01@@Z ; std::map<std::basic_string<char,std::char_traits<char>,std::allocator<char> >,std::basic_string<char,std::char_traits<char>,std::allocator<char> >,std::less<std::basic_string<char,std::char_traits<char>,std::allocator<char> > >,std::allocator<std::pair<std::basic_string<char,std::char_traits<char>,std::allocator<char> > const ,std::basic_string<char,std::char_traits<char>,std::allocator<char> > > > >::map<std::basic_string<char,std::char_traits<char>,std::allocator<char> >,std::basic_string<char,std::char_traits<char>,std::allocator<char> >,std::less<std::basic_string<char,std::char_traits<char>,std::allocator<char> > >,std::allocator<std::pair<std::basic_string<char,std::char_traits<char>,std::allocator<char> > const ,std::basic_string<char,std::char_traits<char>,std::allocator<char> > > > >
PUBLIC	??0Properties@common@ibmras@@QAE@ABV012@@Z	; ibmras::common::Properties::Properties
; Function compile flags: /Odtp
;	COMDAT ??0Properties@common@ibmras@@QAE@ABV012@@Z
_TEXT	SEGMENT
_this$ = -4						; size = 4
___that$ = 8						; size = 4
??0Properties@common@ibmras@@QAE@ABV012@@Z PROC		; ibmras::common::Properties::Properties, COMDAT
; _this$ = ecx
	push	ebp
	mov	ebp, esp
	push	ecx
	mov	DWORD PTR _this$[ebp], ecx
	mov	eax, DWORD PTR _this$[ebp]
	mov	DWORD PTR [eax], OFFSET ??_7Properties@common@ibmras@@6B@
	mov	ecx, DWORD PTR ___that$[ebp]
	add	ecx, 4
	push	ecx
	mov	ecx, DWORD PTR _this$[ebp]
	add	ecx, 4
	call	??0?$map@V?$basic_string@DU?$char_traits@D@std@@V?$allocator@D@2@@std@@V12@U?$less@V?$basic_string@DU?$char_traits@D@std@@V?$allocator@D@2@@std@@@2@V?$allocator@U?$pair@$$CBV?$basic_string@DU?$char_traits@D@std@@V?$allocator@D@2@@std@@V12@@std@@@2@@std@@QAE@ABV01@@Z ; std::map<std::basic_string<char,std::char_traits<char>,std::allocator<char> >,std::basic_string<char,std::char_traits<char>,std::allocator<char> >,std::less<std::basic_string<char,std::char_traits<char>,std::allocator<char> > >,std::allocator<std::pair<std::basic_string<char,std::char_traits<char>,std::allocator<char> > const ,std::basic_string<char,std::char_traits<char>,std::allocator<char> > > > >::map<std::basic_string<char,std::char_traits<char>,std::allocator<char> >,std::basic_string<char,std::char_traits<char>,std::allocator<char> >,std::less<std::basic_string<char,std::char_traits<char>,std::allocator<char> > >,std::allocator<std::pair<std::basic_string<char,std::char_traits<char>,std::allocator<char> > const ,std::basic_string<char,std::char_traits<char>,std::allocator<char> > > > >
	mov	eax, DWORD PTR _this$[ebp]
	mov	esp, ebp
	pop	ebp
	ret	4
??0Properties@common@ibmras@@QAE@ABV012@@Z ENDP		; ibmras::common::Properties::Properties
_TEXT	ENDS
PUBLIC	??4?$map@V?$basic_string@DU?$char_traits@D@std@@V?$allocator@D@2@@std@@V12@U?$less@V?$basic_string@DU?$char_traits@D@std@@V?$allocator@D@2@@std@@@2@V?$allocator@U?$pair@$$CBV?$basic_string@DU?$char_traits@D@std@@V?$allocator@D@2@@std@@V12@@std@@@2@@std@@QAEAAV01@ABV01@@Z ; std::map<std::basic_string<char,std::char_traits<char>,std::allocator<char> >,std::basic_string<char,std::char_traits<char>,std::allocator<char> >,std::less<std::basic_string<char,std::char_traits<char>,std::allocator<char> > >,std::allocator<std::pair<std::basic_string<char,std::char_traits<char>,std::allocator<char> > const ,std::basic_string<char,std::char_traits<char>,std::allocator<char> > > > >::operator=
PUBLIC	??4Properties@common@ibmras@@QAEAAV012@ABV012@@Z ; ibmras::common::Properties::operator=
; Function compile flags: /Odtp
;	COMDAT ??4Properties@common@ibmras@@QAEAAV012@ABV012@@Z
_TEXT	SEGMENT
_this$ = -4						; size = 4
___that$ = 8						; size = 4
??4Properties@common@ibmras@@QAEAAV012@ABV012@@Z PROC	; ibmras::common::Properties::operator=, COMDAT
; _this$ = ecx
	push	ebp
	mov	ebp, esp
	push	ecx
	mov	DWORD PTR _this$[ebp], ecx
	mov	eax, DWORD PTR ___that$[ebp]
	add	eax, 4
	push	eax
	mov	ecx, DWORD PTR _this$[ebp]
	add	ecx, 4
	call	??4?$map@V?$basic_string@DU?$char_traits@D@std@@V?$allocator@D@2@@std@@V12@U?$less@V?$basic_string@DU?$char_traits@D@std@@V?$allocator@D@2@@std@@@2@V?$allocator@U?$pair@$$CBV?$basic_string@DU?$char_traits@D@std@@V?$allocator@D@2@@std@@V12@@std@@@2@@std@@QAEAAV01@ABV01@@Z ; std::map<std::basic_string<char,std::char_traits<char>,std::allocator<char> >,std::basic_string<char,std::char_traits<char>,std::allocator<char> >,std::less<std::basic_string<char,std::char_traits<char>,std::allocator<char> > >,std::allocator<std::pair<std::basic_string<char,std::char_traits<char>,std::allocator<char> > const ,std::basic_string<char,std::char_traits<char>,std::allocator<char> > > > >::operator=
	mov	eax, DWORD PTR _this$[ebp]
	mov	esp, ebp
	pop	ebp
	ret	4
??4Properties@common@ibmras@@QAEAAV012@ABV012@@Z ENDP	; ibmras::common::Properties::operator=
_TEXT	ENDS
PUBLIC	??_GProperties@common@ibmras@@UAEPAXI@Z		; ibmras::common::Properties::`scalar deleting destructor'
; Function compile flags: /Odtp
;	COMDAT ??_GProperties@common@ibmras@@UAEPAXI@Z
_TEXT	SEGMENT
_this$ = -4						; size = 4
___flags$ = 8						; size = 4
??_GProperties@common@ibmras@@UAEPAXI@Z PROC		; ibmras::common::Properties::`scalar deleting destructor', COMDAT
; _this$ = ecx
	push	ebp
	mov	ebp, esp
	push	ecx
	mov	DWORD PTR _this$[ebp], ecx
	mov	ecx, DWORD PTR _this$[ebp]
	call	??1Properties@common@ibmras@@UAE@XZ	; ibmras::common::Properties::~Properties
	mov	eax, DWORD PTR ___flags$[ebp]
	and	eax, 1
	je	SHORT $LN1@scalar@5
	mov	ecx, DWORD PTR _this$[ebp]
	push	ecx
	call	??3@YAXPAX@Z				; operator delete
	add	esp, 4
$LN1@scalar@5:
	mov	eax, DWORD PTR _this$[ebp]
	mov	esp, ebp
	pop	ebp
	ret	4
??_GProperties@common@ibmras@@UAEPAXI@Z ENDP		; ibmras::common::Properties::`scalar deleting destructor'
; Function compile flags: /Odtp
_TEXT	ENDS
;	COMDAT ??_EProperties@common@ibmras@@UAEPAXI@Z
_TEXT	SEGMENT
_this$ = -4						; size = 4
___flags$ = 8						; size = 4
??_EProperties@common@ibmras@@UAEPAXI@Z PROC		; ibmras::common::Properties::`vector deleting destructor', COMDAT
; _this$ = ecx
	push	ebp
	mov	ebp, esp
	push	ecx
	mov	DWORD PTR _this$[ebp], ecx
	mov	eax, DWORD PTR ___flags$[ebp]
	and	eax, 2
	je	SHORT $LN3@vector@3
	push	OFFSET ??1Properties@common@ibmras@@UAE@XZ ; ibmras::common::Properties::~Properties
	mov	ecx, DWORD PTR _this$[ebp]
	mov	edx, DWORD PTR [ecx-4]
	push	edx
	push	20					; 00000014H
	mov	eax, DWORD PTR _this$[ebp]
	push	eax
	call	??_M@YGXPAXIHP6EX0@Z@Z
	mov	ecx, DWORD PTR ___flags$[ebp]
	and	ecx, 1
	je	SHORT $LN2@vector@3
	mov	edx, DWORD PTR _this$[ebp]
	sub	edx, 4
	push	edx
	call	??_V@YAXPAX@Z				; operator delete[]
	add	esp, 4
$LN2@vector@3:
	mov	eax, DWORD PTR _this$[ebp]
	sub	eax, 4
	jmp	SHORT $LN4@vector@3
$LN3@vector@3:
	mov	ecx, DWORD PTR _this$[ebp]
	call	??1Properties@common@ibmras@@UAE@XZ	; ibmras::common::Properties::~Properties
	mov	eax, DWORD PTR ___flags$[ebp]
	and	eax, 1
	je	SHORT $LN1@vector@3
	mov	ecx, DWORD PTR _this$[ebp]
	push	ecx
	call	??3@YAXPAX@Z				; operator delete
	add	esp, 4
$LN1@vector@3:
	mov	eax, DWORD PTR _this$[ebp]
$LN4@vector@3:
	mov	esp, ebp
	pop	ebp
	ret	4
??_EProperties@common@ibmras@@UAEPAXI@Z ENDP		; ibmras::common::Properties::`vector deleting destructor'
_TEXT	ENDS
PUBLIC	??1?$_Tree@V?$_Tmap_traits@V?$basic_string@DU?$char_traits@D@std@@V?$allocator@D@2@@std@@V12@U?$less@V?$basic_string@DU?$char_traits@D@std@@V?$allocator@D@2@@std@@@2@V?$allocator@U?$pair@$$CBV?$basic_string@DU?$char_traits@D@std@@V?$allocator@D@2@@std@@V12@@std@@@2@$0A@@std@@@std@@QAE@XZ ; std::_Tree<std::_Tmap_traits<std::basic_string<char,std::char_traits<char>,std::allocator<char> >,std::basic_string<char,std::char_traits<char>,std::allocator<char> >,std::less<std::basic_string<char,std::char_traits<char>,std::allocator<char> > >,std::allocator<std::pair<std::basic_string<char,std::char_traits<char>,std::allocator<char> > const ,std::basic_string<char,std::char_traits<char>,std::allocator<char> > > >,0> >::~_Tree<std::_Tmap_traits<std::basic_string<char,std::char_traits<char>,std::allocator<char> >,std::basic_string<char,std::char_traits<char>,std::allocator<char> >,std::less<std::basic_string<char,std::char_traits<char>,std::allocator<char> > >,std::allocator<std::pair<std::basic_string<char,std::char_traits<char>,std::allocator<char> > const ,std::basic_string<char,std::char_traits<char>,std::allocator<char> > > >,0> >
; Function compile flags: /Odtp
;	COMDAT ??1?$map@V?$basic_string@DU?$char_traits@D@std@@V?$allocator@D@2@@std@@V12@U?$less@V?$basic_string@DU?$char_traits@D@std@@V?$allocator@D@2@@std@@@2@V?$allocator@U?$pair@$$CBV?$basic_string@DU?$char_traits@D@std@@V?$allocator@D@2@@std@@V12@@std@@@2@@std@@QAE@XZ
_TEXT	SEGMENT
_this$ = -4						; size = 4
??1?$map@V?$basic_string@DU?$char_traits@D@std@@V?$allocator@D@2@@std@@V12@U?$less@V?$basic_string@DU?$char_traits@D@std@@V?$allocator@D@2@@std@@@2@V?$allocator@U?$pair@$$CBV?$basic_string@DU?$char_traits@D@std@@V?$allocator@D@2@@std@@V12@@std@@@2@@std@@QAE@XZ PROC ; std::map<std::basic_string<char,std::char_traits<char>,std::allocator<char> >,std::basic_string<char,std::char_traits<char>,std::allocator<char> >,std::less<std::basic_string<char,std::char_traits<char>,std::allocator<char> > >,std::allocator<std::pair<std::basic_string<char,std::char_traits<char>,std::allocator<char> > const ,std::basic_string<char,std::char_traits<char>,std::allocator<char> > > > >::~map<std::basic_string<char,std::char_traits<char>,std::allocator<char> >,std::basic_string<char,std::char_traits<char>,std::allocator<char> >,std::less<std::basic_string<char,std::char_traits<char>,std::allocator<char> > >,std::allocator<std::pair<std::basic_string<char,std::char_traits<char>,std::allocator<char> > const ,std::basic_string<char,std::char_traits<char>,std::allocator<char> > > > >, COMDAT
; _this$ = ecx
	push	ebp
	mov	ebp, esp
	push	ecx
	mov	DWORD PTR _this$[ebp], ecx
	mov	ecx, DWORD PTR _this$[ebp]
	call	??1?$_Tree@V?$_Tmap_traits@V?$basic_string@DU?$char_traits@D@std@@V?$allocator@D@2@@std@@V12@U?$less@V?$basic_string@DU?$char_traits@D@std@@V?$allocator@D@2@@std@@@2@V?$allocator@U?$pair@$$CBV?$basic_string@DU?$char_traits@D@std@@V?$allocator@D@2@@std@@V12@@std@@@2@$0A@@std@@@std@@QAE@XZ ; std::_Tree<std::_Tmap_traits<std::basic_string<char,std::char_traits<char>,std::allocator<char> >,std::basic_string<char,std::char_traits<char>,std::allocator<char> >,std::less<std::basic_string<char,std::char_traits<char>,std::allocator<char> > >,std::allocator<std::pair<std::basic_string<char,std::char_traits<char>,std::allocator<char> > const ,std::basic_string<char,std::char_traits<char>,std::allocator<char> > > >,0> >::~_Tree<std::_Tmap_traits<std::basic_string<char,std::char_traits<char>,std::allocator<char> >,std::basic_string<char,std::char_traits<char>,std::allocator<char> >,std::less<std::basic_string<char,std::char_traits<char>,std::allocator<char> > >,std::allocator<std::pair<std::basic_string<char,std::char_traits<char>,std::allocator<char> > const ,std::basic_string<char,std::char_traits<char>,std::allocator<char> > > >,0> >
	mov	esp, ebp
	pop	ebp
	ret	0
??1?$map@V?$basic_string@DU?$char_traits@D@std@@V?$allocator@D@2@@std@@V12@U?$less@V?$basic_string@DU?$char_traits@D@std@@V?$allocator@D@2@@std@@@2@V?$allocator@U?$pair@$$CBV?$basic_string@DU?$char_traits@D@std@@V?$allocator@D@2@@std@@V12@@std@@@2@@std@@QAE@XZ ENDP ; std::map<std::basic_string<char,std::char_traits<char>,std::allocator<char> >,std::basic_string<char,std::char_traits<char>,std::allocator<char> >,std::less<std::basic_string<char,std::char_traits<char>,std::allocator<char> > >,std::allocator<std::pair<std::basic_string<char,std::char_traits<char>,std::allocator<char> > const ,std::basic_string<char,std::char_traits<char>,std::allocator<char> > > > >::~map<std::basic_string<char,std::char_traits<char>,std::allocator<char> >,std::basic_string<char,std::char_traits<char>,std::allocator<char> >,std::less<std::basic_string<char,std::char_traits<char>,std::allocator<char> > >,std::allocator<std::pair<std::basic_string<char,std::char_traits<char>,std::allocator<char> > const ,std::basic_string<char,std::char_traits<char>,std::allocator<char> > > > >
_TEXT	ENDS
PUBLIC	??_C@_0BH@NMDFCGG@ConfigurationConnector?$AA@	; `string'
PUBLIC	?getID@ConfigurationConnector@connector@monitoring@ibmras@@UAE?AV?$basic_string@DU?$char_traits@D@std@@V?$allocator@D@2@@std@@XZ ; ibmras::monitoring::connector::ConfigurationConnector::getID
;	COMDAT ??_C@_0BH@NMDFCGG@ConfigurationConnector?$AA@
; File c:\workspaces\newagent2\runtime.tools\src\ibmras\monitoring\connector\configuration\configurationconnector.h
CONST	SEGMENT
??_C@_0BH@NMDFCGG@ConfigurationConnector?$AA@ DB 'ConfigurationConnector', 00H ; `string'
; Function compile flags: /Odtp
CONST	ENDS
;	COMDAT ?getID@ConfigurationConnector@connector@monitoring@ibmras@@UAE?AV?$basic_string@DU?$char_traits@D@std@@V?$allocator@D@2@@std@@XZ
_TEXT	SEGMENT
_this$ = -8						; size = 4
$T119280 = -4						; size = 4
___$ReturnUdt$ = 8					; size = 4
?getID@ConfigurationConnector@connector@monitoring@ibmras@@UAE?AV?$basic_string@DU?$char_traits@D@std@@V?$allocator@D@2@@std@@XZ PROC ; ibmras::monitoring::connector::ConfigurationConnector::getID, COMDAT
; _this$ = ecx
; Line 33
	push	ebp
	mov	ebp, esp
	sub	esp, 8
	mov	DWORD PTR _this$[ebp], ecx
	mov	DWORD PTR $T119280[ebp], 0
; Line 34
	push	OFFSET ??_C@_0BH@NMDFCGG@ConfigurationConnector?$AA@
	mov	ecx, DWORD PTR ___$ReturnUdt$[ebp]
	call	??0?$basic_string@DU?$char_traits@D@std@@V?$allocator@D@2@@std@@QAE@PBD@Z ; std::basic_string<char,std::char_traits<char>,std::allocator<char> >::basic_string<char,std::char_traits<char>,std::allocator<char> >
	mov	eax, DWORD PTR $T119280[ebp]
	or	eax, 1
	mov	DWORD PTR $T119280[ebp], eax
	mov	eax, DWORD PTR ___$ReturnUdt$[ebp]
; Line 35
	mov	esp, ebp
	pop	ebp
	ret	4
?getID@ConfigurationConnector@connector@monitoring@ibmras@@UAE?AV?$basic_string@DU?$char_traits@D@std@@V?$allocator@D@2@@std@@XZ ENDP ; ibmras::monitoring::connector::ConfigurationConnector::getID
_TEXT	ENDS
PUBLIC	??_7ConfigurationConnector@connector@monitoring@ibmras@@6B@ ; ibmras::monitoring::connector::ConfigurationConnector::`vftable'
PUBLIC	??0ConfigurationConnector@connector@monitoring@ibmras@@QAE@ABV0123@@Z ; ibmras::monitoring::connector::ConfigurationConnector::ConfigurationConnector
PUBLIC	??_R4ConfigurationConnector@connector@monitoring@ibmras@@6B@ ; ibmras::monitoring::connector::ConfigurationConnector::`RTTI Complete Object Locator'
PUBLIC	??_R0?AVConfigurationConnector@connector@monitoring@ibmras@@@8 ; ibmras::monitoring::connector::ConfigurationConnector `RTTI Type Descriptor'
PUBLIC	??_R3ConfigurationConnector@connector@monitoring@ibmras@@8 ; ibmras::monitoring::connector::ConfigurationConnector::`RTTI Class Hierarchy Descriptor'
PUBLIC	??_R2ConfigurationConnector@connector@monitoring@ibmras@@8 ; ibmras::monitoring::connector::ConfigurationConnector::`RTTI Base Class Array'
PUBLIC	??_R1A@?0A@EA@ConfigurationConnector@connector@monitoring@ibmras@@8 ; ibmras::monitoring::connector::ConfigurationConnector::`RTTI Base Class Descriptor at (0,-1,0,64)'
PUBLIC	??_EConfigurationConnector@connector@monitoring@ibmras@@UAEPAXI@Z ; ibmras::monitoring::connector::ConfigurationConnector::`vector deleting destructor'
EXTRN	?sendMessage@ConfigurationConnector@connector@monitoring@ibmras@@UAEHABV?$basic_string@DU?$char_traits@D@std@@V?$allocator@D@2@@std@@IPAX@Z:PROC ; ibmras::monitoring::connector::ConfigurationConnector::sendMessage
;	COMDAT ??_R1A@?0A@EA@ConfigurationConnector@connector@monitoring@ibmras@@8
rdata$r	SEGMENT
??_R1A@?0A@EA@ConfigurationConnector@connector@monitoring@ibmras@@8 DD FLAT:??_R0?AVConfigurationConnector@connector@monitoring@ibmras@@@8 ; ibmras::monitoring::connector::ConfigurationConnector::`RTTI Base Class Descriptor at (0,-1,0,64)'
	DD	01H
	DD	00H
	DD	0ffffffffH
	DD	00H
	DD	040H
	DD	FLAT:??_R3ConfigurationConnector@connector@monitoring@ibmras@@8
rdata$r	ENDS
;	COMDAT ??_R2ConfigurationConnector@connector@monitoring@ibmras@@8
rdata$r	SEGMENT
??_R2ConfigurationConnector@connector@monitoring@ibmras@@8 DD FLAT:??_R1A@?0A@EA@ConfigurationConnector@connector@monitoring@ibmras@@8 ; ibmras::monitoring::connector::ConfigurationConnector::`RTTI Base Class Array'
	DD	FLAT:??_R1A@?0A@EA@Connector@connector@monitoring@ibmras@@8
rdata$r	ENDS
;	COMDAT ??_R3ConfigurationConnector@connector@monitoring@ibmras@@8
rdata$r	SEGMENT
??_R3ConfigurationConnector@connector@monitoring@ibmras@@8 DD 00H ; ibmras::monitoring::connector::ConfigurationConnector::`RTTI Class Hierarchy Descriptor'
	DD	00H
	DD	02H
	DD	FLAT:??_R2ConfigurationConnector@connector@monitoring@ibmras@@8
rdata$r	ENDS
;	COMDAT ??_R0?AVConfigurationConnector@connector@monitoring@ibmras@@@8
_DATA	SEGMENT
??_R0?AVConfigurationConnector@connector@monitoring@ibmras@@@8 DD FLAT:??_7type_info@@6B@ ; ibmras::monitoring::connector::ConfigurationConnector `RTTI Type Descriptor'
	DD	00H
	DB	'.?AVConfigurationConnector@connector@monitoring@ibmras@@'
	DB	00H
_DATA	ENDS
;	COMDAT ??_R4ConfigurationConnector@connector@monitoring@ibmras@@6B@
rdata$r	SEGMENT
??_R4ConfigurationConnector@connector@monitoring@ibmras@@6B@ DD 00H ; ibmras::monitoring::connector::ConfigurationConnector::`RTTI Complete Object Locator'
	DD	00H
	DD	00H
	DD	FLAT:??_R0?AVConfigurationConnector@connector@monitoring@ibmras@@@8
	DD	FLAT:??_R3ConfigurationConnector@connector@monitoring@ibmras@@8
rdata$r	ENDS
;	COMDAT ??_7ConfigurationConnector@connector@monitoring@ibmras@@6B@
CONST	SEGMENT
??_7ConfigurationConnector@connector@monitoring@ibmras@@6B@ DD FLAT:??_R4ConfigurationConnector@connector@monitoring@ibmras@@6B@ ; ibmras::monitoring::connector::ConfigurationConnector::`vftable'
	DD	FLAT:?getID@ConfigurationConnector@connector@monitoring@ibmras@@UAE?AV?$basic_string@DU?$char_traits@D@std@@V?$allocator@D@2@@std@@XZ
	DD	FLAT:?sendMessage@ConfigurationConnector@connector@monitoring@ibmras@@UAEHABV?$basic_string@DU?$char_traits@D@std@@V?$allocator@D@2@@std@@IPAX@Z
	DD	FLAT:?registerReceiver@Connector@connector@monitoring@ibmras@@UAEXPAVReceiver@234@@Z
	DD	FLAT:?start@Connector@connector@monitoring@ibmras@@UAEHXZ
	DD	FLAT:?stop@Connector@connector@monitoring@ibmras@@UAEHXZ
	DD	FLAT:??_EConfigurationConnector@connector@monitoring@ibmras@@UAEPAXI@Z
CONST	ENDS
;	COMDAT xdata$x
xdata$x	SEGMENT
__unwindtable$??0ConfigurationConnector@connector@monitoring@ibmras@@QAE@ABV0123@@Z DD 0ffffffffH
	DD	FLAT:__unwindfunclet$??0ConfigurationConnector@connector@monitoring@ibmras@@QAE@ABV0123@@Z$0
__ehfuncinfo$??0ConfigurationConnector@connector@monitoring@ibmras@@QAE@ABV0123@@Z DD 019930522H
	DD	01H
	DD	FLAT:__unwindtable$??0ConfigurationConnector@connector@monitoring@ibmras@@QAE@ABV0123@@Z
	DD	2 DUP(00H)
	DD	2 DUP(00H)
	DD	00H
	DD	01H
; Function compile flags: /Odtp
xdata$x	ENDS
;	COMDAT ??0ConfigurationConnector@connector@monitoring@ibmras@@QAE@ABV0123@@Z
_TEXT	SEGMENT
_this$ = -16						; size = 4
__$EHRec$ = -12						; size = 12
___that$ = 8						; size = 4
??0ConfigurationConnector@connector@monitoring@ibmras@@QAE@ABV0123@@Z PROC ; ibmras::monitoring::connector::ConfigurationConnector::ConfigurationConnector, COMDAT
; _this$ = ecx
	push	ebp
	mov	ebp, esp
	push	-1
	push	__ehhandler$??0ConfigurationConnector@connector@monitoring@ibmras@@QAE@ABV0123@@Z
	mov	eax, DWORD PTR fs:0
	push	eax
	push	ecx
	mov	eax, DWORD PTR ___security_cookie
	xor	eax, ebp
	push	eax
	lea	eax, DWORD PTR __$EHRec$[ebp]
	mov	DWORD PTR fs:0, eax
	mov	DWORD PTR _this$[ebp], ecx
	mov	eax, DWORD PTR ___that$[ebp]
	push	eax
	mov	ecx, DWORD PTR _this$[ebp]
	call	??0Connector@connector@monitoring@ibmras@@QAE@ABV0123@@Z
	mov	DWORD PTR __$EHRec$[ebp+8], 0
	mov	ecx, DWORD PTR _this$[ebp]
	mov	DWORD PTR [ecx], OFFSET ??_7ConfigurationConnector@connector@monitoring@ibmras@@6B@
	mov	edx, DWORD PTR ___that$[ebp]
	add	edx, 4
	push	edx
	mov	ecx, DWORD PTR _this$[ebp]
	add	ecx, 4
	call	??0Properties@common@ibmras@@QAE@ABV012@@Z
	mov	eax, DWORD PTR ___that$[ebp]
	mov	ecx, DWORD PTR [eax+24]
	mov	edx, DWORD PTR _this$[ebp]
	mov	DWORD PTR [edx+24], ecx
	mov	DWORD PTR __$EHRec$[ebp+8], -1
	mov	eax, DWORD PTR _this$[ebp]
	mov	ecx, DWORD PTR __$EHRec$[ebp]
	mov	DWORD PTR fs:0, ecx
	pop	ecx
	mov	esp, ebp
	pop	ebp
	ret	4
_TEXT	ENDS
;	COMDAT text$x
text$x	SEGMENT
__unwindfunclet$??0ConfigurationConnector@connector@monitoring@ibmras@@QAE@ABV0123@@Z$0:
	mov	ecx, DWORD PTR _this$[ebp]
	jmp	??1Connector@connector@monitoring@ibmras@@UAE@XZ ; ibmras::monitoring::connector::Connector::~Connector
__ehhandler$??0ConfigurationConnector@connector@monitoring@ibmras@@QAE@ABV0123@@Z:
	mov	edx, DWORD PTR [esp+8]
	lea	eax, DWORD PTR [edx+12]
	mov	ecx, DWORD PTR [edx-8]
	xor	ecx, eax
	call	@__security_check_cookie@4
	mov	eax, OFFSET __ehfuncinfo$??0ConfigurationConnector@connector@monitoring@ibmras@@QAE@ABV0123@@Z
	jmp	___CxxFrameHandler3
text$x	ENDS
??0ConfigurationConnector@connector@monitoring@ibmras@@QAE@ABV0123@@Z ENDP ; ibmras::monitoring::connector::ConfigurationConnector::ConfigurationConnector
PUBLIC	??4ConfigurationConnector@connector@monitoring@ibmras@@QAEAAV0123@ABV0123@@Z ; ibmras::monitoring::connector::ConfigurationConnector::operator=
; Function compile flags: /Odtp
;	COMDAT ??4ConfigurationConnector@connector@monitoring@ibmras@@QAEAAV0123@ABV0123@@Z
_TEXT	SEGMENT
_this$ = -4						; size = 4
___that$ = 8						; size = 4
??4ConfigurationConnector@connector@monitoring@ibmras@@QAEAAV0123@ABV0123@@Z PROC ; ibmras::monitoring::connector::ConfigurationConnector::operator=, COMDAT
; _this$ = ecx
	push	ebp
	mov	ebp, esp
	push	ecx
	mov	DWORD PTR _this$[ebp], ecx
	mov	eax, DWORD PTR ___that$[ebp]
	push	eax
	mov	ecx, DWORD PTR _this$[ebp]
	call	??4Connector@connector@monitoring@ibmras@@QAEAAV0123@ABV0123@@Z
	mov	ecx, DWORD PTR ___that$[ebp]
	add	ecx, 4
	push	ecx
	mov	ecx, DWORD PTR _this$[ebp]
	add	ecx, 4
	call	??4Properties@common@ibmras@@QAEAAV012@ABV012@@Z
	mov	edx, DWORD PTR ___that$[ebp]
	mov	eax, DWORD PTR [edx+24]
	mov	ecx, DWORD PTR _this$[ebp]
	mov	DWORD PTR [ecx+24], eax
	mov	eax, DWORD PTR _this$[ebp]
	mov	esp, ebp
	pop	ebp
	ret	4
??4ConfigurationConnector@connector@monitoring@ibmras@@QAEAAV0123@ABV0123@@Z ENDP ; ibmras::monitoring::connector::ConfigurationConnector::operator=
_TEXT	ENDS
PUBLIC	??_GConfigurationConnector@connector@monitoring@ibmras@@UAEPAXI@Z ; ibmras::monitoring::connector::ConfigurationConnector::`scalar deleting destructor'
EXTRN	??1ConfigurationConnector@connector@monitoring@ibmras@@UAE@XZ:PROC ; ibmras::monitoring::connector::ConfigurationConnector::~ConfigurationConnector
; Function compile flags: /Odtp
;	COMDAT ??_GConfigurationConnector@connector@monitoring@ibmras@@UAEPAXI@Z
_TEXT	SEGMENT
_this$ = -4						; size = 4
___flags$ = 8						; size = 4
??_GConfigurationConnector@connector@monitoring@ibmras@@UAEPAXI@Z PROC ; ibmras::monitoring::connector::ConfigurationConnector::`scalar deleting destructor', COMDAT
; _this$ = ecx
	push	ebp
	mov	ebp, esp
	push	ecx
	mov	DWORD PTR _this$[ebp], ecx
	mov	ecx, DWORD PTR _this$[ebp]
	call	??1ConfigurationConnector@connector@monitoring@ibmras@@UAE@XZ ; ibmras::monitoring::connector::ConfigurationConnector::~ConfigurationConnector
	mov	eax, DWORD PTR ___flags$[ebp]
	and	eax, 1
	je	SHORT $LN1@scalar@6
	mov	ecx, DWORD PTR _this$[ebp]
	push	ecx
	call	??3@YAXPAX@Z				; operator delete
	add	esp, 4
$LN1@scalar@6:
	mov	eax, DWORD PTR _this$[ebp]
	mov	esp, ebp
	pop	ebp
	ret	4
??_GConfigurationConnector@connector@monitoring@ibmras@@UAEPAXI@Z ENDP ; ibmras::monitoring::connector::ConfigurationConnector::`scalar deleting destructor'
; Function compile flags: /Odtp
_TEXT	ENDS
;	COMDAT ??_EConfigurationConnector@connector@monitoring@ibmras@@UAEPAXI@Z
_TEXT	SEGMENT
_this$ = -4						; size = 4
___flags$ = 8						; size = 4
??_EConfigurationConnector@connector@monitoring@ibmras@@UAEPAXI@Z PROC ; ibmras::monitoring::connector::ConfigurationConnector::`vector deleting destructor', COMDAT
; _this$ = ecx
	push	ebp
	mov	ebp, esp
	push	ecx
	mov	DWORD PTR _this$[ebp], ecx
	mov	eax, DWORD PTR ___flags$[ebp]
	and	eax, 2
	je	SHORT $LN3@vector@4
	push	OFFSET ??1ConfigurationConnector@connector@monitoring@ibmras@@UAE@XZ ; ibmras::monitoring::connector::ConfigurationConnector::~ConfigurationConnector
	mov	ecx, DWORD PTR _this$[ebp]
	mov	edx, DWORD PTR [ecx-4]
	push	edx
	push	28					; 0000001cH
	mov	eax, DWORD PTR _this$[ebp]
	push	eax
	call	??_M@YGXPAXIHP6EX0@Z@Z
	mov	ecx, DWORD PTR ___flags$[ebp]
	and	ecx, 1
	je	SHORT $LN2@vector@4
	mov	edx, DWORD PTR _this$[ebp]
	sub	edx, 4
	push	edx
	call	??_V@YAXPAX@Z				; operator delete[]
	add	esp, 4
$LN2@vector@4:
	mov	eax, DWORD PTR _this$[ebp]
	sub	eax, 4
	jmp	SHORT $LN4@vector@4
$LN3@vector@4:
	mov	ecx, DWORD PTR _this$[ebp]
	call	??1ConfigurationConnector@connector@monitoring@ibmras@@UAE@XZ ; ibmras::monitoring::connector::ConfigurationConnector::~ConfigurationConnector
	mov	eax, DWORD PTR ___flags$[ebp]
	and	eax, 1
	je	SHORT $LN1@vector@4
	mov	ecx, DWORD PTR _this$[ebp]
	push	ecx
	call	??3@YAXPAX@Z				; operator delete
	add	esp, 4
$LN1@vector@4:
	mov	eax, DWORD PTR _this$[ebp]
$LN4@vector@4:
	mov	esp, ebp
	pop	ebp
	ret	4
??_EConfigurationConnector@connector@monitoring@ibmras@@UAEPAXI@Z ENDP ; ibmras::monitoring::connector::ConfigurationConnector::`vector deleting destructor'
_TEXT	ENDS
PUBLIC	??1?$vector@PAVPlugin@monitoring@ibmras@@V?$allocator@PAVPlugin@monitoring@ibmras@@@std@@@std@@QAE@XZ ; std::vector<ibmras::monitoring::Plugin *,std::allocator<ibmras::monitoring::Plugin *> >::~vector<ibmras::monitoring::Plugin *,std::allocator<ibmras::monitoring::Plugin *> >
PUBLIC	??1Agent@agent@monitoring@ibmras@@QAE@XZ	; ibmras::monitoring::agent::Agent::~Agent
;	COMDAT xdata$x
xdata$x	SEGMENT
__unwindtable$??1Agent@agent@monitoring@ibmras@@QAE@XZ DD 0ffffffffH
	DD	FLAT:__unwindfunclet$??1Agent@agent@monitoring@ibmras@@QAE@XZ$0
	DD	00H
	DD	FLAT:__unwindfunclet$??1Agent@agent@monitoring@ibmras@@QAE@XZ$1
	DD	01H
	DD	FLAT:__unwindfunclet$??1Agent@agent@monitoring@ibmras@@QAE@XZ$2
	DD	02H
	DD	FLAT:__unwindfunclet$??1Agent@agent@monitoring@ibmras@@QAE@XZ$3
__ehfuncinfo$??1Agent@agent@monitoring@ibmras@@QAE@XZ DD 019930522H
	DD	04H
	DD	FLAT:__unwindtable$??1Agent@agent@monitoring@ibmras@@QAE@XZ
	DD	2 DUP(00H)
	DD	2 DUP(00H)
	DD	00H
	DD	01H
; Function compile flags: /Odtp
xdata$x	ENDS
;	COMDAT ??1Agent@agent@monitoring@ibmras@@QAE@XZ
_TEXT	SEGMENT
_this$ = -16						; size = 4
__$EHRec$ = -12						; size = 12
??1Agent@agent@monitoring@ibmras@@QAE@XZ PROC		; ibmras::monitoring::agent::Agent::~Agent, COMDAT
; _this$ = ecx
	push	ebp
	mov	ebp, esp
	push	-1
	push	__ehhandler$??1Agent@agent@monitoring@ibmras@@QAE@XZ
	mov	eax, DWORD PTR fs:0
	push	eax
	push	ecx
	mov	eax, DWORD PTR ___security_cookie
	xor	eax, ebp
	push	eax
	lea	eax, DWORD PTR __$EHRec$[ebp]
	mov	DWORD PTR fs:0, eax
	mov	DWORD PTR _this$[ebp], ecx
	mov	DWORD PTR __$EHRec$[ebp+8], 3
	mov	ecx, DWORD PTR _this$[ebp]
	add	ecx, 160				; 000000a0H
	call	??1ConfigurationConnector@connector@monitoring@ibmras@@UAE@XZ ; ibmras::monitoring::connector::ConfigurationConnector::~ConfigurationConnector
	mov	BYTE PTR __$EHRec$[ebp+8], 2
	mov	ecx, DWORD PTR _this$[ebp]
	add	ecx, 140				; 0000008cH
	call	??1Properties@common@ibmras@@UAE@XZ	; ibmras::common::Properties::~Properties
	mov	BYTE PTR __$EHRec$[ebp+8], 1
	mov	ecx, DWORD PTR _this$[ebp]
	add	ecx, 120				; 00000078H
	call	??1?$vector@PAVPlugin@monitoring@ibmras@@V?$allocator@PAVPlugin@monitoring@ibmras@@@std@@@std@@QAE@XZ ; std::vector<ibmras::monitoring::Plugin *,std::allocator<ibmras::monitoring::Plugin *> >::~vector<ibmras::monitoring::Plugin *,std::allocator<ibmras::monitoring::Plugin *> >
	mov	BYTE PTR __$EHRec$[ebp+8], 0
	mov	ecx, DWORD PTR _this$[ebp]
	add	ecx, 16					; 00000010H
	call	??1ConnectorManager@connector@monitoring@ibmras@@UAE@XZ ; ibmras::monitoring::connector::ConnectorManager::~ConnectorManager
	mov	DWORD PTR __$EHRec$[ebp+8], -1
	mov	ecx, DWORD PTR _this$[ebp]
	call	??1BucketList@agent@monitoring@ibmras@@QAE@XZ
	mov	ecx, DWORD PTR __$EHRec$[ebp]
	mov	DWORD PTR fs:0, ecx
	pop	ecx
	mov	esp, ebp
	pop	ebp
	ret	0
_TEXT	ENDS
;	COMDAT text$x
text$x	SEGMENT
__unwindfunclet$??1Agent@agent@monitoring@ibmras@@QAE@XZ$0:
	mov	ecx, DWORD PTR _this$[ebp]
	jmp	??1BucketList@agent@monitoring@ibmras@@QAE@XZ
__unwindfunclet$??1Agent@agent@monitoring@ibmras@@QAE@XZ$1:
	mov	ecx, DWORD PTR _this$[ebp]
	add	ecx, 16					; 00000010H
	jmp	??1ConnectorManager@connector@monitoring@ibmras@@UAE@XZ ; ibmras::monitoring::connector::ConnectorManager::~ConnectorManager
__unwindfunclet$??1Agent@agent@monitoring@ibmras@@QAE@XZ$2:
	mov	ecx, DWORD PTR _this$[ebp]
	add	ecx, 120				; 00000078H
	jmp	??1?$vector@PAVPlugin@monitoring@ibmras@@V?$allocator@PAVPlugin@monitoring@ibmras@@@std@@@std@@QAE@XZ ; std::vector<ibmras::monitoring::Plugin *,std::allocator<ibmras::monitoring::Plugin *> >::~vector<ibmras::monitoring::Plugin *,std::allocator<ibmras::monitoring::Plugin *> >
__unwindfunclet$??1Agent@agent@monitoring@ibmras@@QAE@XZ$3:
	mov	ecx, DWORD PTR _this$[ebp]
	add	ecx, 140				; 0000008cH
	jmp	??1Properties@common@ibmras@@UAE@XZ	; ibmras::common::Properties::~Properties
__ehhandler$??1Agent@agent@monitoring@ibmras@@QAE@XZ:
	mov	edx, DWORD PTR [esp+8]
	lea	eax, DWORD PTR [edx+12]
	mov	ecx, DWORD PTR [edx-8]
	xor	ecx, eax
	call	@__security_check_cookie@4
	mov	eax, OFFSET __ehfuncinfo$??1Agent@agent@monitoring@ibmras@@QAE@XZ
	jmp	___CxxFrameHandler3
text$x	ENDS
??1Agent@agent@monitoring@ibmras@@QAE@XZ ENDP		; ibmras::monitoring::agent::Agent::~Agent
PUBLIC	??0?$vector@PAVPlugin@monitoring@ibmras@@V?$allocator@PAVPlugin@monitoring@ibmras@@@std@@@std@@QAE@ABV01@@Z ; std::vector<ibmras::monitoring::Plugin *,std::allocator<ibmras::monitoring::Plugin *> >::vector<ibmras::monitoring::Plugin *,std::allocator<ibmras::monitoring::Plugin *> >
PUBLIC	??0Agent@agent@monitoring@ibmras@@QAE@ABV0123@@Z ; ibmras::monitoring::agent::Agent::Agent
;	COMDAT xdata$x
xdata$x	SEGMENT
__unwindtable$??0Agent@agent@monitoring@ibmras@@QAE@ABV0123@@Z DD 0ffffffffH
	DD	FLAT:__unwindfunclet$??0Agent@agent@monitoring@ibmras@@QAE@ABV0123@@Z$0
	DD	00H
	DD	FLAT:__unwindfunclet$??0Agent@agent@monitoring@ibmras@@QAE@ABV0123@@Z$1
	DD	01H
	DD	FLAT:__unwindfunclet$??0Agent@agent@monitoring@ibmras@@QAE@ABV0123@@Z$2
	DD	02H
	DD	FLAT:__unwindfunclet$??0Agent@agent@monitoring@ibmras@@QAE@ABV0123@@Z$3
__ehfuncinfo$??0Agent@agent@monitoring@ibmras@@QAE@ABV0123@@Z DD 019930522H
	DD	04H
	DD	FLAT:__unwindtable$??0Agent@agent@monitoring@ibmras@@QAE@ABV0123@@Z
	DD	2 DUP(00H)
	DD	2 DUP(00H)
	DD	00H
	DD	01H
; Function compile flags: /Odtp
xdata$x	ENDS
;	COMDAT ??0Agent@agent@monitoring@ibmras@@QAE@ABV0123@@Z
_TEXT	SEGMENT
_this$ = -16						; size = 4
__$EHRec$ = -12						; size = 12
___that$ = 8						; size = 4
??0Agent@agent@monitoring@ibmras@@QAE@ABV0123@@Z PROC	; ibmras::monitoring::agent::Agent::Agent, COMDAT
; _this$ = ecx
	push	ebp
	mov	ebp, esp
	push	-1
	push	__ehhandler$??0Agent@agent@monitoring@ibmras@@QAE@ABV0123@@Z
	mov	eax, DWORD PTR fs:0
	push	eax
	push	ecx
	mov	eax, DWORD PTR ___security_cookie
	xor	eax, ebp
	push	eax
	lea	eax, DWORD PTR __$EHRec$[ebp]
	mov	DWORD PTR fs:0, eax
	mov	DWORD PTR _this$[ebp], ecx
	mov	eax, DWORD PTR ___that$[ebp]
	push	eax
	mov	ecx, DWORD PTR _this$[ebp]
	call	??0BucketList@agent@monitoring@ibmras@@QAE@ABV0123@@Z
	mov	DWORD PTR __$EHRec$[ebp+8], 0
	mov	ecx, DWORD PTR ___that$[ebp]
	add	ecx, 16					; 00000010H
	push	ecx
	mov	ecx, DWORD PTR _this$[ebp]
	add	ecx, 16					; 00000010H
	call	??0ConnectorManager@connector@monitoring@ibmras@@QAE@ABV0123@@Z
	mov	BYTE PTR __$EHRec$[ebp+8], 1
	mov	edx, DWORD PTR ___that$[ebp]
	mov	eax, DWORD PTR [edx+104]
	mov	ecx, DWORD PTR [edx+108]
	mov	edx, DWORD PTR _this$[ebp]
	mov	DWORD PTR [edx+104], eax
	mov	DWORD PTR [edx+108], ecx
	mov	eax, DWORD PTR ___that$[ebp]
	mov	ecx, DWORD PTR [eax+112]
	mov	edx, DWORD PTR [eax+116]
	mov	eax, DWORD PTR _this$[ebp]
	mov	DWORD PTR [eax+112], ecx
	mov	DWORD PTR [eax+116], edx
	mov	ecx, DWORD PTR ___that$[ebp]
	add	ecx, 120				; 00000078H
	push	ecx
	mov	ecx, DWORD PTR _this$[ebp]
	add	ecx, 120				; 00000078H
	call	??0?$vector@PAVPlugin@monitoring@ibmras@@V?$allocator@PAVPlugin@monitoring@ibmras@@@std@@@std@@QAE@ABV01@@Z ; std::vector<ibmras::monitoring::Plugin *,std::allocator<ibmras::monitoring::Plugin *> >::vector<ibmras::monitoring::Plugin *,std::allocator<ibmras::monitoring::Plugin *> >
	mov	BYTE PTR __$EHRec$[ebp+8], 2
	mov	edx, DWORD PTR _this$[ebp]
	mov	eax, DWORD PTR ___that$[ebp]
	mov	ecx, DWORD PTR [eax+136]
	mov	DWORD PTR [edx+136], ecx
	mov	edx, DWORD PTR ___that$[ebp]
	add	edx, 140				; 0000008cH
	push	edx
	mov	ecx, DWORD PTR _this$[ebp]
	add	ecx, 140				; 0000008cH
	call	??0Properties@common@ibmras@@QAE@ABV012@@Z
	mov	BYTE PTR __$EHRec$[ebp+8], 3
	mov	eax, DWORD PTR ___that$[ebp]
	add	eax, 160				; 000000a0H
	push	eax
	mov	ecx, DWORD PTR _this$[ebp]
	add	ecx, 160				; 000000a0H
	call	??0ConfigurationConnector@connector@monitoring@ibmras@@QAE@ABV0123@@Z
	mov	DWORD PTR __$EHRec$[ebp+8], -1
	mov	eax, DWORD PTR _this$[ebp]
	mov	ecx, DWORD PTR __$EHRec$[ebp]
	mov	DWORD PTR fs:0, ecx
	pop	ecx
	mov	esp, ebp
	pop	ebp
	ret	4
_TEXT	ENDS
;	COMDAT text$x
text$x	SEGMENT
__unwindfunclet$??0Agent@agent@monitoring@ibmras@@QAE@ABV0123@@Z$0:
	mov	ecx, DWORD PTR _this$[ebp]
	jmp	??1BucketList@agent@monitoring@ibmras@@QAE@XZ
__unwindfunclet$??0Agent@agent@monitoring@ibmras@@QAE@ABV0123@@Z$1:
	mov	ecx, DWORD PTR _this$[ebp]
	add	ecx, 16					; 00000010H
	jmp	??1ConnectorManager@connector@monitoring@ibmras@@UAE@XZ ; ibmras::monitoring::connector::ConnectorManager::~ConnectorManager
__unwindfunclet$??0Agent@agent@monitoring@ibmras@@QAE@ABV0123@@Z$2:
	mov	ecx, DWORD PTR _this$[ebp]
	add	ecx, 120				; 00000078H
	jmp	??1?$vector@PAVPlugin@monitoring@ibmras@@V?$allocator@PAVPlugin@monitoring@ibmras@@@std@@@std@@QAE@XZ ; std::vector<ibmras::monitoring::Plugin *,std::allocator<ibmras::monitoring::Plugin *> >::~vector<ibmras::monitoring::Plugin *,std::allocator<ibmras::monitoring::Plugin *> >
__unwindfunclet$??0Agent@agent@monitoring@ibmras@@QAE@ABV0123@@Z$3:
	mov	ecx, DWORD PTR _this$[ebp]
	add	ecx, 140				; 0000008cH
	jmp	??1Properties@common@ibmras@@UAE@XZ	; ibmras::common::Properties::~Properties
__ehhandler$??0Agent@agent@monitoring@ibmras@@QAE@ABV0123@@Z:
	mov	edx, DWORD PTR [esp+8]
	lea	eax, DWORD PTR [edx+12]
	mov	ecx, DWORD PTR [edx-8]
	xor	ecx, eax
	call	@__security_check_cookie@4
	mov	eax, OFFSET __ehfuncinfo$??0Agent@agent@monitoring@ibmras@@QAE@ABV0123@@Z
	jmp	___CxxFrameHandler3
text$x	ENDS
??0Agent@agent@monitoring@ibmras@@QAE@ABV0123@@Z ENDP	; ibmras::monitoring::agent::Agent::Agent
PUBLIC	??4?$vector@PAVPlugin@monitoring@ibmras@@V?$allocator@PAVPlugin@monitoring@ibmras@@@std@@@std@@QAEAAV01@ABV01@@Z ; std::vector<ibmras::monitoring::Plugin *,std::allocator<ibmras::monitoring::Plugin *> >::operator=
PUBLIC	??4Agent@agent@monitoring@ibmras@@QAEAAV0123@ABV0123@@Z ; ibmras::monitoring::agent::Agent::operator=
; Function compile flags: /Odtp
;	COMDAT ??4Agent@agent@monitoring@ibmras@@QAEAAV0123@ABV0123@@Z
_TEXT	SEGMENT
_this$ = -4						; size = 4
___that$ = 8						; size = 4
??4Agent@agent@monitoring@ibmras@@QAEAAV0123@ABV0123@@Z PROC ; ibmras::monitoring::agent::Agent::operator=, COMDAT
; _this$ = ecx
	push	ebp
	mov	ebp, esp
	push	ecx
	mov	DWORD PTR _this$[ebp], ecx
	mov	eax, DWORD PTR ___that$[ebp]
	push	eax
	mov	ecx, DWORD PTR _this$[ebp]
	call	??4BucketList@agent@monitoring@ibmras@@QAEAAV0123@ABV0123@@Z
	mov	ecx, DWORD PTR ___that$[ebp]
	add	ecx, 16					; 00000010H
	push	ecx
	mov	ecx, DWORD PTR _this$[ebp]
	add	ecx, 16					; 00000010H
	call	??4ConnectorManager@connector@monitoring@ibmras@@QAEAAV0123@ABV0123@@Z
	mov	edx, DWORD PTR ___that$[ebp]
	mov	eax, DWORD PTR [edx+104]
	mov	ecx, DWORD PTR [edx+108]
	mov	edx, DWORD PTR _this$[ebp]
	mov	DWORD PTR [edx+104], eax
	mov	DWORD PTR [edx+108], ecx
	mov	eax, DWORD PTR ___that$[ebp]
	mov	ecx, DWORD PTR [eax+112]
	mov	edx, DWORD PTR [eax+116]
	mov	eax, DWORD PTR _this$[ebp]
	mov	DWORD PTR [eax+112], ecx
	mov	DWORD PTR [eax+116], edx
	mov	ecx, DWORD PTR ___that$[ebp]
	add	ecx, 120				; 00000078H
	push	ecx
	mov	ecx, DWORD PTR _this$[ebp]
	add	ecx, 120				; 00000078H
	call	??4?$vector@PAVPlugin@monitoring@ibmras@@V?$allocator@PAVPlugin@monitoring@ibmras@@@std@@@std@@QAEAAV01@ABV01@@Z ; std::vector<ibmras::monitoring::Plugin *,std::allocator<ibmras::monitoring::Plugin *> >::operator=
	mov	edx, DWORD PTR _this$[ebp]
	mov	eax, DWORD PTR ___that$[ebp]
	mov	ecx, DWORD PTR [eax+136]
	mov	DWORD PTR [edx+136], ecx
	mov	edx, DWORD PTR ___that$[ebp]
	add	edx, 140				; 0000008cH
	push	edx
	mov	ecx, DWORD PTR _this$[ebp]
	add	ecx, 140				; 0000008cH
	call	??4Properties@common@ibmras@@QAEAAV012@ABV012@@Z
	mov	eax, DWORD PTR ___that$[ebp]
	add	eax, 160				; 000000a0H
	push	eax
	mov	ecx, DWORD PTR _this$[ebp]
	add	ecx, 160				; 000000a0H
	call	??4ConfigurationConnector@connector@monitoring@ibmras@@QAEAAV0123@ABV0123@@Z
	mov	eax, DWORD PTR _this$[ebp]
	mov	esp, ebp
	pop	ebp
	ret	4
??4Agent@agent@monitoring@ibmras@@QAEAAV0123@ABV0123@@Z ENDP ; ibmras::monitoring::agent::Agent::operator=
_TEXT	ENDS
PUBLIC	??0JLAPullSource@locking@jni@plugins@monitoring@ibmras@@QAE@I@Z ; ibmras::monitoring::plugins::jni::locking::JLAPullSource::JLAPullSource
PUBLIC	?getJLAPullSource@locking@jni@plugins@monitoring@ibmras@@YAPAVPullSource@2345@I@Z ; ibmras::monitoring::plugins::jni::locking::getJLAPullSource
EXTRN	??2@YAPAXI@Z:PROC				; operator new
xdata$x	SEGMENT
__unwindtable$?getJLAPullSource@locking@jni@plugins@monitoring@ibmras@@YAPAVPullSource@2345@I@Z DD 0ffffffffH
	DD	FLAT:__unwindfunclet$?getJLAPullSource@locking@jni@plugins@monitoring@ibmras@@YAPAVPullSource@2345@I@Z$0
__ehfuncinfo$?getJLAPullSource@locking@jni@plugins@monitoring@ibmras@@YAPAVPullSource@2345@I@Z DD 019930522H
	DD	01H
	DD	FLAT:__unwindtable$?getJLAPullSource@locking@jni@plugins@monitoring@ibmras@@YAPAVPullSource@2345@I@Z
	DD	2 DUP(00H)
	DD	2 DUP(00H)
	DD	00H
	DD	01H
; Function compile flags: /Odtp
xdata$x	ENDS
_TEXT	SEGMENT
tv73 = -24						; size = 4
$T119330 = -20						; size = 4
$T119329 = -16						; size = 4
__$EHRec$ = -12						; size = 12
_id$ = 8						; size = 4
?getJLAPullSource@locking@jni@plugins@monitoring@ibmras@@YAPAVPullSource@2345@I@Z PROC ; ibmras::monitoring::plugins::jni::locking::getJLAPullSource
; File c:\workspaces\newagent2\runtime.tools\src\ibmras\monitoring\plugins\jni\locking\lockingdataprovider.cpp
; Line 59
	push	ebp
	mov	ebp, esp
	push	-1
	push	__ehhandler$?getJLAPullSource@locking@jni@plugins@monitoring@ibmras@@YAPAVPullSource@2345@I@Z
	mov	eax, DWORD PTR fs:0
	push	eax
	sub	esp, 12					; 0000000cH
	mov	eax, DWORD PTR ___security_cookie
	xor	eax, ebp
	push	eax
	lea	eax, DWORD PTR __$EHRec$[ebp]
	mov	DWORD PTR fs:0, eax
; Line 60
	cmp	DWORD PTR ?src@locking@jni@plugins@monitoring@ibmras@@3PAVJLAPullSource@12345@A, 0 ; ibmras::monitoring::plugins::jni::locking::src
	jne	SHORT $LN1@getJLAPull
; Line 61
	push	40					; 00000028H
	call	??2@YAPAXI@Z				; operator new
	add	esp, 4
	mov	DWORD PTR $T119330[ebp], eax
	mov	DWORD PTR __$EHRec$[ebp+8], 0
	cmp	DWORD PTR $T119330[ebp], 0
	je	SHORT $LN4@getJLAPull
	mov	eax, DWORD PTR _id$[ebp]
	push	eax
	mov	ecx, DWORD PTR $T119330[ebp]
	call	??0JLAPullSource@locking@jni@plugins@monitoring@ibmras@@QAE@I@Z ; ibmras::monitoring::plugins::jni::locking::JLAPullSource::JLAPullSource
	mov	DWORD PTR tv73[ebp], eax
	jmp	SHORT $LN5@getJLAPull
$LN4@getJLAPull:
	mov	DWORD PTR tv73[ebp], 0
$LN5@getJLAPull:
	mov	ecx, DWORD PTR tv73[ebp]
	mov	DWORD PTR $T119329[ebp], ecx
	mov	DWORD PTR __$EHRec$[ebp+8], -1
	mov	edx, DWORD PTR $T119329[ebp]
	mov	DWORD PTR ?src@locking@jni@plugins@monitoring@ibmras@@3PAVJLAPullSource@12345@A, edx ; ibmras::monitoring::plugins::jni::locking::src
$LN1@getJLAPull:
; Line 63
	mov	eax, DWORD PTR ?src@locking@jni@plugins@monitoring@ibmras@@3PAVJLAPullSource@12345@A ; ibmras::monitoring::plugins::jni::locking::src
; Line 64
	mov	ecx, DWORD PTR __$EHRec$[ebp]
	mov	DWORD PTR fs:0, ecx
	pop	ecx
	mov	esp, ebp
	pop	ebp
	ret	0
_TEXT	ENDS
text$x	SEGMENT
__unwindfunclet$?getJLAPullSource@locking@jni@plugins@monitoring@ibmras@@YAPAVPullSource@2345@I@Z$0:
	mov	eax, DWORD PTR $T119330[ebp]
	push	eax
	call	??3@YAXPAX@Z				; operator delete
	pop	ecx
	ret	0
__ehhandler$?getJLAPullSource@locking@jni@plugins@monitoring@ibmras@@YAPAVPullSource@2345@I@Z:
	mov	edx, DWORD PTR [esp+8]
	lea	eax, DWORD PTR [edx+12]
	mov	ecx, DWORD PTR [edx-16]
	xor	ecx, eax
	call	@__security_check_cookie@4
	mov	eax, OFFSET __ehfuncinfo$?getJLAPullSource@locking@jni@plugins@monitoring@ibmras@@YAPAVPullSource@2345@I@Z
	jmp	___CxxFrameHandler3
text$x	ENDS
?getJLAPullSource@locking@jni@plugins@monitoring@ibmras@@YAPAVPullSource@2345@I@Z ENDP ; ibmras::monitoring::plugins::jni::locking::getJLAPullSource
PUBLIC	?callback@locking@jni@plugins@monitoring@ibmras@@YAPAUmonitordata@@XZ ; ibmras::monitoring::plugins::jni::locking::callback
EXTRN	?generateData@PullSource@jni@plugins@monitoring@ibmras@@QAEPAUmonitordata@@XZ:PROC ; ibmras::monitoring::plugins::jni::PullSource::generateData
; Function compile flags: /Odtp
_TEXT	SEGMENT
?callback@locking@jni@plugins@monitoring@ibmras@@YAPAUmonitordata@@XZ PROC ; ibmras::monitoring::plugins::jni::locking::callback
; Line 66
	push	ebp
	mov	ebp, esp
; Line 67
	mov	ecx, DWORD PTR ?src@locking@jni@plugins@monitoring@ibmras@@3PAVJLAPullSource@12345@A ; ibmras::monitoring::plugins::jni::locking::src
	call	?generateData@PullSource@jni@plugins@monitoring@ibmras@@QAEPAUmonitordata@@XZ ; ibmras::monitoring::plugins::jni::PullSource::generateData
; Line 68
	pop	ebp
	ret	0
?callback@locking@jni@plugins@monitoring@ibmras@@YAPAUmonitordata@@XZ ENDP ; ibmras::monitoring::plugins::jni::locking::callback
_TEXT	ENDS
PUBLIC	?complete@locking@jni@plugins@monitoring@ibmras@@YAXPAUmonitordata@@@Z ; ibmras::monitoring::plugins::jni::locking::complete
EXTRN	?pullComplete@PullSource@jni@plugins@monitoring@ibmras@@QAEXPAUmonitordata@@@Z:PROC ; ibmras::monitoring::plugins::jni::PullSource::pullComplete
; Function compile flags: /Odtp
_TEXT	SEGMENT
_mdata$ = 8						; size = 4
?complete@locking@jni@plugins@monitoring@ibmras@@YAXPAUmonitordata@@@Z PROC ; ibmras::monitoring::plugins::jni::locking::complete
; Line 70
	push	ebp
	mov	ebp, esp
; Line 71
	mov	eax, DWORD PTR _mdata$[ebp]
	push	eax
	mov	ecx, DWORD PTR ?src@locking@jni@plugins@monitoring@ibmras@@3PAVJLAPullSource@12345@A ; ibmras::monitoring::plugins::jni::locking::src
	call	?pullComplete@PullSource@jni@plugins@monitoring@ibmras@@QAEXPAUmonitordata@@@Z ; ibmras::monitoring::plugins::jni::PullSource::pullComplete
; Line 72
	pop	ebp
	ret	0
?complete@locking@jni@plugins@monitoring@ibmras@@YAXPAUmonitordata@@@Z ENDP ; ibmras::monitoring::plugins::jni::locking::complete
_TEXT	ENDS
PUBLIC	?isEnabled@JLAPullSource@locking@jni@plugins@monitoring@ibmras@@QAE_NXZ ; ibmras::monitoring::plugins::jni::locking::JLAPullSource::isEnabled
; Function compile flags: /Odtp
_TEXT	SEGMENT
_this$ = -4						; size = 4
?isEnabled@JLAPullSource@locking@jni@plugins@monitoring@ibmras@@QAE_NXZ PROC ; ibmras::monitoring::plugins::jni::locking::JLAPullSource::isEnabled
; _this$ = ecx
; Line 74
	push	ebp
	mov	ebp, esp
	push	ecx
	mov	DWORD PTR _this$[ebp], ecx
; Line 75
	mov	al, BYTE PTR ?enabled@locking@jni@plugins@monitoring@ibmras@@3_NA ; ibmras::monitoring::plugins::jni::locking::enabled
; Line 76
	mov	esp, ebp
	pop	ebp
	ret	0
?isEnabled@JLAPullSource@locking@jni@plugins@monitoring@ibmras@@QAE_NXZ ENDP ; ibmras::monitoring::plugins::jni::locking::JLAPullSource::isEnabled
_TEXT	ENDS
PUBLIC	__$ArrayPad$
PUBLIC	?setState@JLAPullSource@locking@jni@plugins@monitoring@ibmras@@SAXABV?$basic_string@DU?$char_traits@D@std@@V?$allocator@D@2@@std@@@Z ; ibmras::monitoring::plugins::jni::locking::JLAPullSource::setState
EXTRN	?equalsIgnoreCase@util@common@ibmras@@YA_NABV?$basic_string@DU?$char_traits@D@std@@V?$allocator@D@2@@std@@0@Z:PROC ; ibmras::common::util::equalsIgnoreCase
xdata$x	SEGMENT
__unwindtable$?setState@JLAPullSource@locking@jni@plugins@monitoring@ibmras@@SAXABV?$basic_string@DU?$char_traits@D@std@@V?$allocator@D@2@@std@@@Z DD 0ffffffffH
	DD	FLAT:__unwindfunclet$?setState@JLAPullSource@locking@jni@plugins@monitoring@ibmras@@SAXABV?$basic_string@DU?$char_traits@D@std@@V?$allocator@D@2@@std@@@Z$0
__ehfuncinfo$?setState@JLAPullSource@locking@jni@plugins@monitoring@ibmras@@SAXABV?$basic_string@DU?$char_traits@D@std@@V?$allocator@D@2@@std@@@Z DD 019930522H
	DD	01H
	DD	FLAT:__unwindtable$?setState@JLAPullSource@locking@jni@plugins@monitoring@ibmras@@SAXABV?$basic_string@DU?$char_traits@D@std@@V?$allocator@D@2@@std@@@Z
	DD	2 DUP(00H)
	DD	2 DUP(00H)
	DD	00H
	DD	01H
; Function compile flags: /Odtp
xdata$x	ENDS
_TEXT	SEGMENT
$T106291 = -44						; size = 28
__$ArrayPad$ = -16					; size = 4
__$EHRec$ = -12						; size = 12
_newState$ = 8						; size = 4
?setState@JLAPullSource@locking@jni@plugins@monitoring@ibmras@@SAXABV?$basic_string@DU?$char_traits@D@std@@V?$allocator@D@2@@std@@@Z PROC ; ibmras::monitoring::plugins::jni::locking::JLAPullSource::setState
; Line 78
	push	ebp
	mov	ebp, esp
	push	-1
	push	__ehhandler$?setState@JLAPullSource@locking@jni@plugins@monitoring@ibmras@@SAXABV?$basic_string@DU?$char_traits@D@std@@V?$allocator@D@2@@std@@@Z
	mov	eax, DWORD PTR fs:0
	push	eax
	sub	esp, 32					; 00000020H
	mov	eax, DWORD PTR ___security_cookie
	xor	eax, ebp
	mov	DWORD PTR __$ArrayPad$[ebp], eax
	push	eax
	lea	eax, DWORD PTR __$EHRec$[ebp]
	mov	DWORD PTR fs:0, eax
; Line 79
	push	OFFSET $SG106292
	lea	ecx, DWORD PTR $T106291[ebp]
	call	??0?$basic_string@DU?$char_traits@D@std@@V?$allocator@D@2@@std@@QAE@PBD@Z ; std::basic_string<char,std::char_traits<char>,std::allocator<char> >::basic_string<char,std::char_traits<char>,std::allocator<char> >
	mov	DWORD PTR __$EHRec$[ebp+8], 0
	lea	eax, DWORD PTR $T106291[ebp]
	push	eax
	mov	ecx, DWORD PTR _newState$[ebp]
	push	ecx
	call	?equalsIgnoreCase@util@common@ibmras@@YA_NABV?$basic_string@DU?$char_traits@D@std@@V?$allocator@D@2@@std@@0@Z ; ibmras::common::util::equalsIgnoreCase
	add	esp, 8
	mov	BYTE PTR ?enabled@locking@jni@plugins@monitoring@ibmras@@3_NA, al ; ibmras::monitoring::plugins::jni::locking::enabled
	mov	DWORD PTR __$EHRec$[ebp+8], -1
	lea	ecx, DWORD PTR $T106291[ebp]
	call	??1?$basic_string@DU?$char_traits@D@std@@V?$allocator@D@2@@std@@QAE@XZ ; std::basic_string<char,std::char_traits<char>,std::allocator<char> >::~basic_string<char,std::char_traits<char>,std::allocator<char> >
; Line 80
	cmp	DWORD PTR ?src@locking@jni@plugins@monitoring@ibmras@@3PAVJLAPullSource@12345@A, 0 ; ibmras::monitoring::plugins::jni::locking::src
	je	SHORT $LN2@setState
; Line 81
	mov	edx, DWORD PTR ?src@locking@jni@plugins@monitoring@ibmras@@3PAVJLAPullSource@12345@A ; ibmras::monitoring::plugins::jni::locking::src
	mov	eax, DWORD PTR [edx]
	mov	ecx, DWORD PTR ?src@locking@jni@plugins@monitoring@ibmras@@3PAVJLAPullSource@12345@A ; ibmras::monitoring::plugins::jni::locking::src
	mov	edx, DWORD PTR [eax+12]
	call	edx
$LN2@setState:
; Line 83
	mov	ecx, DWORD PTR __$EHRec$[ebp]
	mov	DWORD PTR fs:0, ecx
	pop	ecx
	mov	ecx, DWORD PTR __$ArrayPad$[ebp]
	xor	ecx, ebp
	call	@__security_check_cookie@4
	mov	esp, ebp
	pop	ebp
	ret	0
_TEXT	ENDS
text$x	SEGMENT
__unwindfunclet$?setState@JLAPullSource@locking@jni@plugins@monitoring@ibmras@@SAXABV?$basic_string@DU?$char_traits@D@std@@V?$allocator@D@2@@std@@@Z$0:
	lea	ecx, DWORD PTR $T106291[ebp]
	jmp	??1?$basic_string@DU?$char_traits@D@std@@V?$allocator@D@2@@std@@QAE@XZ ; std::basic_string<char,std::char_traits<char>,std::allocator<char> >::~basic_string<char,std::char_traits<char>,std::allocator<char> >
__ehhandler$?setState@JLAPullSource@locking@jni@plugins@monitoring@ibmras@@SAXABV?$basic_string@DU?$char_traits@D@std@@V?$allocator@D@2@@std@@@Z:
	mov	edx, DWORD PTR [esp+8]
	lea	eax, DWORD PTR [edx+12]
	mov	ecx, DWORD PTR [edx-36]
	xor	ecx, eax
	call	@__security_check_cookie@4
	mov	ecx, DWORD PTR [edx-4]
	xor	ecx, eax
	call	@__security_check_cookie@4
	mov	eax, OFFSET __ehfuncinfo$?setState@JLAPullSource@locking@jni@plugins@monitoring@ibmras@@SAXABV?$basic_string@DU?$char_traits@D@std@@V?$allocator@D@2@@std@@@Z
	jmp	___CxxFrameHandler3
text$x	ENDS
?setState@JLAPullSource@locking@jni@plugins@monitoring@ibmras@@SAXABV?$basic_string@DU?$char_traits@D@std@@V?$allocator@D@2@@std@@@Z ENDP ; ibmras::monitoring::plugins::jni::locking::JLAPullSource::setState
PUBLIC	??_7JLAPullSource@locking@jni@plugins@monitoring@ibmras@@6B@ ; ibmras::monitoring::plugins::jni::locking::JLAPullSource::`vftable'
PUBLIC	__$ArrayPad$
PUBLIC	??_R4JLAPullSource@locking@jni@plugins@monitoring@ibmras@@6B@ ; ibmras::monitoring::plugins::jni::locking::JLAPullSource::`RTTI Complete Object Locator'
PUBLIC	??_R0?AVJLAPullSource@locking@jni@plugins@monitoring@ibmras@@@8 ; ibmras::monitoring::plugins::jni::locking::JLAPullSource `RTTI Type Descriptor'
PUBLIC	??_R3JLAPullSource@locking@jni@plugins@monitoring@ibmras@@8 ; ibmras::monitoring::plugins::jni::locking::JLAPullSource::`RTTI Class Hierarchy Descriptor'
PUBLIC	??_R2JLAPullSource@locking@jni@plugins@monitoring@ibmras@@8 ; ibmras::monitoring::plugins::jni::locking::JLAPullSource::`RTTI Base Class Array'
PUBLIC	??_R1A@?0A@EA@JLAPullSource@locking@jni@plugins@monitoring@ibmras@@8 ; ibmras::monitoring::plugins::jni::locking::JLAPullSource::`RTTI Base Class Descriptor at (0,-1,0,64)'
PUBLIC	??_R1A@?0A@EA@PullSource@jni@plugins@monitoring@ibmras@@8 ; ibmras::monitoring::plugins::jni::PullSource::`RTTI Base Class Descriptor at (0,-1,0,64)'
PUBLIC	??_R0?AVPullSource@jni@plugins@monitoring@ibmras@@@8 ; ibmras::monitoring::plugins::jni::PullSource `RTTI Type Descriptor'
PUBLIC	??_R3PullSource@jni@plugins@monitoring@ibmras@@8 ; ibmras::monitoring::plugins::jni::PullSource::`RTTI Class Hierarchy Descriptor'
PUBLIC	??_R2PullSource@jni@plugins@monitoring@ibmras@@8 ; ibmras::monitoring::plugins::jni::PullSource::`RTTI Base Class Array'
PUBLIC	?getDescriptor@JLAPullSource@locking@jni@plugins@monitoring@ibmras@@UAEPAUpullsource@@XZ ; ibmras::monitoring::plugins::jni::locking::JLAPullSource::getDescriptor
PUBLIC	?getSourceID@JLAPullSource@locking@jni@plugins@monitoring@ibmras@@UAEIXZ ; ibmras::monitoring::plugins::jni::locking::JLAPullSource::getSourceID
PUBLIC	?publishConfig@JLAPullSource@locking@jni@plugins@monitoring@ibmras@@UAEXXZ ; ibmras::monitoring::plugins::jni::locking::JLAPullSource::publishConfig
PUBLIC	?sourceData@JLAPullSource@locking@jni@plugins@monitoring@ibmras@@UAEPAUmonitordata@@PAUjvmFunctions@@PAUJNIEnv_@@@Z ; ibmras::monitoring::plugins::jni::locking::JLAPullSource::sourceData
EXTRN	??1PullSource@jni@plugins@monitoring@ibmras@@UAE@XZ:PROC ; ibmras::monitoring::plugins::jni::PullSource::~PullSource
EXTRN	??0PullSource@jni@plugins@monitoring@ibmras@@QAE@IABV?$basic_string@DU?$char_traits@D@std@@V?$allocator@D@2@@std@@@Z:PROC ; ibmras::monitoring::plugins::jni::PullSource::PullSource
EXTRN	??_EJLAPullSource@locking@jni@plugins@monitoring@ibmras@@UAEPAXI@Z:PROC ; ibmras::monitoring::plugins::jni::locking::JLAPullSource::`vector deleting destructor'
;	COMDAT ??_R2PullSource@jni@plugins@monitoring@ibmras@@8
rdata$r	SEGMENT
??_R2PullSource@jni@plugins@monitoring@ibmras@@8 DD FLAT:??_R1A@?0A@EA@PullSource@jni@plugins@monitoring@ibmras@@8 ; ibmras::monitoring::plugins::jni::PullSource::`RTTI Base Class Array'
rdata$r	ENDS
;	COMDAT ??_R3PullSource@jni@plugins@monitoring@ibmras@@8
rdata$r	SEGMENT
??_R3PullSource@jni@plugins@monitoring@ibmras@@8 DD 00H	; ibmras::monitoring::plugins::jni::PullSource::`RTTI Class Hierarchy Descriptor'
	DD	00H
	DD	01H
	DD	FLAT:??_R2PullSource@jni@plugins@monitoring@ibmras@@8
rdata$r	ENDS
;	COMDAT ??_R0?AVPullSource@jni@plugins@monitoring@ibmras@@@8
_DATA	SEGMENT
??_R0?AVPullSource@jni@plugins@monitoring@ibmras@@@8 DD FLAT:??_7type_info@@6B@ ; ibmras::monitoring::plugins::jni::PullSource `RTTI Type Descriptor'
	DD	00H
	DB	'.?AVPullSource@jni@plugins@monitoring@ibmras@@', 00H
_DATA	ENDS
;	COMDAT ??_R1A@?0A@EA@PullSource@jni@plugins@monitoring@ibmras@@8
rdata$r	SEGMENT
??_R1A@?0A@EA@PullSource@jni@plugins@monitoring@ibmras@@8 DD FLAT:??_R0?AVPullSource@jni@plugins@monitoring@ibmras@@@8 ; ibmras::monitoring::plugins::jni::PullSource::`RTTI Base Class Descriptor at (0,-1,0,64)'
	DD	00H
	DD	00H
	DD	0ffffffffH
	DD	00H
	DD	040H
	DD	FLAT:??_R3PullSource@jni@plugins@monitoring@ibmras@@8
rdata$r	ENDS
;	COMDAT ??_R1A@?0A@EA@JLAPullSource@locking@jni@plugins@monitoring@ibmras@@8
rdata$r	SEGMENT
??_R1A@?0A@EA@JLAPullSource@locking@jni@plugins@monitoring@ibmras@@8 DD FLAT:??_R0?AVJLAPullSource@locking@jni@plugins@monitoring@ibmras@@@8 ; ibmras::monitoring::plugins::jni::locking::JLAPullSource::`RTTI Base Class Descriptor at (0,-1,0,64)'
	DD	01H
	DD	00H
	DD	0ffffffffH
	DD	00H
	DD	040H
	DD	FLAT:??_R3JLAPullSource@locking@jni@plugins@monitoring@ibmras@@8
rdata$r	ENDS
;	COMDAT ??_R2JLAPullSource@locking@jni@plugins@monitoring@ibmras@@8
rdata$r	SEGMENT
??_R2JLAPullSource@locking@jni@plugins@monitoring@ibmras@@8 DD FLAT:??_R1A@?0A@EA@JLAPullSource@locking@jni@plugins@monitoring@ibmras@@8 ; ibmras::monitoring::plugins::jni::locking::JLAPullSource::`RTTI Base Class Array'
	DD	FLAT:??_R1A@?0A@EA@PullSource@jni@plugins@monitoring@ibmras@@8
rdata$r	ENDS
;	COMDAT ??_R3JLAPullSource@locking@jni@plugins@monitoring@ibmras@@8
rdata$r	SEGMENT
??_R3JLAPullSource@locking@jni@plugins@monitoring@ibmras@@8 DD 00H ; ibmras::monitoring::plugins::jni::locking::JLAPullSource::`RTTI Class Hierarchy Descriptor'
	DD	00H
	DD	02H
	DD	FLAT:??_R2JLAPullSource@locking@jni@plugins@monitoring@ibmras@@8
rdata$r	ENDS
;	COMDAT ??_R0?AVJLAPullSource@locking@jni@plugins@monitoring@ibmras@@@8
_DATA	SEGMENT
??_R0?AVJLAPullSource@locking@jni@plugins@monitoring@ibmras@@@8 DD FLAT:??_7type_info@@6B@ ; ibmras::monitoring::plugins::jni::locking::JLAPullSource `RTTI Type Descriptor'
	DD	00H
	DB	'.?AVJLAPullSource@locking@jni@plugins@monitoring@ibmras@'
	DB	'@', 00H
_DATA	ENDS
;	COMDAT ??_R4JLAPullSource@locking@jni@plugins@monitoring@ibmras@@6B@
rdata$r	SEGMENT
??_R4JLAPullSource@locking@jni@plugins@monitoring@ibmras@@6B@ DD 00H ; ibmras::monitoring::plugins::jni::locking::JLAPullSource::`RTTI Complete Object Locator'
	DD	00H
	DD	00H
	DD	FLAT:??_R0?AVJLAPullSource@locking@jni@plugins@monitoring@ibmras@@@8
	DD	FLAT:??_R3JLAPullSource@locking@jni@plugins@monitoring@ibmras@@8
rdata$r	ENDS
;	COMDAT ??_7JLAPullSource@locking@jni@plugins@monitoring@ibmras@@6B@
CONST	SEGMENT
??_7JLAPullSource@locking@jni@plugins@monitoring@ibmras@@6B@ DD FLAT:??_R4JLAPullSource@locking@jni@plugins@monitoring@ibmras@@6B@ ; ibmras::monitoring::plugins::jni::locking::JLAPullSource::`vftable'
	DD	FLAT:??_EJLAPullSource@locking@jni@plugins@monitoring@ibmras@@UAEPAXI@Z
	DD	FLAT:?getDescriptor@JLAPullSource@locking@jni@plugins@monitoring@ibmras@@UAEPAUpullsource@@XZ
	DD	FLAT:?getSourceID@JLAPullSource@locking@jni@plugins@monitoring@ibmras@@UAEIXZ
	DD	FLAT:?publishConfig@JLAPullSource@locking@jni@plugins@monitoring@ibmras@@UAEXXZ
	DD	FLAT:?sourceData@JLAPullSource@locking@jni@plugins@monitoring@ibmras@@UAEPAUmonitordata@@PAUjvmFunctions@@PAUJNIEnv_@@@Z
CONST	ENDS
xdata$x	SEGMENT
__unwindtable$??0JLAPullSource@locking@jni@plugins@monitoring@ibmras@@QAE@I@Z DD 0ffffffffH
	DD	FLAT:__unwindfunclet$??0JLAPullSource@locking@jni@plugins@monitoring@ibmras@@QAE@I@Z$0
	DD	00H
	DD	FLAT:__unwindfunclet$??0JLAPullSource@locking@jni@plugins@monitoring@ibmras@@QAE@I@Z$1
	DD	0ffffffffH
	DD	FLAT:__unwindfunclet$??0JLAPullSource@locking@jni@plugins@monitoring@ibmras@@QAE@I@Z$1
__ehfuncinfo$??0JLAPullSource@locking@jni@plugins@monitoring@ibmras@@QAE@I@Z DD 019930522H
	DD	03H
	DD	FLAT:__unwindtable$??0JLAPullSource@locking@jni@plugins@monitoring@ibmras@@QAE@I@Z
	DD	2 DUP(00H)
	DD	2 DUP(00H)
	DD	00H
	DD	01H
; Function compile flags: /Odtp
xdata$x	ENDS
_TEXT	SEGMENT
_this$ = -48						; size = 4
$T106298 = -44						; size = 28
__$ArrayPad$ = -16					; size = 4
__$EHRec$ = -12						; size = 12
_id$ = 8						; size = 4
??0JLAPullSource@locking@jni@plugins@monitoring@ibmras@@QAE@I@Z PROC ; ibmras::monitoring::plugins::jni::locking::JLAPullSource::JLAPullSource
; _this$ = ecx
; Line 85
	push	ebp
	mov	ebp, esp
	push	-1
	push	__ehhandler$??0JLAPullSource@locking@jni@plugins@monitoring@ibmras@@QAE@I@Z
	mov	eax, DWORD PTR fs:0
	push	eax
	sub	esp, 36					; 00000024H
	mov	eax, DWORD PTR ___security_cookie
	xor	eax, ebp
	mov	DWORD PTR __$ArrayPad$[ebp], eax
	push	eax
	lea	eax, DWORD PTR __$EHRec$[ebp]
	mov	DWORD PTR fs:0, eax
	mov	DWORD PTR _this$[ebp], ecx
	push	OFFSET $SG106299
	lea	ecx, DWORD PTR $T106298[ebp]
	call	??0?$basic_string@DU?$char_traits@D@std@@V?$allocator@D@2@@std@@QAE@PBD@Z ; std::basic_string<char,std::char_traits<char>,std::allocator<char> >::basic_string<char,std::char_traits<char>,std::allocator<char> >
	mov	DWORD PTR __$EHRec$[ebp+8], 0
	lea	eax, DWORD PTR $T106298[ebp]
	push	eax
	mov	ecx, DWORD PTR _id$[ebp]
	push	ecx
	mov	ecx, DWORD PTR _this$[ebp]
	call	??0PullSource@jni@plugins@monitoring@ibmras@@QAE@IABV?$basic_string@DU?$char_traits@D@std@@V?$allocator@D@2@@std@@@Z ; ibmras::monitoring::plugins::jni::PullSource::PullSource
	mov	BYTE PTR __$EHRec$[ebp+8], 2
	lea	ecx, DWORD PTR $T106298[ebp]
	call	??1?$basic_string@DU?$char_traits@D@std@@V?$allocator@D@2@@std@@QAE@XZ ; std::basic_string<char,std::char_traits<char>,std::allocator<char> >::~basic_string<char,std::char_traits<char>,std::allocator<char> >
	mov	edx, DWORD PTR _this$[ebp]
	mov	DWORD PTR [edx], OFFSET ??_7JLAPullSource@locking@jni@plugins@monitoring@ibmras@@6B@
; Line 86
	mov	DWORD PTR __$EHRec$[ebp+8], -1
	mov	eax, DWORD PTR _this$[ebp]
	mov	ecx, DWORD PTR __$EHRec$[ebp]
	mov	DWORD PTR fs:0, ecx
	pop	ecx
	mov	ecx, DWORD PTR __$ArrayPad$[ebp]
	xor	ecx, ebp
	call	@__security_check_cookie@4
	mov	esp, ebp
	pop	ebp
	ret	4
_TEXT	ENDS
text$x	SEGMENT
__unwindfunclet$??0JLAPullSource@locking@jni@plugins@monitoring@ibmras@@QAE@I@Z$0:
	lea	ecx, DWORD PTR $T106298[ebp]
	jmp	??1?$basic_string@DU?$char_traits@D@std@@V?$allocator@D@2@@std@@QAE@XZ ; std::basic_string<char,std::char_traits<char>,std::allocator<char> >::~basic_string<char,std::char_traits<char>,std::allocator<char> >
__unwindfunclet$??0JLAPullSource@locking@jni@plugins@monitoring@ibmras@@QAE@I@Z$1:
	mov	ecx, DWORD PTR _this$[ebp]
	jmp	??1PullSource@jni@plugins@monitoring@ibmras@@UAE@XZ ; ibmras::monitoring::plugins::jni::PullSource::~PullSource
__ehhandler$??0JLAPullSource@locking@jni@plugins@monitoring@ibmras@@QAE@I@Z:
	mov	edx, DWORD PTR [esp+8]
	lea	eax, DWORD PTR [edx+12]
	mov	ecx, DWORD PTR [edx-40]
	xor	ecx, eax
	call	@__security_check_cookie@4
	mov	ecx, DWORD PTR [edx-4]
	xor	ecx, eax
	call	@__security_check_cookie@4
	mov	eax, OFFSET __ehfuncinfo$??0JLAPullSource@locking@jni@plugins@monitoring@ibmras@@QAE@I@Z
	jmp	___CxxFrameHandler3
text$x	ENDS
??0JLAPullSource@locking@jni@plugins@monitoring@ibmras@@QAE@I@Z ENDP ; ibmras::monitoring::plugins::jni::locking::JLAPullSource::JLAPullSource
PUBLIC	??1JLAPullSource@locking@jni@plugins@monitoring@ibmras@@UAE@XZ ; ibmras::monitoring::plugins::jni::locking::JLAPullSource::~JLAPullSource
; Function compile flags: /Odtp
;	COMDAT ??_GJLAPullSource@locking@jni@plugins@monitoring@ibmras@@UAEPAXI@Z
_TEXT	SEGMENT
_this$ = -4						; size = 4
___flags$ = 8						; size = 4
??_GJLAPullSource@locking@jni@plugins@monitoring@ibmras@@UAEPAXI@Z PROC ; ibmras::monitoring::plugins::jni::locking::JLAPullSource::`scalar deleting destructor', COMDAT
; _this$ = ecx
	push	ebp
	mov	ebp, esp
	push	ecx
	mov	DWORD PTR _this$[ebp], ecx
	mov	ecx, DWORD PTR _this$[ebp]
	call	??1JLAPullSource@locking@jni@plugins@monitoring@ibmras@@UAE@XZ ; ibmras::monitoring::plugins::jni::locking::JLAPullSource::~JLAPullSource
	mov	eax, DWORD PTR ___flags$[ebp]
	and	eax, 1
	je	SHORT $LN1@scalar@7
	mov	ecx, DWORD PTR _this$[ebp]
	push	ecx
	call	??3@YAXPAX@Z				; operator delete
	add	esp, 4
$LN1@scalar@7:
	mov	eax, DWORD PTR _this$[ebp]
	mov	esp, ebp
	pop	ebp
	ret	4
??_GJLAPullSource@locking@jni@plugins@monitoring@ibmras@@UAEPAXI@Z ENDP ; ibmras::monitoring::plugins::jni::locking::JLAPullSource::`scalar deleting destructor'
; Function compile flags: /Odtp
_TEXT	ENDS
;	COMDAT ??1JLAPullSource@locking@jni@plugins@monitoring@ibmras@@UAE@XZ
_TEXT	SEGMENT
_this$ = -4						; size = 4
??1JLAPullSource@locking@jni@plugins@monitoring@ibmras@@UAE@XZ PROC ; ibmras::monitoring::plugins::jni::locking::JLAPullSource::~JLAPullSource, COMDAT
; _this$ = ecx
; File c:\workspaces\newagent2\runtime.tools\src\ibmras\monitoring\plugins\jni\locking\lockingdataprovider.h
; Line 30
	push	ebp
	mov	ebp, esp
	push	ecx
	mov	DWORD PTR _this$[ebp], ecx
	mov	eax, DWORD PTR _this$[ebp]
	mov	DWORD PTR [eax], OFFSET ??_7JLAPullSource@locking@jni@plugins@monitoring@ibmras@@6B@
	mov	ecx, DWORD PTR _this$[ebp]
	call	??1PullSource@jni@plugins@monitoring@ibmras@@UAE@XZ ; ibmras::monitoring::plugins::jni::PullSource::~PullSource
	mov	esp, ebp
	pop	ebp
	ret	0
??1JLAPullSource@locking@jni@plugins@monitoring@ibmras@@UAE@XZ ENDP ; ibmras::monitoring::plugins::jni::locking::JLAPullSource::~JLAPullSource
_TEXT	ENDS
PUBLIC	?length@?$basic_string@DU?$char_traits@D@std@@V?$allocator@D@2@@std@@QBEIXZ ; std::basic_string<char,std::char_traits<char>,std::allocator<char> >::length
PUBLIC	?c_str@?$basic_string@DU?$char_traits@D@std@@V?$allocator@D@2@@std@@QBEPBDXZ ; std::basic_string<char,std::char_traits<char>,std::allocator<char> >::c_str
PUBLIC	??Y?$basic_string@DU?$char_traits@D@std@@V?$allocator@D@2@@std@@QAEAAV01@PBD@Z ; std::basic_string<char,std::char_traits<char>,std::allocator<char> >::operator+=
PUBLIC	__$ArrayPad$
EXTRN	?getConnectionManager@Agent@agent@monitoring@ibmras@@QAEPAVConnectorManager@connector@34@XZ:PROC ; ibmras::monitoring::agent::Agent::getConnectionManager
EXTRN	?getInstance@Agent@agent@monitoring@ibmras@@SAPAV1234@XZ:PROC ; ibmras::monitoring::agent::Agent::getInstance
xdata$x	SEGMENT
__unwindtable$?publishConfig@JLAPullSource@locking@jni@plugins@monitoring@ibmras@@UAEXXZ DD 0ffffffffH
	DD	FLAT:__unwindfunclet$?publishConfig@JLAPullSource@locking@jni@plugins@monitoring@ibmras@@UAEXXZ$0
	DD	00H
	DD	FLAT:__unwindfunclet$?publishConfig@JLAPullSource@locking@jni@plugins@monitoring@ibmras@@UAEXXZ$1
__ehfuncinfo$?publishConfig@JLAPullSource@locking@jni@plugins@monitoring@ibmras@@UAEXXZ DD 019930522H
	DD	02H
	DD	FLAT:__unwindtable$?publishConfig@JLAPullSource@locking@jni@plugins@monitoring@ibmras@@UAEXXZ
	DD	2 DUP(00H)
	DD	2 DUP(00H)
	DD	00H
	DD	01H
; Function compile flags: /Odtp
xdata$x	ENDS
_TEXT	SEGMENT
_this$ = -84						; size = 4
_agent$ = -80						; size = 4
_conMan$ = -76						; size = 4
_msg$ = -72						; size = 28
$T106312 = -44						; size = 28
__$ArrayPad$ = -16					; size = 4
__$EHRec$ = -12						; size = 12
?publishConfig@JLAPullSource@locking@jni@plugins@monitoring@ibmras@@UAEXXZ PROC ; ibmras::monitoring::plugins::jni::locking::JLAPullSource::publishConfig
; _this$ = ecx
; File c:\workspaces\newagent2\runtime.tools\src\ibmras\monitoring\plugins\jni\locking\lockingdataprovider.cpp
; Line 88
	push	ebp
	mov	ebp, esp
	push	-1
	push	__ehhandler$?publishConfig@JLAPullSource@locking@jni@plugins@monitoring@ibmras@@UAEXXZ
	mov	eax, DWORD PTR fs:0
	push	eax
	sub	esp, 72					; 00000048H
	mov	eax, DWORD PTR ___security_cookie
	xor	eax, ebp
	mov	DWORD PTR __$ArrayPad$[ebp], eax
	push	eax
	lea	eax, DWORD PTR __$EHRec$[ebp]
	mov	DWORD PTR fs:0, eax
	mov	DWORD PTR _this$[ebp], ecx
; Line 90
	call	?getInstance@Agent@agent@monitoring@ibmras@@SAPAV1234@XZ ; ibmras::monitoring::agent::Agent::getInstance
	mov	DWORD PTR _agent$[ebp], eax
; Line 93
	mov	ecx, DWORD PTR _agent$[ebp]
	call	?getConnectionManager@Agent@agent@monitoring@ibmras@@QAEPAVConnectorManager@connector@34@XZ ; ibmras::monitoring::agent::Agent::getConnectionManager
	mov	DWORD PTR _conMan$[ebp], eax
; Line 95
	push	OFFSET $SG106306
	lea	ecx, DWORD PTR _msg$[ebp]
	call	??0?$basic_string@DU?$char_traits@D@std@@V?$allocator@D@2@@std@@QAE@PBD@Z ; std::basic_string<char,std::char_traits<char>,std::allocator<char> >::basic_string<char,std::char_traits<char>,std::allocator<char> >
	mov	DWORD PTR __$EHRec$[ebp+8], 0
; Line 96
	mov	ecx, DWORD PTR _this$[ebp]
	call	?isEnabled@JLAPullSource@locking@jni@plugins@monitoring@ibmras@@QAE_NXZ ; ibmras::monitoring::plugins::jni::locking::JLAPullSource::isEnabled
	movzx	eax, al
	test	eax, eax
	je	SHORT $LN2@publishCon
; Line 97
	push	OFFSET $SG106308
	lea	ecx, DWORD PTR _msg$[ebp]
	call	??Y?$basic_string@DU?$char_traits@D@std@@V?$allocator@D@2@@std@@QAEAAV01@PBD@Z ; std::basic_string<char,std::char_traits<char>,std::allocator<char> >::operator+=
; Line 98
	jmp	SHORT $LN1@publishCon
$LN2@publishCon:
; Line 99
	push	OFFSET $SG106310
	lea	ecx, DWORD PTR _msg$[ebp]
	call	??Y?$basic_string@DU?$char_traits@D@std@@V?$allocator@D@2@@std@@QAEAAV01@PBD@Z ; std::basic_string<char,std::char_traits<char>,std::allocator<char> >::operator+=
$LN1@publishCon:
; Line 103
	push	OFFSET $SG106313
	lea	ecx, DWORD PTR $T106312[ebp]
	call	??0?$basic_string@DU?$char_traits@D@std@@V?$allocator@D@2@@std@@QAE@PBD@Z ; std::basic_string<char,std::char_traits<char>,std::allocator<char> >::basic_string<char,std::char_traits<char>,std::allocator<char> >
	mov	BYTE PTR __$EHRec$[ebp+8], 1
	lea	ecx, DWORD PTR _msg$[ebp]
	call	?c_str@?$basic_string@DU?$char_traits@D@std@@V?$allocator@D@2@@std@@QBEPBDXZ ; std::basic_string<char,std::char_traits<char>,std::allocator<char> >::c_str
	push	eax
	lea	ecx, DWORD PTR _msg$[ebp]
	call	?length@?$basic_string@DU?$char_traits@D@std@@V?$allocator@D@2@@std@@QBEIXZ ; std::basic_string<char,std::char_traits<char>,std::allocator<char> >::length
	push	eax
	lea	ecx, DWORD PTR $T106312[ebp]
	push	ecx
	mov	edx, DWORD PTR _conMan$[ebp]
	mov	eax, DWORD PTR [edx]
	mov	ecx, DWORD PTR _conMan$[ebp]
	mov	edx, DWORD PTR [eax+4]
	call	edx
	mov	BYTE PTR __$EHRec$[ebp+8], 0
	lea	ecx, DWORD PTR $T106312[ebp]
	call	??1?$basic_string@DU?$char_traits@D@std@@V?$allocator@D@2@@std@@QAE@XZ ; std::basic_string<char,std::char_traits<char>,std::allocator<char> >::~basic_string<char,std::char_traits<char>,std::allocator<char> >
; Line 104
	mov	DWORD PTR __$EHRec$[ebp+8], -1
	lea	ecx, DWORD PTR _msg$[ebp]
	call	??1?$basic_string@DU?$char_traits@D@std@@V?$allocator@D@2@@std@@QAE@XZ ; std::basic_string<char,std::char_traits<char>,std::allocator<char> >::~basic_string<char,std::char_traits<char>,std::allocator<char> >
	mov	ecx, DWORD PTR __$EHRec$[ebp]
	mov	DWORD PTR fs:0, ecx
	pop	ecx
	mov	ecx, DWORD PTR __$ArrayPad$[ebp]
	xor	ecx, ebp
	call	@__security_check_cookie@4
	mov	esp, ebp
	pop	ebp
	ret	0
_TEXT	ENDS
text$x	SEGMENT
__unwindfunclet$?publishConfig@JLAPullSource@locking@jni@plugins@monitoring@ibmras@@UAEXXZ$0:
	lea	ecx, DWORD PTR _msg$[ebp]
	jmp	??1?$basic_string@DU?$char_traits@D@std@@V?$allocator@D@2@@std@@QAE@XZ ; std::basic_string<char,std::char_traits<char>,std::allocator<char> >::~basic_string<char,std::char_traits<char>,std::allocator<char> >
__unwindfunclet$?publishConfig@JLAPullSource@locking@jni@plugins@monitoring@ibmras@@UAEXXZ$1:
	lea	ecx, DWORD PTR $T106312[ebp]
	jmp	??1?$basic_string@DU?$char_traits@D@std@@V?$allocator@D@2@@std@@QAE@XZ ; std::basic_string<char,std::char_traits<char>,std::allocator<char> >::~basic_string<char,std::char_traits<char>,std::allocator<char> >
__ehhandler$?publishConfig@JLAPullSource@locking@jni@plugins@monitoring@ibmras@@UAEXXZ:
	mov	edx, DWORD PTR [esp+8]
	lea	eax, DWORD PTR [edx+12]
	mov	ecx, DWORD PTR [edx-76]
	xor	ecx, eax
	call	@__security_check_cookie@4
	mov	ecx, DWORD PTR [edx-4]
	xor	ecx, eax
	call	@__security_check_cookie@4
	mov	eax, OFFSET __ehfuncinfo$?publishConfig@JLAPullSource@locking@jni@plugins@monitoring@ibmras@@UAEXXZ
	jmp	___CxxFrameHandler3
text$x	ENDS
?publishConfig@JLAPullSource@locking@jni@plugins@monitoring@ibmras@@UAEXXZ ENDP ; ibmras::monitoring::plugins::jni::locking::JLAPullSource::publishConfig
; Function compile flags: /Odtp
_TEXT	SEGMENT
_this$ = -4						; size = 4
?getSourceID@JLAPullSource@locking@jni@plugins@monitoring@ibmras@@UAEIXZ PROC ; ibmras::monitoring::plugins::jni::locking::JLAPullSource::getSourceID
; _this$ = ecx
; Line 106
	push	ebp
	mov	ebp, esp
	push	ecx
	mov	DWORD PTR _this$[ebp], ecx
; Line 107
	mov	eax, 4
; Line 108
	mov	esp, ebp
	pop	ebp
	ret	0
?getSourceID@JLAPullSource@locking@jni@plugins@monitoring@ibmras@@UAEIXZ ENDP ; ibmras::monitoring::plugins::jni::locking::JLAPullSource::getSourceID
_TEXT	ENDS
EXTRN	_memset:PROC
; Function compile flags: /Odtp
_TEXT	SEGMENT
tv67 = -20						; size = 4
_this$ = -16						; size = 4
$T119372 = -12						; size = 4
$T119371 = -8						; size = 4
_src$ = -4						; size = 4
?getDescriptor@JLAPullSource@locking@jni@plugins@monitoring@ibmras@@UAEPAUpullsource@@XZ PROC ; ibmras::monitoring::plugins::jni::locking::JLAPullSource::getDescriptor
; _this$ = ecx
; Line 110
	push	ebp
	mov	ebp, esp
	sub	esp, 20					; 00000014H
	mov	DWORD PTR _this$[ebp], ecx
; Line 112
	mov	DWORD PTR $T119371[ebp], 32		; 00000020H
	mov	eax, DWORD PTR $T119371[ebp]
	push	eax
	call	??2@YAPAXI@Z				; operator new
	add	esp, 4
	mov	DWORD PTR $T119372[ebp], eax
	cmp	DWORD PTR $T119372[ebp], 0
	je	SHORT $LN3@getDescrip
	mov	ecx, DWORD PTR $T119371[ebp]
	push	ecx
	push	0
	mov	edx, DWORD PTR $T119372[ebp]
	push	edx
	call	_memset
	add	esp, 12					; 0000000cH
	mov	eax, DWORD PTR $T119372[ebp]
	mov	DWORD PTR tv67[ebp], eax
	jmp	SHORT $LN4@getDescrip
$LN3@getDescrip:
	mov	DWORD PTR tv67[ebp], 0
$LN4@getDescrip:
	mov	ecx, DWORD PTR tv67[ebp]
	mov	DWORD PTR _src$[ebp], ecx
; Line 113
	mov	edx, DWORD PTR _src$[ebp]
	mov	DWORD PTR [edx+8], OFFSET $SG106324
; Line 114
	mov	eax, DWORD PTR _src$[ebp]
	mov	DWORD PTR [eax+12], OFFSET $SG106325
; Line 115
	mov	ecx, DWORD PTR _src$[ebp]
	mov	DWORD PTR [ecx], 4
; Line 116
	mov	edx, DWORD PTR _src$[ebp]
	mov	DWORD PTR [edx+4], 262144		; 00040000H
; Line 117
	mov	eax, DWORD PTR _src$[ebp]
	mov	DWORD PTR [eax+16], 0
; Line 118
	mov	ecx, DWORD PTR _src$[ebp]
	mov	DWORD PTR [ecx+24], OFFSET ?callback@locking@jni@plugins@monitoring@ibmras@@YAPAUmonitordata@@XZ ; ibmras::monitoring::plugins::jni::locking::callback
; Line 119
	mov	edx, DWORD PTR _src$[ebp]
	mov	DWORD PTR [edx+28], OFFSET ?complete@locking@jni@plugins@monitoring@ibmras@@YAXPAUmonitordata@@@Z ; ibmras::monitoring::plugins::jni::locking::complete
; Line 120
	mov	eax, DWORD PTR _src$[ebp]
	mov	DWORD PTR [eax+20], 120			; 00000078H
; Line 122
	mov	eax, DWORD PTR _src$[ebp]
; Line 123
	mov	esp, ebp
	pop	ebp
	ret	0
?getDescriptor@JLAPullSource@locking@jni@plugins@monitoring@ibmras@@UAEPAUpullsource@@XZ ENDP ; ibmras::monitoring::plugins::jni::locking::JLAPullSource::getDescriptor
_TEXT	ENDS
PUBLIC	??_D?$basic_stringstream@DU?$char_traits@D@std@@V?$allocator@D@2@@std@@QAEXXZ ; std::basic_stringstream<char,std::char_traits<char>,std::allocator<char> >::`vbase destructor'
PUBLIC	?str@?$basic_stringstream@DU?$char_traits@D@std@@V?$allocator@D@2@@std@@QBE?AV?$basic_string@DU?$char_traits@D@std@@V?$allocator@D@2@@2@XZ ; std::basic_stringstream<char,std::char_traits<char>,std::allocator<char> >::str
PUBLIC	?reportJLA@locking@jni@plugins@monitoring@ibmras@@YAPADPAUJNIEnv_@@@Z ; ibmras::monitoring::plugins::jni::locking::reportJLA
PUBLIC	??$?6U?$char_traits@D@std@@@std@@YAAAV?$basic_ostream@DU?$char_traits@D@std@@@0@AAV10@PBD@Z ; std::operator<<<std::char_traits<char> >
PUBLIC	?getProvID@PullSource@jni@plugins@monitoring@ibmras@@QAEIXZ ; ibmras::monitoring::plugins::jni::PullSource::getProvID
PUBLIC	??0?$basic_stringstream@DU?$char_traits@D@std@@V?$allocator@D@2@@std@@QAE@H@Z ; std::basic_stringstream<char,std::char_traits<char>,std::allocator<char> >::basic_stringstream<char,std::char_traits<char>,std::allocator<char> >
PUBLIC	__$ArrayPad$
EXTRN	?createAsciiString@util@common@ibmras@@YAPADPBD@Z:PROC ; ibmras::common::util::createAsciiString
EXTRN	?hc_dealloc@jni@plugins@monitoring@ibmras@@YAXPAPAE@Z:PROC ; ibmras::monitoring::plugins::jni::hc_dealloc
EXTRN	__imp_??6?$basic_ostream@DU?$char_traits@D@std@@@std@@QAEAAV01@_K@Z:PROC
EXTRN	__imp__GetSystemTime@4:PROC
EXTRN	__allmul:PROC
xdata$x	SEGMENT
__unwindtable$?sourceData@JLAPullSource@locking@jni@plugins@monitoring@ibmras@@UAEPAUmonitordata@@PAUjvmFunctions@@PAUJNIEnv_@@@Z DD 0ffffffffH
	DD	FLAT:__unwindfunclet$?sourceData@JLAPullSource@locking@jni@plugins@monitoring@ibmras@@UAEPAUmonitordata@@PAUjvmFunctions@@PAUJNIEnv_@@@Z$0
	DD	00H
	DD	FLAT:__unwindfunclet$?sourceData@JLAPullSource@locking@jni@plugins@monitoring@ibmras@@UAEPAUmonitordata@@PAUjvmFunctions@@PAUJNIEnv_@@@Z$1
__ehfuncinfo$?sourceData@JLAPullSource@locking@jni@plugins@monitoring@ibmras@@UAEPAUmonitordata@@PAUjvmFunctions@@PAUJNIEnv_@@@Z DD 019930522H
	DD	02H
	DD	FLAT:__unwindtable$?sourceData@JLAPullSource@locking@jni@plugins@monitoring@ibmras@@UAEPAUmonitordata@@PAUjvmFunctions@@PAUJNIEnv_@@@Z
	DD	2 DUP(00H)
	DD	2 DUP(00H)
	DD	00H
	DD	01H
; Function compile flags: /Odtp
xdata$x	ENDS
_TEXT	SEGMENT
tv146 = -268						; size = 4
tv132 = -264						; size = 4
_this$ = -260						; size = 4
$T119378 = -256						; size = 4
_ss$106481 = -252					; size = 168
_millisecondsSinceEpoch$106482 = -84			; size = 8
_st$106483 = -76					; size = 16
_len$106644 = -60					; size = 4
_sval$106645 = -56					; size = 4
_value$106621 = -52					; size = 4
_lockingdata$106642 = -48				; size = 28
__$ArrayPad$ = -20					; size = 4
_data$ = -16						; size = 4
__$EHRec$ = -12						; size = 12
_tdpp$ = 8						; size = 4
_env$ = 12						; size = 4
?sourceData@JLAPullSource@locking@jni@plugins@monitoring@ibmras@@UAEPAUmonitordata@@PAUjvmFunctions@@PAUJNIEnv_@@@Z PROC ; ibmras::monitoring::plugins::jni::locking::JLAPullSource::sourceData
; _this$ = ecx
; Line 125
	push	ebp
	mov	ebp, esp
	push	-1
	push	__ehhandler$?sourceData@JLAPullSource@locking@jni@plugins@monitoring@ibmras@@UAEPAUmonitordata@@PAUjvmFunctions@@PAUJNIEnv_@@@Z
	mov	eax, DWORD PTR fs:0
	push	eax
	sub	esp, 256				; 00000100H
	mov	eax, DWORD PTR ___security_cookie
	xor	eax, ebp
	mov	DWORD PTR __$ArrayPad$[ebp], eax
	push	esi
	push	eax
	lea	eax, DWORD PTR __$EHRec$[ebp]
	mov	DWORD PTR fs:0, eax
	mov	DWORD PTR _this$[ebp], ecx
; Line 126
	push	20					; 00000014H
	call	??2@YAPAXI@Z				; operator new
	add	esp, 4
	mov	DWORD PTR $T119378[ebp], eax
	mov	eax, DWORD PTR $T119378[ebp]
	mov	DWORD PTR _data$[ebp], eax
; Line 127
	mov	ecx, DWORD PTR _data$[ebp]
	mov	DWORD PTR [ecx+8], 0
; Line 128
	mov	edx, DWORD PTR _data$[ebp]
	mov	DWORD PTR [edx+12], 0
; Line 130
	mov	ecx, DWORD PTR _this$[ebp]
	call	?isEnabled@JLAPullSource@locking@jni@plugins@monitoring@ibmras@@QAE_NXZ ; ibmras::monitoring::plugins::jni::locking::JLAPullSource::isEnabled
	movzx	eax, al
	test	eax, eax
	je	$LN2@sourceData
; Line 131
	mov	ecx, DWORD PTR _data$[ebp]
	mov	BYTE PTR [ecx+16], 0
; Line 132
	push	1
	push	3
	lea	ecx, DWORD PTR _ss$106481[ebp]
	call	??0?$basic_stringstream@DU?$char_traits@D@std@@V?$allocator@D@2@@std@@QAE@H@Z ; std::basic_stringstream<char,std::char_traits<char>,std::allocator<char> >::basic_stringstream<char,std::char_traits<char>,std::allocator<char> >
	mov	DWORD PTR __$EHRec$[ebp+8], 0
; Line 134
	mov	ecx, DWORD PTR _this$[ebp]
	call	?getProvID@PullSource@jni@plugins@monitoring@ibmras@@QAEIXZ ; ibmras::monitoring::plugins::jni::PullSource::getProvID
	mov	edx, DWORD PTR _data$[ebp]
	mov	DWORD PTR [edx], eax
; Line 135
	mov	eax, DWORD PTR _data$[ebp]
	mov	DWORD PTR [eax+4], 4
; Line 142
	lea	ecx, DWORD PTR _st$106483[ebp]
	push	ecx
	call	DWORD PTR __imp__GetSystemTime@4
; Line 144
	push	0
	call	_time
	add	esp, 4
	push	0
	push	1000					; 000003e8H
	push	edx
	push	eax
	call	__allmul
	mov	ecx, eax
	mov	esi, edx
	movzx	eax, WORD PTR _st$106483[ebp+14]
	cdq
	add	ecx, eax
	adc	esi, edx
	mov	DWORD PTR _millisecondsSinceEpoch$106482[ebp], ecx
	mov	DWORD PTR _millisecondsSinceEpoch$106482[ebp+4], esi
; Line 154
	lea	edx, DWORD PTR _ss$106481[ebp]
	test	edx, edx
	je	SHORT $LN5@sourceData
	lea	eax, DWORD PTR _ss$106481[ebp]
	add	eax, 16					; 00000010H
	mov	DWORD PTR tv132[ebp], eax
	jmp	SHORT $LN6@sourceData
$LN5@sourceData:
	mov	DWORD PTR tv132[ebp], 0
$LN6@sourceData:
	push	OFFSET $SG106619
	mov	ecx, DWORD PTR _millisecondsSinceEpoch$106482[ebp+4]
	push	ecx
	mov	edx, DWORD PTR _millisecondsSinceEpoch$106482[ebp]
	push	edx
	push	OFFSET $SG106620
	mov	eax, DWORD PTR tv132[ebp]
	push	eax
	call	??$?6U?$char_traits@D@std@@@std@@YAAAV?$basic_ostream@DU?$char_traits@D@std@@@0@AAV10@PBD@Z ; std::operator<<<std::char_traits<char> >
	add	esp, 8
	mov	ecx, eax
	call	DWORD PTR __imp_??6?$basic_ostream@DU?$char_traits@D@std@@@std@@QAEAAV01@_K@Z
	push	eax
	call	??$?6U?$char_traits@D@std@@@std@@YAAAV?$basic_ostream@DU?$char_traits@D@std@@@0@AAV10@PBD@Z ; std::operator<<<std::char_traits<char> >
	add	esp, 8
; Line 156
	mov	ecx, DWORD PTR _env$[ebp]
	push	ecx
	call	?reportJLA@locking@jni@plugins@monitoring@ibmras@@YAPADPAUJNIEnv_@@@Z ; ibmras::monitoring::plugins::jni::locking::reportJLA
	add	esp, 4
	mov	DWORD PTR _value$106621[ebp], eax
; Line 158
	lea	edx, DWORD PTR _ss$106481[ebp]
	test	edx, edx
	je	SHORT $LN7@sourceData
	lea	eax, DWORD PTR _ss$106481[ebp]
	add	eax, 16					; 00000010H
	mov	DWORD PTR tv146[ebp], eax
	jmp	SHORT $LN8@sourceData
$LN7@sourceData:
	mov	DWORD PTR tv146[ebp], 0
$LN8@sourceData:
	mov	ecx, DWORD PTR _value$106621[ebp]
	push	ecx
	mov	edx, DWORD PTR tv146[ebp]
	push	edx
	call	??$?6U?$char_traits@D@std@@@std@@YAAAV?$basic_ostream@DU?$char_traits@D@std@@@0@AAV10@PBD@Z ; std::operator<<<std::char_traits<char> >
	add	esp, 8
; Line 160
	lea	eax, DWORD PTR _value$106621[ebp]
	push	eax
	call	?hc_dealloc@jni@plugins@monitoring@ibmras@@YAXPAPAE@Z ; ibmras::monitoring::plugins::jni::hc_dealloc
	add	esp, 4
; Line 162
	lea	ecx, DWORD PTR _lockingdata$106642[ebp]
	push	ecx
	lea	ecx, DWORD PTR _ss$106481[ebp]
	call	?str@?$basic_stringstream@DU?$char_traits@D@std@@V?$allocator@D@2@@std@@QBE?AV?$basic_string@DU?$char_traits@D@std@@V?$allocator@D@2@@2@XZ ; std::basic_stringstream<char,std::char_traits<char>,std::allocator<char> >::str
	mov	BYTE PTR __$EHRec$[ebp+8], 1
; Line 164
	lea	ecx, DWORD PTR _lockingdata$106642[ebp]
	call	?length@?$basic_string@DU?$char_traits@D@std@@V?$allocator@D@2@@std@@QBEIXZ ; std::basic_string<char,std::char_traits<char>,std::allocator<char> >::length
	mov	DWORD PTR _len$106644[ebp], eax
; Line 166
	lea	ecx, DWORD PTR _lockingdata$106642[ebp]
	call	?c_str@?$basic_string@DU?$char_traits@D@std@@V?$allocator@D@2@@std@@QBEPBDXZ ; std::basic_string<char,std::char_traits<char>,std::allocator<char> >::c_str
	push	eax
	call	?createAsciiString@util@common@ibmras@@YAPADPBD@Z ; ibmras::common::util::createAsciiString
	add	esp, 4
	mov	DWORD PTR _sval$106645[ebp], eax
; Line 168
	cmp	DWORD PTR _sval$106645[ebp], 0
	je	SHORT $LN1@sourceData
; Line 169
	mov	edx, DWORD PTR _data$[ebp]
	mov	eax, DWORD PTR _len$106644[ebp]
	mov	DWORD PTR [edx+8], eax
; Line 170
	mov	ecx, DWORD PTR _data$[ebp]
	mov	edx, DWORD PTR _sval$106645[ebp]
	mov	DWORD PTR [ecx+12], edx
$LN1@sourceData:
; Line 172
	mov	BYTE PTR __$EHRec$[ebp+8], 0
	lea	ecx, DWORD PTR _lockingdata$106642[ebp]
	call	??1?$basic_string@DU?$char_traits@D@std@@V?$allocator@D@2@@std@@QAE@XZ ; std::basic_string<char,std::char_traits<char>,std::allocator<char> >::~basic_string<char,std::char_traits<char>,std::allocator<char> >
	mov	DWORD PTR __$EHRec$[ebp+8], -1
	lea	ecx, DWORD PTR _ss$106481[ebp]
	call	??_D?$basic_stringstream@DU?$char_traits@D@std@@V?$allocator@D@2@@std@@QAEXXZ
$LN2@sourceData:
; Line 173
	mov	eax, DWORD PTR _data$[ebp]
; Line 174
	mov	ecx, DWORD PTR __$EHRec$[ebp]
	mov	DWORD PTR fs:0, ecx
	pop	ecx
	pop	esi
	mov	ecx, DWORD PTR __$ArrayPad$[ebp]
	xor	ecx, ebp
	call	@__security_check_cookie@4
	mov	esp, ebp
	pop	ebp
	ret	8
_TEXT	ENDS
text$x	SEGMENT
__unwindfunclet$?sourceData@JLAPullSource@locking@jni@plugins@monitoring@ibmras@@UAEPAUmonitordata@@PAUjvmFunctions@@PAUJNIEnv_@@@Z$0:
	lea	ecx, DWORD PTR _ss$106481[ebp]
	jmp	??_D?$basic_stringstream@DU?$char_traits@D@std@@V?$allocator@D@2@@std@@QAEXXZ
__unwindfunclet$?sourceData@JLAPullSource@locking@jni@plugins@monitoring@ibmras@@UAEPAUmonitordata@@PAUjvmFunctions@@PAUJNIEnv_@@@Z$1:
	lea	ecx, DWORD PTR _lockingdata$106642[ebp]
	jmp	??1?$basic_string@DU?$char_traits@D@std@@V?$allocator@D@2@@std@@QAE@XZ ; std::basic_string<char,std::char_traits<char>,std::allocator<char> >::~basic_string<char,std::char_traits<char>,std::allocator<char> >
__ehhandler$?sourceData@JLAPullSource@locking@jni@plugins@monitoring@ibmras@@UAEPAUmonitordata@@PAUjvmFunctions@@PAUJNIEnv_@@@Z:
	mov	edx, DWORD PTR [esp+8]
	lea	eax, DWORD PTR [edx+12]
	mov	ecx, DWORD PTR [edx-264]
	xor	ecx, eax
	call	@__security_check_cookie@4
	mov	ecx, DWORD PTR [edx-8]
	xor	ecx, eax
	call	@__security_check_cookie@4
	mov	eax, OFFSET __ehfuncinfo$?sourceData@JLAPullSource@locking@jni@plugins@monitoring@ibmras@@UAEPAUmonitordata@@PAUjvmFunctions@@PAUJNIEnv_@@@Z
	jmp	___CxxFrameHandler3
text$x	ENDS
?sourceData@JLAPullSource@locking@jni@plugins@monitoring@ibmras@@UAEPAUmonitordata@@PAUjvmFunctions@@PAUJNIEnv_@@@Z ENDP ; ibmras::monitoring::plugins::jni::locking::JLAPullSource::sourceData
; Function compile flags: /Odtp
;	COMDAT ?getProvID@PullSource@jni@plugins@monitoring@ibmras@@QAEIXZ
_TEXT	SEGMENT
_this$ = -4						; size = 4
?getProvID@PullSource@jni@plugins@monitoring@ibmras@@QAEIXZ PROC ; ibmras::monitoring::plugins::jni::PullSource::getProvID, COMDAT
; _this$ = ecx
; File c:\workspaces\newagent2\runtime.tools\src\ibmras\monitoring\plugins\jni\cfacade.h
; Line 62
	push	ebp
	mov	ebp, esp
	push	ecx
	mov	DWORD PTR _this$[ebp], ecx
	mov	eax, DWORD PTR _this$[ebp]
	mov	eax, DWORD PTR [eax+4]
	mov	esp, ebp
	pop	ebp
	ret	0
?getProvID@PullSource@jni@plugins@monitoring@ibmras@@QAEIXZ ENDP ; ibmras::monitoring::plugins::jni::PullSource::getProvID
_TEXT	ENDS
EXTRN	__imp___time64:PROC
; Function compile flags: /Odtp
_TEXT	SEGMENT
__Time$ = 8						; size = 4
_time	PROC
; File c:\program files (x86)\microsoft visual studio 10.0\vc\include\time.inl
; Line 132
	push	ebp
	mov	ebp, esp
; Line 133
	mov	eax, DWORD PTR __Time$[ebp]
	push	eax
	call	DWORD PTR __imp___time64
	add	esp, 4
; Line 134
	pop	ebp
	ret	0
_time	ENDP
_TEXT	ENDS
PUBLIC	??1?$basic_stringstream@DU?$char_traits@D@std@@V?$allocator@D@2@@std@@UAE@XZ ; std::basic_stringstream<char,std::char_traits<char>,std::allocator<char> >::~basic_stringstream<char,std::char_traits<char>,std::allocator<char> >
EXTRN	__imp_??1?$basic_ios@DU?$char_traits@D@std@@@std@@UAE@XZ:PROC
; Function compile flags: /Odtp
;	COMDAT ??_D?$basic_stringstream@DU?$char_traits@D@std@@V?$allocator@D@2@@std@@QAEXXZ
_TEXT	SEGMENT
_this$ = -4						; size = 4
??_D?$basic_stringstream@DU?$char_traits@D@std@@V?$allocator@D@2@@std@@QAEXXZ PROC ; std::basic_stringstream<char,std::char_traits<char>,std::allocator<char> >::`vbase destructor', COMDAT
; _this$ = ecx
	push	ebp
	mov	ebp, esp
	push	ecx
	mov	DWORD PTR _this$[ebp], ecx
	mov	ecx, DWORD PTR _this$[ebp]
	add	ecx, 96					; 00000060H
	call	??1?$basic_stringstream@DU?$char_traits@D@std@@V?$allocator@D@2@@std@@UAE@XZ ; std::basic_stringstream<char,std::char_traits<char>,std::allocator<char> >::~basic_stringstream<char,std::char_traits<char>,std::allocator<char> >
	mov	ecx, DWORD PTR _this$[ebp]
	add	ecx, 96					; 00000060H
	call	DWORD PTR __imp_??1?$basic_ios@DU?$char_traits@D@std@@@std@@UAE@XZ
	mov	esp, ebp
	pop	ebp
	ret	0
??_D?$basic_stringstream@DU?$char_traits@D@std@@V?$allocator@D@2@@std@@QAEXXZ ENDP ; std::basic_stringstream<char,std::char_traits<char>,std::allocator<char> >::`vbase destructor'
_TEXT	ENDS
PUBLIC	?monitor_dump_event@locking@jni@plugins@monitoring@ibmras@@YAPADPAUJNIEnv_@@@Z ; ibmras::monitoring::plugins::jni::locking::monitor_dump_event
EXTRN	?debug@Logger@common@ibmras@@QAAXW4Level@logging@23@PBDZZ:PROC ; ibmras::common::Logger::debug
; Function compile flags: /Odtp
_TEXT	SEGMENT
_reportData$ = -4					; size = 4
_env$ = 8						; size = 4
?reportJLA@locking@jni@plugins@monitoring@ibmras@@YAPADPAUJNIEnv_@@@Z PROC ; ibmras::monitoring::plugins::jni::locking::reportJLA
; File c:\workspaces\newagent2\runtime.tools\src\ibmras\monitoring\plugins\jni\locking\lockingdataprovider.cpp
; Line 176
	push	ebp
	mov	ebp, esp
	push	ecx
; Line 177
	mov	DWORD PTR _reportData$[ebp], 0
; Line 179
	mov	eax, DWORD PTR ?logger@locking@jni@plugins@monitoring@ibmras@@3PAVLogger@common@5@A ; ibmras::monitoring::plugins::jni::locking::logger
	cmp	DWORD PTR [eax+8], 5
	jl	SHORT $LN2@reportJLA
	push	OFFSET $SG106654
	push	5
	mov	ecx, DWORD PTR ?logger@locking@jni@plugins@monitoring@ibmras@@3PAVLogger@common@5@A ; ibmras::monitoring::plugins::jni::locking::logger
	push	ecx
	call	?debug@Logger@common@ibmras@@QAAXW4Level@logging@23@PBDZZ ; ibmras::common::Logger::debug
	add	esp, 12					; 0000000cH
$LN2@reportJLA:
; Line 182
	mov	edx, DWORD PTR _env$[ebp]
	push	edx
	call	?monitor_dump_event@locking@jni@plugins@monitoring@ibmras@@YAPADPAUJNIEnv_@@@Z ; ibmras::monitoring::plugins::jni::locking::monitor_dump_event
	add	esp, 4
	mov	DWORD PTR _reportData$[ebp], eax
; Line 184
	mov	eax, DWORD PTR ?logger@locking@jni@plugins@monitoring@ibmras@@3PAVLogger@common@5@A ; ibmras::monitoring::plugins::jni::locking::logger
	cmp	DWORD PTR [eax+8], 5
	jl	SHORT $LN1@reportJLA
	push	OFFSET $SG106656
	push	5
	mov	ecx, DWORD PTR ?logger@locking@jni@plugins@monitoring@ibmras@@3PAVLogger@common@5@A ; ibmras::monitoring::plugins::jni::locking::logger
	push	ecx
	call	?debug@Logger@common@ibmras@@QAAXW4Level@logging@23@PBDZZ ; ibmras::common::Logger::debug
	add	esp, 12					; 0000000cH
$LN1@reportJLA:
; Line 185
	mov	eax, DWORD PTR _reportData$[ebp]
; Line 186
	mov	esp, ebp
	pop	ebp
	ret	0
?reportJLA@locking@jni@plugins@monitoring@ibmras@@YAPADPAUJNIEnv_@@@Z ENDP ; ibmras::monitoring::plugins::jni::locking::reportJLA
_TEXT	ENDS
PUBLIC	__real@0000000000000000
PUBLIC	__real@4059000000000000
PUBLIC	__real@41f0000000000000
PUBLIC	__$ArrayPad$
EXTRN	?dealloc_report_lines@jni@plugins@monitoring@ibmras@@YAXQAPADH@Z:PROC ; ibmras::monitoring::plugins::jni::dealloc_report_lines
EXTRN	?join_strings@jni@plugins@monitoring@ibmras@@YAPADQAPADH@Z:PROC ; ibmras::monitoring::plugins::jni::join_strings
EXTRN	?hc_realloc_ptr_array@jni@plugins@monitoring@ibmras@@YAPAXQAPAPADHH@Z:PROC ; ibmras::monitoring::plugins::jni::hc_realloc_ptr_array
EXTRN	__imp__qsort:PROC
EXTRN	?qcmp_jlm@jni@plugins@monitoring@ibmras@@YAHPBX0@Z:PROC ; ibmras::monitoring::plugins::jni::qcmp_jlm
EXTRN	?dupJavaStr@jni@plugins@monitoring@ibmras@@YAPADPBD@Z:PROC ; ibmras::monitoring::plugins::jni::dupJavaStr
EXTRN	?dump_read_u4@jni@plugins@monitoring@ibmras@@YAIPAD@Z:PROC ; ibmras::monitoring::plugins::jni::dump_read_u4
EXTRN	_strcpy:PROC
EXTRN	_strlen:PROC
EXTRN	__imp__sprintf:PROC
EXTRN	?tm_stt@jni@plugins@monitoring@ibmras@@3_KA:QWORD ; ibmras::monitoring::plugins::jni::tm_stt
EXTRN	?read_cycles_on_processor@jni@plugins@monitoring@ibmras@@YA_KH@Z:PROC ; ibmras::monitoring::plugins::jni::read_cycles_on_processor
EXTRN	?hc_alloc@jni@plugins@monitoring@ibmras@@YAPAEH@Z:PROC ; ibmras::monitoring::plugins::jni::hc_alloc
EXTRN	?getTDPP@jni@plugins@monitoring@ibmras@@YAPAUjvmFunctions@@XZ:PROC ; ibmras::monitoring::plugins::jni::getTDPP
EXTRN	__fltused:DWORD
;	COMDAT ?dcnt@?1??monitor_dump_event@locking@jni@plugins@monitoring@ibmras@@YAPADPAUJNIEnv_@@@Z@4HA
_BSS	SEGMENT
?dcnt@?1??monitor_dump_event@locking@jni@plugins@monitoring@ibmras@@YAPADPAUJNIEnv_@@@Z@4HA DD 01H DUP (?) ; `ibmras::monitoring::plugins::jni::locking::monitor_dump_event'::`2'::dcnt
_BSS	ENDS
;	COMDAT __real@0000000000000000
CONST	SEGMENT
__real@0000000000000000 DQ 00000000000000000r	; 0
CONST	ENDS
;	COMDAT __real@4059000000000000
CONST	SEGMENT
__real@4059000000000000 DQ 04059000000000000r	; 100
CONST	ENDS
;	COMDAT __real@41f0000000000000
CONST	SEGMENT
__real@41f0000000000000 DQ 041f0000000000000r	; 4.29497e+009
; Function compile flags: /Odtp
CONST	ENDS
_TEXT	SEGMENT
tv450 = -1208						; size = 4
tv411 = -1204						; size = 4
tv343 = -1200						; size = 4
tv672 = -1196						; size = 8
tv655 = -1188						; size = 8
tv651 = -1180						; size = 8
tv150 = -1172						; size = 4
_hthi$106737 = -1168					; size = 4
_htlo$106736 = -1164					; size = 4
_dhtm$106738 = -1160					; size = 8
_held$106735 = -1145					; size = 1
_reportArraySize$ = -1144				; size = 4
_reportLineCount$ = -1140				; size = 4
_buffer$ = -1136					; size = 1000
__$ArrayPad$ = -132					; size = 4
_arrjmon$ = -128					; size = 4
_rawcnt$ = -124						; size = 4
_infcnt$ = -120						; size = 4
_JMONMAX$ = -116					; size = 4
_reportEnd$ = -112					; size = 4
_arrsmon$ = -108					; size = 4
_tm_delta$ = -104					; size = 8
_end$ = -96						; size = 4
_reportLineArray$ = -92					; size = 4
_q$ = -88						; size = 4
_jlm$ = -84						; size = 4
_ntraces$ = -80						; size = 4
_psz$ = -76						; size = 4
_javaMon$ = -72						; size = 4
_arrs_size$ = -68					; size = 4
_tm_curr$ = -64						; size = 8
_systemMon$ = -56					; size = 4
_ty$ = -49						; size = 1
_i$ = -48						; size = 4
_jp$ = -44						; size = 4
_thrdstat$ = -40					; size = 4
_SMONMAX$ = -36						; size = 4
_arrj_size$ = -32					; size = 4
_pti$ = -28						; size = 4
_rc$ = -24						; size = 4
_beg$ = -20						; size = 4
_repjlmfmt$ = -16					; size = 4
_p$ = -12						; size = 4
_stt$ = -8						; size = 4
_finalReport$ = -4					; size = 4
_env$ = 8						; size = 4
?monitor_dump_event@locking@jni@plugins@monitoring@ibmras@@YAPADPAUJNIEnv_@@@Z PROC ; ibmras::monitoring::plugins::jni::locking::monitor_dump_event
; Line 188
	push	ebp
	mov	ebp, esp
	sub	esp, 1208				; 000004b8H
	mov	eax, DWORD PTR ___security_cookie
	xor	eax, ebp
	mov	DWORD PTR __$ArrayPad$[ebp], eax
; Line 189
	mov	DWORD PTR _q$[ebp], 0
; Line 190
	mov	DWORD PTR _p$[ebp], 0
; Line 197
	mov	DWORD PTR _jlm$[ebp], 0
; Line 207
	mov	DWORD PTR _psz$[ebp], 4
; Line 209
	mov	DWORD PTR _reportArraySize$[ebp], 100	; 00000064H
; Line 210
	mov	DWORD PTR _reportLineArray$[ebp], 0
; Line 212
	mov	DWORD PTR _finalReport$[ebp], 0
; Line 213
	mov	DWORD PTR _reportLineCount$[ebp], 0
; Line 215
	mov	DWORD PTR _rawcnt$[ebp], 0
; Line 216
	mov	DWORD PTR _infcnt$[ebp], 0
; Line 221
	mov	DWORD PTR _repjlmfmt$[ebp], OFFSET $SG106685
; Line 223
	mov	DWORD PTR _javaMon$[ebp], OFFSET $SG106687
; Line 224
	mov	DWORD PTR _systemMon$[ebp], OFFSET $SG106689
; Line 225
	mov	DWORD PTR _reportEnd$[ebp], OFFSET $SG106691
; Line 227
	mov	DWORD PTR _jp$[ebp], 0
; Line 235
	mov	DWORD PTR _arrjmon$[ebp], 0
; Line 236
	mov	DWORD PTR _arrsmon$[ebp], 0
; Line 238
	call	?getTDPP@jni@plugins@monitoring@ibmras@@YAPAUjvmFunctions@@XZ ; ibmras::monitoring::plugins::jni::getTDPP
	mov	eax, DWORD PTR [eax+64]
	mov	DWORD PTR _pti$[ebp], eax
; Line 240
	mov	ecx, DWORD PTR ?logger@locking@jni@plugins@monitoring@ibmras@@3PAVLogger@common@5@A ; ibmras::monitoring::plugins::jni::locking::logger
	cmp	DWORD PTR [ecx+8], 5
	jl	SHORT $LN67@monitor_du
	push	OFFSET $SG106701
	push	5
	mov	edx, DWORD PTR ?logger@locking@jni@plugins@monitoring@ibmras@@3PAVLogger@common@5@A ; ibmras::monitoring::plugins::jni::locking::logger
	push	edx
	call	?debug@Logger@common@ibmras@@QAAXW4Level@logging@23@PBDZZ ; ibmras::common::Logger::debug
	add	esp, 12					; 0000000cH
$LN67@monitor_du:
; Line 244
	push	500					; 000001f4H
	call	?hc_alloc@jni@plugins@monitoring@ibmras@@YAPAEH@Z ; ibmras::monitoring::plugins::jni::hc_alloc
	add	esp, 4
	mov	DWORD PTR _finalReport$[ebp], eax
; Line 245
	cmp	DWORD PTR _finalReport$[ebp], 0
	jne	SHORT $LN66@monitor_du
; Line 246
	jmp	$LN65@monitor_du
	jmp	$cleanup$106705
$LN66@monitor_du:
; Line 250
	mov	eax, DWORD PTR _reportArraySize$[ebp]
	shl	eax, 2
	push	eax
	call	?hc_alloc@jni@plugins@monitoring@ibmras@@YAPAEH@Z ; ibmras::monitoring::plugins::jni::hc_alloc
	add	esp, 4
	mov	DWORD PTR _reportLineArray$[ebp], eax
; Line 251
	cmp	DWORD PTR _reportLineArray$[ebp], 0
	jne	SHORT $LN64@monitor_du
; Line 252
	jmp	$LN63@monitor_du
	jmp	$cleanup$106705
$LN64@monitor_du:
; Line 255
	lea	ecx, DWORD PTR _p$[ebp]
	push	ecx
	mov	edx, DWORD PTR _pti$[ebp]
	push	edx
	call	?getTDPP@jni@plugins@monitoring@ibmras@@YAPAUjvmFunctions@@XZ ; ibmras::monitoring::plugins::jni::getTDPP
	mov	eax, DWORD PTR [eax+44]
	call	eax
	add	esp, 8
	mov	DWORD PTR _rc$[ebp], eax
; Line 256
	cmp	DWORD PTR _p$[ebp], 0
	jne	SHORT $LN62@monitor_du
; Line 261
	jmp	$LN61@monitor_du
	jmp	$cleanup$106705
; Line 262
	jmp	SHORT $LN60@monitor_du
$LN62@monitor_du:
; Line 263
	mov	ecx, DWORD PTR _p$[ebp]
	mov	DWORD PTR _q$[ebp], ecx
$LN60@monitor_du:
; Line 268
	mov	edx, DWORD PTR ?dcnt@?1??monitor_dump_event@locking@jni@plugins@monitoring@ibmras@@YAPADPAUJNIEnv_@@@Z@4HA
	add	edx, 1
	mov	DWORD PTR ?dcnt@?1??monitor_dump_event@locking@jni@plugins@monitoring@ibmras@@YAPADPAUJNIEnv_@@@Z@4HA, edx
; Line 269
	mov	DWORD PTR _jlm$[ebp], 1
; Line 271
	mov	eax, DWORD PTR _q$[ebp]
	mov	ecx, DWORD PTR [eax]
	mov	DWORD PTR _beg$[ebp], ecx
; Line 272
	mov	edx, DWORD PTR _q$[ebp]
	mov	eax, DWORD PTR [edx+4]
	mov	DWORD PTR _end$[ebp], eax
; Line 273
	mov	DWORD PTR _ntraces$[ebp], 0
; Line 274
	mov	DWORD PTR _thrdstat$[ebp], 0
; Line 277
	mov	eax, DWORD PTR _end$[ebp]
	sub	eax, DWORD PTR _beg$[ebp]
	cdq
	and	edx, 31					; 0000001fH
	add	eax, edx
	sar	eax, 5
	mov	DWORD PTR _JMONMAX$[ebp], eax
; Line 278
	mov	ecx, DWORD PTR _end$[ebp]
	sub	ecx, DWORD PTR _beg$[ebp]
	mov	DWORD PTR _SMONMAX$[ebp], ecx
; Line 280
	mov	edx, DWORD PTR _JMONMAX$[ebp]
	shl	edx, 2
	mov	DWORD PTR _arrj_size$[ebp], edx
; Line 282
	mov	eax, DWORD PTR _arrj_size$[ebp]
	push	eax
	call	?hc_alloc@jni@plugins@monitoring@ibmras@@YAPAEH@Z ; ibmras::monitoring::plugins::jni::hc_alloc
	add	esp, 4
	mov	DWORD PTR _arrjmon$[ebp], eax
; Line 283
	cmp	DWORD PTR _arrjmon$[ebp], 0
	jne	SHORT $LN59@monitor_du
; Line 284
	jmp	$LN58@monitor_du
	jmp	$cleanup$106705
$LN59@monitor_du:
; Line 287
	mov	ecx, DWORD PTR _SMONMAX$[ebp]
	shl	ecx, 2
	mov	DWORD PTR _arrs_size$[ebp], ecx
; Line 289
	mov	edx, DWORD PTR _arrs_size$[ebp]
	push	edx
	call	?hc_alloc@jni@plugins@monitoring@ibmras@@YAPAEH@Z ; ibmras::monitoring::plugins::jni::hc_alloc
	add	esp, 4
	mov	DWORD PTR _arrsmon$[ebp], eax
; Line 290
	cmp	DWORD PTR _arrsmon$[ebp], 0
	jne	SHORT $LN57@monitor_du
; Line 291
	jmp	$LN56@monitor_du
	jmp	$cleanup$106705
$LN57@monitor_du:
; Line 294
	push	0
	call	?read_cycles_on_processor@jni@plugins@monitoring@ibmras@@YA_KH@Z ; ibmras::monitoring::plugins::jni::read_cycles_on_processor
	add	esp, 4
	mov	DWORD PTR _tm_curr$[ebp], eax
	mov	DWORD PTR _tm_curr$[ebp+4], edx
; Line 295
	mov	eax, DWORD PTR _tm_curr$[ebp]
	sub	eax, DWORD PTR ?tm_stt@jni@plugins@monitoring@ibmras@@3_KA
	mov	ecx, DWORD PTR _tm_curr$[ebp+4]
	sbb	ecx, DWORD PTR ?tm_stt@jni@plugins@monitoring@ibmras@@3_KA+4
	mov	DWORD PTR _tm_delta$[ebp], eax
	mov	DWORD PTR _tm_delta$[ebp+4], ecx
; Line 298
	mov	edx, DWORD PTR _tm_delta$[ebp+4]
	push	edx
	mov	eax, DWORD PTR _tm_delta$[ebp]
	push	eax
	push	OFFSET $SG106726
	lea	ecx, DWORD PTR _buffer$[ebp]
	push	ecx
	call	DWORD PTR __imp__sprintf
	add	esp, 16					; 00000010H
; Line 301
	lea	edx, DWORD PTR _buffer$[ebp]
	push	edx
	call	_strlen
	add	esp, 4
	add	eax, 1
	push	eax
	call	?hc_alloc@jni@plugins@monitoring@ibmras@@YAPAEH@Z ; ibmras::monitoring::plugins::jni::hc_alloc
	add	esp, 4
	mov	ecx, DWORD PTR _reportLineCount$[ebp]
	mov	edx, DWORD PTR _reportLineArray$[ebp]
	mov	DWORD PTR [edx+ecx*4], eax
; Line 302
	mov	eax, DWORD PTR _reportLineCount$[ebp]
	mov	ecx, DWORD PTR _reportLineArray$[ebp]
	cmp	DWORD PTR [ecx+eax*4], 0
	jne	SHORT $LN55@monitor_du
; Line 303
	jmp	$LN54@monitor_du
	jmp	$cleanup$106705
$LN55@monitor_du:
; Line 305
	mov	edx, DWORD PTR _reportLineCount$[ebp]
	mov	eax, DWORD PTR _reportLineArray$[ebp]
	mov	ecx, DWORD PTR [eax+edx*4]
	mov	DWORD PTR tv150[ebp], ecx
	lea	edx, DWORD PTR _buffer$[ebp]
	push	edx
	mov	eax, DWORD PTR tv150[ebp]
	push	eax
	call	_strcpy
	add	esp, 8
	mov	ecx, DWORD PTR _reportLineCount$[ebp]
	add	ecx, 1
	mov	DWORD PTR _reportLineCount$[ebp], ecx
; Line 306
	mov	edx, DWORD PTR ?logger@locking@jni@plugins@monitoring@ibmras@@3PAVLogger@common@5@A ; ibmras::monitoring::plugins::jni::locking::logger
	cmp	DWORD PTR [edx+8], 3
	jl	SHORT $LN53@monitor_du
	mov	eax, DWORD PTR _reportLineCount$[ebp]
	mov	ecx, DWORD PTR _reportLineArray$[ebp]
	mov	edx, DWORD PTR [ecx+eax*4-4]
	push	edx
	mov	eax, DWORD PTR _reportLineCount$[ebp]
	mov	ecx, DWORD PTR _reportLineArray$[ebp]
	mov	edx, DWORD PTR [ecx+eax*4-4]
	push	edx
	call	_strlen
	add	esp, 4
	push	eax
	push	OFFSET $SG106731
	push	3
	mov	eax, DWORD PTR ?logger@locking@jni@plugins@monitoring@ibmras@@3PAVLogger@common@5@A ; ibmras::monitoring::plugins::jni::locking::logger
	push	eax
	call	?debug@Logger@common@ibmras@@QAAXW4Level@logging@23@PBDZZ ; ibmras::common::Logger::debug
	add	esp, 20					; 00000014H
$LN53@monitor_du:
; Line 308
	mov	ecx, DWORD PTR _beg$[ebp]
	mov	DWORD PTR _stt$[ebp], ecx
$LN52@monitor_du:
; Line 310
	mov	edx, DWORD PTR _stt$[ebp]
	cmp	edx, DWORD PTR _end$[ebp]
	jae	$LN51@monitor_du
; Line 316
	push	72					; 00000048H
	call	?hc_alloc@jni@plugins@monitoring@ibmras@@YAPAEH@Z ; ibmras::monitoring::plugins::jni::hc_alloc
	add	esp, 4
	mov	DWORD PTR _jp$[ebp], eax
; Line 317
	cmp	DWORD PTR _jp$[ebp], 0
	jne	SHORT $LN50@monitor_du
; Line 318
	jmp	$LN49@monitor_du
	jmp	$cleanup$106705
$LN50@monitor_du:
; Line 321
	mov	eax, DWORD PTR _stt$[ebp]
	mov	cl, BYTE PTR [eax]
	mov	BYTE PTR _ty$[ebp], cl
; Line 322
	mov	edx, DWORD PTR _stt$[ebp]
	add	edx, 1
	mov	DWORD PTR _stt$[ebp], edx
; Line 323
	mov	eax, DWORD PTR _stt$[ebp]
	mov	cl, BYTE PTR [eax]
	mov	BYTE PTR _held$106735[ebp], cl
; Line 324
	mov	edx, DWORD PTR _stt$[ebp]
	add	edx, 1
	mov	DWORD PTR _stt$[ebp], edx
; Line 328
	movzx	eax, BYTE PTR _ty$[ebp]
	cmp	eax, 1
	jne	SHORT $LN48@monitor_du
; Line 329
	mov	ecx, DWORD PTR _infcnt$[ebp]
	mov	edx, DWORD PTR _arrjmon$[ebp]
	mov	eax, DWORD PTR _jp$[ebp]
	mov	DWORD PTR [edx+ecx*4], eax
; Line 330
	mov	ecx, DWORD PTR _infcnt$[ebp]
	add	ecx, 1
	mov	DWORD PTR _infcnt$[ebp], ecx
; Line 331
	mov	edx, DWORD PTR _infcnt$[ebp]
	cmp	edx, DWORD PTR _JMONMAX$[ebp]
	jl	SHORT $LN47@monitor_du
; Line 333
	mov	eax, DWORD PTR _JMONMAX$[ebp]
	push	eax
	push	OFFSET $SG106747
	mov	ecx, DWORD PTR _finalReport$[ebp]
	push	ecx
	call	DWORD PTR __imp__sprintf
	add	esp, 12					; 0000000cH
; Line 334
	jmp	$LN46@monitor_du
	jmp	$returnReport$106748
$LN47@monitor_du:
; Line 335
	jmp	SHORT $LN41@monitor_du
$LN48@monitor_du:
; Line 336
	movzx	edx, BYTE PTR _ty$[ebp]
	cmp	edx, 2
	jne	SHORT $LN44@monitor_du
; Line 337
	mov	eax, DWORD PTR _rawcnt$[ebp]
	mov	ecx, DWORD PTR _arrsmon$[ebp]
	mov	edx, DWORD PTR _jp$[ebp]
	mov	DWORD PTR [ecx+eax*4], edx
; Line 338
	mov	eax, DWORD PTR _rawcnt$[ebp]
	add	eax, 1
	mov	DWORD PTR _rawcnt$[ebp], eax
; Line 339
	mov	ecx, DWORD PTR _rawcnt$[ebp]
	cmp	ecx, DWORD PTR _SMONMAX$[ebp]
	jl	SHORT $LN43@monitor_du
; Line 341
	mov	edx, DWORD PTR _SMONMAX$[ebp]
	push	edx
	push	OFFSET $SG106753
	mov	eax, DWORD PTR _finalReport$[ebp]
	push	eax
	call	DWORD PTR __imp__sprintf
	add	esp, 12					; 0000000cH
; Line 342
	jmp	$LN42@monitor_du
	jmp	$returnReport$106748
$LN43@monitor_du:
; Line 344
	jmp	SHORT $LN41@monitor_du
$LN44@monitor_du:
; Line 345
	push	OFFSET $SG106756
	mov	ecx, DWORD PTR _finalReport$[ebp]
	push	ecx
	call	DWORD PTR __imp__sprintf
	add	esp, 8
; Line 346
	jmp	$LN40@monitor_du
	jmp	$returnReport$106748
$LN41@monitor_du:
; Line 349
	mov	edx, DWORD PTR _stt$[ebp]
	push	edx
	call	?dump_read_u4@jni@plugins@monitoring@ibmras@@YAIPAD@Z ; ibmras::monitoring::plugins::jni::dump_read_u4
	add	esp, 4
	mov	ecx, DWORD PTR _jp$[ebp]
	mov	DWORD PTR [ecx+24], eax
; Line 350
	mov	edx, DWORD PTR _stt$[ebp]
	add	edx, 4
	mov	DWORD PTR _stt$[ebp], edx
; Line 351
	mov	eax, DWORD PTR _stt$[ebp]
	push	eax
	call	?dump_read_u4@jni@plugins@monitoring@ibmras@@YAIPAD@Z ; ibmras::monitoring::plugins::jni::dump_read_u4
	add	esp, 4
	mov	ecx, DWORD PTR _jp$[ebp]
	mov	DWORD PTR [ecx+40], eax
; Line 352
	mov	edx, DWORD PTR _stt$[ebp]
	add	edx, 4
	mov	DWORD PTR _stt$[ebp], edx
; Line 353
	mov	eax, DWORD PTR _stt$[ebp]
	push	eax
	call	?dump_read_u4@jni@plugins@monitoring@ibmras@@YAIPAD@Z ; ibmras::monitoring::plugins::jni::dump_read_u4
	add	esp, 4
	mov	ecx, DWORD PTR _jp$[ebp]
	mov	DWORD PTR [ecx+28], eax
; Line 354
	mov	edx, DWORD PTR _stt$[ebp]
	add	edx, 4
	mov	DWORD PTR _stt$[ebp], edx
; Line 355
	mov	eax, DWORD PTR _stt$[ebp]
	push	eax
	call	?dump_read_u4@jni@plugins@monitoring@ibmras@@YAIPAD@Z ; ibmras::monitoring::plugins::jni::dump_read_u4
	add	esp, 4
	mov	ecx, DWORD PTR _jp$[ebp]
	mov	DWORD PTR [ecx+44], eax
; Line 356
	mov	edx, DWORD PTR _stt$[ebp]
	add	edx, 4
	mov	DWORD PTR _stt$[ebp], edx
; Line 357
	mov	eax, DWORD PTR _stt$[ebp]
	push	eax
	call	?dump_read_u4@jni@plugins@monitoring@ibmras@@YAIPAD@Z ; ibmras::monitoring::plugins::jni::dump_read_u4
	add	esp, 4
	mov	ecx, DWORD PTR _jp$[ebp]
	mov	DWORD PTR [ecx+48], eax
; Line 358
	mov	edx, DWORD PTR _stt$[ebp]
	add	edx, 4
	mov	DWORD PTR _stt$[ebp], edx
; Line 359
	mov	eax, DWORD PTR _stt$[ebp]
	push	eax
	call	?dump_read_u4@jni@plugins@monitoring@ibmras@@YAIPAD@Z ; ibmras::monitoring::plugins::jni::dump_read_u4
	add	esp, 4
	mov	DWORD PTR _hthi$106737[ebp], eax
; Line 360
	mov	ecx, DWORD PTR _stt$[ebp]
	add	ecx, 4
	mov	DWORD PTR _stt$[ebp], ecx
; Line 361
	mov	edx, DWORD PTR _stt$[ebp]
	push	edx
	call	?dump_read_u4@jni@plugins@monitoring@ibmras@@YAIPAD@Z ; ibmras::monitoring::plugins::jni::dump_read_u4
	add	esp, 4
	mov	DWORD PTR _htlo$106736[ebp], eax
; Line 362
	mov	eax, DWORD PTR _stt$[ebp]
	add	eax, 4
	mov	DWORD PTR _stt$[ebp], eax
; Line 364
	mov	ecx, DWORD PTR _jp$[ebp]
	mov	edx, DWORD PTR _hthi$106737[ebp]
	mov	DWORD PTR [ecx+60], edx
; Line 365
	mov	eax, DWORD PTR _jp$[ebp]
	mov	ecx, DWORD PTR _htlo$106736[ebp]
	mov	DWORD PTR [eax+56], ecx
; Line 367
	mov	edx, DWORD PTR _stt$[ebp]
	add	edx, DWORD PTR _psz$[ebp]
	mov	DWORD PTR _stt$[ebp], edx
; Line 369
	mov	eax, DWORD PTR _stt$[ebp]
	push	eax
	call	?dupJavaStr@jni@plugins@monitoring@ibmras@@YAPADPBD@Z ; ibmras::monitoring::plugins::jni::dupJavaStr
	add	esp, 4
	mov	ecx, DWORD PTR _jp$[ebp]
	mov	DWORD PTR [ecx+52], eax
; Line 370
	mov	edx, DWORD PTR _jp$[ebp]
	cmp	DWORD PTR [edx+52], 0
	jne	SHORT $LN39@monitor_du
; Line 371
	jmp	$LN38@monitor_du
	jmp	$returnReport$106748
$LN39@monitor_du:
; Line 374
	mov	eax, DWORD PTR _jp$[ebp]
	mov	ecx, DWORD PTR [eax+52]
	push	ecx
	call	_strlen
	add	esp, 4
	mov	edx, DWORD PTR _stt$[ebp]
	lea	eax, DWORD PTR [edx+eax+1]
	mov	DWORD PTR _stt$[ebp], eax
; Line 376
	mov	ecx, DWORD PTR _jp$[ebp]
	mov	edx, DWORD PTR _jp$[ebp]
	mov	eax, DWORD PTR [ecx+24]
	sub	eax, DWORD PTR [edx+28]
	mov	ecx, DWORD PTR _jp$[ebp]
	mov	DWORD PTR [ecx+32], eax
; Line 377
	mov	edx, DWORD PTR _jp$[ebp]
	mov	eax, DWORD PTR _jp$[ebp]
	mov	ecx, DWORD PTR [edx+32]
	sub	ecx, DWORD PTR [eax+40]
	mov	edx, DWORD PTR _jp$[ebp]
	mov	DWORD PTR [edx+36], ecx
; Line 379
	mov	eax, DWORD PTR _jp$[ebp]
	cmp	DWORD PTR [eax+24], 0
	jle	$LN37@monitor_du
; Line 380
	mov	ecx, DWORD PTR _htlo$106736[ebp]
	mov	DWORD PTR tv651[ebp], ecx
	mov	DWORD PTR tv651[ebp+4], 0
	fild	QWORD PTR tv651[ebp]
	fstp	QWORD PTR _dhtm$106738[ebp]
; Line 381
	mov	edx, DWORD PTR _hthi$106737[ebp]
	mov	DWORD PTR tv655[ebp], edx
	mov	DWORD PTR tv655[ebp+4], 0
	fild	QWORD PTR tv655[ebp]
	fmul	QWORD PTR __real@41f0000000000000
	fadd	QWORD PTR _dhtm$106738[ebp]
	fstp	QWORD PTR _dhtm$106738[ebp]
; Line 382
	mov	eax, DWORD PTR _jp$[ebp]
	fld	QWORD PTR _dhtm$106738[ebp]
	fstp	QWORD PTR [eax+64]
; Line 383
	fld	QWORD PTR __real@4059000000000000
	fmul	QWORD PTR _dhtm$106738[ebp]
	fild	QWORD PTR _tm_delta$[ebp]
	fdivp	ST(1), ST(0)
	mov	ecx, DWORD PTR _jp$[ebp]
	fstp	QWORD PTR [ecx+8]
; Line 385
	mov	edx, DWORD PTR _jp$[ebp]
	cmp	DWORD PTR [edx+32], 0
	jle	SHORT $LN36@monitor_du
; Line 386
	mov	eax, DWORD PTR _jp$[ebp]
	mov	eax, DWORD PTR [eax+32]
	cdq
	mov	DWORD PTR tv672[ebp], eax
	mov	DWORD PTR tv672[ebp+4], edx
	fild	QWORD PTR tv672[ebp]
	fdivr	QWORD PTR _dhtm$106738[ebp]
	mov	ecx, DWORD PTR _jp$[ebp]
	fstp	QWORD PTR [ecx+16]
; Line 387
	mov	edx, DWORD PTR _jp$[ebp]
	fild	DWORD PTR [edx+40]
	fmul	QWORD PTR __real@4059000000000000
	mov	eax, DWORD PTR _jp$[ebp]
	fidiv	DWORD PTR [eax+32]
	mov	ecx, DWORD PTR _jp$[ebp]
	fstp	QWORD PTR [ecx]
; Line 388
	jmp	SHORT $LN35@monitor_du
$LN36@monitor_du:
; Line 389
	mov	edx, DWORD PTR _jp$[ebp]
	fldz
	fstp	QWORD PTR [edx+16]
; Line 390
	mov	eax, DWORD PTR _jp$[ebp]
	fldz
	fstp	QWORD PTR [eax]
$LN35@monitor_du:
; Line 392
	jmp	SHORT $LN34@monitor_du
$LN37@monitor_du:
; Line 393
	mov	ecx, DWORD PTR _jp$[ebp]
	fldz
	fstp	QWORD PTR [ecx+16]
	mov	edx, DWORD PTR _jp$[ebp]
	fldz
	fstp	QWORD PTR [edx]
	mov	eax, DWORD PTR _jp$[ebp]
	fldz
	fstp	QWORD PTR [eax+8]
$LN34@monitor_du:
; Line 395
	jmp	$LN52@monitor_du
$LN51@monitor_du:
; Line 397
	push	OFFSET ?qcmp_jlm@jni@plugins@monitoring@ibmras@@YAHPBX0@Z ; ibmras::monitoring::plugins::jni::qcmp_jlm
	push	4
	mov	ecx, DWORD PTR _rawcnt$[ebp]
	push	ecx
	mov	edx, DWORD PTR _arrsmon$[ebp]
	push	edx
	call	DWORD PTR __imp__qsort
	add	esp, 16					; 00000010H
; Line 402
	mov	DWORD PTR _i$[ebp], 0
	jmp	SHORT $LN33@monitor_du
$LN32@monitor_du:
	mov	eax, DWORD PTR _i$[ebp]
	add	eax, 1
	mov	DWORD PTR _i$[ebp], eax
$LN33@monitor_du:
	mov	ecx, DWORD PTR _i$[ebp]
	cmp	ecx, DWORD PTR _rawcnt$[ebp]
	jge	$LN31@monitor_du
; Line 403
	mov	edx, DWORD PTR _i$[ebp]
	mov	eax, DWORD PTR _arrsmon$[ebp]
	mov	ecx, DWORD PTR [eax+edx*4]
	mov	DWORD PTR _jp$[ebp], ecx
; Line 408
	mov	edx, DWORD PTR _jp$[ebp]
	mov	eax, DWORD PTR [edx+52]
	push	eax
	mov	ecx, DWORD PTR _jp$[ebp]
	sub	esp, 8
	fld	QWORD PTR [ecx+16]
	fstp	QWORD PTR [esp]
	mov	edx, DWORD PTR _jp$[ebp]
	sub	esp, 8
	fld	QWORD PTR [edx+8]
	fstp	QWORD PTR [esp]
	mov	eax, DWORD PTR _jp$[ebp]
	mov	ecx, DWORD PTR [eax+48]
	push	ecx
	mov	edx, DWORD PTR _jp$[ebp]
	mov	eax, DWORD PTR [edx+44]
	push	eax
	mov	ecx, DWORD PTR _jp$[ebp]
	mov	edx, DWORD PTR [ecx+28]
	push	edx
	mov	eax, DWORD PTR _jp$[ebp]
	mov	ecx, DWORD PTR [eax+40]
	push	ecx
	mov	edx, DWORD PTR _jp$[ebp]
	mov	eax, DWORD PTR [edx+32]
	push	eax
	mov	ecx, DWORD PTR _jp$[ebp]
	mov	edx, DWORD PTR [ecx+24]
	push	edx
	mov	eax, DWORD PTR _jp$[ebp]
	sub	esp, 8
	fld	QWORD PTR [eax]
	fstp	QWORD PTR [esp]
	mov	ecx, DWORD PTR _systemMon$[ebp]
	push	ecx
	mov	edx, DWORD PTR _repjlmfmt$[ebp]
	push	edx
	lea	eax, DWORD PTR _buffer$[ebp]
	push	eax
	call	DWORD PTR __imp__sprintf
	add	esp, 64					; 00000040H
; Line 411
	lea	ecx, DWORD PTR _buffer$[ebp]
	push	ecx
	call	_strlen
	add	esp, 4
	add	eax, 1
	push	eax
	call	?hc_alloc@jni@plugins@monitoring@ibmras@@YAPAEH@Z ; ibmras::monitoring::plugins::jni::hc_alloc
	add	esp, 4
	mov	edx, DWORD PTR _reportLineCount$[ebp]
	mov	ecx, DWORD PTR _reportLineArray$[ebp]
	mov	DWORD PTR [ecx+edx*4], eax
; Line 412
	mov	edx, DWORD PTR _reportLineCount$[ebp]
	mov	eax, DWORD PTR _reportLineArray$[ebp]
	cmp	DWORD PTR [eax+edx*4], 0
	jne	SHORT $LN30@monitor_du
; Line 413
	jmp	$LN29@monitor_du
	jmp	$cleanup$106705
$LN30@monitor_du:
; Line 415
	mov	ecx, DWORD PTR _reportLineCount$[ebp]
	mov	edx, DWORD PTR _reportLineArray$[ebp]
	mov	eax, DWORD PTR [edx+ecx*4]
	mov	DWORD PTR tv343[ebp], eax
	lea	ecx, DWORD PTR _buffer$[ebp]
	push	ecx
	mov	edx, DWORD PTR tv343[ebp]
	push	edx
	call	_strcpy
	add	esp, 8
	mov	eax, DWORD PTR _reportLineCount$[ebp]
	add	eax, 1
	mov	DWORD PTR _reportLineCount$[ebp], eax
; Line 416
	mov	ecx, DWORD PTR ?logger@locking@jni@plugins@monitoring@ibmras@@3PAVLogger@common@5@A ; ibmras::monitoring::plugins::jni::locking::logger
	cmp	DWORD PTR [ecx+8], 3
	jl	SHORT $LN28@monitor_du
	mov	edx, DWORD PTR _reportLineCount$[ebp]
	mov	eax, DWORD PTR _reportLineArray$[ebp]
	mov	ecx, DWORD PTR [eax+edx*4-4]
	push	ecx
	mov	edx, DWORD PTR _reportLineCount$[ebp]
	mov	eax, DWORD PTR _reportLineArray$[ebp]
	mov	ecx, DWORD PTR [eax+edx*4-4]
	push	ecx
	call	_strlen
	add	esp, 4
	push	eax
	push	OFFSET $SG106782
	push	3
	mov	edx, DWORD PTR ?logger@locking@jni@plugins@monitoring@ibmras@@3PAVLogger@common@5@A ; ibmras::monitoring::plugins::jni::locking::logger
	push	edx
	call	?debug@Logger@common@ibmras@@QAAXW4Level@logging@23@PBDZZ ; ibmras::common::Logger::debug
	add	esp, 20					; 00000014H
$LN28@monitor_du:
; Line 421
	mov	eax, DWORD PTR _reportLineCount$[ebp]
	cmp	eax, DWORD PTR _reportArraySize$[ebp]
	jl	SHORT $LN26@monitor_du
; Line 423
	mov	ecx, DWORD PTR _reportArraySize$[ebp]
	add	ecx, 100				; 00000064H
	mov	DWORD PTR _reportArraySize$[ebp], ecx
; Line 427
	mov	edx, DWORD PTR _reportArraySize$[ebp]
	push	edx
	mov	eax, DWORD PTR _reportLineCount$[ebp]
	push	eax
	lea	ecx, DWORD PTR _reportLineArray$[ebp]
	push	ecx
	call	?hc_realloc_ptr_array@jni@plugins@monitoring@ibmras@@YAPAXQAPAPADHH@Z ; ibmras::monitoring::plugins::jni::hc_realloc_ptr_array
	add	esp, 12					; 0000000cH
	mov	DWORD PTR _reportLineArray$[ebp], eax
; Line 428
	cmp	DWORD PTR _reportLineArray$[ebp], 0
	jne	SHORT $LN26@monitor_du
; Line 429
	jmp	$LN25@monitor_du
	jmp	$cleanup$106705
$LN26@monitor_du:
; Line 432
	jmp	$LN32@monitor_du
$LN31@monitor_du:
; Line 435
	push	OFFSET ?qcmp_jlm@jni@plugins@monitoring@ibmras@@YAHPBX0@Z ; ibmras::monitoring::plugins::jni::qcmp_jlm
	push	4
	mov	edx, DWORD PTR _infcnt$[ebp]
	push	edx
	mov	eax, DWORD PTR _arrjmon$[ebp]
	push	eax
	call	DWORD PTR __imp__qsort
	add	esp, 16					; 00000010H
; Line 439
	mov	DWORD PTR _i$[ebp], 0
	jmp	SHORT $LN24@monitor_du
$LN23@monitor_du:
	mov	ecx, DWORD PTR _i$[ebp]
	add	ecx, 1
	mov	DWORD PTR _i$[ebp], ecx
$LN24@monitor_du:
	mov	edx, DWORD PTR _i$[ebp]
	cmp	edx, DWORD PTR _infcnt$[ebp]
	jge	$LN22@monitor_du
; Line 440
	mov	eax, DWORD PTR _i$[ebp]
	mov	ecx, DWORD PTR _arrjmon$[ebp]
	mov	edx, DWORD PTR [ecx+eax*4]
	mov	DWORD PTR _jp$[ebp], edx
; Line 445
	mov	eax, DWORD PTR _jp$[ebp]
	mov	ecx, DWORD PTR [eax+52]
	push	ecx
	mov	edx, DWORD PTR _jp$[ebp]
	sub	esp, 8
	fld	QWORD PTR [edx+16]
	fstp	QWORD PTR [esp]
	mov	eax, DWORD PTR _jp$[ebp]
	sub	esp, 8
	fld	QWORD PTR [eax+8]
	fstp	QWORD PTR [esp]
	mov	ecx, DWORD PTR _jp$[ebp]
	mov	edx, DWORD PTR [ecx+48]
	push	edx
	mov	eax, DWORD PTR _jp$[ebp]
	mov	ecx, DWORD PTR [eax+44]
	push	ecx
	mov	edx, DWORD PTR _jp$[ebp]
	mov	eax, DWORD PTR [edx+28]
	push	eax
	mov	ecx, DWORD PTR _jp$[ebp]
	mov	edx, DWORD PTR [ecx+40]
	push	edx
	mov	eax, DWORD PTR _jp$[ebp]
	mov	ecx, DWORD PTR [eax+32]
	push	ecx
	mov	edx, DWORD PTR _jp$[ebp]
	mov	eax, DWORD PTR [edx+24]
	push	eax
	mov	ecx, DWORD PTR _jp$[ebp]
	sub	esp, 8
	fld	QWORD PTR [ecx]
	fstp	QWORD PTR [esp]
	mov	edx, DWORD PTR _javaMon$[ebp]
	push	edx
	mov	eax, DWORD PTR _repjlmfmt$[ebp]
	push	eax
	lea	ecx, DWORD PTR _buffer$[ebp]
	push	ecx
	call	DWORD PTR __imp__sprintf
	add	esp, 64					; 00000040H
; Line 448
	lea	edx, DWORD PTR _buffer$[ebp]
	push	edx
	call	_strlen
	add	esp, 4
	add	eax, 1
	push	eax
	call	?hc_alloc@jni@plugins@monitoring@ibmras@@YAPAEH@Z ; ibmras::monitoring::plugins::jni::hc_alloc
	add	esp, 4
	mov	ecx, DWORD PTR _reportLineCount$[ebp]
	mov	edx, DWORD PTR _reportLineArray$[ebp]
	mov	DWORD PTR [edx+ecx*4], eax
; Line 449
	mov	eax, DWORD PTR _reportLineCount$[ebp]
	mov	ecx, DWORD PTR _reportLineArray$[ebp]
	cmp	DWORD PTR [ecx+eax*4], 0
	jne	SHORT $LN21@monitor_du
; Line 450
	jmp	$LN20@monitor_du
	jmp	$cleanup$106705
$LN21@monitor_du:
; Line 452
	mov	edx, DWORD PTR _reportLineCount$[ebp]
	mov	eax, DWORD PTR _reportLineArray$[ebp]
	mov	ecx, DWORD PTR [eax+edx*4]
	mov	DWORD PTR tv411[ebp], ecx
	lea	edx, DWORD PTR _buffer$[ebp]
	push	edx
	mov	eax, DWORD PTR tv411[ebp]
	push	eax
	call	_strcpy
	add	esp, 8
	mov	ecx, DWORD PTR _reportLineCount$[ebp]
	add	ecx, 1
	mov	DWORD PTR _reportLineCount$[ebp], ecx
; Line 453
	mov	edx, DWORD PTR ?logger@locking@jni@plugins@monitoring@ibmras@@3PAVLogger@common@5@A ; ibmras::monitoring::plugins::jni::locking::logger
	cmp	DWORD PTR [edx+8], 3
	jl	SHORT $LN19@monitor_du
	mov	eax, DWORD PTR _reportLineCount$[ebp]
	mov	ecx, DWORD PTR _reportLineArray$[ebp]
	mov	edx, DWORD PTR [ecx+eax*4-4]
	push	edx
	mov	eax, DWORD PTR _reportLineCount$[ebp]
	mov	ecx, DWORD PTR _reportLineArray$[ebp]
	mov	edx, DWORD PTR [ecx+eax*4-4]
	push	edx
	call	_strlen
	add	esp, 4
	push	eax
	push	OFFSET $SG106796
	push	3
	mov	eax, DWORD PTR ?logger@locking@jni@plugins@monitoring@ibmras@@3PAVLogger@common@5@A ; ibmras::monitoring::plugins::jni::locking::logger
	push	eax
	call	?debug@Logger@common@ibmras@@QAAXW4Level@logging@23@PBDZZ ; ibmras::common::Logger::debug
	add	esp, 20					; 00000014H
$LN19@monitor_du:
; Line 458
	mov	ecx, DWORD PTR _reportLineCount$[ebp]
	cmp	ecx, DWORD PTR _reportArraySize$[ebp]
	jl	SHORT $LN17@monitor_du
; Line 460
	mov	edx, DWORD PTR _reportArraySize$[ebp]
	add	edx, 100				; 00000064H
	mov	DWORD PTR _reportArraySize$[ebp], edx
; Line 464
	mov	eax, DWORD PTR _reportArraySize$[ebp]
	push	eax
	mov	ecx, DWORD PTR _reportLineCount$[ebp]
	push	ecx
	lea	edx, DWORD PTR _reportLineArray$[ebp]
	push	edx
	call	?hc_realloc_ptr_array@jni@plugins@monitoring@ibmras@@YAPAXQAPAPADHH@Z ; ibmras::monitoring::plugins::jni::hc_realloc_ptr_array
	add	esp, 12					; 0000000cH
	mov	DWORD PTR _reportLineArray$[ebp], eax
; Line 465
	cmp	DWORD PTR _reportLineArray$[ebp], 0
	jne	SHORT $LN17@monitor_du
; Line 466
	jmp	$LN16@monitor_du
	jmp	$cleanup$106705
$LN17@monitor_du:
; Line 469
	jmp	$LN23@monitor_du
$LN22@monitor_du:
; Line 474
	mov	eax, DWORD PTR _reportEnd$[ebp]
	push	eax
	call	_strlen
	add	esp, 4
	add	eax, 1
	push	eax
	call	?hc_alloc@jni@plugins@monitoring@ibmras@@YAPAEH@Z ; ibmras::monitoring::plugins::jni::hc_alloc
	add	esp, 4
	mov	ecx, DWORD PTR _reportLineCount$[ebp]
	mov	edx, DWORD PTR _reportLineArray$[ebp]
	mov	DWORD PTR [edx+ecx*4], eax
; Line 475
	mov	eax, DWORD PTR _reportLineCount$[ebp]
	mov	ecx, DWORD PTR _reportLineArray$[ebp]
	cmp	DWORD PTR [ecx+eax*4], 0
	jne	SHORT $LN15@monitor_du
; Line 476
	jmp	$LN14@monitor_du
	jmp	$cleanup$106705
$LN15@monitor_du:
; Line 478
	mov	edx, DWORD PTR _reportLineCount$[ebp]
	mov	eax, DWORD PTR _reportLineArray$[ebp]
	mov	ecx, DWORD PTR [eax+edx*4]
	mov	DWORD PTR tv450[ebp], ecx
	mov	edx, DWORD PTR _reportEnd$[ebp]
	push	edx
	push	OFFSET $SG106804
	mov	eax, DWORD PTR tv450[ebp]
	push	eax
	call	DWORD PTR __imp__sprintf
	add	esp, 12					; 0000000cH
	mov	ecx, DWORD PTR _reportLineCount$[ebp]
	add	ecx, 1
	mov	DWORD PTR _reportLineCount$[ebp], ecx
; Line 479
	mov	edx, DWORD PTR ?logger@locking@jni@plugins@monitoring@ibmras@@3PAVLogger@common@5@A ; ibmras::monitoring::plugins::jni::locking::logger
	cmp	DWORD PTR [edx+8], 3
	jl	SHORT $LN13@monitor_du
	mov	eax, DWORD PTR _reportLineCount$[ebp]
	mov	ecx, DWORD PTR _reportLineArray$[ebp]
	mov	edx, DWORD PTR [ecx+eax*4-4]
	push	edx
	push	OFFSET $SG106806
	push	3
	mov	eax, DWORD PTR ?logger@locking@jni@plugins@monitoring@ibmras@@3PAVLogger@common@5@A ; ibmras::monitoring::plugins::jni::locking::logger
	push	eax
	call	?debug@Logger@common@ibmras@@QAAXW4Level@logging@23@PBDZZ ; ibmras::common::Logger::debug
	add	esp, 16					; 00000010H
$LN13@monitor_du:
; Line 485
	lea	ecx, DWORD PTR _finalReport$[ebp]
	push	ecx
	call	?hc_dealloc@jni@plugins@monitoring@ibmras@@YAXPAPAE@Z ; ibmras::monitoring::plugins::jni::hc_dealloc
	add	esp, 4
; Line 490
	mov	edx, DWORD PTR _reportLineCount$[ebp]
	push	edx
	mov	eax, DWORD PTR _reportLineArray$[ebp]
	push	eax
	call	?join_strings@jni@plugins@monitoring@ibmras@@YAPADQAPADH@Z ; ibmras::monitoring::plugins::jni::join_strings
	add	esp, 8
	mov	DWORD PTR _finalReport$[ebp], eax
; Line 491
	cmp	DWORD PTR _finalReport$[ebp], 0
	je	SHORT $LN12@monitor_du
; Line 492
	jmp	SHORT $LN11@monitor_du
	jmp	SHORT $returnReport$106748
$LN12@monitor_du:
$LN14@monitor_du:
$LN16@monitor_du:
$LN20@monitor_du:
$LN25@monitor_du:
$LN29@monitor_du:
$LN49@monitor_du:
$LN54@monitor_du:
$LN56@monitor_du:
$LN58@monitor_du:
$LN61@monitor_du:
$LN63@monitor_du:
$LN65@monitor_du:
$cleanup$106705:
; Line 496
	mov	ecx, DWORD PTR ?logger@locking@jni@plugins@monitoring@ibmras@@3PAVLogger@common@5@A ; ibmras::monitoring::plugins::jni::locking::logger
	cmp	DWORD PTR [ecx+8], 5
	jl	SHORT $LN10@monitor_du
	push	OFFSET $SG106811
	push	5
	mov	edx, DWORD PTR ?logger@locking@jni@plugins@monitoring@ibmras@@3PAVLogger@common@5@A ; ibmras::monitoring::plugins::jni::locking::logger
	push	edx
	call	?debug@Logger@common@ibmras@@QAAXW4Level@logging@23@PBDZZ ; ibmras::common::Logger::debug
	add	esp, 12					; 0000000cH
$LN10@monitor_du:
; Line 498
	lea	eax, DWORD PTR _finalReport$[ebp]
	push	eax
	call	?hc_dealloc@jni@plugins@monitoring@ibmras@@YAXPAPAE@Z ; ibmras::monitoring::plugins::jni::hc_dealloc
	add	esp, 4
$LN11@monitor_du:
$LN38@monitor_du:
$LN40@monitor_du:
$LN42@monitor_du:
$LN46@monitor_du:
$returnReport$106748:
; Line 503
	mov	ecx, DWORD PTR ?logger@locking@jni@plugins@monitoring@ibmras@@3PAVLogger@common@5@A ; ibmras::monitoring::plugins::jni::locking::logger
	cmp	DWORD PTR [ecx+8], 5
	jl	SHORT $LN9@monitor_du
	push	OFFSET $SG106814
	push	5
	mov	edx, DWORD PTR ?logger@locking@jni@plugins@monitoring@ibmras@@3PAVLogger@common@5@A ; ibmras::monitoring::plugins::jni::locking::logger
	push	edx
	call	?debug@Logger@common@ibmras@@QAAXW4Level@logging@23@PBDZZ ; ibmras::common::Logger::debug
	add	esp, 12					; 0000000cH
$LN9@monitor_du:
; Line 505
	cmp	DWORD PTR _p$[ebp], 0
	je	SHORT $LN8@monitor_du
; Line 506
	mov	eax, DWORD PTR _q$[ebp]
	push	eax
	call	?hc_dealloc@jni@plugins@monitoring@ibmras@@YAXPAPAE@Z ; ibmras::monitoring::plugins::jni::hc_dealloc
	add	esp, 4
; Line 507
	lea	ecx, DWORD PTR _p$[ebp]
	push	ecx
	call	?hc_dealloc@jni@plugins@monitoring@ibmras@@YAXPAPAE@Z ; ibmras::monitoring::plugins::jni::hc_dealloc
	add	esp, 4
$LN8@monitor_du:
; Line 510
	mov	DWORD PTR _i$[ebp], 0
	jmp	SHORT $LN7@monitor_du
$LN6@monitor_du:
	mov	edx, DWORD PTR _i$[ebp]
	add	edx, 1
	mov	DWORD PTR _i$[ebp], edx
$LN7@monitor_du:
	mov	eax, DWORD PTR _i$[ebp]
	cmp	eax, DWORD PTR _rawcnt$[ebp]
	jge	SHORT $LN5@monitor_du
; Line 512
	mov	ecx, DWORD PTR _i$[ebp]
	mov	edx, DWORD PTR _arrsmon$[ebp]
	mov	eax, DWORD PTR [edx+ecx*4]
	add	eax, 52					; 00000034H
	push	eax
	call	?hc_dealloc@jni@plugins@monitoring@ibmras@@YAXPAPAE@Z ; ibmras::monitoring::plugins::jni::hc_dealloc
	add	esp, 4
; Line 514
	mov	ecx, DWORD PTR _i$[ebp]
	mov	edx, DWORD PTR _arrsmon$[ebp]
	lea	eax, DWORD PTR [edx+ecx*4]
	push	eax
	call	?hc_dealloc@jni@plugins@monitoring@ibmras@@YAXPAPAE@Z ; ibmras::monitoring::plugins::jni::hc_dealloc
	add	esp, 4
; Line 515
	jmp	SHORT $LN6@monitor_du
$LN5@monitor_du:
; Line 517
	mov	DWORD PTR _i$[ebp], 0
	jmp	SHORT $LN4@monitor_du
$LN3@monitor_du:
	mov	ecx, DWORD PTR _i$[ebp]
	add	ecx, 1
	mov	DWORD PTR _i$[ebp], ecx
$LN4@monitor_du:
	mov	edx, DWORD PTR _i$[ebp]
	cmp	edx, DWORD PTR _infcnt$[ebp]
	jge	SHORT $LN2@monitor_du
; Line 519
	mov	eax, DWORD PTR _i$[ebp]
	mov	ecx, DWORD PTR _arrjmon$[ebp]
	mov	edx, DWORD PTR [ecx+eax*4]
	add	edx, 52					; 00000034H
	push	edx
	call	?hc_dealloc@jni@plugins@monitoring@ibmras@@YAXPAPAE@Z ; ibmras::monitoring::plugins::jni::hc_dealloc
	add	esp, 4
; Line 521
	mov	eax, DWORD PTR _i$[ebp]
	mov	ecx, DWORD PTR _arrjmon$[ebp]
	lea	edx, DWORD PTR [ecx+eax*4]
	push	edx
	call	?hc_dealloc@jni@plugins@monitoring@ibmras@@YAXPAPAE@Z ; ibmras::monitoring::plugins::jni::hc_dealloc
	add	esp, 4
; Line 522
	jmp	SHORT $LN3@monitor_du
$LN2@monitor_du:
; Line 524
	lea	eax, DWORD PTR _arrjmon$[ebp]
	push	eax
	call	?hc_dealloc@jni@plugins@monitoring@ibmras@@YAXPAPAE@Z ; ibmras::monitoring::plugins::jni::hc_dealloc
	add	esp, 4
; Line 525
	lea	ecx, DWORD PTR _arrsmon$[ebp]
	push	ecx
	call	?hc_dealloc@jni@plugins@monitoring@ibmras@@YAXPAPAE@Z ; ibmras::monitoring::plugins::jni::hc_dealloc
	add	esp, 4
; Line 528
	mov	edx, DWORD PTR _reportArraySize$[ebp]
	push	edx
	mov	eax, DWORD PTR _reportLineArray$[ebp]
	push	eax
	call	?dealloc_report_lines@jni@plugins@monitoring@ibmras@@YAXQAPADH@Z ; ibmras::monitoring::plugins::jni::dealloc_report_lines
	add	esp, 8
; Line 530
	lea	ecx, DWORD PTR _reportLineArray$[ebp]
	push	ecx
	call	?hc_dealloc@jni@plugins@monitoring@ibmras@@YAXPAPAE@Z ; ibmras::monitoring::plugins::jni::hc_dealloc
	add	esp, 4
; Line 532
	mov	edx, DWORD PTR ?logger@locking@jni@plugins@monitoring@ibmras@@3PAVLogger@common@5@A ; ibmras::monitoring::plugins::jni::locking::logger
	cmp	DWORD PTR [edx+8], 5
	jl	SHORT $LN1@monitor_du
	push	OFFSET $SG106832
	push	5
	mov	eax, DWORD PTR ?logger@locking@jni@plugins@monitoring@ibmras@@3PAVLogger@common@5@A ; ibmras::monitoring::plugins::jni::locking::logger
	push	eax
	call	?debug@Logger@common@ibmras@@QAAXW4Level@logging@23@PBDZZ ; ibmras::common::Logger::debug
	add	esp, 12					; 0000000cH
$LN1@monitor_du:
; Line 533
	mov	eax, DWORD PTR _finalReport$[ebp]
; Line 534
	mov	ecx, DWORD PTR __$ArrayPad$[ebp]
	xor	ecx, ebp
	call	@__security_check_cookie@4
	mov	esp, ebp
	pop	ebp
	ret	0
?monitor_dump_event@locking@jni@plugins@monitoring@ibmras@@YAPADPAUJNIEnv_@@@Z ENDP ; ibmras::monitoring::plugins::jni::locking::monitor_dump_event
_TEXT	ENDS
PUBLIC	??1?$_String_val@DV?$allocator@D@std@@@std@@QAE@XZ ; std::_String_val<char,std::allocator<char> >::~_String_val<char,std::allocator<char> >
PUBLIC	?assign@?$basic_string@DU?$char_traits@D@std@@V?$allocator@D@2@@std@@QAEAAV12@ABV12@II@Z ; std::basic_string<char,std::char_traits<char>,std::allocator<char> >::assign
PUBLIC	?npos@?$basic_string@DU?$char_traits@D@std@@V?$allocator@D@2@@std@@2IB ; std::basic_string<char,std::char_traits<char>,std::allocator<char> >::npos
PUBLIC	?_Tidy@?$basic_string@DU?$char_traits@D@std@@V?$allocator@D@2@@std@@QAEX_NI@Z ; std::basic_string<char,std::char_traits<char>,std::allocator<char> >::_Tidy
PUBLIC	??0?$_String_val@DV?$allocator@D@std@@@std@@QAE@V?$allocator@D@1@@Z ; std::_String_val<char,std::allocator<char> >::_String_val<char,std::allocator<char> >
PUBLIC	??0?$allocator@D@std@@QAE@ABV01@@Z		; std::allocator<char>::allocator<char>
;	COMDAT ?npos@?$basic_string@DU?$char_traits@D@std@@V?$allocator@D@2@@std@@2IB
; File c:\program files (x86)\microsoft visual studio 10.0\vc\include\xstring
CONST	SEGMENT
?npos@?$basic_string@DU?$char_traits@D@std@@V?$allocator@D@2@@std@@2IB DD 0ffffffffH ; std::basic_string<char,std::char_traits<char>,std::allocator<char> >::npos
CONST	ENDS
;	COMDAT xdata$x
xdata$x	SEGMENT
__unwindtable$??0?$basic_string@DU?$char_traits@D@std@@V?$allocator@D@2@@std@@QAE@ABV01@@Z DD 0ffffffffH
	DD	FLAT:__unwindfunclet$??0?$basic_string@DU?$char_traits@D@std@@V?$allocator@D@2@@std@@QAE@ABV01@@Z$0
__ehfuncinfo$??0?$basic_string@DU?$char_traits@D@std@@V?$allocator@D@2@@std@@QAE@ABV01@@Z DD 019930522H
	DD	01H
	DD	FLAT:__unwindtable$??0?$basic_string@DU?$char_traits@D@std@@V?$allocator@D@2@@std@@QAE@ABV01@@Z
	DD	2 DUP(00H)
	DD	2 DUP(00H)
	DD	00H
	DD	01H
; Function compile flags: /Odtp
xdata$x	ENDS
;	COMDAT ??0?$basic_string@DU?$char_traits@D@std@@V?$allocator@D@2@@std@@QAE@ABV01@@Z
_TEXT	SEGMENT
_this$ = -20						; size = 4
$T119407 = -16						; size = 4
__$EHRec$ = -12						; size = 12
__Right$ = 8						; size = 4
??0?$basic_string@DU?$char_traits@D@std@@V?$allocator@D@2@@std@@QAE@ABV01@@Z PROC ; std::basic_string<char,std::char_traits<char>,std::allocator<char> >::basic_string<char,std::char_traits<char>,std::allocator<char> >, COMDAT
; _this$ = ecx
; Line 543
	push	ebp
	mov	ebp, esp
	push	-1
	push	__ehhandler$??0?$basic_string@DU?$char_traits@D@std@@V?$allocator@D@2@@std@@QAE@ABV01@@Z
	mov	eax, DWORD PTR fs:0
	push	eax
	sub	esp, 8
	mov	eax, DWORD PTR ___security_cookie
	xor	eax, ebp
	push	eax
	lea	eax, DWORD PTR __$EHRec$[ebp]
	mov	DWORD PTR fs:0, eax
	mov	DWORD PTR _this$[ebp], ecx
	mov	eax, DWORD PTR __Right$[ebp]
	add	eax, 24					; 00000018H
	push	ecx
	mov	ecx, esp
	mov	DWORD PTR $T119407[ebp], esp
	push	eax
	call	??0?$allocator@D@std@@QAE@ABV01@@Z	; std::allocator<char>::allocator<char>
	mov	ecx, DWORD PTR _this$[ebp]
	call	??0?$_String_val@DV?$allocator@D@std@@@std@@QAE@V?$allocator@D@1@@Z ; std::_String_val<char,std::allocator<char> >::_String_val<char,std::allocator<char> >
	mov	DWORD PTR __$EHRec$[ebp+8], 0
; Line 544
	push	0
	push	0
	mov	ecx, DWORD PTR _this$[ebp]
	call	?_Tidy@?$basic_string@DU?$char_traits@D@std@@V?$allocator@D@2@@std@@QAEX_NI@Z ; std::basic_string<char,std::char_traits<char>,std::allocator<char> >::_Tidy
; Line 545
	mov	ecx, DWORD PTR ?npos@?$basic_string@DU?$char_traits@D@std@@V?$allocator@D@2@@std@@2IB ; std::basic_string<char,std::char_traits<char>,std::allocator<char> >::npos
	push	ecx
	push	0
	mov	edx, DWORD PTR __Right$[ebp]
	push	edx
	mov	ecx, DWORD PTR _this$[ebp]
	call	?assign@?$basic_string@DU?$char_traits@D@std@@V?$allocator@D@2@@std@@QAEAAV12@ABV12@II@Z ; std::basic_string<char,std::char_traits<char>,std::allocator<char> >::assign
; Line 546
	mov	DWORD PTR __$EHRec$[ebp+8], -1
	mov	eax, DWORD PTR _this$[ebp]
	mov	ecx, DWORD PTR __$EHRec$[ebp]
	mov	DWORD PTR fs:0, ecx
	pop	ecx
	mov	esp, ebp
	pop	ebp
	ret	4
_TEXT	ENDS
;	COMDAT text$x
text$x	SEGMENT
__unwindfunclet$??0?$basic_string@DU?$char_traits@D@std@@V?$allocator@D@2@@std@@QAE@ABV01@@Z$0:
	mov	ecx, DWORD PTR _this$[ebp]
	jmp	??1?$_String_val@DV?$allocator@D@std@@@std@@QAE@XZ ; std::_String_val<char,std::allocator<char> >::~_String_val<char,std::allocator<char> >
__ehhandler$??0?$basic_string@DU?$char_traits@D@std@@V?$allocator@D@2@@std@@QAE@ABV01@@Z:
	mov	edx, DWORD PTR [esp+8]
	lea	eax, DWORD PTR [edx+12]
	mov	ecx, DWORD PTR [edx-12]
	xor	ecx, eax
	call	@__security_check_cookie@4
	mov	eax, OFFSET __ehfuncinfo$??0?$basic_string@DU?$char_traits@D@std@@V?$allocator@D@2@@std@@QAE@ABV01@@Z
	jmp	___CxxFrameHandler3
text$x	ENDS
??0?$basic_string@DU?$char_traits@D@std@@V?$allocator@D@2@@std@@QAE@ABV01@@Z ENDP ; std::basic_string<char,std::char_traits<char>,std::allocator<char> >::basic_string<char,std::char_traits<char>,std::allocator<char> >
PUBLIC	?assign@?$basic_string@DU?$char_traits@D@std@@V?$allocator@D@2@@std@@QAEAAV12@PBD@Z ; std::basic_string<char,std::char_traits<char>,std::allocator<char> >::assign
PUBLIC	??0?$allocator@D@std@@QAE@XZ			; std::allocator<char>::allocator<char>
;	COMDAT xdata$x
xdata$x	SEGMENT
__unwindtable$??0?$basic_string@DU?$char_traits@D@std@@V?$allocator@D@2@@std@@QAE@PBD@Z DD 0ffffffffH
	DD	FLAT:__unwindfunclet$??0?$basic_string@DU?$char_traits@D@std@@V?$allocator@D@2@@std@@QAE@PBD@Z$0
__ehfuncinfo$??0?$basic_string@DU?$char_traits@D@std@@V?$allocator@D@2@@std@@QAE@PBD@Z DD 019930522H
	DD	01H
	DD	FLAT:__unwindtable$??0?$basic_string@DU?$char_traits@D@std@@V?$allocator@D@2@@std@@QAE@PBD@Z
	DD	2 DUP(00H)
	DD	2 DUP(00H)
	DD	00H
	DD	01H
; Function compile flags: /Odtp
xdata$x	ENDS
;	COMDAT ??0?$basic_string@DU?$char_traits@D@std@@V?$allocator@D@2@@std@@QAE@PBD@Z
_TEXT	SEGMENT
_this$ = -20						; size = 4
$T119417 = -16						; size = 4
__$EHRec$ = -12						; size = 12
__Ptr$ = 8						; size = 4
??0?$basic_string@DU?$char_traits@D@std@@V?$allocator@D@2@@std@@QAE@PBD@Z PROC ; std::basic_string<char,std::char_traits<char>,std::allocator<char> >::basic_string<char,std::char_traits<char>,std::allocator<char> >, COMDAT
; _this$ = ecx
; Line 592
	push	ebp
	mov	ebp, esp
	push	-1
	push	__ehhandler$??0?$basic_string@DU?$char_traits@D@std@@V?$allocator@D@2@@std@@QAE@PBD@Z
	mov	eax, DWORD PTR fs:0
	push	eax
	sub	esp, 8
	mov	eax, DWORD PTR ___security_cookie
	xor	eax, ebp
	push	eax
	lea	eax, DWORD PTR __$EHRec$[ebp]
	mov	DWORD PTR fs:0, eax
	mov	DWORD PTR _this$[ebp], ecx
	push	ecx
	mov	ecx, esp
	mov	DWORD PTR $T119417[ebp], esp
	call	??0?$allocator@D@std@@QAE@XZ		; std::allocator<char>::allocator<char>
	mov	ecx, DWORD PTR _this$[ebp]
	call	??0?$_String_val@DV?$allocator@D@std@@@std@@QAE@V?$allocator@D@1@@Z ; std::_String_val<char,std::allocator<char> >::_String_val<char,std::allocator<char> >
	mov	DWORD PTR __$EHRec$[ebp+8], 0
; Line 593
	push	0
	push	0
	mov	ecx, DWORD PTR _this$[ebp]
	call	?_Tidy@?$basic_string@DU?$char_traits@D@std@@V?$allocator@D@2@@std@@QAEX_NI@Z ; std::basic_string<char,std::char_traits<char>,std::allocator<char> >::_Tidy
; Line 594
	mov	eax, DWORD PTR __Ptr$[ebp]
	push	eax
	mov	ecx, DWORD PTR _this$[ebp]
	call	?assign@?$basic_string@DU?$char_traits@D@std@@V?$allocator@D@2@@std@@QAEAAV12@PBD@Z ; std::basic_string<char,std::char_traits<char>,std::allocator<char> >::assign
; Line 595
	mov	DWORD PTR __$EHRec$[ebp+8], -1
	mov	eax, DWORD PTR _this$[ebp]
	mov	ecx, DWORD PTR __$EHRec$[ebp]
	mov	DWORD PTR fs:0, ecx
	pop	ecx
	mov	esp, ebp
	pop	ebp
	ret	4
_TEXT	ENDS
;	COMDAT text$x
text$x	SEGMENT
__unwindfunclet$??0?$basic_string@DU?$char_traits@D@std@@V?$allocator@D@2@@std@@QAE@PBD@Z$0:
	mov	ecx, DWORD PTR _this$[ebp]
	jmp	??1?$_String_val@DV?$allocator@D@std@@@std@@QAE@XZ ; std::_String_val<char,std::allocator<char> >::~_String_val<char,std::allocator<char> >
__ehhandler$??0?$basic_string@DU?$char_traits@D@std@@V?$allocator@D@2@@std@@QAE@PBD@Z:
	mov	edx, DWORD PTR [esp+8]
	lea	eax, DWORD PTR [edx+12]
	mov	ecx, DWORD PTR [edx-12]
	xor	ecx, eax
	call	@__security_check_cookie@4
	mov	eax, OFFSET __ehfuncinfo$??0?$basic_string@DU?$char_traits@D@std@@V?$allocator@D@2@@std@@QAE@PBD@Z
	jmp	___CxxFrameHandler3
text$x	ENDS
??0?$basic_string@DU?$char_traits@D@std@@V?$allocator@D@2@@std@@QAE@PBD@Z ENDP ; std::basic_string<char,std::char_traits<char>,std::allocator<char> >::basic_string<char,std::char_traits<char>,std::allocator<char> >
;	COMDAT xdata$x
xdata$x	SEGMENT
__unwindtable$??1?$basic_string@DU?$char_traits@D@std@@V?$allocator@D@2@@std@@QAE@XZ DD 0ffffffffH
	DD	FLAT:__unwindfunclet$??1?$basic_string@DU?$char_traits@D@std@@V?$allocator@D@2@@std@@QAE@XZ$0
__ehfuncinfo$??1?$basic_string@DU?$char_traits@D@std@@V?$allocator@D@2@@std@@QAE@XZ DD 019930522H
	DD	01H
	DD	FLAT:__unwindtable$??1?$basic_string@DU?$char_traits@D@std@@V?$allocator@D@2@@std@@QAE@XZ
	DD	2 DUP(00H)
	DD	2 DUP(00H)
	DD	00H
	DD	01H
; Function compile flags: /Odtp
xdata$x	ENDS
;	COMDAT ??1?$basic_string@DU?$char_traits@D@std@@V?$allocator@D@2@@std@@QAE@XZ
_TEXT	SEGMENT
_this$ = -16						; size = 4
__$EHRec$ = -12						; size = 12
??1?$basic_string@DU?$char_traits@D@std@@V?$allocator@D@2@@std@@QAE@XZ PROC ; std::basic_string<char,std::char_traits<char>,std::allocator<char> >::~basic_string<char,std::char_traits<char>,std::allocator<char> >, COMDAT
; _this$ = ecx
; Line 752
	push	ebp
	mov	ebp, esp
	push	-1
	push	__ehhandler$??1?$basic_string@DU?$char_traits@D@std@@V?$allocator@D@2@@std@@QAE@XZ
	mov	eax, DWORD PTR fs:0
	push	eax
	push	ecx
	mov	eax, DWORD PTR ___security_cookie
	xor	eax, ebp
	push	eax
	lea	eax, DWORD PTR __$EHRec$[ebp]
	mov	DWORD PTR fs:0, eax
	mov	DWORD PTR _this$[ebp], ecx
	mov	DWORD PTR __$EHRec$[ebp+8], 0
; Line 753
	push	0
	push	1
	mov	ecx, DWORD PTR _this$[ebp]
	call	?_Tidy@?$basic_string@DU?$char_traits@D@std@@V?$allocator@D@2@@std@@QAEX_NI@Z ; std::basic_string<char,std::char_traits<char>,std::allocator<char> >::_Tidy
; Line 754
	mov	DWORD PTR __$EHRec$[ebp+8], -1
	mov	ecx, DWORD PTR _this$[ebp]
	call	??1?$_String_val@DV?$allocator@D@std@@@std@@QAE@XZ ; std::_String_val<char,std::allocator<char> >::~_String_val<char,std::allocator<char> >
	mov	ecx, DWORD PTR __$EHRec$[ebp]
	mov	DWORD PTR fs:0, ecx
	pop	ecx
	mov	esp, ebp
	pop	ebp
	ret	0
_TEXT	ENDS
;	COMDAT text$x
text$x	SEGMENT
__unwindfunclet$??1?$basic_string@DU?$char_traits@D@std@@V?$allocator@D@2@@std@@QAE@XZ$0:
	mov	ecx, DWORD PTR _this$[ebp]
	jmp	??1?$_String_val@DV?$allocator@D@std@@@std@@QAE@XZ ; std::_String_val<char,std::allocator<char> >::~_String_val<char,std::allocator<char> >
__ehhandler$??1?$basic_string@DU?$char_traits@D@std@@V?$allocator@D@2@@std@@QAE@XZ:
	mov	edx, DWORD PTR [esp+8]
	lea	eax, DWORD PTR [edx+12]
	mov	ecx, DWORD PTR [edx-8]
	xor	ecx, eax
	call	@__security_check_cookie@4
	mov	eax, OFFSET __ehfuncinfo$??1?$basic_string@DU?$char_traits@D@std@@V?$allocator@D@2@@std@@QAE@XZ
	jmp	___CxxFrameHandler3
text$x	ENDS
??1?$basic_string@DU?$char_traits@D@std@@V?$allocator@D@2@@std@@QAE@XZ ENDP ; std::basic_string<char,std::char_traits<char>,std::allocator<char> >::~basic_string<char,std::char_traits<char>,std::allocator<char> >
PUBLIC	?assign@?$basic_string@DU?$char_traits@D@std@@V?$allocator@D@2@@std@@QAEAAV12@ABV12@@Z ; std::basic_string<char,std::char_traits<char>,std::allocator<char> >::assign
; Function compile flags: /Odtp
;	COMDAT ??4?$basic_string@DU?$char_traits@D@std@@V?$allocator@D@2@@std@@QAEAAV01@ABV01@@Z
_TEXT	SEGMENT
_this$ = -4						; size = 4
__Right$ = 8						; size = 4
??4?$basic_string@DU?$char_traits@D@std@@V?$allocator@D@2@@std@@QAEAAV01@ABV01@@Z PROC ; std::basic_string<char,std::char_traits<char>,std::allocator<char> >::operator=, COMDAT
; _this$ = ecx
; Line 762
	push	ebp
	mov	ebp, esp
	push	ecx
	mov	DWORD PTR _this$[ebp], ecx
; Line 763
	mov	eax, DWORD PTR __Right$[ebp]
	push	eax
	mov	ecx, DWORD PTR _this$[ebp]
	call	?assign@?$basic_string@DU?$char_traits@D@std@@V?$allocator@D@2@@std@@QAEAAV12@ABV12@@Z ; std::basic_string<char,std::char_traits<char>,std::allocator<char> >::assign
; Line 764
	mov	esp, ebp
	pop	ebp
	ret	4
??4?$basic_string@DU?$char_traits@D@std@@V?$allocator@D@2@@std@@QAEAAV01@ABV01@@Z ENDP ; std::basic_string<char,std::char_traits<char>,std::allocator<char> >::operator=
_TEXT	ENDS
PUBLIC	?append@?$basic_string@DU?$char_traits@D@std@@V?$allocator@D@2@@std@@QAEAAV12@PBD@Z ; std::basic_string<char,std::char_traits<char>,std::allocator<char> >::append
; Function compile flags: /Odtp
;	COMDAT ??Y?$basic_string@DU?$char_traits@D@std@@V?$allocator@D@2@@std@@QAEAAV01@PBD@Z
_TEXT	SEGMENT
_this$ = -4						; size = 4
__Ptr$ = 8						; size = 4
??Y?$basic_string@DU?$char_traits@D@std@@V?$allocator@D@2@@std@@QAEAAV01@PBD@Z PROC ; std::basic_string<char,std::char_traits<char>,std::allocator<char> >::operator+=, COMDAT
; _this$ = ecx
; Line 782
	push	ebp
	mov	ebp, esp
	push	ecx
	mov	DWORD PTR _this$[ebp], ecx
; Line 783
	mov	eax, DWORD PTR __Ptr$[ebp]
	push	eax
	mov	ecx, DWORD PTR _this$[ebp]
	call	?append@?$basic_string@DU?$char_traits@D@std@@V?$allocator@D@2@@std@@QAEAAV12@PBD@Z ; std::basic_string<char,std::char_traits<char>,std::allocator<char> >::append
; Line 784
	mov	esp, ebp
	pop	ebp
	ret	4
??Y?$basic_string@DU?$char_traits@D@std@@V?$allocator@D@2@@std@@QAEAAV01@PBD@Z ENDP ; std::basic_string<char,std::char_traits<char>,std::allocator<char> >::operator+=
_TEXT	ENDS
PUBLIC	?_Myptr@?$basic_string@DU?$char_traits@D@std@@V?$allocator@D@2@@std@@QBEPBDXZ ; std::basic_string<char,std::char_traits<char>,std::allocator<char> >::_Myptr
; Function compile flags: /Odtp
;	COMDAT ?c_str@?$basic_string@DU?$char_traits@D@std@@V?$allocator@D@2@@std@@QBEPBDXZ
_TEXT	SEGMENT
_this$ = -4						; size = 4
?c_str@?$basic_string@DU?$char_traits@D@std@@V?$allocator@D@2@@std@@QBEPBDXZ PROC ; std::basic_string<char,std::char_traits<char>,std::allocator<char> >::c_str, COMDAT
; _this$ = ecx
; Line 1495
	push	ebp
	mov	ebp, esp
	push	ecx
	mov	DWORD PTR _this$[ebp], ecx
; Line 1496
	mov	ecx, DWORD PTR _this$[ebp]
	call	?_Myptr@?$basic_string@DU?$char_traits@D@std@@V?$allocator@D@2@@std@@QBEPBDXZ ; std::basic_string<char,std::char_traits<char>,std::allocator<char> >::_Myptr
; Line 1497
	mov	esp, ebp
	pop	ebp
	ret	0
?c_str@?$basic_string@DU?$char_traits@D@std@@V?$allocator@D@2@@std@@QBEPBDXZ ENDP ; std::basic_string<char,std::char_traits<char>,std::allocator<char> >::c_str
; Function compile flags: /Odtp
_TEXT	ENDS
;	COMDAT ?length@?$basic_string@DU?$char_traits@D@std@@V?$allocator@D@2@@std@@QBEIXZ
_TEXT	SEGMENT
_this$ = -4						; size = 4
?length@?$basic_string@DU?$char_traits@D@std@@V?$allocator@D@2@@std@@QBEIXZ PROC ; std::basic_string<char,std::char_traits<char>,std::allocator<char> >::length, COMDAT
; _this$ = ecx
; Line 1505
	push	ebp
	mov	ebp, esp
	push	ecx
	mov	DWORD PTR _this$[ebp], ecx
; Line 1506
	mov	eax, DWORD PTR _this$[ebp]
	mov	eax, DWORD PTR [eax+16]
; Line 1507
	mov	esp, ebp
	pop	ebp
	ret	0
?length@?$basic_string@DU?$char_traits@D@std@@V?$allocator@D@2@@std@@QBEIXZ ENDP ; std::basic_string<char,std::char_traits<char>,std::allocator<char> >::length
_TEXT	ENDS
PUBLIC	??1?$_Vector_val@PAVLogger@common@ibmras@@V?$allocator@PAVLogger@common@ibmras@@@std@@@std@@QAE@XZ ; std::_Vector_val<ibmras::common::Logger *,std::allocator<ibmras::common::Logger *> >::~_Vector_val<ibmras::common::Logger *,std::allocator<ibmras::common::Logger *> >
PUBLIC	?_Tidy@?$vector@PAVLogger@common@ibmras@@V?$allocator@PAVLogger@common@ibmras@@@std@@@std@@IAEXXZ ; std::vector<ibmras::common::Logger *,std::allocator<ibmras::common::Logger *> >::_Tidy
PUBLIC	??$_Ucopy@V?$_Vector_const_iterator@V?$_Vector_val@PAVLogger@common@ibmras@@V?$allocator@PAVLogger@common@ibmras@@@std@@@std@@@std@@@?$vector@PAVLogger@common@ibmras@@V?$allocator@PAVLogger@common@ibmras@@@std@@@std@@IAEPAPAVLogger@common@ibmras@@V?$_Vector_const_iterator@V?$_Vector_val@PAVLogger@common@ibmras@@V?$allocator@PAVLogger@common@ibmras@@@std@@@std@@@1@0PAPAV234@@Z ; std::vector<ibmras::common::Logger *,std::allocator<ibmras::common::Logger *> >::_Ucopy<std::_Vector_const_iterator<std::_Vector_val<ibmras::common::Logger *,std::allocator<ibmras::common::Logger *> > > >
PUBLIC	?begin@?$vector@PAVLogger@common@ibmras@@V?$allocator@PAVLogger@common@ibmras@@@std@@@std@@QBE?AV?$_Vector_const_iterator@V?$_Vector_val@PAVLogger@common@ibmras@@V?$allocator@PAVLogger@common@ibmras@@@std@@@std@@@2@XZ ; std::vector<ibmras::common::Logger *,std::allocator<ibmras::common::Logger *> >::begin
PUBLIC	?end@?$vector@PAVLogger@common@ibmras@@V?$allocator@PAVLogger@common@ibmras@@@std@@@std@@QBE?AV?$_Vector_const_iterator@V?$_Vector_val@PAVLogger@common@ibmras@@V?$allocator@PAVLogger@common@ibmras@@@std@@@std@@@2@XZ ; std::vector<ibmras::common::Logger *,std::allocator<ibmras::common::Logger *> >::end
PUBLIC	?_Buy@?$vector@PAVLogger@common@ibmras@@V?$allocator@PAVLogger@common@ibmras@@@std@@@std@@IAE_NI@Z ; std::vector<ibmras::common::Logger *,std::allocator<ibmras::common::Logger *> >::_Buy
PUBLIC	?size@?$vector@PAVLogger@common@ibmras@@V?$allocator@PAVLogger@common@ibmras@@@std@@@std@@QBEIXZ ; std::vector<ibmras::common::Logger *,std::allocator<ibmras::common::Logger *> >::size
PUBLIC	??0?$_Vector_val@PAVLogger@common@ibmras@@V?$allocator@PAVLogger@common@ibmras@@@std@@@std@@QAE@V?$allocator@PAVLogger@common@ibmras@@@1@@Z ; std::_Vector_val<ibmras::common::Logger *,std::allocator<ibmras::common::Logger *> >::_Vector_val<ibmras::common::Logger *,std::allocator<ibmras::common::Logger *> >
PUBLIC	??0?$allocator@PAVLogger@common@ibmras@@@std@@QAE@ABV01@@Z ; std::allocator<ibmras::common::Logger *>::allocator<ibmras::common::Logger *>
EXTRN	__CxxThrowException@8:PROC
;	COMDAT xdata$x
; File c:\program files (x86)\microsoft visual studio 10.0\vc\include\vector
xdata$x	SEGMENT
__catchsym$??0?$vector@PAVLogger@common@ibmras@@V?$allocator@PAVLogger@common@ibmras@@@std@@@std@@QAE@ABV01@@Z$3 DD 040H
	DD	00H
	DD	00H
	DD	FLAT:__catch$??0?$vector@PAVLogger@common@ibmras@@V?$allocator@PAVLogger@common@ibmras@@@std@@@std@@QAE@ABV01@@Z$0
__tryblocktable$??0?$vector@PAVLogger@common@ibmras@@V?$allocator@PAVLogger@common@ibmras@@@std@@@std@@QAE@ABV01@@Z DD 01H
	DD	01H
	DD	02H
	DD	01H
	DD	FLAT:__catchsym$??0?$vector@PAVLogger@common@ibmras@@V?$allocator@PAVLogger@common@ibmras@@@std@@@std@@QAE@ABV01@@Z$3
__unwindtable$??0?$vector@PAVLogger@common@ibmras@@V?$allocator@PAVLogger@common@ibmras@@@std@@@std@@QAE@ABV01@@Z DD 0ffffffffH
	DD	FLAT:__unwindfunclet$??0?$vector@PAVLogger@common@ibmras@@V?$allocator@PAVLogger@common@ibmras@@@std@@@std@@QAE@ABV01@@Z$2
	DD	00H
	DD	00H
	DD	00H
	DD	00H
__ehfuncinfo$??0?$vector@PAVLogger@common@ibmras@@V?$allocator@PAVLogger@common@ibmras@@@std@@@std@@QAE@ABV01@@Z DD 019930522H
	DD	03H
	DD	FLAT:__unwindtable$??0?$vector@PAVLogger@common@ibmras@@V?$allocator@PAVLogger@common@ibmras@@@std@@@std@@QAE@ABV01@@Z
	DD	01H
	DD	FLAT:__tryblocktable$??0?$vector@PAVLogger@common@ibmras@@V?$allocator@PAVLogger@common@ibmras@@@std@@@std@@QAE@ABV01@@Z
	DD	2 DUP(00H)
	DD	00H
	DD	01H
; Function compile flags: /Odtp
xdata$x	ENDS
;	COMDAT ??0?$vector@PAVLogger@common@ibmras@@V?$allocator@PAVLogger@common@ibmras@@@std@@@std@@QAE@ABV01@@Z
_TEXT	SEGMENT
tv157 = -44						; size = 4
tv156 = -40						; size = 4
tv69 = -36						; size = 4
_this$ = -32						; size = 4
$T119446 = -28						; size = 4
$T119445 = -24						; size = 4
$T119444 = -20						; size = 4
__$EHRec$ = -16						; size = 16
__Right$ = 8						; size = 4
??0?$vector@PAVLogger@common@ibmras@@V?$allocator@PAVLogger@common@ibmras@@@std@@@std@@QAE@ABV01@@Z PROC ; std::vector<ibmras::common::Logger *,std::allocator<ibmras::common::Logger *> >::vector<ibmras::common::Logger *,std::allocator<ibmras::common::Logger *> >, COMDAT
; _this$ = ecx
; Line 535
	push	ebp
	mov	ebp, esp
	push	-1
	push	__ehhandler$??0?$vector@PAVLogger@common@ibmras@@V?$allocator@PAVLogger@common@ibmras@@@std@@@std@@QAE@ABV01@@Z
	mov	eax, DWORD PTR fs:0
	push	eax
	push	ecx
	sub	esp, 28					; 0000001cH
	push	ebx
	push	esi
	push	edi
	mov	eax, DWORD PTR ___security_cookie
	xor	eax, ebp
	push	eax
	lea	eax, DWORD PTR __$EHRec$[ebp+4]
	mov	DWORD PTR fs:0, eax
	mov	DWORD PTR __$EHRec$[ebp], esp
	mov	DWORD PTR _this$[ebp], ecx
	mov	eax, DWORD PTR __Right$[ebp]
	add	eax, 12					; 0000000cH
	push	ecx
	mov	ecx, esp
	mov	DWORD PTR $T119444[ebp], esp
	push	eax
	call	??0?$allocator@PAVLogger@common@ibmras@@@std@@QAE@ABV01@@Z ; std::allocator<ibmras::common::Logger *>::allocator<ibmras::common::Logger *>
	mov	ecx, DWORD PTR _this$[ebp]
	call	??0?$_Vector_val@PAVLogger@common@ibmras@@V?$allocator@PAVLogger@common@ibmras@@@std@@@std@@QAE@V?$allocator@PAVLogger@common@ibmras@@@1@@Z ; std::_Vector_val<ibmras::common::Logger *,std::allocator<ibmras::common::Logger *> >::_Vector_val<ibmras::common::Logger *,std::allocator<ibmras::common::Logger *> >
	mov	DWORD PTR __$EHRec$[ebp+12], 0
; Line 536
	mov	ecx, DWORD PTR __Right$[ebp]
	call	?size@?$vector@PAVLogger@common@ibmras@@V?$allocator@PAVLogger@common@ibmras@@@std@@@std@@QBEIXZ ; std::vector<ibmras::common::Logger *,std::allocator<ibmras::common::Logger *> >::size
	push	eax
	mov	ecx, DWORD PTR _this$[ebp]
	call	?_Buy@?$vector@PAVLogger@common@ibmras@@V?$allocator@PAVLogger@common@ibmras@@@std@@@std@@IAE_NI@Z ; std::vector<ibmras::common::Logger *,std::allocator<ibmras::common::Logger *> >::_Buy
	movzx	ecx, al
	test	ecx, ecx
	je	SHORT $LN3@vector@5
; Line 537
	mov	BYTE PTR __$EHRec$[ebp+12], 1
; Line 539
	lea	edx, DWORD PTR $T119445[ebp]
	push	edx
	mov	ecx, DWORD PTR __Right$[ebp]
	call	?end@?$vector@PAVLogger@common@ibmras@@V?$allocator@PAVLogger@common@ibmras@@@std@@@std@@QBE?AV?$_Vector_const_iterator@V?$_Vector_val@PAVLogger@common@ibmras@@V?$allocator@PAVLogger@common@ibmras@@@std@@@std@@@2@XZ ; std::vector<ibmras::common::Logger *,std::allocator<ibmras::common::Logger *> >::end
	mov	DWORD PTR tv69[ebp], eax
	lea	eax, DWORD PTR $T119446[ebp]
	push	eax
	mov	ecx, DWORD PTR __Right$[ebp]
	call	?begin@?$vector@PAVLogger@common@ibmras@@V?$allocator@PAVLogger@common@ibmras@@@std@@@std@@QBE?AV?$_Vector_const_iterator@V?$_Vector_val@PAVLogger@common@ibmras@@V?$allocator@PAVLogger@common@ibmras@@@std@@@std@@@2@XZ ; std::vector<ibmras::common::Logger *,std::allocator<ibmras::common::Logger *> >::begin
	mov	DWORD PTR tv156[ebp], eax
	mov	ecx, DWORD PTR _this$[ebp]
	mov	edx, DWORD PTR [ecx]
	push	edx
	mov	eax, DWORD PTR tv69[ebp]
	mov	ecx, DWORD PTR [eax]
	push	ecx
	mov	edx, DWORD PTR tv156[ebp]
	mov	eax, DWORD PTR [edx]
	push	eax
	mov	ecx, DWORD PTR _this$[ebp]
	call	??$_Ucopy@V?$_Vector_const_iterator@V?$_Vector_val@PAVLogger@common@ibmras@@V?$allocator@PAVLogger@common@ibmras@@@std@@@std@@@std@@@?$vector@PAVLogger@common@ibmras@@V?$allocator@PAVLogger@common@ibmras@@@std@@@std@@IAEPAPAVLogger@common@ibmras@@V?$_Vector_const_iterator@V?$_Vector_val@PAVLogger@common@ibmras@@V?$allocator@PAVLogger@common@ibmras@@@std@@@std@@@1@0PAPAV234@@Z ; std::vector<ibmras::common::Logger *,std::allocator<ibmras::common::Logger *> >::_Ucopy<std::_Vector_const_iterator<std::_Vector_val<ibmras::common::Logger *,std::allocator<ibmras::common::Logger *> > > >
	mov	DWORD PTR tv157[ebp], eax
	mov	ecx, DWORD PTR _this$[ebp]
	mov	edx, DWORD PTR tv157[ebp]
	mov	DWORD PTR [ecx+4], edx
	jmp	SHORT $LN5@vector@5
__catch$??0?$vector@PAVLogger@common@ibmras@@V?$allocator@PAVLogger@common@ibmras@@@std@@@std@@QAE@ABV01@@Z$0:
; Line 541
	mov	ecx, DWORD PTR _this$[ebp]
	call	?_Tidy@?$vector@PAVLogger@common@ibmras@@V?$allocator@PAVLogger@common@ibmras@@@std@@@std@@IAEXXZ ; std::vector<ibmras::common::Logger *,std::allocator<ibmras::common::Logger *> >::_Tidy
; Line 542
	push	0
	push	0
	call	__CxxThrowException@8
; Line 543
	mov	DWORD PTR __$EHRec$[ebp+12], 0
	mov	eax, $LN3@vector@5
	ret	0
$LN5@vector@5:
	mov	DWORD PTR __$EHRec$[ebp+12], 0
$LN3@vector@5:
; Line 544
	mov	DWORD PTR __$EHRec$[ebp+12], -1
	mov	eax, DWORD PTR _this$[ebp]
$LN4@vector@5:
	mov	ecx, DWORD PTR __$EHRec$[ebp+4]
	mov	DWORD PTR fs:0, ecx
	pop	ecx
	pop	edi
	pop	esi
	pop	ebx
	mov	esp, ebp
	pop	ebp
	ret	4
_TEXT	ENDS
;	COMDAT text$x
text$x	SEGMENT
__unwindfunclet$??0?$vector@PAVLogger@common@ibmras@@V?$allocator@PAVLogger@common@ibmras@@@std@@@std@@QAE@ABV01@@Z$2:
	mov	ecx, DWORD PTR _this$[ebp]
	jmp	??1?$_Vector_val@PAVLogger@common@ibmras@@V?$allocator@PAVLogger@common@ibmras@@@std@@@std@@QAE@XZ ; std::_Vector_val<ibmras::common::Logger *,std::allocator<ibmras::common::Logger *> >::~_Vector_val<ibmras::common::Logger *,std::allocator<ibmras::common::Logger *> >
__ehhandler$??0?$vector@PAVLogger@common@ibmras@@V?$allocator@PAVLogger@common@ibmras@@@std@@@std@@QAE@ABV01@@Z:
	mov	edx, DWORD PTR [esp+8]
	lea	eax, DWORD PTR [edx+12]
	mov	ecx, DWORD PTR [edx-48]
	xor	ecx, eax
	call	@__security_check_cookie@4
	mov	eax, OFFSET __ehfuncinfo$??0?$vector@PAVLogger@common@ibmras@@V?$allocator@PAVLogger@common@ibmras@@@std@@@std@@QAE@ABV01@@Z
	jmp	___CxxFrameHandler3
text$x	ENDS
??0?$vector@PAVLogger@common@ibmras@@V?$allocator@PAVLogger@common@ibmras@@@std@@@std@@QAE@ABV01@@Z ENDP ; std::vector<ibmras::common::Logger *,std::allocator<ibmras::common::Logger *> >::vector<ibmras::common::Logger *,std::allocator<ibmras::common::Logger *> >
;	COMDAT xdata$x
xdata$x	SEGMENT
__unwindtable$??1?$vector@PAVLogger@common@ibmras@@V?$allocator@PAVLogger@common@ibmras@@@std@@@std@@QAE@XZ DD 0ffffffffH
	DD	FLAT:__unwindfunclet$??1?$vector@PAVLogger@common@ibmras@@V?$allocator@PAVLogger@common@ibmras@@@std@@@std@@QAE@XZ$0
__ehfuncinfo$??1?$vector@PAVLogger@common@ibmras@@V?$allocator@PAVLogger@common@ibmras@@@std@@@std@@QAE@XZ DD 019930522H
	DD	01H
	DD	FLAT:__unwindtable$??1?$vector@PAVLogger@common@ibmras@@V?$allocator@PAVLogger@common@ibmras@@@std@@@std@@QAE@XZ
	DD	2 DUP(00H)
	DD	2 DUP(00H)
	DD	00H
	DD	01H
; Function compile flags: /Odtp
xdata$x	ENDS
;	COMDAT ??1?$vector@PAVLogger@common@ibmras@@V?$allocator@PAVLogger@common@ibmras@@@std@@@std@@QAE@XZ
_TEXT	SEGMENT
_this$ = -16						; size = 4
__$EHRec$ = -12						; size = 12
??1?$vector@PAVLogger@common@ibmras@@V?$allocator@PAVLogger@common@ibmras@@@std@@@std@@QAE@XZ PROC ; std::vector<ibmras::common::Logger *,std::allocator<ibmras::common::Logger *> >::~vector<ibmras::common::Logger *,std::allocator<ibmras::common::Logger *> >, COMDAT
; _this$ = ecx
; Line 704
	push	ebp
	mov	ebp, esp
	push	-1
	push	__ehhandler$??1?$vector@PAVLogger@common@ibmras@@V?$allocator@PAVLogger@common@ibmras@@@std@@@std@@QAE@XZ
	mov	eax, DWORD PTR fs:0
	push	eax
	push	ecx
	mov	eax, DWORD PTR ___security_cookie
	xor	eax, ebp
	push	eax
	lea	eax, DWORD PTR __$EHRec$[ebp]
	mov	DWORD PTR fs:0, eax
	mov	DWORD PTR _this$[ebp], ecx
	mov	DWORD PTR __$EHRec$[ebp+8], 0
; Line 705
	mov	ecx, DWORD PTR _this$[ebp]
	call	?_Tidy@?$vector@PAVLogger@common@ibmras@@V?$allocator@PAVLogger@common@ibmras@@@std@@@std@@IAEXXZ ; std::vector<ibmras::common::Logger *,std::allocator<ibmras::common::Logger *> >::_Tidy
; Line 706
	mov	DWORD PTR __$EHRec$[ebp+8], -1
	mov	ecx, DWORD PTR _this$[ebp]
	call	??1?$_Vector_val@PAVLogger@common@ibmras@@V?$allocator@PAVLogger@common@ibmras@@@std@@@std@@QAE@XZ ; std::_Vector_val<ibmras::common::Logger *,std::allocator<ibmras::common::Logger *> >::~_Vector_val<ibmras::common::Logger *,std::allocator<ibmras::common::Logger *> >
	mov	ecx, DWORD PTR __$EHRec$[ebp]
	mov	DWORD PTR fs:0, ecx
	pop	ecx
	mov	esp, ebp
	pop	ebp
	ret	0
_TEXT	ENDS
;	COMDAT text$x
text$x	SEGMENT
__unwindfunclet$??1?$vector@PAVLogger@common@ibmras@@V?$allocator@PAVLogger@common@ibmras@@@std@@@std@@QAE@XZ$0:
	mov	ecx, DWORD PTR _this$[ebp]
	jmp	??1?$_Vector_val@PAVLogger@common@ibmras@@V?$allocator@PAVLogger@common@ibmras@@@std@@@std@@QAE@XZ ; std::_Vector_val<ibmras::common::Logger *,std::allocator<ibmras::common::Logger *> >::~_Vector_val<ibmras::common::Logger *,std::allocator<ibmras::common::Logger *> >
__ehhandler$??1?$vector@PAVLogger@common@ibmras@@V?$allocator@PAVLogger@common@ibmras@@@std@@@std@@QAE@XZ:
	mov	edx, DWORD PTR [esp+8]
	lea	eax, DWORD PTR [edx+12]
	mov	ecx, DWORD PTR [edx-8]
	xor	ecx, eax
	call	@__security_check_cookie@4
	mov	eax, OFFSET __ehfuncinfo$??1?$vector@PAVLogger@common@ibmras@@V?$allocator@PAVLogger@common@ibmras@@@std@@@std@@QAE@XZ
	jmp	___CxxFrameHandler3
text$x	ENDS
??1?$vector@PAVLogger@common@ibmras@@V?$allocator@PAVLogger@common@ibmras@@@std@@@std@@QAE@XZ ENDP ; std::vector<ibmras::common::Logger *,std::allocator<ibmras::common::Logger *> >::~vector<ibmras::common::Logger *,std::allocator<ibmras::common::Logger *> >
PUBLIC	?deallocate@?$allocator@PAVLogger@common@ibmras@@@std@@QAEXPAPAVLogger@common@ibmras@@I@Z ; std::allocator<ibmras::common::Logger *>::deallocate
PUBLIC	??$_Ucopy@PAPAVLogger@common@ibmras@@@?$vector@PAVLogger@common@ibmras@@V?$allocator@PAVLogger@common@ibmras@@@std@@@std@@IAEPAPAVLogger@common@ibmras@@PAPAV234@00@Z ; std::vector<ibmras::common::Logger *,std::allocator<ibmras::common::Logger *> >::_Ucopy<ibmras::common::Logger * *>
PUBLIC	?capacity@?$vector@PAVLogger@common@ibmras@@V?$allocator@PAVLogger@common@ibmras@@@std@@@std@@QBEIXZ ; std::vector<ibmras::common::Logger *,std::allocator<ibmras::common::Logger *> >::capacity
PUBLIC	?_Destroy@?$vector@PAVLogger@common@ibmras@@V?$allocator@PAVLogger@common@ibmras@@@std@@@std@@IAEXPAPAVLogger@common@ibmras@@0@Z ; std::vector<ibmras::common::Logger *,std::allocator<ibmras::common::Logger *> >::_Destroy
PUBLIC	??$_Copy_impl@PAPAVLogger@common@ibmras@@PAPAV123@@std@@YAPAPAVLogger@common@ibmras@@PAPAV123@00@Z ; std::_Copy_impl<ibmras::common::Logger * *,ibmras::common::Logger * *>
PUBLIC	?clear@?$vector@PAVLogger@common@ibmras@@V?$allocator@PAVLogger@common@ibmras@@@std@@@std@@QAEXXZ ; std::vector<ibmras::common::Logger *,std::allocator<ibmras::common::Logger *> >::clear
EXTRN	__imp_?_Orphan_all@_Container_base0@std@@QAEXXZ:PROC
; Function compile flags: /Odtp
;	COMDAT ??4?$vector@PAVLogger@common@ibmras@@V?$allocator@PAVLogger@common@ibmras@@@std@@@std@@QAEAAV01@ABV01@@Z
_TEXT	SEGMENT
_this$ = -12						; size = 4
__Ptr$108605 = -8					; size = 4
__Ptr$108595 = -4					; size = 4
__Right$ = 8						; size = 4
??4?$vector@PAVLogger@common@ibmras@@V?$allocator@PAVLogger@common@ibmras@@@std@@@std@@QAEAAV01@ABV01@@Z PROC ; std::vector<ibmras::common::Logger *,std::allocator<ibmras::common::Logger *> >::operator=, COMDAT
; _this$ = ecx
; Line 709
	push	ebp
	mov	ebp, esp
	sub	esp, 12					; 0000000cH
	push	esi
	mov	DWORD PTR _this$[ebp], ecx
; Line 710
	mov	eax, DWORD PTR _this$[ebp]
	cmp	eax, DWORD PTR __Right$[ebp]
	je	$LN9@operator@2
; Line 712
	mov	ecx, DWORD PTR _this$[ebp]
	call	DWORD PTR __imp_?_Orphan_all@_Container_base0@std@@QAEXXZ
; Line 714
	mov	ecx, DWORD PTR __Right$[ebp]
	call	?size@?$vector@PAVLogger@common@ibmras@@V?$allocator@PAVLogger@common@ibmras@@@std@@@std@@QBEIXZ ; std::vector<ibmras::common::Logger *,std::allocator<ibmras::common::Logger *> >::size
	test	eax, eax
	jne	SHORT $LN8@operator@2
; Line 715
	mov	ecx, DWORD PTR _this$[ebp]
