; Listing generated by Microsoft (R) Optimizing Compiler Version 16.00.40219.01 

	TITLE	C:\workspaces\newagent2\runtime.tools\src\ibmras\common\LogManager.cpp
	.686P
	.XMM
	include listing.inc
	.model	flat

INCLUDELIB MSVCRT
INCLUDELIB OLDNAMES

PUBLIC	?value@?$integral_constant@_N$0A@@tr1@std@@2_NB	; std::tr1::integral_constant<bool,0>::value
PUBLIC	?value@?$integral_constant@_N$00@tr1@std@@2_NB	; std::tr1::integral_constant<bool,1>::value
PUBLIC	?value@?$integral_constant@I$0A@@tr1@std@@2IB	; std::tr1::integral_constant<unsigned int,0>::value
PUBLIC	?_Rank@?$_Arithmetic_traits@_N@std@@2HB		; std::_Arithmetic_traits<bool>::_Rank
PUBLIC	?_Rank@?$_Arithmetic_traits@D@std@@2HB		; std::_Arithmetic_traits<char>::_Rank
PUBLIC	?_Rank@?$_Arithmetic_traits@C@std@@2HB		; std::_Arithmetic_traits<signed char>::_Rank
PUBLIC	?_Rank@?$_Arithmetic_traits@E@std@@2HB		; std::_Arithmetic_traits<unsigned char>::_Rank
PUBLIC	?_Rank@?$_Arithmetic_traits@F@std@@2HB		; std::_Arithmetic_traits<short>::_Rank
PUBLIC	?_Rank@?$_Arithmetic_traits@G@std@@2HB		; std::_Arithmetic_traits<unsigned short>::_Rank
PUBLIC	?_Rank@?$_Arithmetic_traits@H@std@@2HB		; std::_Arithmetic_traits<int>::_Rank
PUBLIC	?_Rank@?$_Arithmetic_traits@I@std@@2HB		; std::_Arithmetic_traits<unsigned int>::_Rank
PUBLIC	?_Rank@?$_Arithmetic_traits@J@std@@2HB		; std::_Arithmetic_traits<long>::_Rank
PUBLIC	?_Rank@?$_Arithmetic_traits@K@std@@2HB		; std::_Arithmetic_traits<unsigned long>::_Rank
PUBLIC	?_Rank@?$_Arithmetic_traits@_J@std@@2HB		; std::_Arithmetic_traits<__int64>::_Rank
PUBLIC	?_Rank@?$_Arithmetic_traits@_K@std@@2HB		; std::_Arithmetic_traits<unsigned __int64>::_Rank
PUBLIC	?_Rank@?$_Arithmetic_traits@M@std@@2HB		; std::_Arithmetic_traits<float>::_Rank
PUBLIC	?_Rank@?$_Arithmetic_traits@N@std@@2HB		; std::_Arithmetic_traits<double>::_Rank
PUBLIC	?_Rank@?$_Arithmetic_traits@O@std@@2HB		; std::_Arithmetic_traits<long double>::_Rank
PUBLIC	?collate@?$_Locbase@H@std@@2HB			; std::_Locbase<int>::collate
PUBLIC	?ctype@?$_Locbase@H@std@@2HB			; std::_Locbase<int>::ctype
PUBLIC	?monetary@?$_Locbase@H@std@@2HB			; std::_Locbase<int>::monetary
PUBLIC	?numeric@?$_Locbase@H@std@@2HB			; std::_Locbase<int>::numeric
PUBLIC	?time@?$_Locbase@H@std@@2HB			; std::_Locbase<int>::time
PUBLIC	?messages@?$_Locbase@H@std@@2HB			; std::_Locbase<int>::messages
PUBLIC	?all@?$_Locbase@H@std@@2HB			; std::_Locbase<int>::all
PUBLIC	?none@?$_Locbase@H@std@@2HB			; std::_Locbase<int>::none
PUBLIC	?skipws@?$_Iosb@H@std@@2W4_Fmtflags@12@B	; std::_Iosb<int>::skipws
PUBLIC	?unitbuf@?$_Iosb@H@std@@2W4_Fmtflags@12@B	; std::_Iosb<int>::unitbuf
PUBLIC	?uppercase@?$_Iosb@H@std@@2W4_Fmtflags@12@B	; std::_Iosb<int>::uppercase
PUBLIC	?showbase@?$_Iosb@H@std@@2W4_Fmtflags@12@B	; std::_Iosb<int>::showbase
PUBLIC	?showpoint@?$_Iosb@H@std@@2W4_Fmtflags@12@B	; std::_Iosb<int>::showpoint
PUBLIC	?showpos@?$_Iosb@H@std@@2W4_Fmtflags@12@B	; std::_Iosb<int>::showpos
PUBLIC	?left@?$_Iosb@H@std@@2W4_Fmtflags@12@B		; std::_Iosb<int>::left
PUBLIC	?right@?$_Iosb@H@std@@2W4_Fmtflags@12@B		; std::_Iosb<int>::right
PUBLIC	?internal@?$_Iosb@H@std@@2W4_Fmtflags@12@B	; std::_Iosb<int>::internal
PUBLIC	?dec@?$_Iosb@H@std@@2W4_Fmtflags@12@B		; std::_Iosb<int>::dec
PUBLIC	?oct@?$_Iosb@H@std@@2W4_Fmtflags@12@B		; std::_Iosb<int>::oct
PUBLIC	?hex@?$_Iosb@H@std@@2W4_Fmtflags@12@B		; std::_Iosb<int>::hex
PUBLIC	?scientific@?$_Iosb@H@std@@2W4_Fmtflags@12@B	; std::_Iosb<int>::scientific
PUBLIC	?fixed@?$_Iosb@H@std@@2W4_Fmtflags@12@B		; std::_Iosb<int>::fixed
PUBLIC	?hexfloat@?$_Iosb@H@std@@2W4_Fmtflags@12@B	; std::_Iosb<int>::hexfloat
PUBLIC	?boolalpha@?$_Iosb@H@std@@2W4_Fmtflags@12@B	; std::_Iosb<int>::boolalpha
PUBLIC	?_Stdio@?$_Iosb@H@std@@2W4_Fmtflags@12@B	; std::_Iosb<int>::_Stdio
PUBLIC	?adjustfield@?$_Iosb@H@std@@2W4_Fmtflags@12@B	; std::_Iosb<int>::adjustfield
PUBLIC	?basefield@?$_Iosb@H@std@@2W4_Fmtflags@12@B	; std::_Iosb<int>::basefield
PUBLIC	?floatfield@?$_Iosb@H@std@@2W4_Fmtflags@12@B	; std::_Iosb<int>::floatfield
PUBLIC	?goodbit@?$_Iosb@H@std@@2W4_Iostate@12@B	; std::_Iosb<int>::goodbit
PUBLIC	?eofbit@?$_Iosb@H@std@@2W4_Iostate@12@B		; std::_Iosb<int>::eofbit
PUBLIC	?failbit@?$_Iosb@H@std@@2W4_Iostate@12@B	; std::_Iosb<int>::failbit
PUBLIC	?badbit@?$_Iosb@H@std@@2W4_Iostate@12@B		; std::_Iosb<int>::badbit
PUBLIC	?_Hardfail@?$_Iosb@H@std@@2W4_Iostate@12@B	; std::_Iosb<int>::_Hardfail
PUBLIC	?in@?$_Iosb@H@std@@2W4_Openmode@12@B		; std::_Iosb<int>::in
PUBLIC	?out@?$_Iosb@H@std@@2W4_Openmode@12@B		; std::_Iosb<int>::out
PUBLIC	?ate@?$_Iosb@H@std@@2W4_Openmode@12@B		; std::_Iosb<int>::ate
PUBLIC	?app@?$_Iosb@H@std@@2W4_Openmode@12@B		; std::_Iosb<int>::app
PUBLIC	?trunc@?$_Iosb@H@std@@2W4_Openmode@12@B		; std::_Iosb<int>::trunc
PUBLIC	?_Nocreate@?$_Iosb@H@std@@2W4_Openmode@12@B	; std::_Iosb<int>::_Nocreate
PUBLIC	?_Noreplace@?$_Iosb@H@std@@2W4_Openmode@12@B	; std::_Iosb<int>::_Noreplace
PUBLIC	?binary@?$_Iosb@H@std@@2W4_Openmode@12@B	; std::_Iosb<int>::binary
PUBLIC	?beg@?$_Iosb@H@std@@2W4_Seekdir@12@B		; std::_Iosb<int>::beg
PUBLIC	?cur@?$_Iosb@H@std@@2W4_Seekdir@12@B		; std::_Iosb<int>::cur
PUBLIC	?end@?$_Iosb@H@std@@2W4_Seekdir@12@B		; std::_Iosb<int>::end
PUBLIC	?instance@LogManager@common@ibmras@@0PAV123@A	; ibmras::common::LogManager::instance
PUBLIC	?localLogFunc@LogManager@common@ibmras@@2P6APAXABV?$basic_string@DU?$char_traits@D@std@@V?$allocator@D@2@@std@@@ZA ; ibmras::common::LogManager::localLogFunc
_BSS	SEGMENT
?instance@LogManager@common@ibmras@@0PAV123@A DD 01H DUP (?) ; ibmras::common::LogManager::instance
?localLogFunc@LogManager@common@ibmras@@2P6APAXABV?$basic_string@DU?$char_traits@D@std@@V?$allocator@D@2@@std@@@ZA DD 01H DUP (?) ; ibmras::common::LogManager::localLogFunc
_BSS	ENDS
CONST	SEGMENT
$SG32220 DB	'level', 00H
	ORG $+2
$SG32253 DB	'warning', 00H
$SG32256 DB	'info', 00H
	ORG $+3
$SG32259 DB	'fine', 00H
	ORG $+3
$SG32262 DB	'finest', 00H
	ORG $+1
$SG32265 DB	'debug', 00H
CONST	ENDS
;	COMDAT ?end@?$_Iosb@H@std@@2W4_Seekdir@12@B
CONST	SEGMENT
?end@?$_Iosb@H@std@@2W4_Seekdir@12@B DD 02H		; std::_Iosb<int>::end
CONST	ENDS
;	COMDAT ?cur@?$_Iosb@H@std@@2W4_Seekdir@12@B
CONST	SEGMENT
?cur@?$_Iosb@H@std@@2W4_Seekdir@12@B DD 01H		; std::_Iosb<int>::cur
CONST	ENDS
;	COMDAT ?beg@?$_Iosb@H@std@@2W4_Seekdir@12@B
CONST	SEGMENT
?beg@?$_Iosb@H@std@@2W4_Seekdir@12@B DD 00H		; std::_Iosb<int>::beg
CONST	ENDS
;	COMDAT ?binary@?$_Iosb@H@std@@2W4_Openmode@12@B
CONST	SEGMENT
?binary@?$_Iosb@H@std@@2W4_Openmode@12@B DD 020H	; std::_Iosb<int>::binary
CONST	ENDS
;	COMDAT ?_Noreplace@?$_Iosb@H@std@@2W4_Openmode@12@B
CONST	SEGMENT
?_Noreplace@?$_Iosb@H@std@@2W4_Openmode@12@B DD 080H	; std::_Iosb<int>::_Noreplace
CONST	ENDS
;	COMDAT ?_Nocreate@?$_Iosb@H@std@@2W4_Openmode@12@B
CONST	SEGMENT
?_Nocreate@?$_Iosb@H@std@@2W4_Openmode@12@B DD 040H	; std::_Iosb<int>::_Nocreate
CONST	ENDS
;	COMDAT ?trunc@?$_Iosb@H@std@@2W4_Openmode@12@B
CONST	SEGMENT
?trunc@?$_Iosb@H@std@@2W4_Openmode@12@B DD 010H		; std::_Iosb<int>::trunc
CONST	ENDS
;	COMDAT ?app@?$_Iosb@H@std@@2W4_Openmode@12@B
CONST	SEGMENT
?app@?$_Iosb@H@std@@2W4_Openmode@12@B DD 08H		; std::_Iosb<int>::app
CONST	ENDS
;	COMDAT ?ate@?$_Iosb@H@std@@2W4_Openmode@12@B
CONST	SEGMENT
?ate@?$_Iosb@H@std@@2W4_Openmode@12@B DD 04H		; std::_Iosb<int>::ate
CONST	ENDS
;	COMDAT ?out@?$_Iosb@H@std@@2W4_Openmode@12@B
CONST	SEGMENT
?out@?$_Iosb@H@std@@2W4_Openmode@12@B DD 02H		; std::_Iosb<int>::out
CONST	ENDS
;	COMDAT ?in@?$_Iosb@H@std@@2W4_Openmode@12@B
CONST	SEGMENT
?in@?$_Iosb@H@std@@2W4_Openmode@12@B DD 01H		; std::_Iosb<int>::in
CONST	ENDS
;	COMDAT ?_Hardfail@?$_Iosb@H@std@@2W4_Iostate@12@B
CONST	SEGMENT
?_Hardfail@?$_Iosb@H@std@@2W4_Iostate@12@B DD 010H	; std::_Iosb<int>::_Hardfail
CONST	ENDS
;	COMDAT ?badbit@?$_Iosb@H@std@@2W4_Iostate@12@B
CONST	SEGMENT
?badbit@?$_Iosb@H@std@@2W4_Iostate@12@B DD 04H		; std::_Iosb<int>::badbit
CONST	ENDS
;	COMDAT ?failbit@?$_Iosb@H@std@@2W4_Iostate@12@B
CONST	SEGMENT
?failbit@?$_Iosb@H@std@@2W4_Iostate@12@B DD 02H		; std::_Iosb<int>::failbit
CONST	ENDS
;	COMDAT ?eofbit@?$_Iosb@H@std@@2W4_Iostate@12@B
CONST	SEGMENT
?eofbit@?$_Iosb@H@std@@2W4_Iostate@12@B DD 01H		; std::_Iosb<int>::eofbit
CONST	ENDS
;	COMDAT ?goodbit@?$_Iosb@H@std@@2W4_Iostate@12@B
CONST	SEGMENT
?goodbit@?$_Iosb@H@std@@2W4_Iostate@12@B DD 00H		; std::_Iosb<int>::goodbit
CONST	ENDS
;	COMDAT ?floatfield@?$_Iosb@H@std@@2W4_Fmtflags@12@B
CONST	SEGMENT
?floatfield@?$_Iosb@H@std@@2W4_Fmtflags@12@B DD 03000H	; std::_Iosb<int>::floatfield
CONST	ENDS
;	COMDAT ?basefield@?$_Iosb@H@std@@2W4_Fmtflags@12@B
CONST	SEGMENT
?basefield@?$_Iosb@H@std@@2W4_Fmtflags@12@B DD 0e00H	; std::_Iosb<int>::basefield
CONST	ENDS
;	COMDAT ?adjustfield@?$_Iosb@H@std@@2W4_Fmtflags@12@B
CONST	SEGMENT
?adjustfield@?$_Iosb@H@std@@2W4_Fmtflags@12@B DD 01c0H	; std::_Iosb<int>::adjustfield
CONST	ENDS
;	COMDAT ?_Stdio@?$_Iosb@H@std@@2W4_Fmtflags@12@B
CONST	SEGMENT
?_Stdio@?$_Iosb@H@std@@2W4_Fmtflags@12@B DD 08000H	; std::_Iosb<int>::_Stdio
CONST	ENDS
;	COMDAT ?boolalpha@?$_Iosb@H@std@@2W4_Fmtflags@12@B
CONST	SEGMENT
?boolalpha@?$_Iosb@H@std@@2W4_Fmtflags@12@B DD 04000H	; std::_Iosb<int>::boolalpha
CONST	ENDS
;	COMDAT ?hexfloat@?$_Iosb@H@std@@2W4_Fmtflags@12@B
CONST	SEGMENT
?hexfloat@?$_Iosb@H@std@@2W4_Fmtflags@12@B DD 03000H	; std::_Iosb<int>::hexfloat
CONST	ENDS
;	COMDAT ?fixed@?$_Iosb@H@std@@2W4_Fmtflags@12@B
CONST	SEGMENT
?fixed@?$_Iosb@H@std@@2W4_Fmtflags@12@B DD 02000H	; std::_Iosb<int>::fixed
CONST	ENDS
;	COMDAT ?scientific@?$_Iosb@H@std@@2W4_Fmtflags@12@B
CONST	SEGMENT
?scientific@?$_Iosb@H@std@@2W4_Fmtflags@12@B DD 01000H	; std::_Iosb<int>::scientific
CONST	ENDS
;	COMDAT ?hex@?$_Iosb@H@std@@2W4_Fmtflags@12@B
CONST	SEGMENT
?hex@?$_Iosb@H@std@@2W4_Fmtflags@12@B DD 0800H		; std::_Iosb<int>::hex
CONST	ENDS
;	COMDAT ?oct@?$_Iosb@H@std@@2W4_Fmtflags@12@B
CONST	SEGMENT
?oct@?$_Iosb@H@std@@2W4_Fmtflags@12@B DD 0400H		; std::_Iosb<int>::oct
CONST	ENDS
;	COMDAT ?dec@?$_Iosb@H@std@@2W4_Fmtflags@12@B
CONST	SEGMENT
?dec@?$_Iosb@H@std@@2W4_Fmtflags@12@B DD 0200H		; std::_Iosb<int>::dec
CONST	ENDS
;	COMDAT ?internal@?$_Iosb@H@std@@2W4_Fmtflags@12@B
CONST	SEGMENT
?internal@?$_Iosb@H@std@@2W4_Fmtflags@12@B DD 0100H	; std::_Iosb<int>::internal
CONST	ENDS
;	COMDAT ?right@?$_Iosb@H@std@@2W4_Fmtflags@12@B
CONST	SEGMENT
?right@?$_Iosb@H@std@@2W4_Fmtflags@12@B DD 080H		; std::_Iosb<int>::right
CONST	ENDS
;	COMDAT ?left@?$_Iosb@H@std@@2W4_Fmtflags@12@B
CONST	SEGMENT
?left@?$_Iosb@H@std@@2W4_Fmtflags@12@B DD 040H		; std::_Iosb<int>::left
CONST	ENDS
;	COMDAT ?showpos@?$_Iosb@H@std@@2W4_Fmtflags@12@B
CONST	SEGMENT
?showpos@?$_Iosb@H@std@@2W4_Fmtflags@12@B DD 020H	; std::_Iosb<int>::showpos
CONST	ENDS
;	COMDAT ?showpoint@?$_Iosb@H@std@@2W4_Fmtflags@12@B
CONST	SEGMENT
?showpoint@?$_Iosb@H@std@@2W4_Fmtflags@12@B DD 010H	; std::_Iosb<int>::showpoint
CONST	ENDS
;	COMDAT ?showbase@?$_Iosb@H@std@@2W4_Fmtflags@12@B
CONST	SEGMENT
?showbase@?$_Iosb@H@std@@2W4_Fmtflags@12@B DD 08H	; std::_Iosb<int>::showbase
CONST	ENDS
;	COMDAT ?uppercase@?$_Iosb@H@std@@2W4_Fmtflags@12@B
CONST	SEGMENT
?uppercase@?$_Iosb@H@std@@2W4_Fmtflags@12@B DD 04H	; std::_Iosb<int>::uppercase
CONST	ENDS
;	COMDAT ?unitbuf@?$_Iosb@H@std@@2W4_Fmtflags@12@B
CONST	SEGMENT
?unitbuf@?$_Iosb@H@std@@2W4_Fmtflags@12@B DD 02H	; std::_Iosb<int>::unitbuf
CONST	ENDS
;	COMDAT ?skipws@?$_Iosb@H@std@@2W4_Fmtflags@12@B
CONST	SEGMENT
?skipws@?$_Iosb@H@std@@2W4_Fmtflags@12@B DD 01H		; std::_Iosb<int>::skipws
CONST	ENDS
;	COMDAT ?none@?$_Locbase@H@std@@2HB
CONST	SEGMENT
?none@?$_Locbase@H@std@@2HB DD 00H			; std::_Locbase<int>::none
CONST	ENDS
;	COMDAT ?all@?$_Locbase@H@std@@2HB
CONST	SEGMENT
?all@?$_Locbase@H@std@@2HB DD 03fH			; std::_Locbase<int>::all
CONST	ENDS
;	COMDAT ?messages@?$_Locbase@H@std@@2HB
CONST	SEGMENT
?messages@?$_Locbase@H@std@@2HB DD 020H			; std::_Locbase<int>::messages
CONST	ENDS
;	COMDAT ?time@?$_Locbase@H@std@@2HB
CONST	SEGMENT
?time@?$_Locbase@H@std@@2HB DD 010H			; std::_Locbase<int>::time
CONST	ENDS
;	COMDAT ?numeric@?$_Locbase@H@std@@2HB
CONST	SEGMENT
?numeric@?$_Locbase@H@std@@2HB DD 08H			; std::_Locbase<int>::numeric
CONST	ENDS
;	COMDAT ?monetary@?$_Locbase@H@std@@2HB
CONST	SEGMENT
?monetary@?$_Locbase@H@std@@2HB DD 04H			; std::_Locbase<int>::monetary
CONST	ENDS
;	COMDAT ?ctype@?$_Locbase@H@std@@2HB
CONST	SEGMENT
?ctype@?$_Locbase@H@std@@2HB DD 02H			; std::_Locbase<int>::ctype
CONST	ENDS
;	COMDAT ?collate@?$_Locbase@H@std@@2HB
CONST	SEGMENT
?collate@?$_Locbase@H@std@@2HB DD 01H			; std::_Locbase<int>::collate
CONST	ENDS
;	COMDAT ?_Rank@?$_Arithmetic_traits@O@std@@2HB
CONST	SEGMENT
?_Rank@?$_Arithmetic_traits@O@std@@2HB DD 09H		; std::_Arithmetic_traits<long double>::_Rank
CONST	ENDS
;	COMDAT ?_Rank@?$_Arithmetic_traits@N@std@@2HB
CONST	SEGMENT
?_Rank@?$_Arithmetic_traits@N@std@@2HB DD 08H		; std::_Arithmetic_traits<double>::_Rank
CONST	ENDS
;	COMDAT ?_Rank@?$_Arithmetic_traits@M@std@@2HB
CONST	SEGMENT
?_Rank@?$_Arithmetic_traits@M@std@@2HB DD 07H		; std::_Arithmetic_traits<float>::_Rank
CONST	ENDS
;	COMDAT ?_Rank@?$_Arithmetic_traits@_K@std@@2HB
CONST	SEGMENT
?_Rank@?$_Arithmetic_traits@_K@std@@2HB DD 06H		; std::_Arithmetic_traits<unsigned __int64>::_Rank
CONST	ENDS
;	COMDAT ?_Rank@?$_Arithmetic_traits@_J@std@@2HB
CONST	SEGMENT
?_Rank@?$_Arithmetic_traits@_J@std@@2HB DD 06H		; std::_Arithmetic_traits<__int64>::_Rank
CONST	ENDS
;	COMDAT ?_Rank@?$_Arithmetic_traits@K@std@@2HB
CONST	SEGMENT
?_Rank@?$_Arithmetic_traits@K@std@@2HB DD 05H		; std::_Arithmetic_traits<unsigned long>::_Rank
CONST	ENDS
;	COMDAT ?_Rank@?$_Arithmetic_traits@J@std@@2HB
CONST	SEGMENT
?_Rank@?$_Arithmetic_traits@J@std@@2HB DD 05H		; std::_Arithmetic_traits<long>::_Rank
CONST	ENDS
;	COMDAT ?_Rank@?$_Arithmetic_traits@I@std@@2HB
CONST	SEGMENT
?_Rank@?$_Arithmetic_traits@I@std@@2HB DD 04H		; std::_Arithmetic_traits<unsigned int>::_Rank
CONST	ENDS
;	COMDAT ?_Rank@?$_Arithmetic_traits@H@std@@2HB
CONST	SEGMENT
?_Rank@?$_Arithmetic_traits@H@std@@2HB DD 04H		; std::_Arithmetic_traits<int>::_Rank
CONST	ENDS
;	COMDAT ?_Rank@?$_Arithmetic_traits@G@std@@2HB
CONST	SEGMENT
?_Rank@?$_Arithmetic_traits@G@std@@2HB DD 03H		; std::_Arithmetic_traits<unsigned short>::_Rank
CONST	ENDS
;	COMDAT ?_Rank@?$_Arithmetic_traits@F@std@@2HB
CONST	SEGMENT
?_Rank@?$_Arithmetic_traits@F@std@@2HB DD 03H		; std::_Arithmetic_traits<short>::_Rank
CONST	ENDS
;	COMDAT ?_Rank@?$_Arithmetic_traits@E@std@@2HB
CONST	SEGMENT
?_Rank@?$_Arithmetic_traits@E@std@@2HB DD 02H		; std::_Arithmetic_traits<unsigned char>::_Rank
CONST	ENDS
;	COMDAT ?_Rank@?$_Arithmetic_traits@C@std@@2HB
CONST	SEGMENT
?_Rank@?$_Arithmetic_traits@C@std@@2HB DD 02H		; std::_Arithmetic_traits<signed char>::_Rank
CONST	ENDS
;	COMDAT ?_Rank@?$_Arithmetic_traits@D@std@@2HB
CONST	SEGMENT
?_Rank@?$_Arithmetic_traits@D@std@@2HB DD 02H		; std::_Arithmetic_traits<char>::_Rank
CONST	ENDS
;	COMDAT ?_Rank@?$_Arithmetic_traits@_N@std@@2HB
CONST	SEGMENT
?_Rank@?$_Arithmetic_traits@_N@std@@2HB DD 01H		; std::_Arithmetic_traits<bool>::_Rank
CONST	ENDS
;	COMDAT ?value@?$integral_constant@I$0A@@tr1@std@@2IB
CONST	SEGMENT
?value@?$integral_constant@I$0A@@tr1@std@@2IB DD 00H	; std::tr1::integral_constant<unsigned int,0>::value
CONST	ENDS
;	COMDAT ?value@?$integral_constant@_N$00@tr1@std@@2_NB
CONST	SEGMENT
?value@?$integral_constant@_N$00@tr1@std@@2_NB DB 01H	; std::tr1::integral_constant<bool,1>::value
CONST	ENDS
;	COMDAT ?value@?$integral_constant@_N$0A@@tr1@std@@2_NB
CONST	SEGMENT
?value@?$integral_constant@_N$0A@@tr1@std@@2_NB DB 00H	; std::tr1::integral_constant<bool,0>::value
CONST	ENDS
PUBLIC	??0?$basic_string@DU?$char_traits@D@std@@V?$allocator@D@2@@std@@QAE@ABV01@@Z ; std::basic_string<char,std::char_traits<char>,std::allocator<char> >::basic_string<char,std::char_traits<char>,std::allocator<char> >
PUBLIC	??_7Logger@common@ibmras@@6B@			; ibmras::common::Logger::`vftable'
PUBLIC	??0Logger@common@ibmras@@QAE@ABV012@@Z		; ibmras::common::Logger::Logger
PUBLIC	??_R4Logger@common@ibmras@@6B@			; ibmras::common::Logger::`RTTI Complete Object Locator'
PUBLIC	??_R0?AVLogger@common@ibmras@@@8		; ibmras::common::Logger `RTTI Type Descriptor'
PUBLIC	??_R3Logger@common@ibmras@@8			; ibmras::common::Logger::`RTTI Class Hierarchy Descriptor'
PUBLIC	??_R2Logger@common@ibmras@@8			; ibmras::common::Logger::`RTTI Base Class Array'
PUBLIC	??_R1A@?0A@EA@Logger@common@ibmras@@8		; ibmras::common::Logger::`RTTI Base Class Descriptor at (0,-1,0,64)'
PUBLIC	??_ELogger@common@ibmras@@UAEPAXI@Z		; ibmras::common::Logger::`vector deleting destructor'
EXTRN	??_7type_info@@6B@:QWORD			; type_info::`vftable'
;	COMDAT ??_R1A@?0A@EA@Logger@common@ibmras@@8
rdata$r	SEGMENT
??_R1A@?0A@EA@Logger@common@ibmras@@8 DD FLAT:??_R0?AVLogger@common@ibmras@@@8 ; ibmras::common::Logger::`RTTI Base Class Descriptor at (0,-1,0,64)'
	DD	00H
	DD	00H
	DD	0ffffffffH
	DD	00H
	DD	040H
	DD	FLAT:??_R3Logger@common@ibmras@@8
rdata$r	ENDS
;	COMDAT ??_R2Logger@common@ibmras@@8
rdata$r	SEGMENT
??_R2Logger@common@ibmras@@8 DD FLAT:??_R1A@?0A@EA@Logger@common@ibmras@@8 ; ibmras::common::Logger::`RTTI Base Class Array'
rdata$r	ENDS
;	COMDAT ??_R3Logger@common@ibmras@@8
rdata$r	SEGMENT
??_R3Logger@common@ibmras@@8 DD 00H			; ibmras::common::Logger::`RTTI Class Hierarchy Descriptor'
	DD	00H
	DD	01H
	DD	FLAT:??_R2Logger@common@ibmras@@8
rdata$r	ENDS
;	COMDAT ??_R0?AVLogger@common@ibmras@@@8
_DATA	SEGMENT
??_R0?AVLogger@common@ibmras@@@8 DD FLAT:??_7type_info@@6B@ ; ibmras::common::Logger `RTTI Type Descriptor'
	DD	00H
	DB	'.?AVLogger@common@ibmras@@', 00H
_DATA	ENDS
;	COMDAT ??_R4Logger@common@ibmras@@6B@
rdata$r	SEGMENT
??_R4Logger@common@ibmras@@6B@ DD 00H			; ibmras::common::Logger::`RTTI Complete Object Locator'
	DD	00H
	DD	00H
	DD	FLAT:??_R0?AVLogger@common@ibmras@@@8
	DD	FLAT:??_R3Logger@common@ibmras@@8
rdata$r	ENDS
;	COMDAT ??_7Logger@common@ibmras@@6B@
CONST	SEGMENT
??_7Logger@common@ibmras@@6B@ DD FLAT:??_R4Logger@common@ibmras@@6B@ ; ibmras::common::Logger::`vftable'
	DD	FLAT:??_ELogger@common@ibmras@@UAEPAXI@Z
; Function compile flags: /Odtp
CONST	ENDS
;	COMDAT ??0Logger@common@ibmras@@QAE@ABV012@@Z
_TEXT	SEGMENT
_this$ = -4						; size = 4
___that$ = 8						; size = 4
??0Logger@common@ibmras@@QAE@ABV012@@Z PROC		; ibmras::common::Logger::Logger, COMDAT
; _this$ = ecx
	push	ebp
	mov	ebp, esp
	push	ecx
	mov	DWORD PTR _this$[ebp], ecx
	mov	eax, DWORD PTR _this$[ebp]
	mov	DWORD PTR [eax], OFFSET ??_7Logger@common@ibmras@@6B@
	mov	ecx, DWORD PTR _this$[ebp]
	mov	edx, DWORD PTR ___that$[ebp]
	mov	eax, DWORD PTR [edx+4]
	mov	DWORD PTR [ecx+4], eax
	mov	ecx, DWORD PTR _this$[ebp]
	mov	edx, DWORD PTR ___that$[ebp]
	mov	eax, DWORD PTR [edx+8]
	mov	DWORD PTR [ecx+8], eax
	mov	ecx, DWORD PTR ___that$[ebp]
	add	ecx, 12					; 0000000cH
	push	ecx
	mov	ecx, DWORD PTR _this$[ebp]
	add	ecx, 12					; 0000000cH
	call	??0?$basic_string@DU?$char_traits@D@std@@V?$allocator@D@2@@std@@QAE@ABV01@@Z ; std::basic_string<char,std::char_traits<char>,std::allocator<char> >::basic_string<char,std::char_traits<char>,std::allocator<char> >
	mov	edx, DWORD PTR _this$[ebp]
	mov	eax, DWORD PTR ___that$[ebp]
	mov	ecx, DWORD PTR [eax+40]
	mov	DWORD PTR [edx+40], ecx
	mov	eax, DWORD PTR _this$[ebp]
	mov	esp, ebp
	pop	ebp
	ret	4
??0Logger@common@ibmras@@QAE@ABV012@@Z ENDP		; ibmras::common::Logger::Logger
_TEXT	ENDS
PUBLIC	??4?$basic_string@DU?$char_traits@D@std@@V?$allocator@D@2@@std@@QAEAAV01@ABV01@@Z ; std::basic_string<char,std::char_traits<char>,std::allocator<char> >::operator=
PUBLIC	??4Logger@common@ibmras@@QAEAAV012@ABV012@@Z	; ibmras::common::Logger::operator=
; Function compile flags: /Odtp
;	COMDAT ??4Logger@common@ibmras@@QAEAAV012@ABV012@@Z
_TEXT	SEGMENT
_this$ = -4						; size = 4
___that$ = 8						; size = 4
??4Logger@common@ibmras@@QAEAAV012@ABV012@@Z PROC	; ibmras::common::Logger::operator=, COMDAT
; _this$ = ecx
	push	ebp
	mov	ebp, esp
	push	ecx
	mov	DWORD PTR _this$[ebp], ecx
	mov	eax, DWORD PTR _this$[ebp]
	mov	ecx, DWORD PTR ___that$[ebp]
	mov	edx, DWORD PTR [ecx+4]
	mov	DWORD PTR [eax+4], edx
	mov	eax, DWORD PTR _this$[ebp]
	mov	ecx, DWORD PTR ___that$[ebp]
	mov	edx, DWORD PTR [ecx+8]
	mov	DWORD PTR [eax+8], edx
	mov	eax, DWORD PTR ___that$[ebp]
	add	eax, 12					; 0000000cH
	push	eax
	mov	ecx, DWORD PTR _this$[ebp]
	add	ecx, 12					; 0000000cH
	call	??4?$basic_string@DU?$char_traits@D@std@@V?$allocator@D@2@@std@@QAEAAV01@ABV01@@Z ; std::basic_string<char,std::char_traits<char>,std::allocator<char> >::operator=
	mov	ecx, DWORD PTR _this$[ebp]
	mov	edx, DWORD PTR ___that$[ebp]
	mov	eax, DWORD PTR [edx+40]
	mov	DWORD PTR [ecx+40], eax
	mov	eax, DWORD PTR _this$[ebp]
	mov	esp, ebp
	pop	ebp
	ret	4
??4Logger@common@ibmras@@QAEAAV012@ABV012@@Z ENDP	; ibmras::common::Logger::operator=
_TEXT	ENDS
PUBLIC	??_GLogger@common@ibmras@@UAEPAXI@Z		; ibmras::common::Logger::`scalar deleting destructor'
EXTRN	??3@YAXPAX@Z:PROC				; operator delete
EXTRN	??1Logger@common@ibmras@@UAE@XZ:PROC		; ibmras::common::Logger::~Logger
; Function compile flags: /Odtp
;	COMDAT ??_GLogger@common@ibmras@@UAEPAXI@Z
_TEXT	SEGMENT
_this$ = -4						; size = 4
___flags$ = 8						; size = 4
??_GLogger@common@ibmras@@UAEPAXI@Z PROC		; ibmras::common::Logger::`scalar deleting destructor', COMDAT
; _this$ = ecx
	push	ebp
	mov	ebp, esp
	push	ecx
	mov	DWORD PTR _this$[ebp], ecx
	mov	ecx, DWORD PTR _this$[ebp]
	call	??1Logger@common@ibmras@@UAE@XZ		; ibmras::common::Logger::~Logger
	mov	eax, DWORD PTR ___flags$[ebp]
	and	eax, 1
	je	SHORT $LN1@scalar
	mov	ecx, DWORD PTR _this$[ebp]
	push	ecx
	call	??3@YAXPAX@Z				; operator delete
	add	esp, 4
$LN1@scalar:
	mov	eax, DWORD PTR _this$[ebp]
	mov	esp, ebp
	pop	ebp
	ret	4
??_GLogger@common@ibmras@@UAEPAXI@Z ENDP		; ibmras::common::Logger::`scalar deleting destructor'
_TEXT	ENDS
EXTRN	??_V@YAXPAX@Z:PROC				; operator delete[]
EXTRN	??_M@YGXPAXIHP6EX0@Z@Z:PROC			; `eh vector destructor iterator'
; Function compile flags: /Odtp
;	COMDAT ??_ELogger@common@ibmras@@UAEPAXI@Z
_TEXT	SEGMENT
_this$ = -4						; size = 4
___flags$ = 8						; size = 4
??_ELogger@common@ibmras@@UAEPAXI@Z PROC		; ibmras::common::Logger::`vector deleting destructor', COMDAT
; _this$ = ecx
	push	ebp
	mov	ebp, esp
	push	ecx
	mov	DWORD PTR _this$[ebp], ecx
	mov	eax, DWORD PTR ___flags$[ebp]
	and	eax, 2
	je	SHORT $LN3@vector
	push	OFFSET ??1Logger@common@ibmras@@UAE@XZ	; ibmras::common::Logger::~Logger
	mov	ecx, DWORD PTR _this$[ebp]
	mov	edx, DWORD PTR [ecx-4]
	push	edx
	push	44					; 0000002cH
	mov	eax, DWORD PTR _this$[ebp]
	push	eax
	call	??_M@YGXPAXIHP6EX0@Z@Z
	mov	ecx, DWORD PTR ___flags$[ebp]
	and	ecx, 1
	je	SHORT $LN2@vector
	mov	edx, DWORD PTR _this$[ebp]
	sub	edx, 4
	push	edx
	call	??_V@YAXPAX@Z				; operator delete[]
	add	esp, 4
$LN2@vector:
	mov	eax, DWORD PTR _this$[ebp]
	sub	eax, 4
	jmp	SHORT $LN4@vector
$LN3@vector:
	mov	ecx, DWORD PTR _this$[ebp]
	call	??1Logger@common@ibmras@@UAE@XZ		; ibmras::common::Logger::~Logger
	mov	eax, DWORD PTR ___flags$[ebp]
	and	eax, 1
	je	SHORT $LN1@vector
	mov	ecx, DWORD PTR _this$[ebp]
	push	ecx
	call	??3@YAXPAX@Z				; operator delete
	add	esp, 4
$LN1@vector:
	mov	eax, DWORD PTR _this$[ebp]
$LN4@vector:
	mov	esp, ebp
	pop	ebp
	ret	4
??_ELogger@common@ibmras@@UAEPAXI@Z ENDP		; ibmras::common::Logger::`vector deleting destructor'
_TEXT	ENDS
PUBLIC	??4Lock@port@common@ibmras@@QAEAAV0123@ABV0123@@Z ; ibmras::common::port::Lock::operator=
; Function compile flags: /Odtp
;	COMDAT ??4Lock@port@common@ibmras@@QAEAAV0123@ABV0123@@Z
_TEXT	SEGMENT
_this$ = -4						; size = 4
___that$ = 8						; size = 4
??4Lock@port@common@ibmras@@QAEAAV0123@ABV0123@@Z PROC	; ibmras::common::port::Lock::operator=, COMDAT
; _this$ = ecx
	push	ebp
	mov	ebp, esp
	push	ecx
	mov	DWORD PTR _this$[ebp], ecx
	mov	eax, DWORD PTR ___that$[ebp]
	mov	ecx, DWORD PTR [eax]
	mov	edx, DWORD PTR _this$[ebp]
	mov	DWORD PTR [edx], ecx
	mov	eax, DWORD PTR _this$[ebp]
	mov	esp, ebp
	pop	ebp
	ret	4
??4Lock@port@common@ibmras@@QAEAAV0123@ABV0123@@Z ENDP	; ibmras::common::port::Lock::operator=
_TEXT	ENDS
PUBLIC	??1?$vector@PAVLogger@common@ibmras@@V?$allocator@PAVLogger@common@ibmras@@@std@@@std@@QAE@XZ ; std::vector<ibmras::common::Logger *,std::allocator<ibmras::common::Logger *> >::~vector<ibmras::common::Logger *,std::allocator<ibmras::common::Logger *> >
PUBLIC	??1LogManager@common@ibmras@@QAE@XZ		; ibmras::common::LogManager::~LogManager
; Function compile flags: /Odtp
;	COMDAT ??1LogManager@common@ibmras@@QAE@XZ
_TEXT	SEGMENT
_this$ = -4						; size = 4
??1LogManager@common@ibmras@@QAE@XZ PROC		; ibmras::common::LogManager::~LogManager, COMDAT
; _this$ = ecx
	push	ebp
	mov	ebp, esp
	push	ecx
	mov	DWORD PTR _this$[ebp], ecx
	mov	ecx, DWORD PTR _this$[ebp]
	add	ecx, 8
	call	??1?$vector@PAVLogger@common@ibmras@@V?$allocator@PAVLogger@common@ibmras@@@std@@@std@@QAE@XZ ; std::vector<ibmras::common::Logger *,std::allocator<ibmras::common::Logger *> >::~vector<ibmras::common::Logger *,std::allocator<ibmras::common::Logger *> >
	mov	esp, ebp
	pop	ebp
	ret	0
??1LogManager@common@ibmras@@QAE@XZ ENDP		; ibmras::common::LogManager::~LogManager
_TEXT	ENDS
PUBLIC	??0?$vector@PAVLogger@common@ibmras@@V?$allocator@PAVLogger@common@ibmras@@@std@@@std@@QAE@ABV01@@Z ; std::vector<ibmras::common::Logger *,std::allocator<ibmras::common::Logger *> >::vector<ibmras::common::Logger *,std::allocator<ibmras::common::Logger *> >
PUBLIC	??0LogManager@common@ibmras@@QAE@ABV012@@Z	; ibmras::common::LogManager::LogManager
; Function compile flags: /Odtp
;	COMDAT ??0LogManager@common@ibmras@@QAE@ABV012@@Z
_TEXT	SEGMENT
_this$ = -4						; size = 4
___that$ = 8						; size = 4
??0LogManager@common@ibmras@@QAE@ABV012@@Z PROC		; ibmras::common::LogManager::LogManager, COMDAT
; _this$ = ecx
	push	ebp
	mov	ebp, esp
	push	ecx
	mov	DWORD PTR _this$[ebp], ecx
	mov	eax, DWORD PTR _this$[ebp]
	mov	ecx, DWORD PTR ___that$[ebp]
	mov	edx, DWORD PTR [ecx]
	mov	DWORD PTR [eax], edx
	mov	eax, DWORD PTR _this$[ebp]
	mov	ecx, DWORD PTR ___that$[ebp]
	mov	dl, BYTE PTR [ecx+4]
	mov	BYTE PTR [eax+4], dl
	mov	eax, DWORD PTR ___that$[ebp]
	add	eax, 8
	push	eax
	mov	ecx, DWORD PTR _this$[ebp]
	add	ecx, 8
	call	??0?$vector@PAVLogger@common@ibmras@@V?$allocator@PAVLogger@common@ibmras@@@std@@@std@@QAE@ABV01@@Z ; std::vector<ibmras::common::Logger *,std::allocator<ibmras::common::Logger *> >::vector<ibmras::common::Logger *,std::allocator<ibmras::common::Logger *> >
	mov	ecx, DWORD PTR _this$[ebp]
	mov	edx, DWORD PTR ___that$[ebp]
	mov	eax, DWORD PTR [edx+24]
	mov	DWORD PTR [ecx+24], eax
	mov	eax, DWORD PTR _this$[ebp]
	mov	esp, ebp
	pop	ebp
	ret	4
??0LogManager@common@ibmras@@QAE@ABV012@@Z ENDP		; ibmras::common::LogManager::LogManager
_TEXT	ENDS
PUBLIC	??4?$vector@PAVLogger@common@ibmras@@V?$allocator@PAVLogger@common@ibmras@@@std@@@std@@QAEAAV01@ABV01@@Z ; std::vector<ibmras::common::Logger *,std::allocator<ibmras::common::Logger *> >::operator=
PUBLIC	??4LogManager@common@ibmras@@QAEAAV012@ABV012@@Z ; ibmras::common::LogManager::operator=
; Function compile flags: /Odtp
;	COMDAT ??4LogManager@common@ibmras@@QAEAAV012@ABV012@@Z
_TEXT	SEGMENT
_this$ = -4						; size = 4
___that$ = 8						; size = 4
??4LogManager@common@ibmras@@QAEAAV012@ABV012@@Z PROC	; ibmras::common::LogManager::operator=, COMDAT
; _this$ = ecx
	push	ebp
	mov	ebp, esp
	push	ecx
	mov	DWORD PTR _this$[ebp], ecx
	mov	eax, DWORD PTR _this$[ebp]
	mov	ecx, DWORD PTR ___that$[ebp]
	mov	edx, DWORD PTR [ecx]
	mov	DWORD PTR [eax], edx
	mov	eax, DWORD PTR _this$[ebp]
	mov	ecx, DWORD PTR ___that$[ebp]
	mov	dl, BYTE PTR [ecx+4]
	mov	BYTE PTR [eax+4], dl
	mov	eax, DWORD PTR ___that$[ebp]
	add	eax, 8
	push	eax
	mov	ecx, DWORD PTR _this$[ebp]
	add	ecx, 8
	call	??4?$vector@PAVLogger@common@ibmras@@V?$allocator@PAVLogger@common@ibmras@@@std@@@std@@QAEAAV01@ABV01@@Z ; std::vector<ibmras::common::Logger *,std::allocator<ibmras::common::Logger *> >::operator=
	mov	ecx, DWORD PTR _this$[ebp]
	mov	edx, DWORD PTR ___that$[ebp]
	mov	eax, DWORD PTR [edx+24]
	mov	DWORD PTR [ecx+24], eax
	mov	eax, DWORD PTR _this$[ebp]
	mov	esp, ebp
	pop	ebp
	ret	4
??4LogManager@common@ibmras@@QAEAAV012@ABV012@@Z ENDP	; ibmras::common::LogManager::operator=
_TEXT	ENDS
PUBLIC	??1?$basic_string@DU?$char_traits@D@std@@V?$allocator@D@2@@std@@QAE@XZ ; std::basic_string<char,std::char_traits<char>,std::allocator<char> >::~basic_string<char,std::char_traits<char>,std::allocator<char> >
PUBLIC	?getLogger@LogManager@common@ibmras@@SAPAVLogger@23@ABV?$basic_string@DU?$char_traits@D@std@@V?$allocator@D@2@@std@@@Z ; ibmras::common::LogManager::getLogger
PUBLIC	??0?$basic_string@DU?$char_traits@D@std@@V?$allocator@D@2@@std@@QAE@PBD@Z ; std::basic_string<char,std::char_traits<char>,std::allocator<char> >::basic_string<char,std::char_traits<char>,std::allocator<char> >
PUBLIC	__$ArrayPad$
PUBLIC	_ibmras_common_LogManager_getLogger
EXTRN	___security_cookie:DWORD
EXTRN	@__security_check_cookie@4:PROC
; Function compile flags: /Odtp
_TEXT	SEGMENT
$T38662 = -36						; size = 4
$T31889 = -32						; size = 28
__$ArrayPad$ = -4					; size = 4
_name$ = 8						; size = 4
_ibmras_common_LogManager_getLogger PROC
; File c:\workspaces\newagent2\runtime.tools\src\ibmras\common\logmanager.cpp
; Line 28
	push	ebp
	mov	ebp, esp
	sub	esp, 36					; 00000024H
	mov	eax, DWORD PTR ___security_cookie
	xor	eax, ebp
	mov	DWORD PTR __$ArrayPad$[ebp], eax
; Line 29
	mov	eax, DWORD PTR _name$[ebp]
	push	eax
	lea	ecx, DWORD PTR $T31889[ebp]
	call	??0?$basic_string@DU?$char_traits@D@std@@V?$allocator@D@2@@std@@QAE@PBD@Z ; std::basic_string<char,std::char_traits<char>,std::allocator<char> >::basic_string<char,std::char_traits<char>,std::allocator<char> >
	lea	ecx, DWORD PTR $T31889[ebp]
	push	ecx
	call	?getLogger@LogManager@common@ibmras@@SAPAVLogger@23@ABV?$basic_string@DU?$char_traits@D@std@@V?$allocator@D@2@@std@@@Z ; ibmras::common::LogManager::getLogger
	add	esp, 4
	mov	DWORD PTR $T38662[ebp], eax
	lea	ecx, DWORD PTR $T31889[ebp]
	call	??1?$basic_string@DU?$char_traits@D@std@@V?$allocator@D@2@@std@@QAE@XZ ; std::basic_string<char,std::char_traits<char>,std::allocator<char> >::~basic_string<char,std::char_traits<char>,std::allocator<char> >
	mov	eax, DWORD PTR $T38662[ebp]
; Line 30
	mov	ecx, DWORD PTR __$ArrayPad$[ebp]
	xor	ecx, ebp
	call	@__security_check_cookie@4
	mov	esp, ebp
	pop	ebp
	ret	0
_ibmras_common_LogManager_getLogger ENDP
_TEXT	ENDS
PUBLIC	??0?$vector@PAVLogger@common@ibmras@@V?$allocator@PAVLogger@common@ibmras@@@std@@@std@@QAE@XZ ; std::vector<ibmras::common::Logger *,std::allocator<ibmras::common::Logger *> >::vector<ibmras::common::Logger *,std::allocator<ibmras::common::Logger *> >
PUBLIC	??0LogManager@common@ibmras@@IAE@XZ		; ibmras::common::LogManager::LogManager
; Function compile flags: /Odtp
_TEXT	SEGMENT
_this$ = -4						; size = 4
??0LogManager@common@ibmras@@IAE@XZ PROC		; ibmras::common::LogManager::LogManager
; _this$ = ecx
; Line 41
	push	ebp
	mov	ebp, esp
	push	ecx
	mov	DWORD PTR _this$[ebp], ecx
	mov	eax, DWORD PTR _this$[ebp]
	mov	DWORD PTR [eax], 2
	mov	ecx, DWORD PTR _this$[ebp]
	mov	BYTE PTR [ecx+4], 1
	mov	ecx, DWORD PTR _this$[ebp]
	add	ecx, 8
	call	??0?$vector@PAVLogger@common@ibmras@@V?$allocator@PAVLogger@common@ibmras@@@std@@@std@@QAE@XZ ; std::vector<ibmras::common::Logger *,std::allocator<ibmras::common::Logger *> >::vector<ibmras::common::Logger *,std::allocator<ibmras::common::Logger *> >
	mov	edx, DWORD PTR _this$[ebp]
	mov	DWORD PTR [edx+24], 0
; Line 43
	mov	eax, DWORD PTR _this$[ebp]
	mov	esp, ebp
	pop	ebp
	ret	0
??0LogManager@common@ibmras@@IAE@XZ ENDP		; ibmras::common::LogManager::LogManager
_TEXT	ENDS
PUBLIC	??$?6U?$char_traits@D@std@@@std@@YAAAV?$basic_ostream@DU?$char_traits@D@std@@@0@AAV10@D@Z ; std::operator<<<std::char_traits<char> >
PUBLIC	??$?6DU?$char_traits@D@std@@V?$allocator@D@1@@std@@YAAAV?$basic_ostream@DU?$char_traits@D@std@@@0@AAV10@ABV?$basic_string@DU?$char_traits@D@std@@V?$allocator@D@2@@0@@Z ; std::operator<<<char,std::char_traits<char>,std::allocator<char> >
PUBLIC	?processMsg@LogManager@common@ibmras@@AAEXABV?$basic_string@DU?$char_traits@D@std@@V?$allocator@D@2@@std@@@Z ; ibmras::common::LogManager::processMsg
EXTRN	__imp_?flush@?$basic_ostream@DU?$char_traits@D@std@@@std@@QAEAAV12@XZ:PROC
EXTRN	__imp_?cerr@std@@3V?$basic_ostream@DU?$char_traits@D@std@@@1@A:BYTE
; Function compile flags: /Odtp
_TEXT	SEGMENT
_this$ = -4						; size = 4
_msg$ = 8						; size = 4
?processMsg@LogManager@common@ibmras@@AAEXABV?$basic_string@DU?$char_traits@D@std@@V?$allocator@D@2@@std@@@Z PROC ; ibmras::common::LogManager::processMsg
; _this$ = ecx
; Line 46
	push	ebp
	mov	ebp, esp
	push	ecx
	mov	DWORD PTR _this$[ebp], ecx
; Line 48
	mov	eax, DWORD PTR _this$[ebp]
	movzx	ecx, BYTE PTR [eax+4]
	test	ecx, ecx
	je	SHORT $LN4@processMsg
; Line 50
	cmp	DWORD PTR ?localLogFunc@LogManager@common@ibmras@@2P6APAXABV?$basic_string@DU?$char_traits@D@std@@V?$allocator@D@2@@std@@@ZA, 0 ; ibmras::common::LogManager::localLogFunc
	je	SHORT $LN2@processMsg
; Line 51
	mov	edx, DWORD PTR _msg$[ebp]
	push	edx
	call	DWORD PTR ?localLogFunc@LogManager@common@ibmras@@2P6APAXABV?$basic_string@DU?$char_traits@D@std@@V?$allocator@D@2@@std@@@ZA ; ibmras::common::LogManager::localLogFunc
	add	esp, 4
; Line 52
	jmp	SHORT $LN4@processMsg
$LN2@processMsg:
; Line 53
	push	10					; 0000000aH
	mov	eax, DWORD PTR _msg$[ebp]
	push	eax
	mov	ecx, DWORD PTR __imp_?cerr@std@@3V?$basic_ostream@DU?$char_traits@D@std@@@1@A
	push	ecx
	call	??$?6DU?$char_traits@D@std@@V?$allocator@D@1@@std@@YAAAV?$basic_ostream@DU?$char_traits@D@std@@@0@AAV10@ABV?$basic_string@DU?$char_traits@D@std@@V?$allocator@D@2@@0@@Z ; std::operator<<<char,std::char_traits<char>,std::allocator<char> >
	add	esp, 8
	push	eax
	call	??$?6U?$char_traits@D@std@@@std@@YAAAV?$basic_ostream@DU?$char_traits@D@std@@@0@AAV10@D@Z ; std::operator<<<std::char_traits<char> >
	add	esp, 8
; Line 54
	mov	ecx, DWORD PTR __imp_?cerr@std@@3V?$basic_ostream@DU?$char_traits@D@std@@@1@A
	call	DWORD PTR __imp_?flush@?$basic_ostream@DU?$char_traits@D@std@@@std@@QAEAAV12@XZ
$LN4@processMsg:
; Line 59
	mov	esp, ebp
	pop	ebp
	ret	4
?processMsg@LogManager@common@ibmras@@AAEXABV?$basic_string@DU?$char_traits@D@std@@V?$allocator@D@2@@std@@@Z ENDP ; ibmras::common::LogManager::processMsg
_TEXT	ENDS
PUBLIC	?msgHandler@LogManager@common@ibmras@@SAXABV?$basic_string@DU?$char_traits@D@std@@V?$allocator@D@2@@std@@W4Level@logging@23@PAVLogger@23@@Z ; ibmras::common::LogManager::msgHandler
; Function compile flags: /Odtp
_TEXT	SEGMENT
_message$ = 8						; size = 4
_level$ = 12						; size = 4
_logger$ = 16						; size = 4
?msgHandler@LogManager@common@ibmras@@SAXABV?$basic_string@DU?$char_traits@D@std@@V?$allocator@D@2@@std@@W4Level@logging@23@PAVLogger@23@@Z PROC ; ibmras::common::LogManager::msgHandler
; Line 62
	push	ebp
	mov	ebp, esp
; Line 65
	mov	eax, DWORD PTR _logger$[ebp]
	mov	ecx, DWORD PTR [eax+4]
	cmp	ecx, DWORD PTR _level$[ebp]
	jge	SHORT $LN1@msgHandler
	mov	edx, DWORD PTR ?instance@LogManager@common@ibmras@@0PAV123@A ; ibmras::common::LogManager::instance
	mov	eax, DWORD PTR [edx]
	cmp	eax, DWORD PTR _level$[ebp]
	jl	SHORT $LN3@msgHandler
$LN1@msgHandler:
; Line 66
	mov	ecx, DWORD PTR _message$[ebp]
	push	ecx
	mov	ecx, DWORD PTR ?instance@LogManager@common@ibmras@@0PAV123@A ; ibmras::common::LogManager::instance
	call	?processMsg@LogManager@common@ibmras@@AAEXABV?$basic_string@DU?$char_traits@D@std@@V?$allocator@D@2@@std@@@Z ; ibmras::common::LogManager::processMsg
$LN3@msgHandler:
; Line 68
	pop	ebp
	ret	0
?msgHandler@LogManager@common@ibmras@@SAXABV?$basic_string@DU?$char_traits@D@std@@V?$allocator@D@2@@std@@W4Level@logging@23@PAVLogger@23@@Z ENDP ; ibmras::common::LogManager::msgHandler
_TEXT	ENDS
PUBLIC	??D?$_Vector_iterator@V?$_Vector_val@PAVLogger@common@ibmras@@V?$allocator@PAVLogger@common@ibmras@@@std@@@std@@@std@@QBEAAPAVLogger@common@ibmras@@XZ ; std::_Vector_iterator<std::_Vector_val<ibmras::common::Logger *,std::allocator<ibmras::common::Logger *> > >::operator*
PUBLIC	??9?$_Vector_const_iterator@V?$_Vector_val@PAVLogger@common@ibmras@@V?$allocator@PAVLogger@common@ibmras@@@std@@@std@@@std@@QBE_NABV01@@Z ; std::_Vector_const_iterator<std::_Vector_val<ibmras::common::Logger *,std::allocator<ibmras::common::Logger *> > >::operator!=
PUBLIC	?end@?$vector@PAVLogger@common@ibmras@@V?$allocator@PAVLogger@common@ibmras@@@std@@@std@@QAE?AV?$_Vector_iterator@V?$_Vector_val@PAVLogger@common@ibmras@@V?$allocator@PAVLogger@common@ibmras@@@std@@@std@@@2@XZ ; std::vector<ibmras::common::Logger *,std::allocator<ibmras::common::Logger *> >::end
PUBLIC	??E?$_Vector_iterator@V?$_Vector_val@PAVLogger@common@ibmras@@V?$allocator@PAVLogger@common@ibmras@@@std@@@std@@@std@@QAEAAV01@XZ ; std::_Vector_iterator<std::_Vector_val<ibmras::common::Logger *,std::allocator<ibmras::common::Logger *> > >::operator++
PUBLIC	?begin@?$vector@PAVLogger@common@ibmras@@V?$allocator@PAVLogger@common@ibmras@@@std@@@std@@QAE?AV?$_Vector_iterator@V?$_Vector_val@PAVLogger@common@ibmras@@V?$allocator@PAVLogger@common@ibmras@@@std@@@std@@@2@XZ ; std::vector<ibmras::common::Logger *,std::allocator<ibmras::common::Logger *> >::begin
PUBLIC	?setLevel@LogManager@common@ibmras@@QAEXW4Level@logging@23@@Z ; ibmras::common::LogManager::setLevel
; Function compile flags: /Odtp
_TEXT	SEGMENT
_this$ = -12						; size = 4
$T38670 = -8						; size = 4
_i$32191 = -4						; size = 4
_newlevel$ = 8						; size = 4
?setLevel@LogManager@common@ibmras@@QAEXW4Level@logging@23@@Z PROC ; ibmras::common::LogManager::setLevel
; _this$ = ecx
; Line 70
	push	ebp
	mov	ebp, esp
	sub	esp, 12					; 0000000cH
	mov	DWORD PTR _this$[ebp], ecx
; Line 71
	mov	eax, DWORD PTR _this$[ebp]
	mov	ecx, DWORD PTR _newlevel$[ebp]
	mov	DWORD PTR [eax], ecx
; Line 72
	lea	edx, DWORD PTR _i$32191[ebp]
	push	edx
	mov	ecx, DWORD PTR _this$[ebp]
	add	ecx, 8
	call	?begin@?$vector@PAVLogger@common@ibmras@@V?$allocator@PAVLogger@common@ibmras@@@std@@@std@@QAE?AV?$_Vector_iterator@V?$_Vector_val@PAVLogger@common@ibmras@@V?$allocator@PAVLogger@common@ibmras@@@std@@@std@@@2@XZ ; std::vector<ibmras::common::Logger *,std::allocator<ibmras::common::Logger *> >::begin
	jmp	SHORT $LN4@setLevel
$LN3@setLevel:
; Line 73
	lea	ecx, DWORD PTR _i$32191[ebp]
	call	??E?$_Vector_iterator@V?$_Vector_val@PAVLogger@common@ibmras@@V?$allocator@PAVLogger@common@ibmras@@@std@@@std@@@std@@QAEAAV01@XZ ; std::_Vector_iterator<std::_Vector_val<ibmras::common::Logger *,std::allocator<ibmras::common::Logger *> > >::operator++
$LN4@setLevel:
	lea	eax, DWORD PTR $T38670[ebp]
	push	eax
	mov	ecx, DWORD PTR _this$[ebp]
	add	ecx, 8
	call	?end@?$vector@PAVLogger@common@ibmras@@V?$allocator@PAVLogger@common@ibmras@@@std@@@std@@QAE?AV?$_Vector_iterator@V?$_Vector_val@PAVLogger@common@ibmras@@V?$allocator@PAVLogger@common@ibmras@@@std@@@std@@@2@XZ ; std::vector<ibmras::common::Logger *,std::allocator<ibmras::common::Logger *> >::end
	push	eax
	lea	ecx, DWORD PTR _i$32191[ebp]
	call	??9?$_Vector_const_iterator@V?$_Vector_val@PAVLogger@common@ibmras@@V?$allocator@PAVLogger@common@ibmras@@@std@@@std@@@std@@QBE_NABV01@@Z ; std::_Vector_const_iterator<std::_Vector_val<ibmras::common::Logger *,std::allocator<ibmras::common::Logger *> > >::operator!=
	movzx	ecx, al
	test	ecx, ecx
	je	SHORT $LN5@setLevel
; Line 74
	lea	ecx, DWORD PTR _i$32191[ebp]
	call	??D?$_Vector_iterator@V?$_Vector_val@PAVLogger@common@ibmras@@V?$allocator@PAVLogger@common@ibmras@@@std@@@std@@@std@@QBEAAPAVLogger@common@ibmras@@XZ ; std::_Vector_iterator<std::_Vector_val<ibmras::common::Logger *,std::allocator<ibmras::common::Logger *> > >::operator*
	mov	edx, DWORD PTR [eax]
	mov	eax, DWORD PTR _this$[ebp]
	mov	ecx, DWORD PTR [edx+4]
	cmp	ecx, DWORD PTR [eax]
	jg	SHORT $LN1@setLevel
; Line 75
	lea	ecx, DWORD PTR _i$32191[ebp]
	call	??D?$_Vector_iterator@V?$_Vector_val@PAVLogger@common@ibmras@@V?$allocator@PAVLogger@common@ibmras@@@std@@@std@@@std@@QBEAAPAVLogger@common@ibmras@@XZ ; std::_Vector_iterator<std::_Vector_val<ibmras::common::Logger *,std::allocator<ibmras::common::Logger *> > >::operator*
	mov	edx, DWORD PTR [eax]
	mov	eax, DWORD PTR _this$[ebp]
	mov	ecx, DWORD PTR [eax]
	mov	DWORD PTR [edx+4], ecx
$LN1@setLevel:
; Line 77
	jmp	SHORT $LN3@setLevel
$LN5@setLevel:
; Line 78
	mov	esp, ebp
	pop	ebp
	ret	4
?setLevel@LogManager@common@ibmras@@QAEXW4Level@logging@23@@Z ENDP ; ibmras::common::LogManager::setLevel
_TEXT	ENDS
PUBLIC	?compare@?$basic_string@DU?$char_traits@D@std@@V?$allocator@D@2@@std@@QBEHPBD@Z ; std::basic_string<char,std::char_traits<char>,std::allocator<char> >::compare
PUBLIC	?setLevel@LogManager@common@ibmras@@QAEXABV?$basic_string@DU?$char_traits@D@std@@V?$allocator@D@2@@std@@W4Level@logging@23@@Z ; ibmras::common::LogManager::setLevel
; Function compile flags: /Odtp
_TEXT	SEGMENT
_this$ = -8						; size = 4
_logger$32222 = -4					; size = 4
_name$ = 8						; size = 4
_newlevel$ = 12						; size = 4
?setLevel@LogManager@common@ibmras@@QAEXABV?$basic_string@DU?$char_traits@D@std@@V?$allocator@D@2@@std@@W4Level@logging@23@@Z PROC ; ibmras::common::LogManager::setLevel
; _this$ = ecx
; Line 80
	push	ebp
	mov	ebp, esp
	sub	esp, 8
	mov	DWORD PTR _this$[ebp], ecx
; Line 81
	push	OFFSET $SG32220
	mov	ecx, DWORD PTR _name$[ebp]
	call	?compare@?$basic_string@DU?$char_traits@D@std@@V?$allocator@D@2@@std@@QBEHPBD@Z ; std::basic_string<char,std::char_traits<char>,std::allocator<char> >::compare
	test	eax, eax
	jne	SHORT $LN4@setLevel@2
; Line 82
	mov	eax, DWORD PTR _newlevel$[ebp]
	push	eax
	mov	ecx, DWORD PTR _this$[ebp]
	call	?setLevel@LogManager@common@ibmras@@QAEXW4Level@logging@23@@Z ; ibmras::common::LogManager::setLevel
; Line 83
	jmp	SHORT $LN5@setLevel@2
$LN4@setLevel@2:
; Line 84
	mov	ecx, DWORD PTR _name$[ebp]
	push	ecx
	call	?getLogger@LogManager@common@ibmras@@SAPAVLogger@23@ABV?$basic_string@DU?$char_traits@D@std@@V?$allocator@D@2@@std@@@Z ; ibmras::common::LogManager::getLogger
	add	esp, 4
	mov	DWORD PTR _logger$32222[ebp], eax
; Line 85
	mov	edx, DWORD PTR _this$[ebp]
	mov	eax, DWORD PTR [edx]
	cmp	eax, DWORD PTR _newlevel$[ebp]
	jle	SHORT $LN2@setLevel@2
; Line 86
	mov	ecx, DWORD PTR _logger$32222[ebp]
	mov	edx, DWORD PTR _this$[ebp]
	mov	eax, DWORD PTR [edx]
	mov	DWORD PTR [ecx+4], eax
; Line 87
	jmp	SHORT $LN1@setLevel@2
$LN2@setLevel@2:
; Line 88
	mov	ecx, DWORD PTR _logger$32222[ebp]
	mov	edx, DWORD PTR _newlevel$[ebp]
	mov	DWORD PTR [ecx+4], edx
$LN1@setLevel@2:
; Line 90
	mov	eax, DWORD PTR _logger$32222[ebp]
	mov	ecx, DWORD PTR _newlevel$[ebp]
	mov	DWORD PTR [eax+8], ecx
$LN5@setLevel@2:
; Line 92
	mov	esp, ebp
	pop	ebp
	ret	8
?setLevel@LogManager@common@ibmras@@QAEXABV?$basic_string@DU?$char_traits@D@std@@V?$allocator@D@2@@std@@W4Level@logging@23@@Z ENDP ; ibmras::common::LogManager::setLevel
_TEXT	ENDS
PUBLIC	?getInstance@LogManager@common@ibmras@@SAPAV123@XZ ; ibmras::common::LogManager::getInstance
EXTRN	??0Lock@port@common@ibmras@@QAE@XZ:PROC		; ibmras::common::port::Lock::Lock
EXTRN	??2@YAPAXI@Z:PROC				; operator new
EXTRN	___CxxFrameHandler3:PROC
xdata$x	SEGMENT
__unwindtable$?getInstance@LogManager@common@ibmras@@SAPAV123@XZ DD 0ffffffffH
	DD	FLAT:__unwindfunclet$?getInstance@LogManager@common@ibmras@@SAPAV123@XZ$0
	DD	0ffffffffH
	DD	FLAT:__unwindfunclet$?getInstance@LogManager@common@ibmras@@SAPAV123@XZ$1
__ehfuncinfo$?getInstance@LogManager@common@ibmras@@SAPAV123@XZ DD 019930522H
	DD	02H
	DD	FLAT:__unwindtable$?getInstance@LogManager@common@ibmras@@SAPAV123@XZ
	DD	2 DUP(00H)
	DD	2 DUP(00H)
	DD	00H
	DD	01H
; Function compile flags: /Odtp
xdata$x	ENDS
_TEXT	SEGMENT
tv80 = -36						; size = 4
tv72 = -32						; size = 4
$T38678 = -28						; size = 4
$T38677 = -24						; size = 4
$T38674 = -20						; size = 4
$T38673 = -16						; size = 4
__$EHRec$ = -12						; size = 12
?getInstance@LogManager@common@ibmras@@SAPAV123@XZ PROC	; ibmras::common::LogManager::getInstance
; Line 94
	push	ebp
	mov	ebp, esp
	push	-1
	push	__ehhandler$?getInstance@LogManager@common@ibmras@@SAPAV123@XZ
	mov	eax, DWORD PTR fs:0
	push	eax
	sub	esp, 24					; 00000018H
	mov	eax, DWORD PTR ___security_cookie
	xor	eax, ebp
	push	eax
	lea	eax, DWORD PTR __$EHRec$[ebp]
	mov	DWORD PTR fs:0, eax
; Line 95
	cmp	DWORD PTR ?instance@LogManager@common@ibmras@@0PAV123@A, 0 ; ibmras::common::LogManager::instance
	jne	$LN1@getInstanc
; Line 96
	push	28					; 0000001cH
	call	??2@YAPAXI@Z				; operator new
	add	esp, 4
	mov	DWORD PTR $T38674[ebp], eax
	mov	DWORD PTR __$EHRec$[ebp+8], 0
	cmp	DWORD PTR $T38674[ebp], 0
	je	SHORT $LN4@getInstanc
	mov	ecx, DWORD PTR $T38674[ebp]
	call	??0LogManager@common@ibmras@@IAE@XZ	; ibmras::common::LogManager::LogManager
	mov	DWORD PTR tv72[ebp], eax
	jmp	SHORT $LN5@getInstanc
$LN4@getInstanc:
	mov	DWORD PTR tv72[ebp], 0
$LN5@getInstanc:
	mov	eax, DWORD PTR tv72[ebp]
	mov	DWORD PTR $T38673[ebp], eax
	mov	DWORD PTR __$EHRec$[ebp+8], -1
	mov	ecx, DWORD PTR $T38673[ebp]
	mov	DWORD PTR ?instance@LogManager@common@ibmras@@0PAV123@A, ecx ; ibmras::common::LogManager::instance
; Line 97
	push	4
	call	??2@YAPAXI@Z				; operator new
	add	esp, 4
	mov	DWORD PTR $T38678[ebp], eax
	mov	DWORD PTR __$EHRec$[ebp+8], 1
	cmp	DWORD PTR $T38678[ebp], 0
	je	SHORT $LN6@getInstanc
	mov	ecx, DWORD PTR $T38678[ebp]
	call	??0Lock@port@common@ibmras@@QAE@XZ	; ibmras::common::port::Lock::Lock
	mov	DWORD PTR tv80[ebp], eax
	jmp	SHORT $LN7@getInstanc
$LN6@getInstanc:
	mov	DWORD PTR tv80[ebp], 0
$LN7@getInstanc:
	mov	edx, DWORD PTR tv80[ebp]
	mov	DWORD PTR $T38677[ebp], edx
	mov	DWORD PTR __$EHRec$[ebp+8], -1
	mov	eax, DWORD PTR ?instance@LogManager@common@ibmras@@0PAV123@A ; ibmras::common::LogManager::instance
	mov	ecx, DWORD PTR $T38677[ebp]
	mov	DWORD PTR [eax+24], ecx
$LN1@getInstanc:
; Line 99
	mov	eax, DWORD PTR ?instance@LogManager@common@ibmras@@0PAV123@A ; ibmras::common::LogManager::instance
; Line 100
	mov	ecx, DWORD PTR __$EHRec$[ebp]
	mov	DWORD PTR fs:0, ecx
	pop	ecx
	mov	esp, ebp
	pop	ebp
	ret	0
_TEXT	ENDS
text$x	SEGMENT
__unwindfunclet$?getInstance@LogManager@common@ibmras@@SAPAV123@XZ$0:
	mov	eax, DWORD PTR $T38674[ebp]
	push	eax
	call	??3@YAXPAX@Z				; operator delete
	pop	ecx
	ret	0
__unwindfunclet$?getInstance@LogManager@common@ibmras@@SAPAV123@XZ$1:
	mov	eax, DWORD PTR $T38678[ebp]
	push	eax
	call	??3@YAXPAX@Z				; operator delete
	pop	ecx
	ret	0
__ehhandler$?getInstance@LogManager@common@ibmras@@SAPAV123@XZ:
	mov	edx, DWORD PTR [esp+8]
	lea	eax, DWORD PTR [edx+12]
	mov	ecx, DWORD PTR [edx-28]
	xor	ecx, eax
	call	@__security_check_cookie@4
	mov	eax, OFFSET __ehfuncinfo$?getInstance@LogManager@common@ibmras@@SAPAV123@XZ
	jmp	___CxxFrameHandler3
text$x	ENDS
?getInstance@LogManager@common@ibmras@@SAPAV123@XZ ENDP	; ibmras::common::LogManager::getInstance
PUBLIC	?push_back@?$vector@PAVLogger@common@ibmras@@V?$allocator@PAVLogger@common@ibmras@@@std@@@std@@QAEXABQAVLogger@common@ibmras@@@Z ; std::vector<ibmras::common::Logger *,std::allocator<ibmras::common::Logger *> >::push_back
PUBLIC	?findLogger@LogManager@common@ibmras@@AAEPAVLogger@23@ABV?$basic_string@DU?$char_traits@D@std@@V?$allocator@D@2@@std@@@Z ; ibmras::common::LogManager::findLogger
EXTRN	??0Logger@common@ibmras@@QAE@ABV?$basic_string@DU?$char_traits@D@std@@V?$allocator@D@2@@std@@P6AX0W4Level@logging@12@PAV012@@Z@Z:PROC ; ibmras::common::Logger::Logger
xdata$x	SEGMENT
__unwindtable$?getLogger@LogManager@common@ibmras@@SAPAVLogger@23@ABV?$basic_string@DU?$char_traits@D@std@@V?$allocator@D@2@@std@@@Z DD 0ffffffffH
	DD	FLAT:__unwindfunclet$?getLogger@LogManager@common@ibmras@@SAPAVLogger@23@ABV?$basic_string@DU?$char_traits@D@std@@V?$allocator@D@2@@std@@@Z$0
__ehfuncinfo$?getLogger@LogManager@common@ibmras@@SAPAVLogger@23@ABV?$basic_string@DU?$char_traits@D@std@@V?$allocator@D@2@@std@@@Z DD 019930522H
	DD	01H
	DD	FLAT:__unwindtable$?getLogger@LogManager@common@ibmras@@SAPAVLogger@23@ABV?$basic_string@DU?$char_traits@D@std@@V?$allocator@D@2@@std@@@Z
	DD	2 DUP(00H)
	DD	2 DUP(00H)
	DD	00H
	DD	01H
; Function compile flags: /Odtp
xdata$x	ENDS
_TEXT	SEGMENT
tv78 = -32						; size = 4
$T38692 = -28						; size = 4
$T38691 = -24						; size = 4
_logger$ = -20						; size = 4
_instance$ = -16					; size = 4
__$EHRec$ = -12						; size = 12
_name$ = 8						; size = 4
?getLogger@LogManager@common@ibmras@@SAPAVLogger@23@ABV?$basic_string@DU?$char_traits@D@std@@V?$allocator@D@2@@std@@@Z PROC ; ibmras::common::LogManager::getLogger
; Line 102
	push	ebp
	mov	ebp, esp
	push	-1
	push	__ehhandler$?getLogger@LogManager@common@ibmras@@SAPAVLogger@23@ABV?$basic_string@DU?$char_traits@D@std@@V?$allocator@D@2@@std@@@Z
	mov	eax, DWORD PTR fs:0
	push	eax
	sub	esp, 20					; 00000014H
	mov	eax, DWORD PTR ___security_cookie
	xor	eax, ebp
	push	eax
	lea	eax, DWORD PTR __$EHRec$[ebp]
	mov	DWORD PTR fs:0, eax
; Line 103
	call	?getInstance@LogManager@common@ibmras@@SAPAV123@XZ ; ibmras::common::LogManager::getInstance
	mov	DWORD PTR _instance$[ebp], eax
; Line 104
	mov	eax, DWORD PTR _name$[ebp]
	push	eax
	mov	ecx, DWORD PTR _instance$[ebp]
	call	?findLogger@LogManager@common@ibmras@@AAEPAVLogger@23@ABV?$basic_string@DU?$char_traits@D@std@@V?$allocator@D@2@@std@@@Z ; ibmras::common::LogManager::findLogger
	mov	DWORD PTR _logger$[ebp], eax
; Line 105
	cmp	DWORD PTR _logger$[ebp], 0
	jne	SHORT $LN1@getLogger
; Line 106
	push	44					; 0000002cH
	call	??2@YAPAXI@Z				; operator new
	add	esp, 4
	mov	DWORD PTR $T38692[ebp], eax
	mov	DWORD PTR __$EHRec$[ebp+8], 0
	cmp	DWORD PTR $T38692[ebp], 0
	je	SHORT $LN4@getLogger
	push	OFFSET ?msgHandler@LogManager@common@ibmras@@SAXABV?$basic_string@DU?$char_traits@D@std@@V?$allocator@D@2@@std@@W4Level@logging@23@PAVLogger@23@@Z ; ibmras::common::LogManager::msgHandler
	mov	ecx, DWORD PTR _name$[ebp]
	push	ecx
	mov	ecx, DWORD PTR $T38692[ebp]
	call	??0Logger@common@ibmras@@QAE@ABV?$basic_string@DU?$char_traits@D@std@@V?$allocator@D@2@@std@@P6AX0W4Level@logging@12@PAV012@@Z@Z ; ibmras::common::Logger::Logger
	mov	DWORD PTR tv78[ebp], eax
	jmp	SHORT $LN5@getLogger
$LN4@getLogger:
	mov	DWORD PTR tv78[ebp], 0
$LN5@getLogger:
	mov	edx, DWORD PTR tv78[ebp]
	mov	DWORD PTR $T38691[ebp], edx
	mov	DWORD PTR __$EHRec$[ebp+8], -1
	mov	eax, DWORD PTR $T38691[ebp]
	mov	DWORD PTR _logger$[ebp], eax
; Line 107
	lea	ecx, DWORD PTR _logger$[ebp]
	push	ecx
	mov	ecx, DWORD PTR _instance$[ebp]
	add	ecx, 8
	call	?push_back@?$vector@PAVLogger@common@ibmras@@V?$allocator@PAVLogger@common@ibmras@@@std@@@std@@QAEXABQAVLogger@common@ibmras@@@Z ; std::vector<ibmras::common::Logger *,std::allocator<ibmras::common::Logger *> >::push_back
$LN1@getLogger:
; Line 110
	mov	eax, DWORD PTR _logger$[ebp]
; Line 111
	mov	ecx, DWORD PTR __$EHRec$[ebp]
	mov	DWORD PTR fs:0, ecx
	pop	ecx
	mov	esp, ebp
	pop	ebp
	ret	0
_TEXT	ENDS
text$x	SEGMENT
__unwindfunclet$?getLogger@LogManager@common@ibmras@@SAPAVLogger@23@ABV?$basic_string@DU?$char_traits@D@std@@V?$allocator@D@2@@std@@@Z$0:
	mov	eax, DWORD PTR $T38692[ebp]
	push	eax
	call	??3@YAXPAX@Z				; operator delete
	pop	ecx
	ret	0
__ehhandler$?getLogger@LogManager@common@ibmras@@SAPAVLogger@23@ABV?$basic_string@DU?$char_traits@D@std@@V?$allocator@D@2@@std@@@Z:
	mov	edx, DWORD PTR [esp+8]
	lea	eax, DWORD PTR [edx+12]
	mov	ecx, DWORD PTR [edx-24]
	xor	ecx, eax
	call	@__security_check_cookie@4
	mov	eax, OFFSET __ehfuncinfo$?getLogger@LogManager@common@ibmras@@SAPAVLogger@23@ABV?$basic_string@DU?$char_traits@D@std@@V?$allocator@D@2@@std@@@Z
	jmp	___CxxFrameHandler3
text$x	ENDS
?getLogger@LogManager@common@ibmras@@SAPAVLogger@23@ABV?$basic_string@DU?$char_traits@D@std@@V?$allocator@D@2@@std@@@Z ENDP ; ibmras::common::LogManager::getLogger
PUBLIC	?setLevel@LogManager@common@ibmras@@QAEXABV?$basic_string@DU?$char_traits@D@std@@V?$allocator@D@2@@std@@0@Z ; ibmras::common::LogManager::setLevel
; Function compile flags: /Odtp
_TEXT	SEGMENT
_this$ = -8						; size = 4
_lev$ = -4						; size = 4
_name$ = 8						; size = 4
_value$ = 12						; size = 4
?setLevel@LogManager@common@ibmras@@QAEXABV?$basic_string@DU?$char_traits@D@std@@V?$allocator@D@2@@std@@0@Z PROC ; ibmras::common::LogManager::setLevel
; _this$ = ecx
; Line 113
	push	ebp
	mov	ebp, esp
	sub	esp, 8
	mov	DWORD PTR _this$[ebp], ecx
; Line 114
	mov	DWORD PTR _lev$[ebp], 0
; Line 115
	push	OFFSET $SG32253
	mov	ecx, DWORD PTR _value$[ebp]
	call	?compare@?$basic_string@DU?$char_traits@D@std@@V?$allocator@D@2@@std@@QBEHPBD@Z ; std::basic_string<char,std::char_traits<char>,std::allocator<char> >::compare
	test	eax, eax
	jne	SHORT $LN10@setLevel@3
; Line 116
	mov	DWORD PTR _lev$[ebp], 1
	jmp	SHORT $LN9@setLevel@3
$LN10@setLevel@3:
; Line 117
	push	OFFSET $SG32256
	mov	ecx, DWORD PTR _value$[ebp]
	call	?compare@?$basic_string@DU?$char_traits@D@std@@V?$allocator@D@2@@std@@QBEHPBD@Z ; std::basic_string<char,std::char_traits<char>,std::allocator<char> >::compare
	test	eax, eax
	jne	SHORT $LN8@setLevel@3
; Line 118
	mov	DWORD PTR _lev$[ebp], 2
	jmp	SHORT $LN9@setLevel@3
$LN8@setLevel@3:
; Line 119
	push	OFFSET $SG32259
	mov	ecx, DWORD PTR _value$[ebp]
	call	?compare@?$basic_string@DU?$char_traits@D@std@@V?$allocator@D@2@@std@@QBEHPBD@Z ; std::basic_string<char,std::char_traits<char>,std::allocator<char> >::compare
	test	eax, eax
	jne	SHORT $LN6@setLevel@3
; Line 120
	mov	DWORD PTR _lev$[ebp], 3
	jmp	SHORT $LN9@setLevel@3
$LN6@setLevel@3:
; Line 121
	push	OFFSET $SG32262
	mov	ecx, DWORD PTR _value$[ebp]
	call	?compare@?$basic_string@DU?$char_traits@D@std@@V?$allocator@D@2@@std@@QBEHPBD@Z ; std::basic_string<char,std::char_traits<char>,std::allocator<char> >::compare
	test	eax, eax
	jne	SHORT $LN4@setLevel@3
; Line 122
	mov	DWORD PTR _lev$[ebp], 4
	jmp	SHORT $LN9@setLevel@3
$LN4@setLevel@3:
; Line 123
	push	OFFSET $SG32265
	mov	ecx, DWORD PTR _value$[ebp]
	call	?compare@?$basic_string@DU?$char_traits@D@std@@V?$allocator@D@2@@std@@QBEHPBD@Z ; std::basic_string<char,std::char_traits<char>,std::allocator<char> >::compare
	test	eax, eax
	jne	SHORT $LN2@setLevel@3
; Line 124
	mov	DWORD PTR _lev$[ebp], 5
; Line 125
	jmp	SHORT $LN9@setLevel@3
$LN2@setLevel@3:
; Line 126
	mov	DWORD PTR _lev$[ebp], 0
$LN9@setLevel@3:
; Line 128
	mov	eax, DWORD PTR _lev$[ebp]
	push	eax
	mov	ecx, DWORD PTR _name$[ebp]
	push	ecx
	mov	ecx, DWORD PTR _this$[ebp]
	call	?setLevel@LogManager@common@ibmras@@QAEXABV?$basic_string@DU?$char_traits@D@std@@V?$allocator@D@2@@std@@W4Level@logging@23@@Z ; ibmras::common::LogManager::setLevel
; Line 129
	mov	esp, ebp
	pop	ebp
	ret	8
?setLevel@LogManager@common@ibmras@@QAEXABV?$basic_string@DU?$char_traits@D@std@@V?$allocator@D@2@@std@@0@Z ENDP ; ibmras::common::LogManager::setLevel
_TEXT	ENDS
PUBLIC	??$?8DU?$char_traits@D@std@@V?$allocator@D@1@@std@@YA_NABV?$basic_string@DU?$char_traits@D@std@@V?$allocator@D@2@@0@0@Z ; std::operator==<char,std::char_traits<char>,std::allocator<char> >
; Function compile flags: /Odtp
_TEXT	SEGMENT
_this$ = -12						; size = 4
$T38702 = -8						; size = 4
_i$32275 = -4						; size = 4
_name$ = 8						; size = 4
?findLogger@LogManager@common@ibmras@@AAEPAVLogger@23@ABV?$basic_string@DU?$char_traits@D@std@@V?$allocator@D@2@@std@@@Z PROC ; ibmras::common::LogManager::findLogger
; _this$ = ecx
; Line 131
	push	ebp
	mov	ebp, esp
	sub	esp, 12					; 0000000cH
	mov	DWORD PTR _this$[ebp], ecx
; Line 133
	lea	eax, DWORD PTR _i$32275[ebp]
	push	eax
	mov	ecx, DWORD PTR _this$[ebp]
	add	ecx, 8
	call	?begin@?$vector@PAVLogger@common@ibmras@@V?$allocator@PAVLogger@common@ibmras@@@std@@@std@@QAE?AV?$_Vector_iterator@V?$_Vector_val@PAVLogger@common@ibmras@@V?$allocator@PAVLogger@common@ibmras@@@std@@@std@@@2@XZ ; std::vector<ibmras::common::Logger *,std::allocator<ibmras::common::Logger *> >::begin
	jmp	SHORT $LN4@findLogger
$LN3@findLogger:
; Line 134
	lea	ecx, DWORD PTR _i$32275[ebp]
	call	??E?$_Vector_iterator@V?$_Vector_val@PAVLogger@common@ibmras@@V?$allocator@PAVLogger@common@ibmras@@@std@@@std@@@std@@QAEAAV01@XZ ; std::_Vector_iterator<std::_Vector_val<ibmras::common::Logger *,std::allocator<ibmras::common::Logger *> > >::operator++
$LN4@findLogger:
	lea	ecx, DWORD PTR $T38702[ebp]
	push	ecx
	mov	ecx, DWORD PTR _this$[ebp]
	add	ecx, 8
	call	?end@?$vector@PAVLogger@common@ibmras@@V?$allocator@PAVLogger@common@ibmras@@@std@@@std@@QAE?AV?$_Vector_iterator@V?$_Vector_val@PAVLogger@common@ibmras@@V?$allocator@PAVLogger@common@ibmras@@@std@@@std@@@2@XZ ; std::vector<ibmras::common::Logger *,std::allocator<ibmras::common::Logger *> >::end
	push	eax
	lea	ecx, DWORD PTR _i$32275[ebp]
	call	??9?$_Vector_const_iterator@V?$_Vector_val@PAVLogger@common@ibmras@@V?$allocator@PAVLogger@common@ibmras@@@std@@@std@@@std@@QBE_NABV01@@Z ; std::_Vector_const_iterator<std::_Vector_val<ibmras::common::Logger *,std::allocator<ibmras::common::Logger *> > >::operator!=
	movzx	edx, al
	test	edx, edx
	je	SHORT $LN2@findLogger
; Line 135
	mov	eax, DWORD PTR _name$[ebp]
	push	eax
	lea	ecx, DWORD PTR _i$32275[ebp]
	call	??D?$_Vector_iterator@V?$_Vector_val@PAVLogger@common@ibmras@@V?$allocator@PAVLogger@common@ibmras@@@std@@@std@@@std@@QBEAAPAVLogger@common@ibmras@@XZ ; std::_Vector_iterator<std::_Vector_val<ibmras::common::Logger *,std::allocator<ibmras::common::Logger *> > >::operator*
	mov	ecx, DWORD PTR [eax]
	add	ecx, 12					; 0000000cH
	push	ecx
	call	??$?8DU?$char_traits@D@std@@V?$allocator@D@1@@std@@YA_NABV?$basic_string@DU?$char_traits@D@std@@V?$allocator@D@2@@0@0@Z ; std::operator==<char,std::char_traits<char>,std::allocator<char> >
	add	esp, 8
	movzx	edx, al
	test	edx, edx
	je	SHORT $LN1@findLogger
; Line 136
	lea	ecx, DWORD PTR _i$32275[ebp]
	call	??D?$_Vector_iterator@V?$_Vector_val@PAVLogger@common@ibmras@@V?$allocator@PAVLogger@common@ibmras@@@std@@@std@@@std@@QBEAAPAVLogger@common@ibmras@@XZ ; std::_Vector_iterator<std::_Vector_val<ibmras::common::Logger *,std::allocator<ibmras::common::Logger *> > >::operator*
	mov	eax, DWORD PTR [eax]
	jmp	SHORT $LN5@findLogger
$LN1@findLogger:
; Line 138
	jmp	SHORT $LN3@findLogger
$LN2@findLogger:
; Line 139
	xor	eax, eax
$LN5@findLogger:
; Line 140
	mov	esp, ebp
	pop	ebp
	ret	4
?findLogger@LogManager@common@ibmras@@AAEPAVLogger@23@ABV?$basic_string@DU?$char_traits@D@std@@V?$allocator@D@2@@std@@@Z ENDP ; ibmras::common::LogManager::findLogger
_TEXT	ENDS
PUBLIC	??1?$_String_val@DV?$allocator@D@std@@@std@@QAE@XZ ; std::_String_val<char,std::allocator<char> >::~_String_val<char,std::allocator<char> >
PUBLIC	?assign@?$basic_string@DU?$char_traits@D@std@@V?$allocator@D@2@@std@@QAEAAV12@ABV12@II@Z ; std::basic_string<char,std::char_traits<char>,std::allocator<char> >::assign
PUBLIC	?npos@?$basic_string@DU?$char_traits@D@std@@V?$allocator@D@2@@std@@2IB ; std::basic_string<char,std::char_traits<char>,std::allocator<char> >::npos
PUBLIC	?_Tidy@?$basic_string@DU?$char_traits@D@std@@V?$allocator@D@2@@std@@QAEX_NI@Z ; std::basic_string<char,std::char_traits<char>,std::allocator<char> >::_Tidy
PUBLIC	??0?$_String_val@DV?$allocator@D@std@@@std@@QAE@V?$allocator@D@1@@Z ; std::_String_val<char,std::allocator<char> >::_String_val<char,std::allocator<char> >
PUBLIC	??0?$allocator@D@std@@QAE@ABV01@@Z		; std::allocator<char>::allocator<char>
;	COMDAT ?npos@?$basic_string@DU?$char_traits@D@std@@V?$allocator@D@2@@std@@2IB
; File c:\program files (x86)\microsoft visual studio 10.0\vc\include\xstring
CONST	SEGMENT
?npos@?$basic_string@DU?$char_traits@D@std@@V?$allocator@D@2@@std@@2IB DD 0ffffffffH ; std::basic_string<char,std::char_traits<char>,std::allocator<char> >::npos
CONST	ENDS
;	COMDAT xdata$x
xdata$x	SEGMENT
__unwindtable$??0?$basic_string@DU?$char_traits@D@std@@V?$allocator@D@2@@std@@QAE@ABV01@@Z DD 0ffffffffH
	DD	FLAT:__unwindfunclet$??0?$basic_string@DU?$char_traits@D@std@@V?$allocator@D@2@@std@@QAE@ABV01@@Z$0
__ehfuncinfo$??0?$basic_string@DU?$char_traits@D@std@@V?$allocator@D@2@@std@@QAE@ABV01@@Z DD 019930522H
	DD	01H
	DD	FLAT:__unwindtable$??0?$basic_string@DU?$char_traits@D@std@@V?$allocator@D@2@@std@@QAE@ABV01@@Z
	DD	2 DUP(00H)
	DD	2 DUP(00H)
	DD	00H
	DD	01H
; Function compile flags: /Odtp
xdata$x	ENDS
;	COMDAT ??0?$basic_string@DU?$char_traits@D@std@@V?$allocator@D@2@@std@@QAE@ABV01@@Z
_TEXT	SEGMENT
_this$ = -20						; size = 4
$T38704 = -16						; size = 4
__$EHRec$ = -12						; size = 12
__Right$ = 8						; size = 4
??0?$basic_string@DU?$char_traits@D@std@@V?$allocator@D@2@@std@@QAE@ABV01@@Z PROC ; std::basic_string<char,std::char_traits<char>,std::allocator<char> >::basic_string<char,std::char_traits<char>,std::allocator<char> >, COMDAT
; _this$ = ecx
; Line 543
	push	ebp
	mov	ebp, esp
	push	-1
	push	__ehhandler$??0?$basic_string@DU?$char_traits@D@std@@V?$allocator@D@2@@std@@QAE@ABV01@@Z
	mov	eax, DWORD PTR fs:0
	push	eax
	sub	esp, 8
	mov	eax, DWORD PTR ___security_cookie
	xor	eax, ebp
	push	eax
	lea	eax, DWORD PTR __$EHRec$[ebp]
	mov	DWORD PTR fs:0, eax
	mov	DWORD PTR _this$[ebp], ecx
	mov	eax, DWORD PTR __Right$[ebp]
	add	eax, 24					; 00000018H
	push	ecx
	mov	ecx, esp
	mov	DWORD PTR $T38704[ebp], esp
	push	eax
	call	??0?$allocator@D@std@@QAE@ABV01@@Z	; std::allocator<char>::allocator<char>
	mov	ecx, DWORD PTR _this$[ebp]
	call	??0?$_String_val@DV?$allocator@D@std@@@std@@QAE@V?$allocator@D@1@@Z ; std::_String_val<char,std::allocator<char> >::_String_val<char,std::allocator<char> >
	mov	DWORD PTR __$EHRec$[ebp+8], 0
; Line 544
	push	0
	push	0
	mov	ecx, DWORD PTR _this$[ebp]
	call	?_Tidy@?$basic_string@DU?$char_traits@D@std@@V?$allocator@D@2@@std@@QAEX_NI@Z ; std::basic_string<char,std::char_traits<char>,std::allocator<char> >::_Tidy
; Line 545
	mov	ecx, DWORD PTR ?npos@?$basic_string@DU?$char_traits@D@std@@V?$allocator@D@2@@std@@2IB ; std::basic_string<char,std::char_traits<char>,std::allocator<char> >::npos
	push	ecx
	push	0
	mov	edx, DWORD PTR __Right$[ebp]
	push	edx
	mov	ecx, DWORD PTR _this$[ebp]
	call	?assign@?$basic_string@DU?$char_traits@D@std@@V?$allocator@D@2@@std@@QAEAAV12@ABV12@II@Z ; std::basic_string<char,std::char_traits<char>,std::allocator<char> >::assign
; Line 546
	mov	DWORD PTR __$EHRec$[ebp+8], -1
	mov	eax, DWORD PTR _this$[ebp]
	mov	ecx, DWORD PTR __$EHRec$[ebp]
	mov	DWORD PTR fs:0, ecx
	pop	ecx
	mov	esp, ebp
	pop	ebp
	ret	4
_TEXT	ENDS
;	COMDAT text$x
text$x	SEGMENT
__unwindfunclet$??0?$basic_string@DU?$char_traits@D@std@@V?$allocator@D@2@@std@@QAE@ABV01@@Z$0:
	mov	ecx, DWORD PTR _this$[ebp]
	jmp	??1?$_String_val@DV?$allocator@D@std@@@std@@QAE@XZ ; std::_String_val<char,std::allocator<char> >::~_String_val<char,std::allocator<char> >
__ehhandler$??0?$basic_string@DU?$char_traits@D@std@@V?$allocator@D@2@@std@@QAE@ABV01@@Z:
	mov	edx, DWORD PTR [esp+8]
	lea	eax, DWORD PTR [edx+12]
	mov	ecx, DWORD PTR [edx-12]
	xor	ecx, eax
	call	@__security_check_cookie@4
	mov	eax, OFFSET __ehfuncinfo$??0?$basic_string@DU?$char_traits@D@std@@V?$allocator@D@2@@std@@QAE@ABV01@@Z
	jmp	___CxxFrameHandler3
text$x	ENDS
??0?$basic_string@DU?$char_traits@D@std@@V?$allocator@D@2@@std@@QAE@ABV01@@Z ENDP ; std::basic_string<char,std::char_traits<char>,std::allocator<char> >::basic_string<char,std::char_traits<char>,std::allocator<char> >
PUBLIC	?assign@?$basic_string@DU?$char_traits@D@std@@V?$allocator@D@2@@std@@QAEAAV12@PBD@Z ; std::basic_string<char,std::char_traits<char>,std::allocator<char> >::assign
PUBLIC	??0?$allocator@D@std@@QAE@XZ			; std::allocator<char>::allocator<char>
;	COMDAT xdata$x
xdata$x	SEGMENT
__unwindtable$??0?$basic_string@DU?$char_traits@D@std@@V?$allocator@D@2@@std@@QAE@PBD@Z DD 0ffffffffH
	DD	FLAT:__unwindfunclet$??0?$basic_string@DU?$char_traits@D@std@@V?$allocator@D@2@@std@@QAE@PBD@Z$0
__ehfuncinfo$??0?$basic_string@DU?$char_traits@D@std@@V?$allocator@D@2@@std@@QAE@PBD@Z DD 019930522H
	DD	01H
	DD	FLAT:__unwindtable$??0?$basic_string@DU?$char_traits@D@std@@V?$allocator@D@2@@std@@QAE@PBD@Z
	DD	2 DUP(00H)
	DD	2 DUP(00H)
	DD	00H
	DD	01H
; Function compile flags: /Odtp
xdata$x	ENDS
;	COMDAT ??0?$basic_string@DU?$char_traits@D@std@@V?$allocator@D@2@@std@@QAE@PBD@Z
_TEXT	SEGMENT
_this$ = -20						; size = 4
$T38714 = -16						; size = 4
__$EHRec$ = -12						; size = 12
__Ptr$ = 8						; size = 4
??0?$basic_string@DU?$char_traits@D@std@@V?$allocator@D@2@@std@@QAE@PBD@Z PROC ; std::basic_string<char,std::char_traits<char>,std::allocator<char> >::basic_string<char,std::char_traits<char>,std::allocator<char> >, COMDAT
; _this$ = ecx
; Line 592
	push	ebp
	mov	ebp, esp
	push	-1
	push	__ehhandler$??0?$basic_string@DU?$char_traits@D@std@@V?$allocator@D@2@@std@@QAE@PBD@Z
	mov	eax, DWORD PTR fs:0
	push	eax
	sub	esp, 8
	mov	eax, DWORD PTR ___security_cookie
	xor	eax, ebp
	push	eax
	lea	eax, DWORD PTR __$EHRec$[ebp]
	mov	DWORD PTR fs:0, eax
	mov	DWORD PTR _this$[ebp], ecx
	push	ecx
	mov	ecx, esp
	mov	DWORD PTR $T38714[ebp], esp
	call	??0?$allocator@D@std@@QAE@XZ		; std::allocator<char>::allocator<char>
	mov	ecx, DWORD PTR _this$[ebp]
	call	??0?$_String_val@DV?$allocator@D@std@@@std@@QAE@V?$allocator@D@1@@Z ; std::_String_val<char,std::allocator<char> >::_String_val<char,std::allocator<char> >
	mov	DWORD PTR __$EHRec$[ebp+8], 0
; Line 593
	push	0
	push	0
	mov	ecx, DWORD PTR _this$[ebp]
	call	?_Tidy@?$basic_string@DU?$char_traits@D@std@@V?$allocator@D@2@@std@@QAEX_NI@Z ; std::basic_string<char,std::char_traits<char>,std::allocator<char> >::_Tidy
; Line 594
	mov	eax, DWORD PTR __Ptr$[ebp]
	push	eax
	mov	ecx, DWORD PTR _this$[ebp]
	call	?assign@?$basic_string@DU?$char_traits@D@std@@V?$allocator@D@2@@std@@QAEAAV12@PBD@Z ; std::basic_string<char,std::char_traits<char>,std::allocator<char> >::assign
; Line 595
	mov	DWORD PTR __$EHRec$[ebp+8], -1
	mov	eax, DWORD PTR _this$[ebp]
	mov	ecx, DWORD PTR __$EHRec$[ebp]
	mov	DWORD PTR fs:0, ecx
	pop	ecx
	mov	esp, ebp
	pop	ebp
	ret	4
_TEXT	ENDS
;	COMDAT text$x
text$x	SEGMENT
__unwindfunclet$??0?$basic_string@DU?$char_traits@D@std@@V?$allocator@D@2@@std@@QAE@PBD@Z$0:
	mov	ecx, DWORD PTR _this$[ebp]
	jmp	??1?$_String_val@DV?$allocator@D@std@@@std@@QAE@XZ ; std::_String_val<char,std::allocator<char> >::~_String_val<char,std::allocator<char> >
__ehhandler$??0?$basic_string@DU?$char_traits@D@std@@V?$allocator@D@2@@std@@QAE@PBD@Z:
	mov	edx, DWORD PTR [esp+8]
	lea	eax, DWORD PTR [edx+12]
	mov	ecx, DWORD PTR [edx-12]
	xor	ecx, eax
	call	@__security_check_cookie@4
	mov	eax, OFFSET __ehfuncinfo$??0?$basic_string@DU?$char_traits@D@std@@V?$allocator@D@2@@std@@QAE@PBD@Z
	jmp	___CxxFrameHandler3
text$x	ENDS
??0?$basic_string@DU?$char_traits@D@std@@V?$allocator@D@2@@std@@QAE@PBD@Z ENDP ; std::basic_string<char,std::char_traits<char>,std::allocator<char> >::basic_string<char,std::char_traits<char>,std::allocator<char> >
;	COMDAT xdata$x
xdata$x	SEGMENT
__unwindtable$??1?$basic_string@DU?$char_traits@D@std@@V?$allocator@D@2@@std@@QAE@XZ DD 0ffffffffH
	DD	FLAT:__unwindfunclet$??1?$basic_string@DU?$char_traits@D@std@@V?$allocator@D@2@@std@@QAE@XZ$0
__ehfuncinfo$??1?$basic_string@DU?$char_traits@D@std@@V?$allocator@D@2@@std@@QAE@XZ DD 019930522H
	DD	01H
	DD	FLAT:__unwindtable$??1?$basic_string@DU?$char_traits@D@std@@V?$allocator@D@2@@std@@QAE@XZ
	DD	2 DUP(00H)
	DD	2 DUP(00H)
	DD	00H
	DD	01H
; Function compile flags: /Odtp
xdata$x	ENDS
;	COMDAT ??1?$basic_string@DU?$char_traits@D@std@@V?$allocator@D@2@@std@@QAE@XZ
_TEXT	SEGMENT
_this$ = -16						; size = 4
__$EHRec$ = -12						; size = 12
??1?$basic_string@DU?$char_traits@D@std@@V?$allocator@D@2@@std@@QAE@XZ PROC ; std::basic_string<char,std::char_traits<char>,std::allocator<char> >::~basic_string<char,std::char_traits<char>,std::allocator<char> >, COMDAT
; _this$ = ecx
; Line 752
	push	ebp
	mov	ebp, esp
	push	-1
	push	__ehhandler$??1?$basic_string@DU?$char_traits@D@std@@V?$allocator@D@2@@std@@QAE@XZ
	mov	eax, DWORD PTR fs:0
	push	eax
	push	ecx
	mov	eax, DWORD PTR ___security_cookie
	xor	eax, ebp
	push	eax
	lea	eax, DWORD PTR __$EHRec$[ebp]
	mov	DWORD PTR fs:0, eax
	mov	DWORD PTR _this$[ebp], ecx
	mov	DWORD PTR __$EHRec$[ebp+8], 0
; Line 753
	push	0
	push	1
	mov	ecx, DWORD PTR _this$[ebp]
	call	?_Tidy@?$basic_string@DU?$char_traits@D@std@@V?$allocator@D@2@@std@@QAEX_NI@Z ; std::basic_string<char,std::char_traits<char>,std::allocator<char> >::_Tidy
; Line 754
	mov	DWORD PTR __$EHRec$[ebp+8], -1
	mov	ecx, DWORD PTR _this$[ebp]
	call	??1?$_String_val@DV?$allocator@D@std@@@std@@QAE@XZ ; std::_String_val<char,std::allocator<char> >::~_String_val<char,std::allocator<char> >
	mov	ecx, DWORD PTR __$EHRec$[ebp]
	mov	DWORD PTR fs:0, ecx
	pop	ecx
	mov	esp, ebp
	pop	ebp
	ret	0
_TEXT	ENDS
;	COMDAT text$x
text$x	SEGMENT
__unwindfunclet$??1?$basic_string@DU?$char_traits@D@std@@V?$allocator@D@2@@std@@QAE@XZ$0:
	mov	ecx, DWORD PTR _this$[ebp]
	jmp	??1?$_String_val@DV?$allocator@D@std@@@std@@QAE@XZ ; std::_String_val<char,std::allocator<char> >::~_String_val<char,std::allocator<char> >
__ehhandler$??1?$basic_string@DU?$char_traits@D@std@@V?$allocator@D@2@@std@@QAE@XZ:
	mov	edx, DWORD PTR [esp+8]
	lea	eax, DWORD PTR [edx+12]
	mov	ecx, DWORD PTR [edx-8]
	xor	ecx, eax
	call	@__security_check_cookie@4
	mov	eax, OFFSET __ehfuncinfo$??1?$basic_string@DU?$char_traits@D@std@@V?$allocator@D@2@@std@@QAE@XZ
	jmp	___CxxFrameHandler3
text$x	ENDS
??1?$basic_string@DU?$char_traits@D@std@@V?$allocator@D@2@@std@@QAE@XZ ENDP ; std::basic_string<char,std::char_traits<char>,std::allocator<char> >::~basic_string<char,std::char_traits<char>,std::allocator<char> >
PUBLIC	?assign@?$basic_string@DU?$char_traits@D@std@@V?$allocator@D@2@@std@@QAEAAV12@ABV12@@Z ; std::basic_string<char,std::char_traits<char>,std::allocator<char> >::assign
; Function compile flags: /Odtp
;	COMDAT ??4?$basic_string@DU?$char_traits@D@std@@V?$allocator@D@2@@std@@QAEAAV01@ABV01@@Z
_TEXT	SEGMENT
_this$ = -4						; size = 4
__Right$ = 8						; size = 4
??4?$basic_string@DU?$char_traits@D@std@@V?$allocator@D@2@@std@@QAEAAV01@ABV01@@Z PROC ; std::basic_string<char,std::char_traits<char>,std::allocator<char> >::operator=, COMDAT
; _this$ = ecx
; Line 762
	push	ebp
	mov	ebp, esp
	push	ecx
	mov	DWORD PTR _this$[ebp], ecx
; Line 763
	mov	eax, DWORD PTR __Right$[ebp]
	push	eax
	mov	ecx, DWORD PTR _this$[ebp]
	call	?assign@?$basic_string@DU?$char_traits@D@std@@V?$allocator@D@2@@std@@QAEAAV12@ABV12@@Z ; std::basic_string<char,std::char_traits<char>,std::allocator<char> >::assign
; Line 764
	mov	esp, ebp
	pop	ebp
	ret	4
??4?$basic_string@DU?$char_traits@D@std@@V?$allocator@D@2@@std@@QAEAAV01@ABV01@@Z ENDP ; std::basic_string<char,std::char_traits<char>,std::allocator<char> >::operator=
_TEXT	ENDS
PUBLIC	?compare@?$basic_string@DU?$char_traits@D@std@@V?$allocator@D@2@@std@@QBEHIIPBDI@Z ; std::basic_string<char,std::char_traits<char>,std::allocator<char> >::compare
PUBLIC	?length@?$char_traits@D@std@@SAIPBD@Z		; std::char_traits<char>::length
; Function compile flags: /Odtp
;	COMDAT ?compare@?$basic_string@DU?$char_traits@D@std@@V?$allocator@D@2@@std@@QBEHPBD@Z
_TEXT	SEGMENT
_this$ = -4						; size = 4
__Ptr$ = 8						; size = 4
?compare@?$basic_string@DU?$char_traits@D@std@@V?$allocator@D@2@@std@@QBEHPBD@Z PROC ; std::basic_string<char,std::char_traits<char>,std::allocator<char> >::compare, COMDAT
; _this$ = ecx
; Line 1874
	push	ebp
	mov	ebp, esp
	push	ecx
	mov	DWORD PTR _this$[ebp], ecx
; Line 1876
	mov	eax, DWORD PTR __Ptr$[ebp]
	push	eax
	call	?length@?$char_traits@D@std@@SAIPBD@Z	; std::char_traits<char>::length
	add	esp, 4
	push	eax
	mov	ecx, DWORD PTR __Ptr$[ebp]
	push	ecx
	mov	edx, DWORD PTR _this$[ebp]
	mov	eax, DWORD PTR [edx+16]
	push	eax
	push	0
	mov	ecx, DWORD PTR _this$[ebp]
	call	?compare@?$basic_string@DU?$char_traits@D@std@@V?$allocator@D@2@@std@@QBEHIIPBDI@Z ; std::basic_string<char,std::char_traits<char>,std::allocator<char> >::compare
; Line 1877
	mov	esp, ebp
	pop	ebp
	ret	4
?compare@?$basic_string@DU?$char_traits@D@std@@V?$allocator@D@2@@std@@QBEHPBD@Z ENDP ; std::basic_string<char,std::char_traits<char>,std::allocator<char> >::compare
_TEXT	ENDS
EXTRN	_strlen:PROC
; Function compile flags: /Odtp
;	COMDAT ?length@?$char_traits@D@std@@SAIPBD@Z
_TEXT	SEGMENT
__First$ = 8						; size = 4
?length@?$char_traits@D@std@@SAIPBD@Z PROC		; std::char_traits<char>::length, COMDAT
; File c:\program files (x86)\microsoft visual studio 10.0\vc\include\iosfwd
; Line 490
	push	ebp
	mov	ebp, esp
; Line 491
	mov	eax, DWORD PTR __First$[ebp]
	push	eax
	call	_strlen
	add	esp, 4
; Line 492
	pop	ebp
	ret	0
?length@?$char_traits@D@std@@SAIPBD@Z ENDP		; std::char_traits<char>::length
_TEXT	ENDS
PUBLIC	??0?$_Vector_val@PAVLogger@common@ibmras@@V?$allocator@PAVLogger@common@ibmras@@@std@@@std@@QAE@V?$allocator@PAVLogger@common@ibmras@@@1@@Z ; std::_Vector_val<ibmras::common::Logger *,std::allocator<ibmras::common::Logger *> >::_Vector_val<ibmras::common::Logger *,std::allocator<ibmras::common::Logger *> >
PUBLIC	??0?$allocator@PAVLogger@common@ibmras@@@std@@QAE@XZ ; std::allocator<ibmras::common::Logger *>::allocator<ibmras::common::Logger *>
; Function compile flags: /Odtp
;	COMDAT ??0?$vector@PAVLogger@common@ibmras@@V?$allocator@PAVLogger@common@ibmras@@@std@@@std@@QAE@XZ
_TEXT	SEGMENT
_this$ = -8						; size = 4
$T38739 = -4						; size = 4
??0?$vector@PAVLogger@common@ibmras@@V?$allocator@PAVLogger@common@ibmras@@@std@@@std@@QAE@XZ PROC ; std::vector<ibmras::common::Logger *,std::allocator<ibmras::common::Logger *> >::vector<ibmras::common::Logger *,std::allocator<ibmras::common::Logger *> >, COMDAT
; _this$ = ecx
; File c:\program files (x86)\microsoft visual studio 10.0\vc\include\vector
; Line 507
	push	ebp
	mov	ebp, esp
	sub	esp, 8
	mov	DWORD PTR _this$[ebp], ecx
	push	ecx
	mov	ecx, esp
	mov	DWORD PTR $T38739[ebp], esp
	call	??0?$allocator@PAVLogger@common@ibmras@@@std@@QAE@XZ ; std::allocator<ibmras::common::Logger *>::allocator<ibmras::common::Logger *>
	mov	ecx, DWORD PTR _this$[ebp]
	call	??0?$_Vector_val@PAVLogger@common@ibmras@@V?$allocator@PAVLogger@common@ibmras@@@std@@@std@@QAE@V?$allocator@PAVLogger@common@ibmras@@@1@@Z ; std::_Vector_val<ibmras::common::Logger *,std::allocator<ibmras::common::Logger *> >::_Vector_val<ibmras::common::Logger *,std::allocator<ibmras::common::Logger *> >
; Line 508
	mov	eax, DWORD PTR _this$[ebp]
	mov	esp, ebp
	pop	ebp
	ret	0
??0?$vector@PAVLogger@common@ibmras@@V?$allocator@PAVLogger@common@ibmras@@@std@@@std@@QAE@XZ ENDP ; std::vector<ibmras::common::Logger *,std::allocator<ibmras::common::Logger *> >::vector<ibmras::common::Logger *,std::allocator<ibmras::common::Logger *> >
_TEXT	ENDS
PUBLIC	??1?$_Vector_val@PAVLogger@common@ibmras@@V?$allocator@PAVLogger@common@ibmras@@@std@@@std@@QAE@XZ ; std::_Vector_val<ibmras::common::Logger *,std::allocator<ibmras::common::Logger *> >::~_Vector_val<ibmras::common::Logger *,std::allocator<ibmras::common::Logger *> >
PUBLIC	?_Tidy@?$vector@PAVLogger@common@ibmras@@V?$allocator@PAVLogger@common@ibmras@@@std@@@std@@IAEXXZ ; std::vector<ibmras::common::Logger *,std::allocator<ibmras::common::Logger *> >::_Tidy
PUBLIC	??$_Ucopy@V?$_Vector_const_iterator@V?$_Vector_val@PAVLogger@common@ibmras@@V?$allocator@PAVLogger@common@ibmras@@@std@@@std@@@std@@@?$vector@PAVLogger@common@ibmras@@V?$allocator@PAVLogger@common@ibmras@@@std@@@std@@IAEPAPAVLogger@common@ibmras@@V?$_Vector_const_iterator@V?$_Vector_val@PAVLogger@common@ibmras@@V?$allocator@PAVLogger@common@ibmras@@@std@@@std@@@1@0PAPAV234@@Z ; std::vector<ibmras::common::Logger *,std::allocator<ibmras::common::Logger *> >::_Ucopy<std::_Vector_const_iterator<std::_Vector_val<ibmras::common::Logger *,std::allocator<ibmras::common::Logger *> > > >
PUBLIC	?begin@?$vector@PAVLogger@common@ibmras@@V?$allocator@PAVLogger@common@ibmras@@@std@@@std@@QBE?AV?$_Vector_const_iterator@V?$_Vector_val@PAVLogger@common@ibmras@@V?$allocator@PAVLogger@common@ibmras@@@std@@@std@@@2@XZ ; std::vector<ibmras::common::Logger *,std::allocator<ibmras::common::Logger *> >::begin
PUBLIC	?end@?$vector@PAVLogger@common@ibmras@@V?$allocator@PAVLogger@common@ibmras@@@std@@@std@@QBE?AV?$_Vector_const_iterator@V?$_Vector_val@PAVLogger@common@ibmras@@V?$allocator@PAVLogger@common@ibmras@@@std@@@std@@@2@XZ ; std::vector<ibmras::common::Logger *,std::allocator<ibmras::common::Logger *> >::end
PUBLIC	?_Buy@?$vector@PAVLogger@common@ibmras@@V?$allocator@PAVLogger@common@ibmras@@@std@@@std@@IAE_NI@Z ; std::vector<ibmras::common::Logger *,std::allocator<ibmras::common::Logger *> >::_Buy
PUBLIC	?size@?$vector@PAVLogger@common@ibmras@@V?$allocator@PAVLogger@common@ibmras@@@std@@@std@@QBEIXZ ; std::vector<ibmras::common::Logger *,std::allocator<ibmras::common::Logger *> >::size
PUBLIC	??0?$allocator@PAVLogger@common@ibmras@@@std@@QAE@ABV01@@Z ; std::allocator<ibmras::common::Logger *>::allocator<ibmras::common::Logger *>
EXTRN	__CxxThrowException@8:PROC
;	COMDAT xdata$x
xdata$x	SEGMENT
__catchsym$??0?$vector@PAVLogger@common@ibmras@@V?$allocator@PAVLogger@common@ibmras@@@std@@@std@@QAE@ABV01@@Z$3 DD 040H
	DD	00H
	DD	00H
	DD	FLAT:__catch$??0?$vector@PAVLogger@common@ibmras@@V?$allocator@PAVLogger@common@ibmras@@@std@@@std@@QAE@ABV01@@Z$0
__tryblocktable$??0?$vector@PAVLogger@common@ibmras@@V?$allocator@PAVLogger@common@ibmras@@@std@@@std@@QAE@ABV01@@Z DD 01H
	DD	01H
	DD	02H
	DD	01H
	DD	FLAT:__catchsym$??0?$vector@PAVLogger@common@ibmras@@V?$allocator@PAVLogger@common@ibmras@@@std@@@std@@QAE@ABV01@@Z$3
__unwindtable$??0?$vector@PAVLogger@common@ibmras@@V?$allocator@PAVLogger@common@ibmras@@@std@@@std@@QAE@ABV01@@Z DD 0ffffffffH
	DD	FLAT:__unwindfunclet$??0?$vector@PAVLogger@common@ibmras@@V?$allocator@PAVLogger@common@ibmras@@@std@@@std@@QAE@ABV01@@Z$2
	DD	00H
	DD	00H
	DD	00H
	DD	00H
__ehfuncinfo$??0?$vector@PAVLogger@common@ibmras@@V?$allocator@PAVLogger@common@ibmras@@@std@@@std@@QAE@ABV01@@Z DD 019930522H
	DD	03H
	DD	FLAT:__unwindtable$??0?$vector@PAVLogger@common@ibmras@@V?$allocator@PAVLogger@common@ibmras@@@std@@@std@@QAE@ABV01@@Z
	DD	01H
	DD	FLAT:__tryblocktable$??0?$vector@PAVLogger@common@ibmras@@V?$allocator@PAVLogger@common@ibmras@@@std@@@std@@QAE@ABV01@@Z
	DD	2 DUP(00H)
	DD	00H
	DD	01H
; Function compile flags: /Odtp
xdata$x	ENDS
;	COMDAT ??0?$vector@PAVLogger@common@ibmras@@V?$allocator@PAVLogger@common@ibmras@@@std@@@std@@QAE@ABV01@@Z
_TEXT	SEGMENT
tv157 = -44						; size = 4
tv156 = -40						; size = 4
tv69 = -36						; size = 4
_this$ = -32						; size = 4
$T38745 = -28						; size = 4
$T38744 = -24						; size = 4
$T38743 = -20						; size = 4
__$EHRec$ = -16						; size = 16
__Right$ = 8						; size = 4
??0?$vector@PAVLogger@common@ibmras@@V?$allocator@PAVLogger@common@ibmras@@@std@@@std@@QAE@ABV01@@Z PROC ; std::vector<ibmras::common::Logger *,std::allocator<ibmras::common::Logger *> >::vector<ibmras::common::Logger *,std::allocator<ibmras::common::Logger *> >, COMDAT
; _this$ = ecx
; Line 535
	push	ebp
	mov	ebp, esp
	push	-1
	push	__ehhandler$??0?$vector@PAVLogger@common@ibmras@@V?$allocator@PAVLogger@common@ibmras@@@std@@@std@@QAE@ABV01@@Z
	mov	eax, DWORD PTR fs:0
	push	eax
	push	ecx
	sub	esp, 28					; 0000001cH
	push	ebx
	push	esi
	push	edi
	mov	eax, DWORD PTR ___security_cookie
	xor	eax, ebp
	push	eax
	lea	eax, DWORD PTR __$EHRec$[ebp+4]
	mov	DWORD PTR fs:0, eax
	mov	DWORD PTR __$EHRec$[ebp], esp
	mov	DWORD PTR _this$[ebp], ecx
	mov	eax, DWORD PTR __Right$[ebp]
	add	eax, 12					; 0000000cH
	push	ecx
	mov	ecx, esp
	mov	DWORD PTR $T38743[ebp], esp
	push	eax
	call	??0?$allocator@PAVLogger@common@ibmras@@@std@@QAE@ABV01@@Z ; std::allocator<ibmras::common::Logger *>::allocator<ibmras::common::Logger *>
	mov	ecx, DWORD PTR _this$[ebp]
	call	??0?$_Vector_val@PAVLogger@common@ibmras@@V?$allocator@PAVLogger@common@ibmras@@@std@@@std@@QAE@V?$allocator@PAVLogger@common@ibmras@@@1@@Z ; std::_Vector_val<ibmras::common::Logger *,std::allocator<ibmras::common::Logger *> >::_Vector_val<ibmras::common::Logger *,std::allocator<ibmras::common::Logger *> >
	mov	DWORD PTR __$EHRec$[ebp+12], 0
; Line 536
	mov	ecx, DWORD PTR __Right$[ebp]
	call	?size@?$vector@PAVLogger@common@ibmras@@V?$allocator@PAVLogger@common@ibmras@@@std@@@std@@QBEIXZ ; std::vector<ibmras::common::Logger *,std::allocator<ibmras::common::Logger *> >::size
	push	eax
	mov	ecx, DWORD PTR _this$[ebp]
	call	?_Buy@?$vector@PAVLogger@common@ibmras@@V?$allocator@PAVLogger@common@ibmras@@@std@@@std@@IAE_NI@Z ; std::vector<ibmras::common::Logger *,std::allocator<ibmras::common::Logger *> >::_Buy
	movzx	ecx, al
	test	ecx, ecx
	je	SHORT $LN3@vector@2
; Line 537
	mov	BYTE PTR __$EHRec$[ebp+12], 1
; Line 539
	lea	edx, DWORD PTR $T38744[ebp]
	push	edx
	mov	ecx, DWORD PTR __Right$[ebp]
	call	?end@?$vector@PAVLogger@common@ibmras@@V?$allocator@PAVLogger@common@ibmras@@@std@@@std@@QBE?AV?$_Vector_const_iterator@V?$_Vector_val@PAVLogger@common@ibmras@@V?$allocator@PAVLogger@common@ibmras@@@std@@@std@@@2@XZ ; std::vector<ibmras::common::Logger *,std::allocator<ibmras::common::Logger *> >::end
	mov	DWORD PTR tv69[ebp], eax
	lea	eax, DWORD PTR $T38745[ebp]
	push	eax
	mov	ecx, DWORD PTR __Right$[ebp]
	call	?begin@?$vector@PAVLogger@common@ibmras@@V?$allocator@PAVLogger@common@ibmras@@@std@@@std@@QBE?AV?$_Vector_const_iterator@V?$_Vector_val@PAVLogger@common@ibmras@@V?$allocator@PAVLogger@common@ibmras@@@std@@@std@@@2@XZ ; std::vector<ibmras::common::Logger *,std::allocator<ibmras::common::Logger *> >::begin
	mov	DWORD PTR tv156[ebp], eax
	mov	ecx, DWORD PTR _this$[ebp]
	mov	edx, DWORD PTR [ecx]
	push	edx
	mov	eax, DWORD PTR tv69[ebp]
	mov	ecx, DWORD PTR [eax]
	push	ecx
	mov	edx, DWORD PTR tv156[ebp]
	mov	eax, DWORD PTR [edx]
	push	eax
	mov	ecx, DWORD PTR _this$[ebp]
	call	??$_Ucopy@V?$_Vector_const_iterator@V?$_Vector_val@PAVLogger@common@ibmras@@V?$allocator@PAVLogger@common@ibmras@@@std@@@std@@@std@@@?$vector@PAVLogger@common@ibmras@@V?$allocator@PAVLogger@common@ibmras@@@std@@@std@@IAEPAPAVLogger@common@ibmras@@V?$_Vector_const_iterator@V?$_Vector_val@PAVLogger@common@ibmras@@V?$allocator@PAVLogger@common@ibmras@@@std@@@std@@@1@0PAPAV234@@Z ; std::vector<ibmras::common::Logger *,std::allocator<ibmras::common::Logger *> >::_Ucopy<std::_Vector_const_iterator<std::_Vector_val<ibmras::common::Logger *,std::allocator<ibmras::common::Logger *> > > >
	mov	DWORD PTR tv157[ebp], eax
	mov	ecx, DWORD PTR _this$[ebp]
	mov	edx, DWORD PTR tv157[ebp]
	mov	DWORD PTR [ecx+4], edx
	jmp	SHORT $LN5@vector@2
__catch$??0?$vector@PAVLogger@common@ibmras@@V?$allocator@PAVLogger@common@ibmras@@@std@@@std@@QAE@ABV01@@Z$0:
; Line 541
	mov	ecx, DWORD PTR _this$[ebp]
	call	?_Tidy@?$vector@PAVLogger@common@ibmras@@V?$allocator@PAVLogger@common@ibmras@@@std@@@std@@IAEXXZ ; std::vector<ibmras::common::Logger *,std::allocator<ibmras::common::Logger *> >::_Tidy
; Line 542
	push	0
	push	0
	call	__CxxThrowException@8
; Line 543
	mov	DWORD PTR __$EHRec$[ebp+12], 0
	mov	eax, $LN3@vector@2
	ret	0
$LN5@vector@2:
	mov	DWORD PTR __$EHRec$[ebp+12], 0
$LN3@vector@2:
; Line 544
	mov	DWORD PTR __$EHRec$[ebp+12], -1
	mov	eax, DWORD PTR _this$[ebp]
$LN4@vector@2:
	mov	ecx, DWORD PTR __$EHRec$[ebp+4]
	mov	DWORD PTR fs:0, ecx
	pop	ecx
	pop	edi
	pop	esi
	pop	ebx
	mov	esp, ebp
	pop	ebp
	ret	4
_TEXT	ENDS
;	COMDAT text$x
text$x	SEGMENT
__unwindfunclet$??0?$vector@PAVLogger@common@ibmras@@V?$allocator@PAVLogger@common@ibmras@@@std@@@std@@QAE@ABV01@@Z$2:
	mov	ecx, DWORD PTR _this$[ebp]
	jmp	??1?$_Vector_val@PAVLogger@common@ibmras@@V?$allocator@PAVLogger@common@ibmras@@@std@@@std@@QAE@XZ ; std::_Vector_val<ibmras::common::Logger *,std::allocator<ibmras::common::Logger *> >::~_Vector_val<ibmras::common::Logger *,std::allocator<ibmras::common::Logger *> >
__ehhandler$??0?$vector@PAVLogger@common@ibmras@@V?$allocator@PAVLogger@common@ibmras@@@std@@@std@@QAE@ABV01@@Z:
	mov	edx, DWORD PTR [esp+8]
	lea	eax, DWORD PTR [edx+12]
	mov	ecx, DWORD PTR [edx-48]
	xor	ecx, eax
	call	@__security_check_cookie@4
	mov	eax, OFFSET __ehfuncinfo$??0?$vector@PAVLogger@common@ibmras@@V?$allocator@PAVLogger@common@ibmras@@@std@@@std@@QAE@ABV01@@Z
	jmp	___CxxFrameHandler3
text$x	ENDS
??0?$vector@PAVLogger@common@ibmras@@V?$allocator@PAVLogger@common@ibmras@@@std@@@std@@QAE@ABV01@@Z ENDP ; std::vector<ibmras::common::Logger *,std::allocator<ibmras::common::Logger *> >::vector<ibmras::common::Logger *,std::allocator<ibmras::common::Logger *> >
;	COMDAT xdata$x
xdata$x	SEGMENT
__unwindtable$??1?$vector@PAVLogger@common@ibmras@@V?$allocator@PAVLogger@common@ibmras@@@std@@@std@@QAE@XZ DD 0ffffffffH
	DD	FLAT:__unwindfunclet$??1?$vector@PAVLogger@common@ibmras@@V?$allocator@PAVLogger@common@ibmras@@@std@@@std@@QAE@XZ$0
__ehfuncinfo$??1?$vector@PAVLogger@common@ibmras@@V?$allocator@PAVLogger@common@ibmras@@@std@@@std@@QAE@XZ DD 019930522H
	DD	01H
	DD	FLAT:__unwindtable$??1?$vector@PAVLogger@common@ibmras@@V?$allocator@PAVLogger@common@ibmras@@@std@@@std@@QAE@XZ
	DD	2 DUP(00H)
	DD	2 DUP(00H)
	DD	00H
	DD	01H
; Function compile flags: /Odtp
xdata$x	ENDS
;	COMDAT ??1?$vector@PAVLogger@common@ibmras@@V?$allocator@PAVLogger@common@ibmras@@@std@@@std@@QAE@XZ
_TEXT	SEGMENT
_this$ = -16						; size = 4
__$EHRec$ = -12						; size = 12
??1?$vector@PAVLogger@common@ibmras@@V?$allocator@PAVLogger@common@ibmras@@@std@@@std@@QAE@XZ PROC ; std::vector<ibmras::common::Logger *,std::allocator<ibmras::common::Logger *> >::~vector<ibmras::common::Logger *,std::allocator<ibmras::common::Logger *> >, COMDAT
; _this$ = ecx
; Line 704
	push	ebp
	mov	ebp, esp
	push	-1
	push	__ehhandler$??1?$vector@PAVLogger@common@ibmras@@V?$allocator@PAVLogger@common@ibmras@@@std@@@std@@QAE@XZ
	mov	eax, DWORD PTR fs:0
	push	eax
	push	ecx
	mov	eax, DWORD PTR ___security_cookie
	xor	eax, ebp
	push	eax
	lea	eax, DWORD PTR __$EHRec$[ebp]
	mov	DWORD PTR fs:0, eax
	mov	DWORD PTR _this$[ebp], ecx
	mov	DWORD PTR __$EHRec$[ebp+8], 0
; Line 705
	mov	ecx, DWORD PTR _this$[ebp]
	call	?_Tidy@?$vector@PAVLogger@common@ibmras@@V?$allocator@PAVLogger@common@ibmras@@@std@@@std@@IAEXXZ ; std::vector<ibmras::common::Logger *,std::allocator<ibmras::common::Logger *> >::_Tidy
; Line 706
	mov	DWORD PTR __$EHRec$[ebp+8], -1
	mov	ecx, DWORD PTR _this$[ebp]
	call	??1?$_Vector_val@PAVLogger@common@ibmras@@V?$allocator@PAVLogger@common@ibmras@@@std@@@std@@QAE@XZ ; std::_Vector_val<ibmras::common::Logger *,std::allocator<ibmras::common::Logger *> >::~_Vector_val<ibmras::common::Logger *,std::allocator<ibmras::common::Logger *> >
	mov	ecx, DWORD PTR __$EHRec$[ebp]
	mov	DWORD PTR fs:0, ecx
	pop	ecx
	mov	esp, ebp
	pop	ebp
	ret	0
_TEXT	ENDS
;	COMDAT text$x
text$x	SEGMENT
__unwindfunclet$??1?$vector@PAVLogger@common@ibmras@@V?$allocator@PAVLogger@common@ibmras@@@std@@@std@@QAE@XZ$0:
	mov	ecx, DWORD PTR _this$[ebp]
	jmp	??1?$_Vector_val@PAVLogger@common@ibmras@@V?$allocator@PAVLogger@common@ibmras@@@std@@@std@@QAE@XZ ; std::_Vector_val<ibmras::common::Logger *,std::allocator<ibmras::common::Logger *> >::~_Vector_val<ibmras::common::Logger *,std::allocator<ibmras::common::Logger *> >
__ehhandler$??1?$vector@PAVLogger@common@ibmras@@V?$allocator@PAVLogger@common@ibmras@@@std@@@std@@QAE@XZ:
	mov	edx, DWORD PTR [esp+8]
	lea	eax, DWORD PTR [edx+12]
	mov	ecx, DWORD PTR [edx-8]
	xor	ecx, eax
	call	@__security_check_cookie@4
	mov	eax, OFFSET __ehfuncinfo$??1?$vector@PAVLogger@common@ibmras@@V?$allocator@PAVLogger@common@ibmras@@@std@@@std@@QAE@XZ
	jmp	___CxxFrameHandler3
text$x	ENDS
??1?$vector@PAVLogger@common@ibmras@@V?$allocator@PAVLogger@common@ibmras@@@std@@@std@@QAE@XZ ENDP ; std::vector<ibmras::common::Logger *,std::allocator<ibmras::common::Logger *> >::~vector<ibmras::common::Logger *,std::allocator<ibmras::common::Logger *> >
PUBLIC	?deallocate@?$allocator@PAVLogger@common@ibmras@@@std@@QAEXPAPAVLogger@common@ibmras@@I@Z ; std::allocator<ibmras::common::Logger *>::deallocate
PUBLIC	??$_Ucopy@PAPAVLogger@common@ibmras@@@?$vector@PAVLogger@common@ibmras@@V?$allocator@PAVLogger@common@ibmras@@@std@@@std@@IAEPAPAVLogger@common@ibmras@@PAPAV234@00@Z ; std::vector<ibmras::common::Logger *,std::allocator<ibmras::common::Logger *> >::_Ucopy<ibmras::common::Logger * *>
PUBLIC	?capacity@?$vector@PAVLogger@common@ibmras@@V?$allocator@PAVLogger@common@ibmras@@@std@@@std@@QBEIXZ ; std::vector<ibmras::common::Logger *,std::allocator<ibmras::common::Logger *> >::capacity
PUBLIC	?_Destroy@?$vector@PAVLogger@common@ibmras@@V?$allocator@PAVLogger@common@ibmras@@@std@@@std@@IAEXPAPAVLogger@common@ibmras@@0@Z ; std::vector<ibmras::common::Logger *,std::allocator<ibmras::common::Logger *> >::_Destroy
PUBLIC	??$_Copy_impl@PAPAVLogger@common@ibmras@@PAPAV123@@std@@YAPAPAVLogger@common@ibmras@@PAPAV123@00@Z ; std::_Copy_impl<ibmras::common::Logger * *,ibmras::common::Logger * *>
PUBLIC	?clear@?$vector@PAVLogger@common@ibmras@@V?$allocator@PAVLogger@common@ibmras@@@std@@@std@@QAEXXZ ; std::vector<ibmras::common::Logger *,std::allocator<ibmras::common::Logger *> >::clear
EXTRN	__imp_?_Orphan_all@_Container_base0@std@@QAEXXZ:PROC
; Function compile flags: /Odtp
;	COMDAT ??4?$vector@PAVLogger@common@ibmras@@V?$allocator@PAVLogger@common@ibmras@@@std@@@std@@QAEAAV01@ABV01@@Z
_TEXT	SEGMENT
_this$ = -12						; size = 4
__Ptr$33977 = -8					; size = 4
__Ptr$33967 = -4					; size = 4
__Right$ = 8						; size = 4
??4?$vector@PAVLogger@common@ibmras@@V?$allocator@PAVLogger@common@ibmras@@@std@@@std@@QAEAAV01@ABV01@@Z PROC ; std::vector<ibmras::common::Logger *,std::allocator<ibmras::common::Logger *> >::operator=, COMDAT
; _this$ = ecx
; Line 709
	push	ebp
	mov	ebp, esp
	sub	esp, 12					; 0000000cH
	push	esi
	mov	DWORD PTR _this$[ebp], ecx
; Line 710
	mov	eax, DWORD PTR _this$[ebp]
	cmp	eax, DWORD PTR __Right$[ebp]
	je	$LN9@operator
; Line 712
	mov	ecx, DWORD PTR _this$[ebp]
	call	DWORD PTR __imp_?_Orphan_all@_Container_base0@std@@QAEXXZ
; Line 714
	mov	ecx, DWORD PTR __Right$[ebp]
	call	?size@?$vector@PAVLogger@common@ibmras@@V?$allocator@PAVLogger@common@ibmras@@@std@@@std@@QBEIXZ ; std::vector<ibmras::common::Logger *,std::allocator<ibmras::common::Logger *> >::size
	test	eax, eax
	jne	SHORT $LN8@operator
; Line 715
	mov	ecx, DWORD PTR _this$[ebp]
	call	?clear@?$vector@PAVLogger@common@ibmras@@V?$allocator@PAVLogger@common@ibmras@@@std@@@std@@QAEXXZ ; std::vector<ibmras::common::Logger *,std::allocator<ibmras::common::Logger *> >::clear
	jmp	$LN9@operator
$LN8@operator:
; Line 716
	mov	ecx, DWORD PTR __Right$[ebp]
	call	?size@?$vector@PAVLogger@common@ibmras@@V?$allocator@PAVLogger@common@ibmras@@@std@@@std@@QBEIXZ ; std::vector<ibmras::common::Logger *,std::allocator<ibmras::common::Logger *> >::size
	mov	esi, eax
	mov	ecx, DWORD PTR _this$[ebp]
	call	?size@?$vector@PAVLogger@common@ibmras@@V?$allocator@PAVLogger@common@ibmras@@@std@@@std@@QBEIXZ ; std::vector<ibmras::common::Logger *,std::allocator<ibmras::common::Logger *> >::size
	cmp	esi, eax
	ja	SHORT $LN6@operator
; Line 719
	mov	ecx, DWORD PTR _this$[ebp]
	mov	edx, DWORD PTR [ecx]
	push	edx
	mov	eax, DWORD PTR __Right$[ebp]
	mov	ecx, DWORD PTR [eax+4]
	push	ecx
	mov	edx, DWORD PTR __Right$[ebp]
	mov	eax, DWORD PTR [edx]
	push	eax
	call	??$_Copy_impl@PAPAVLogger@common@ibmras@@PAPAV123@@std@@YAPAPAVLogger@common@ibmras@@PAPAV123@00@Z ; std::_Copy_impl<ibmras::common::Logger * *,ibmras::common::Logger * *>
	add	esp, 12					; 0000000cH
	mov	DWORD PTR __Ptr$33967[ebp], eax
; Line 720
	mov	ecx, DWORD PTR _this$[ebp]
	mov	edx, DWORD PTR [ecx+4]
	push	edx
	mov	eax, DWORD PTR __Ptr$33967[ebp]
	push	eax
	mov	ecx, DWORD PTR _this$[ebp]
	call	?_Destroy@?$vector@PAVLogger@common@ibmras@@V?$allocator@PAVLogger@common@ibmras@@@std@@@std@@IAEXPAPAVLogger@common@ibmras@@0@Z ; std::vector<ibmras::common::Logger *,std::allocator<ibmras::common::Logger *> >::_Destroy
; Line 721
	mov	ecx, DWORD PTR __Right$[ebp]
	call	?size@?$vector@PAVLogger@common@ibmras@@V?$allocator@PAVLogger@common@ibmras@@@std@@@std@@QBEIXZ ; std::vector<ibmras::common::Logger *,std::allocator<ibmras::common::Logger *> >::size
	mov	ecx, DWORD PTR _this$[ebp]
	mov	edx, DWORD PTR [ecx]
	lea	eax, DWORD PTR [edx+eax*4]
	mov	ecx, DWORD PTR _this$[ebp]
	mov	DWORD PTR [ecx+4], eax
	jmp	$LN9@operator
$LN6@operator:
; Line 723
	mov	ecx, DWORD PTR __Right$[ebp]
	call	?size@?$vector@PAVLogger@common@ibmras@@V?$allocator@PAVLogger@common@ibmras@@@std@@@std@@QBEIXZ ; std::vector<ibmras::common::Logger *,std::allocator<ibmras::common::Logger *> >::size
	mov	esi, eax
	mov	ecx, DWORD PTR _this$[ebp]
	call	?capacity@?$vector@PAVLogger@common@ibmras@@V?$allocator@PAVLogger@common@ibmras@@@std@@@std@@QBEIXZ ; std::vector<ibmras::common::Logger *,std::allocator<ibmras::common::Logger *> >::capacity
	cmp	esi, eax
	ja	SHORT $LN4@operator
; Line 725
	mov	ecx, DWORD PTR _this$[ebp]
	call	?size@?$vector@PAVLogger@common@ibmras@@V?$allocator@PAVLogger@common@ibmras@@@std@@@std@@QBEIXZ ; std::vector<ibmras::common::Logger *,std::allocator<ibmras::common::Logger *> >::size
	mov	edx, DWORD PTR __Right$[ebp]
	mov	ecx, DWORD PTR [edx]
	lea	edx, DWORD PTR [ecx+eax*4]
	mov	DWORD PTR __Ptr$33977[ebp], edx
; Line 726
	mov	eax, DWORD PTR _this$[ebp]
	mov	ecx, DWORD PTR [eax]
	push	ecx
	mov	edx, DWORD PTR __Ptr$33977[ebp]
	push	edx
	mov	eax, DWORD PTR __Right$[ebp]
	mov	ecx, DWORD PTR [eax]
	push	ecx
	call	??$_Copy_impl@PAPAVLogger@common@ibmras@@PAPAV123@@std@@YAPAPAVLogger@common@ibmras@@PAPAV123@00@Z ; std::_Copy_impl<ibmras::common::Logger * *,ibmras::common::Logger * *>
	add	esp, 12					; 0000000cH
; Line 727
	mov	edx, DWORD PTR _this$[ebp]
	mov	eax, DWORD PTR [edx+4]
	push	eax
	mov	ecx, DWORD PTR __Right$[ebp]
	mov	edx, DWORD PTR [ecx+4]
	push	edx
	mov	eax, DWORD PTR __Ptr$33977[ebp]
	push	eax
	mov	ecx, DWORD PTR _this$[ebp]
	call	??$_Ucopy@PAPAVLogger@common@ibmras@@@?$vector@PAVLogger@common@ibmras@@V?$allocator@PAVLogger@common@ibmras@@@std@@@std@@IAEPAPAVLogger@common@ibmras@@PAPAV234@00@Z ; std::vector<ibmras::common::Logger *,std::allocator<ibmras::common::Logger *> >::_Ucopy<ibmras::common::Logger * *>
	mov	ecx, DWORD PTR _this$[ebp]
	mov	DWORD PTR [ecx+4], eax
; Line 729
	jmp	SHORT $LN9@operator
$LN4@operator:
; Line 731
	mov	edx, DWORD PTR _this$[ebp]
	cmp	DWORD PTR [edx], 0
	je	SHORT $LN2@operator
; Line 733
	mov	eax, DWORD PTR _this$[ebp]
	mov	ecx, DWORD PTR [eax+4]
	push	ecx
	mov	edx, DWORD PTR _this$[ebp]
	mov	eax, DWORD PTR [edx]
	push	eax
	mov	ecx, DWORD PTR _this$[ebp]
	call	?_Destroy@?$vector@PAVLogger@common@ibmras@@V?$allocator@PAVLogger@common@ibmras@@@std@@@std@@IAEXPAPAVLogger@common@ibmras@@0@Z ; std::vector<ibmras::common::Logger *,std::allocator<ibmras::common::Logger *> >::_Destroy
; Line 735
	mov	ecx, DWORD PTR _this$[ebp]
	mov	edx, DWORD PTR _this$[ebp]
	mov	eax, DWORD PTR [ecx+8]
	sub	eax, DWORD PTR [edx]
	sar	eax, 2
	push	eax
	mov	ecx, DWORD PTR _this$[ebp]
	mov	edx, DWORD PTR [ecx]
	push	edx
	mov	ecx, DWORD PTR _this$[ebp]
	add	ecx, 12					; 0000000cH
	call	?deallocate@?$allocator@PAVLogger@common@ibmras@@@std@@QAEXPAPAVLogger@common@ibmras@@I@Z ; std::allocator<ibmras::common::Logger *>::deallocate
$LN2@operator:
; Line 737
	mov	ecx, DWORD PTR __Right$[ebp]
	call	?size@?$vector@PAVLogger@common@ibmras@@V?$allocator@PAVLogger@common@ibmras@@@std@@@std@@QBEIXZ ; std::vector<ibmras::common::Logger *,std::allocator<ibmras::common::Logger *> >::size
	push	eax
	mov	ecx, DWORD PTR _this$[ebp]
	call	?_Buy@?$vector@PAVLogger@common@ibmras@@V?$allocator@PAVLogger@common@ibmras@@@std@@@std@@IAE_NI@Z ; std::vector<ibmras::common::Logger *,std::allocator<ibmras::common::Logger *> >::_Buy
	movzx	eax, al
	test	eax, eax
	je	SHORT $LN9@operator
; Line 739
	mov	ecx, DWORD PTR _this$[ebp]
	mov	edx, DWORD PTR [ecx]
	push	edx
	mov	eax, DWORD PTR __Right$[ebp]
	mov	ecx, DWORD PTR [eax+4]
	push	ecx
	mov	edx, DWORD PTR __Right$[ebp]
	mov	eax, DWORD PTR [edx]
	push	eax
	mov	ecx, DWORD PTR _this$[ebp]
	call	??$_Ucopy@PAPAVLogger@common@ibmras@@@?$vector@PAVLogger@common@ibmras@@V?$allocator@PAVLogger@common@ibmras@@@std@@@std@@IAEPAPAVLogger@common@ibmras@@PAPAV234@00@Z ; std::vector<ibmras::common::Logger *,std::allocator<ibmras::common::Logger *> >::_Ucopy<ibmras::common::Logger * *>
	mov	ecx, DWORD PTR _this$[ebp]
	mov	DWORD PTR [ecx+4], eax
$LN9@operator:
; Line 742
	mov	eax, DWORD PTR _this$[ebp]
; Line 743
	pop	esi
	mov	esp, ebp
	pop	ebp
	ret	4
??4?$vector@PAVLogger@common@ibmras@@V?$allocator@PAVLogger@common@ibmras@@@std@@@std@@QAEAAV01@ABV01@@Z ENDP ; std::vector<ibmras::common::Logger *,std::allocator<ibmras::common::Logger *> >::operator=
_TEXT	ENDS
PUBLIC	??0?$_Vector_iterator@V?$_Vector_val@PAVLogger@common@ibmras@@V?$allocator@PAVLogger@common@ibmras@@@std@@@std@@@std@@QAE@PAPAVLogger@common@ibmras@@PBU_Container_base0@1@@Z ; std::_Vector_iterator<std::_Vector_val<ibmras::common::Logger *,std::allocator<ibmras::common::Logger *> > >::_Vector_iterator<std::_Vector_val<ibmras::common::Logger *,std::allocator<ibmras::common::Logger *> > >
; Function compile flags: /Odtp
;	COMDAT ?begin@?$vector@PAVLogger@common@ibmras@@V?$allocator@PAVLogger@common@ibmras@@@std@@@std@@QAE?AV?$_Vector_iterator@V?$_Vector_val@PAVLogger@common@ibmras@@V?$allocator@PAVLogger@common@ibmras@@@std@@@std@@@2@XZ
_TEXT	SEGMENT
_this$ = -4						; size = 4
___$ReturnUdt$ = 8					; size = 4
?begin@?$vector@PAVLogger@common@ibmras@@V?$allocator@PAVLogger@common@ibmras@@@std@@@std@@QAE?AV?$_Vector_iterator@V?$_Vector_val@PAVLogger@common@ibmras@@V?$allocator@PAVLogger@common@ibmras@@@std@@@std@@@2@XZ PROC ; std::vector<ibmras::common::Logger *,std::allocator<ibmras::common::Logger *> >::begin, COMDAT
; _this$ = ecx
; Line 781
	push	ebp
	mov	ebp, esp
	push	ecx
	mov	DWORD PTR _this$[ebp], ecx
; Line 782
	mov	eax, DWORD PTR _this$[ebp]
	push	eax
	mov	ecx, DWORD PTR _this$[ebp]
	mov	edx, DWORD PTR [ecx]
	push	edx
	mov	ecx, DWORD PTR ___$ReturnUdt$[ebp]
	call	??0?$_Vector_iterator@V?$_Vector_val@PAVLogger@common@ibmras@@V?$allocator@PAVLogger@common@ibmras@@@std@@@std@@@std@@QAE@PAPAVLogger@common@ibmras@@PBU_Container_base0@1@@Z ; std::_Vector_iterator<std::_Vector_val<ibmras::common::Logger *,std::allocator<ibmras::common::Logger *> > >::_Vector_iterator<std::_Vector_val<ibmras::common::Logger *,std::allocator<ibmras::common::Logger *> > >
	mov	eax, DWORD PTR ___$ReturnUdt$[ebp]
; Line 783
	mov	esp, ebp
	pop	ebp
	ret	4
?begin@?$vector@PAVLogger@common@ibmras@@V?$allocator@PAVLogger@common@ibmras@@@std@@@std@@QAE?AV?$_Vector_iterator@V?$_Vector_val@PAVLogger@common@ibmras@@V?$allocator@PAVLogger@common@ibmras@@@std@@@std@@@2@XZ ENDP ; std::vector<ibmras::common::Logger *,std::allocator<ibmras::common::Logger *> >::begin
; Function compile flags: /Odtp
_TEXT	ENDS
;	COMDAT ?end@?$vector@PAVLogger@common@ibmras@@V?$allocator@PAVLogger@common@ibmras@@@std@@@std@@QAE?AV?$_Vector_iterator@V?$_Vector_val@PAVLogger@common@ibmras@@V?$allocator@PAVLogger@common@ibmras@@@std@@@std@@@2@XZ
_TEXT	SEGMENT
_this$ = -4						; size = 4
___$ReturnUdt$ = 8					; size = 4
?end@?$vector@PAVLogger@common@ibmras@@V?$allocator@PAVLogger@common@ibmras@@@std@@@std@@QAE?AV?$_Vector_iterator@V?$_Vector_val@PAVLogger@common@ibmras@@V?$allocator@PAVLogger@common@ibmras@@@std@@@std@@@2@XZ PROC ; std::vector<ibmras::common::Logger *,std::allocator<ibmras::common::Logger *> >::end, COMDAT
; _this$ = ecx
; Line 791
	push	ebp
	mov	ebp, esp
	push	ecx
	mov	DWORD PTR _this$[ebp], ecx
; Line 792
	mov	eax, DWORD PTR _this$[ebp]
	push	eax
	mov	ecx, DWORD PTR _this$[ebp]
	mov	edx, DWORD PTR [ecx+4]
	push	edx
	mov	ecx, DWORD PTR ___$ReturnUdt$[ebp]
	call	??0?$_Vector_iterator@V?$_Vector_val@PAVLogger@common@ibmras@@V?$allocator@PAVLogger@common@ibmras@@@std@@@std@@@std@@QAE@PAPAVLogger@common@ibmras@@PBU_Container_base0@1@@Z ; std::_Vector_iterator<std::_Vector_val<ibmras::common::Logger *,std::allocator<ibmras::common::Logger *> > >::_Vector_iterator<std::_Vector_val<ibmras::common::Logger *,std::allocator<ibmras::common::Logger *> > >
	mov	eax, DWORD PTR ___$ReturnUdt$[ebp]
; Line 793
	mov	esp, ebp
	pop	ebp
	ret	4
?end@?$vector@PAVLogger@common@ibmras@@V?$allocator@PAVLogger@common@ibmras@@@std@@@std@@QAE?AV?$_Vector_iterator@V?$_Vector_val@PAVLogger@common@ibmras@@V?$allocator@PAVLogger@common@ibmras@@@std@@@std@@@2@XZ ENDP ; std::vector<ibmras::common::Logger *,std::allocator<ibmras::common::Logger *> >::end
_TEXT	ENDS
PUBLIC	??$_Cons_val@V?$allocator@PAVLogger@common@ibmras@@@std@@PAVLogger@common@ibmras@@ABQAV345@@std@@YAXAAV?$allocator@PAVLogger@common@ibmras@@@0@PAPAVLogger@common@ibmras@@ABQAV234@@Z ; std::_Cons_val<std::allocator<ibmras::common::Logger *>,ibmras::common::Logger *,ibmras::common::Logger * const &>
PUBLIC	??$_Cons_val@V?$allocator@PAVLogger@common@ibmras@@@std@@PAVLogger@common@ibmras@@AAPAV345@@std@@YAXAAV?$allocator@PAVLogger@common@ibmras@@@0@PAPAVLogger@common@ibmras@@AAPAV234@@Z ; std::_Cons_val<std::allocator<ibmras::common::Logger *>,ibmras::common::Logger *,ibmras::common::Logger * &>
PUBLIC	?_Orphan_range@?$vector@PAVLogger@common@ibmras@@V?$allocator@PAVLogger@common@ibmras@@@std@@@std@@IBEXPAPAVLogger@common@ibmras@@0@Z ; std::vector<ibmras::common::Logger *,std::allocator<ibmras::common::Logger *> >::_Orphan_range
PUBLIC	?_Reserve@?$vector@PAVLogger@common@ibmras@@V?$allocator@PAVLogger@common@ibmras@@@std@@@std@@IAEXI@Z ; std::vector<ibmras::common::Logger *,std::allocator<ibmras::common::Logger *> >::_Reserve
PUBLIC	?_Inside@?$vector@PAVLogger@common@ibmras@@V?$allocator@PAVLogger@common@ibmras@@@std@@@std@@IBE_NPBQAVLogger@common@ibmras@@@Z ; std::vector<ibmras::common::Logger *,std::allocator<ibmras::common::Logger *> >::_Inside
PUBLIC	??$addressof@QAVLogger@common@ibmras@@@std@@YAPBQAVLogger@common@ibmras@@ABQAV123@@Z ; std::addressof<ibmras::common::Logger * const>
; Function compile flags: /Odtp
;	COMDAT ?push_back@?$vector@PAVLogger@common@ibmras@@V?$allocator@PAVLogger@common@ibmras@@@std@@@std@@QAEXABQAVLogger@common@ibmras@@@Z
_TEXT	SEGMENT
_this$ = -8						; size = 4
__Idx$34001 = -4					; size = 4
__Val$ = 8						; size = 4
?push_back@?$vector@PAVLogger@common@ibmras@@V?$allocator@PAVLogger@common@ibmras@@@std@@@std@@QAEXABQAVLogger@common@ibmras@@@Z PROC ; std::vector<ibmras::common::Logger *,std::allocator<ibmras::common::Logger *> >::push_back, COMDAT
; _this$ = ecx
; Line 976
	push	ebp
	mov	ebp, esp
	sub	esp, 8
	mov	DWORD PTR _this$[ebp], ecx
; Line 977
	mov	eax, DWORD PTR __Val$[ebp]
	push	eax
	call	??$addressof@QAVLogger@common@ibmras@@@std@@YAPBQAVLogger@common@ibmras@@ABQAV123@@Z ; std::addressof<ibmras::common::Logger * const>
	add	esp, 4
	push	eax
	mov	ecx, DWORD PTR _this$[ebp]
	call	?_Inside@?$vector@PAVLogger@common@ibmras@@V?$allocator@PAVLogger@common@ibmras@@@std@@@std@@IBE_NPBQAVLogger@common@ibmras@@@Z ; std::vector<ibmras::common::Logger *,std::allocator<ibmras::common::Logger *> >::_Inside
	movzx	ecx, al
	test	ecx, ecx
	je	SHORT $LN4@push_back
; Line 979
	mov	edx, DWORD PTR __Val$[ebp]
	push	edx
	call	??$addressof@QAVLogger@common@ibmras@@@std@@YAPBQAVLogger@common@ibmras@@ABQAV123@@Z ; std::addressof<ibmras::common::Logger * const>
	add	esp, 4
	mov	ecx, DWORD PTR _this$[ebp]
	sub	eax, DWORD PTR [ecx]
	sar	eax, 2
	mov	DWORD PTR __Idx$34001[ebp], eax
; Line 980
	mov	edx, DWORD PTR _this$[ebp]
	mov	eax, DWORD PTR _this$[ebp]
	mov	ecx, DWORD PTR [edx+4]
	cmp	ecx, DWORD PTR [eax+8]
	jne	SHORT $LN3@push_back
; Line 981
	push	1
	mov	ecx, DWORD PTR _this$[ebp]
	call	?_Reserve@?$vector@PAVLogger@common@ibmras@@V?$allocator@PAVLogger@common@ibmras@@@std@@@std@@IAEXI@Z ; std::vector<ibmras::common::Logger *,std::allocator<ibmras::common::Logger *> >::_Reserve
$LN3@push_back:
; Line 982
	mov	edx, DWORD PTR _this$[ebp]
	mov	eax, DWORD PTR [edx+4]
	push	eax
	mov	ecx, DWORD PTR _this$[ebp]
	mov	edx, DWORD PTR [ecx+4]
	push	edx
	mov	ecx, DWORD PTR _this$[ebp]
	call	?_Orphan_range@?$vector@PAVLogger@common@ibmras@@V?$allocator@PAVLogger@common@ibmras@@@std@@@std@@IBEXPAPAVLogger@common@ibmras@@0@Z ; std::vector<ibmras::common::Logger *,std::allocator<ibmras::common::Logger *> >::_Orphan_range
; Line 985
	mov	eax, DWORD PTR _this$[ebp]
	mov	ecx, DWORD PTR [eax]
	mov	edx, DWORD PTR __Idx$34001[ebp]
	lea	eax, DWORD PTR [ecx+edx*4]
	push	eax
	mov	ecx, DWORD PTR _this$[ebp]
	mov	edx, DWORD PTR [ecx+4]
	push	edx
	mov	eax, DWORD PTR _this$[ebp]
	add	eax, 12					; 0000000cH
	push	eax
	call	??$_Cons_val@V?$allocator@PAVLogger@common@ibmras@@@std@@PAVLogger@common@ibmras@@AAPAV345@@std@@YAXAAV?$allocator@PAVLogger@common@ibmras@@@0@PAPAVLogger@common@ibmras@@AAPAV234@@Z ; std::_Cons_val<std::allocator<ibmras::common::Logger *>,ibmras::common::Logger *,ibmras::common::Logger * &>
	add	esp, 12					; 0000000cH
; Line 986
	mov	ecx, DWORD PTR _this$[ebp]
	mov	edx, DWORD PTR [ecx+4]
	add	edx, 4
	mov	eax, DWORD PTR _this$[ebp]
	mov	DWORD PTR [eax+4], edx
; Line 988
	jmp	SHORT $LN5@push_back
$LN4@push_back:
; Line 990
	mov	ecx, DWORD PTR _this$[ebp]
	mov	edx, DWORD PTR _this$[ebp]
	mov	eax, DWORD PTR [ecx+4]
	cmp	eax, DWORD PTR [edx+8]
	jne	SHORT $LN1@push_back
; Line 991
	push	1
	mov	ecx, DWORD PTR _this$[ebp]
	call	?_Reserve@?$vector@PAVLogger@common@ibmras@@V?$allocator@PAVLogger@common@ibmras@@@std@@@std@@IAEXI@Z ; std::vector<ibmras::common::Logger *,std::allocator<ibmras::common::Logger *> >::_Reserve
$LN1@push_back:
; Line 992
	mov	ecx, DWORD PTR _this$[ebp]
	mov	edx, DWORD PTR [ecx+4]
	push	edx
	mov	eax, DWORD PTR _this$[ebp]
	mov	ecx, DWORD PTR [eax+4]
	push	ecx
	mov	ecx, DWORD PTR _this$[ebp]
	call	?_Orphan_range@?$vector@PAVLogger@common@ibmras@@V?$allocator@PAVLogger@common@ibmras@@@std@@@std@@IBEXPAPAVLogger@common@ibmras@@0@Z ; std::vector<ibmras::common::Logger *,std::allocator<ibmras::common::Logger *> >::_Orphan_range
; Line 995
	mov	edx, DWORD PTR __Val$[ebp]
	push	edx
	mov	eax, DWORD PTR _this$[ebp]
	mov	ecx, DWORD PTR [eax+4]
	push	ecx
	mov	edx, DWORD PTR _this$[ebp]
	add	edx, 12					; 0000000cH
	push	edx
	call	??$_Cons_val@V?$allocator@PAVLogger@common@ibmras@@@std@@PAVLogger@common@ibmras@@ABQAV345@@std@@YAXAAV?$allocator@PAVLogger@common@ibmras@@@0@PAPAVLogger@common@ibmras@@ABQAV234@@Z ; std::_Cons_val<std::allocator<ibmras::common::Logger *>,ibmras::common::Logger *,ibmras::common::Logger * const &>
	add	esp, 12					; 0000000cH
; Line 996
	mov	eax, DWORD PTR _this$[ebp]
	mov	ecx, DWORD PTR [eax+4]
	add	ecx, 4
	mov	edx, DWORD PTR _this$[ebp]
	mov	DWORD PTR [edx+4], ecx
$LN5@push_back:
; Line 998
	mov	esp, ebp
	pop	ebp
	ret	4
?push_back@?$vector@PAVLogger@common@ibmras@@V?$allocator@PAVLogger@common@ibmras@@@std@@@std@@QAEXABQAVLogger@common@ibmras@@@Z ENDP ; std::vector<ibmras::common::Logger *,std::allocator<ibmras::common::Logger *> >::push_back
_TEXT	ENDS
PUBLIC	??D?$_Vector_const_iterator@V?$_Vector_val@PAVLogger@common@ibmras@@V?$allocator@PAVLogger@common@ibmras@@@std@@@std@@@std@@QBEABQAVLogger@common@ibmras@@XZ ; std::_Vector_const_iterator<std::_Vector_val<ibmras::common::Logger *,std::allocator<ibmras::common::Logger *> > >::operator*
; Function compile flags: /Odtp
;	COMDAT ??D?$_Vector_iterator@V?$_Vector_val@PAVLogger@common@ibmras@@V?$allocator@PAVLogger@common@ibmras@@@std@@@std@@@std@@QBEAAPAVLogger@common@ibmras@@XZ
_TEXT	SEGMENT
_this$ = -4						; size = 4
??D?$_Vector_iterator@V?$_Vector_val@PAVLogger@common@ibmras@@V?$allocator@PAVLogger@common@ibmras@@@std@@@std@@@std@@QBEAAPAVLogger@common@ibmras@@XZ PROC ; std::_Vector_iterator<std::_Vector_val<ibmras::common::Logger *,std::allocator<ibmras::common::Logger *> > >::operator*, COMDAT
; _this$ = ecx
; Line 321
	push	ebp
	mov	ebp, esp
	push	ecx
	mov	DWORD PTR _this$[ebp], ecx
; Line 322
	mov	ecx, DWORD PTR _this$[ebp]
	call	??D?$_Vector_const_iterator@V?$_Vector_val@PAVLogger@common@ibmras@@V?$allocator@PAVLogger@common@ibmras@@@std@@@std@@@std@@QBEABQAVLogger@common@ibmras@@XZ ; std::_Vector_const_iterator<std::_Vector_val<ibmras::common::Logger *,std::allocator<ibmras::common::Logger *> > >::operator*
; Line 323
	mov	esp, ebp
	pop	ebp
	ret	0
??D?$_Vector_iterator@V?$_Vector_val@PAVLogger@common@ibmras@@V?$allocator@PAVLogger@common@ibmras@@@std@@@std@@@std@@QBEAAPAVLogger@common@ibmras@@XZ ENDP ; std::_Vector_iterator<std::_Vector_val<ibmras::common::Logger *,std::allocator<ibmras::common::Logger *> > >::operator*
_TEXT	ENDS
PUBLIC	??E?$_Vector_const_iterator@V?$_Vector_val@PAVLogger@common@ibmras@@V?$allocator@PAVLogger@common@ibmras@@@std@@@std@@@std@@QAEAAV01@XZ ; std::_Vector_const_iterator<std::_Vector_val<ibmras::common::Logger *,std::allocator<ibmras::common::Logger *> > >::operator++
; Function compile flags: /Odtp
;	COMDAT ??E?$_Vector_iterator@V?$_Vector_val@PAVLogger@common@ibmras@@V?$allocator@PAVLogger@common@ibmras@@@std@@@std@@@std@@QAEAAV01@XZ
_TEXT	SEGMENT
_this$ = -4						; size = 4
??E?$_Vector_iterator@V?$_Vector_val@PAVLogger@common@ibmras@@V?$allocator@PAVLogger@common@ibmras@@@std@@@std@@@std@@QAEAAV01@XZ PROC ; std::_Vector_iterator<std::_Vector_val<ibmras::common::Logger *,std::allocator<ibmras::common::Logger *> > >::operator++, COMDAT
; _this$ = ecx
; Line 331
	push	ebp
	mov	ebp, esp
	push	ecx
	mov	DWORD PTR _this$[ebp], ecx
; Line 332
	mov	ecx, DWORD PTR _this$[ebp]
	call	??E?$_Vector_const_iterator@V?$_Vector_val@PAVLogger@common@ibmras@@V?$allocator@PAVLogger@common@ibmras@@@std@@@std@@@std@@QAEAAV01@XZ ; std::_Vector_const_iterator<std::_Vector_val<ibmras::common::Logger *,std::allocator<ibmras::common::Logger *> > >::operator++
; Line 333
	mov	eax, DWORD PTR _this$[ebp]
; Line 334
	mov	esp, ebp
	pop	ebp
	ret	0
??E?$_Vector_iterator@V?$_Vector_val@PAVLogger@common@ibmras@@V?$allocator@PAVLogger@common@ibmras@@@std@@@std@@@std@@QAEAAV01@XZ ENDP ; std::_Vector_iterator<std::_Vector_val<ibmras::common::Logger *,std::allocator<ibmras::common::Logger *> > >::operator++
_TEXT	ENDS
PUBLIC	??8?$_Vector_const_iterator@V?$_Vector_val@PAVLogger@common@ibmras@@V?$allocator@PAVLogger@common@ibmras@@@std@@@std@@@std@@QBE_NABV01@@Z ; std::_Vector_const_iterator<std::_Vector_val<ibmras::common::Logger *,std::allocator<ibmras::common::Logger *> > >::operator==
; Function compile flags: /Odtp
;	COMDAT ??9?$_Vector_const_iterator@V?$_Vector_val@PAVLogger@common@ibmras@@V?$allocator@PAVLogger@common@ibmras@@@std@@@std@@@std@@QBE_NABV01@@Z
_TEXT	SEGMENT
_this$ = -4						; size = 4
__Right$ = 8						; size = 4
??9?$_Vector_const_iterator@V?$_Vector_val@PAVLogger@common@ibmras@@V?$allocator@PAVLogger@common@ibmras@@@std@@@std@@@std@@QBE_NABV01@@Z PROC ; std::_Vector_const_iterator<std::_Vector_val<ibmras::common::Logger *,std::allocator<ibmras::common::Logger *> > >::operator!=, COMDAT
; _this$ = ecx
; Line 207
	push	ebp
	mov	ebp, esp
	push	ecx
	mov	DWORD PTR _this$[ebp], ecx
; Line 208
	mov	eax, DWORD PTR __Right$[ebp]
	push	eax
	mov	ecx, DWORD PTR _this$[ebp]
	call	??8?$_Vector_const_iterator@V?$_Vector_val@PAVLogger@common@ibmras@@V?$allocator@PAVLogger@common@ibmras@@@std@@@std@@@std@@QBE_NABV01@@Z ; std::_Vector_const_iterator<std::_Vector_val<ibmras::common::Logger *,std::allocator<ibmras::common::Logger *> > >::operator==
	movzx	eax, al
	neg	eax
	sbb	eax, eax
	add	eax, 1
; Line 209
	mov	esp, ebp
	pop	ebp
	ret	4
??9?$_Vector_const_iterator@V?$_Vector_val@PAVLogger@common@ibmras@@V?$allocator@PAVLogger@common@ibmras@@@std@@@std@@@std@@QBE_NABV01@@Z ENDP ; std::_Vector_const_iterator<std::_Vector_val<ibmras::common::Logger *,std::allocator<ibmras::common::Logger *> > >::operator!=
; Function compile flags: /Odtp
_TEXT	ENDS
;	COMDAT ?assign@?$basic_string@DU?$char_traits@D@std@@V?$allocator@D@2@@std@@QAEAAV12@ABV12@@Z
_TEXT	SEGMENT
_this$ = -4						; size = 4
__Right$ = 8						; size = 4
?assign@?$basic_string@DU?$char_traits@D@std@@V?$allocator@D@2@@std@@QAEAAV12@ABV12@@Z PROC ; std::basic_string<char,std::char_traits<char>,std::allocator<char> >::assign, COMDAT
; _this$ = ecx
; File c:\program files (x86)\microsoft visual studio 10.0\vc\include\xstring
; Line 886
	push	ebp
	mov	ebp, esp
	push	ecx
	mov	DWORD PTR _this$[ebp], ecx
; Line 887
	mov	eax, DWORD PTR ?npos@?$basic_string@DU?$char_traits@D@std@@V?$allocator@D@2@@std@@2IB ; std::basic_string<char,std::char_traits<char>,std::allocator<char> >::npos
	push	eax
	push	0
	mov	ecx, DWORD PTR __Right$[ebp]
	push	ecx
	mov	ecx, DWORD PTR _this$[ebp]
	call	?assign@?$basic_string@DU?$char_traits@D@std@@V?$allocator@D@2@@std@@QAEAAV12@ABV12@II@Z ; std::basic_string<char,std::char_traits<char>,std::allocator<char> >::assign
; Line 888
	mov	esp, ebp
	pop	ebp
	ret	4
?assign@?$basic_string@DU?$char_traits@D@std@@V?$allocator@D@2@@std@@QAEAAV12@ABV12@@Z ENDP ; std::basic_string<char,std::char_traits<char>,std::allocator<char> >::assign
_TEXT	ENDS
PUBLIC	?_Eos@?$basic_string@DU?$char_traits@D@std@@V?$allocator@D@2@@std@@QAEXI@Z ; std::basic_string<char,std::char_traits<char>,std::allocator<char> >::_Eos
PUBLIC	?copy@?$char_traits@D@std@@SAPADPADPBDI@Z	; std::char_traits<char>::copy
PUBLIC	?_Myptr@?$basic_string@DU?$char_traits@D@std@@V?$allocator@D@2@@std@@QAEPADXZ ; std::basic_string<char,std::char_traits<char>,std::allocator<char> >::_Myptr
PUBLIC	?_Myptr@?$basic_string@DU?$char_traits@D@std@@V?$allocator@D@2@@std@@QBEPBDXZ ; std::basic_string<char,std::char_traits<char>,std::allocator<char> >::_Myptr
PUBLIC	?_Grow@?$basic_string@DU?$char_traits@D@std@@V?$allocator@D@2@@std@@QAE_NI_N@Z ; std::basic_string<char,std::char_traits<char>,std::allocator<char> >::_Grow
PUBLIC	?erase@?$basic_string@DU?$char_traits@D@std@@V?$allocator@D@2@@std@@QAEAAV12@II@Z ; std::basic_string<char,std::char_traits<char>,std::allocator<char> >::erase
PUBLIC	?_Xran@?$basic_string@DU?$char_traits@D@std@@V?$allocator@D@2@@std@@QBEXXZ ; std::basic_string<char,std::char_traits<char>,std::allocator<char> >::_Xran
PUBLIC	?size@?$basic_string@DU?$char_traits@D@std@@V?$allocator@D@2@@std@@QBEIXZ ; std::basic_string<char,std::char_traits<char>,std::allocator<char> >::size
; Function compile flags: /Odtp
;	COMDAT ?assign@?$basic_string@DU?$char_traits@D@std@@V?$allocator@D@2@@std@@QAEAAV12@ABV12@II@Z
_TEXT	SEGMENT
_this$ = -8						; size = 4
__Num$ = -4						; size = 4
__Right$ = 8						; size = 4
__Roff$ = 12						; size = 4
__Count$ = 16						; size = 4
?assign@?$basic_string@DU?$char_traits@D@std@@V?$allocator@D@2@@std@@QAEAAV12@ABV12@II@Z PROC ; std::basic_string<char,std::char_traits<char>,std::allocator<char> >::assign, COMDAT
; _this$ = ecx
; Line 892
	push	ebp
	mov	ebp, esp
	sub	esp, 8
	mov	DWORD PTR _this$[ebp], ecx
; Line 893
	mov	ecx, DWORD PTR __Right$[ebp]
	call	?size@?$basic_string@DU?$char_traits@D@std@@V?$allocator@D@2@@std@@QBEIXZ ; std::basic_string<char,std::char_traits<char>,std::allocator<char> >::size
	cmp	eax, DWORD PTR __Roff$[ebp]
	jae	SHORT $LN5@assign
; Line 894
	mov	ecx, DWORD PTR _this$[ebp]
	call	?_Xran@?$basic_string@DU?$char_traits@D@std@@V?$allocator@D@2@@std@@QBEXXZ ; std::basic_string<char,std::char_traits<char>,std::allocator<char> >::_Xran
$LN5@assign:
; Line 895
	mov	ecx, DWORD PTR __Right$[ebp]
	call	?size@?$basic_string@DU?$char_traits@D@std@@V?$allocator@D@2@@std@@QBEIXZ ; std::basic_string<char,std::char_traits<char>,std::allocator<char> >::size
	sub	eax, DWORD PTR __Roff$[ebp]
	mov	DWORD PTR __Num$[ebp], eax
; Line 896
	mov	eax, DWORD PTR __Count$[ebp]
	cmp	eax, DWORD PTR __Num$[ebp]
	jae	SHORT $LN4@assign
; Line 897
	mov	ecx, DWORD PTR __Count$[ebp]
	mov	DWORD PTR __Num$[ebp], ecx
$LN4@assign:
; Line 899
	mov	edx, DWORD PTR _this$[ebp]
	cmp	edx, DWORD PTR __Right$[ebp]
	jne	SHORT $LN3@assign
; Line 900
	mov	eax, DWORD PTR ?npos@?$basic_string@DU?$char_traits@D@std@@V?$allocator@D@2@@std@@2IB ; std::basic_string<char,std::char_traits<char>,std::allocator<char> >::npos
	push	eax
	mov	ecx, DWORD PTR __Roff$[ebp]
	add	ecx, DWORD PTR __Num$[ebp]
	push	ecx
	mov	ecx, DWORD PTR _this$[ebp]
	call	?erase@?$basic_string@DU?$char_traits@D@std@@V?$allocator@D@2@@std@@QAEAAV12@II@Z ; std::basic_string<char,std::char_traits<char>,std::allocator<char> >::erase
	mov	edx, DWORD PTR __Roff$[ebp]
	push	edx
	push	0
	mov	ecx, DWORD PTR _this$[ebp]
	call	?erase@?$basic_string@DU?$char_traits@D@std@@V?$allocator@D@2@@std@@QAEAAV12@II@Z ; std::basic_string<char,std::char_traits<char>,std::allocator<char> >::erase
	jmp	SHORT $LN2@assign
$LN3@assign:
; Line 901
	push	0
	mov	eax, DWORD PTR __Num$[ebp]
	push	eax
	mov	ecx, DWORD PTR _this$[ebp]
	call	?_Grow@?$basic_string@DU?$char_traits@D@std@@V?$allocator@D@2@@std@@QAE_NI_N@Z ; std::basic_string<char,std::char_traits<char>,std::allocator<char> >::_Grow
	movzx	ecx, al
	test	ecx, ecx
	je	SHORT $LN2@assign
; Line 903
	mov	edx, DWORD PTR __Num$[ebp]
	push	edx
	mov	ecx, DWORD PTR __Right$[ebp]
	call	?_Myptr@?$basic_string@DU?$char_traits@D@std@@V?$allocator@D@2@@std@@QBEPBDXZ ; std::basic_string<char,std::char_traits<char>,std::allocator<char> >::_Myptr
	add	eax, DWORD PTR __Roff$[ebp]
	push	eax
	mov	ecx, DWORD PTR _this$[ebp]
	call	?_Myptr@?$basic_string@DU?$char_traits@D@std@@V?$allocator@D@2@@std@@QAEPADXZ ; std::basic_string<char,std::char_traits<char>,std::allocator<char> >::_Myptr
	push	eax
	call	?copy@?$char_traits@D@std@@SAPADPADPBDI@Z ; std::char_traits<char>::copy
	add	esp, 12					; 0000000cH
; Line 904
	mov	eax, DWORD PTR __Num$[ebp]
	push	eax
	mov	ecx, DWORD PTR _this$[ebp]
	call	?_Eos@?$basic_string@DU?$char_traits@D@std@@V?$allocator@D@2@@std@@QAEXI@Z ; std::basic_string<char,std::char_traits<char>,std::allocator<char> >::_Eos
$LN2@assign:
; Line 906
	mov	eax, DWORD PTR _this$[ebp]
$LN7@assign:
; Line 907
	mov	esp, ebp
	pop	ebp
	ret	12					; 0000000cH
?assign@?$basic_string@DU?$char_traits@D@std@@V?$allocator@D@2@@std@@QAEAAV12@ABV12@II@Z ENDP ; std::basic_string<char,std::char_traits<char>,std::allocator<char> >::assign
_TEXT	ENDS
EXTRN	_memcpy:PROC
; Function compile flags: /Odtp
;	COMDAT ?copy@?$char_traits@D@std@@SAPADPADPBDI@Z
_TEXT	SEGMENT
__First1$ = 8						; size = 4
__First2$ = 12						; size = 4
__Count$ = 16						; size = 4
?copy@?$char_traits@D@std@@SAPADPADPBDI@Z PROC		; std::char_traits<char>::copy, COMDAT
; File c:\program files (x86)\microsoft visual studio 10.0\vc\include\iosfwd
; Line 496
	push	ebp
	mov	ebp, esp
; Line 497
	mov	eax, DWORD PTR __Count$[ebp]
	push	eax
	mov	ecx, DWORD PTR __First2$[ebp]
	push	ecx
	mov	edx, DWORD PTR __First1$[ebp]
	push	edx
	call	_memcpy
	add	esp, 12					; 0000000cH
; Line 498
	pop	ebp
	ret	0
?copy@?$char_traits@D@std@@SAPADPADPBDI@Z ENDP		; std::char_traits<char>::copy
; Function compile flags: /Odtp
_TEXT	ENDS
;	COMDAT ?size@?$basic_string@DU?$char_traits@D@std@@V?$allocator@D@2@@std@@QBEIXZ
_TEXT	SEGMENT
_this$ = -4						; size = 4
?size@?$basic_string@DU?$char_traits@D@std@@V?$allocator@D@2@@std@@QBEIXZ PROC ; std::basic_string<char,std::char_traits<char>,std::allocator<char> >::size, COMDAT
; _this$ = ecx
; File c:\program files (x86)\microsoft visual studio 10.0\vc\include\xstring
; Line 1510
	push	ebp
	mov	ebp, esp
	push	ecx
	mov	DWORD PTR _this$[ebp], ecx
; Line 1511
	mov	eax, DWORD PTR _this$[ebp]
	mov	eax, DWORD PTR [eax+16]
; Line 1512
	mov	esp, ebp
	pop	ebp
	ret	0
?size@?$basic_string@DU?$char_traits@D@std@@V?$allocator@D@2@@std@@QBEIXZ ENDP ; std::basic_string<char,std::char_traits<char>,std::allocator<char> >::size
_TEXT	ENDS
PUBLIC	?assign@?$basic_string@DU?$char_traits@D@std@@V?$allocator@D@2@@std@@QAEAAV12@PBDI@Z ; std::basic_string<char,std::char_traits<char>,std::allocator<char> >::assign
; Function compile flags: /Odtp
;	COMDAT ?assign@?$basic_string@DU?$char_traits@D@std@@V?$allocator@D@2@@std@@QAEAAV12@PBD@Z
_TEXT	SEGMENT
_this$ = -4						; size = 4
__Ptr$ = 8						; size = 4
?assign@?$basic_string@DU?$char_traits@D@std@@V?$allocator@D@2@@std@@QAEAAV12@PBD@Z PROC ; std::basic_string<char,std::char_traits<char>,std::allocator<char> >::assign, COMDAT
; _this$ = ecx
; Line 928
	push	ebp
	mov	ebp, esp
	push	ecx
	mov	DWORD PTR _this$[ebp], ecx
; Line 930
	mov	eax, DWORD PTR __Ptr$[ebp]
	push	eax
	call	?length@?$char_traits@D@std@@SAIPBD@Z	; std::char_traits<char>::length
	add	esp, 4
	push	eax
	mov	ecx, DWORD PTR __Ptr$[ebp]
	push	ecx
	mov	ecx, DWORD PTR _this$[ebp]
	call	?assign@?$basic_string@DU?$char_traits@D@std@@V?$allocator@D@2@@std@@QAEAAV12@PBDI@Z ; std::basic_string<char,std::char_traits<char>,std::allocator<char> >::assign
; Line 931
	mov	esp, ebp
	pop	ebp
	ret	4
?assign@?$basic_string@DU?$char_traits@D@std@@V?$allocator@D@2@@std@@QAEAAV12@PBD@Z ENDP ; std::basic_string<char,std::char_traits<char>,std::allocator<char> >::assign
_TEXT	ENDS
PUBLIC	?compare@?$char_traits@D@std@@SAHPBD0I@Z	; std::char_traits<char>::compare
; Function compile flags: /Odtp
;	COMDAT ?compare@?$basic_string@DU?$char_traits@D@std@@V?$allocator@D@2@@std@@QBEHIIPBDI@Z
_TEXT	SEGMENT
tv129 = -20						; size = 4
tv130 = -16						; size = 4
tv86 = -12						; size = 4
_this$ = -8						; size = 4
__Ans$ = -4						; size = 4
__Off$ = 8						; size = 4
__N0$ = 12						; size = 4
__Ptr$ = 16						; size = 4
__Count$ = 20						; size = 4
?compare@?$basic_string@DU?$char_traits@D@std@@V?$allocator@D@2@@std@@QBEHIIPBDI@Z PROC ; std::basic_string<char,std::char_traits<char>,std::allocator<char> >::compare, COMDAT
; _this$ = ecx
; Line 1887
	push	ebp
	mov	ebp, esp
	sub	esp, 20					; 00000014H
	mov	DWORD PTR _this$[ebp], ecx
; Line 1893
	mov	eax, DWORD PTR _this$[ebp]
	mov	ecx, DWORD PTR [eax+16]
	cmp	ecx, DWORD PTR __Off$[ebp]
	jae	SHORT $LN2@compare
; Line 1894
	mov	ecx, DWORD PTR _this$[ebp]
	call	?_Xran@?$basic_string@DU?$char_traits@D@std@@V?$allocator@D@2@@std@@QBEXXZ ; std::basic_string<char,std::char_traits<char>,std::allocator<char> >::_Xran
$LN2@compare:
; Line 1895
	mov	edx, DWORD PTR _this$[ebp]
	mov	eax, DWORD PTR [edx+16]
	sub	eax, DWORD PTR __Off$[ebp]
	cmp	eax, DWORD PTR __N0$[ebp]
	jae	SHORT $LN1@compare
; Line 1896
	mov	ecx, DWORD PTR _this$[ebp]
	mov	edx, DWORD PTR [ecx+16]
	sub	edx, DWORD PTR __Off$[ebp]
	mov	DWORD PTR __N0$[ebp], edx
$LN1@compare:
; Line 1899
	mov	eax, DWORD PTR __N0$[ebp]
	cmp	eax, DWORD PTR __Count$[ebp]
	jae	SHORT $LN5@compare
	mov	ecx, DWORD PTR __N0$[ebp]
	mov	DWORD PTR tv86[ebp], ecx
	jmp	SHORT $LN6@compare
$LN5@compare:
	mov	edx, DWORD PTR __Count$[ebp]
	mov	DWORD PTR tv86[ebp], edx
$LN6@compare:
	mov	eax, DWORD PTR tv86[ebp]
	push	eax
	mov	ecx, DWORD PTR __Ptr$[ebp]
	push	ecx
	mov	ecx, DWORD PTR _this$[ebp]
	call	?_Myptr@?$basic_string@DU?$char_traits@D@std@@V?$allocator@D@2@@std@@QBEPBDXZ ; std::basic_string<char,std::char_traits<char>,std::allocator<char> >::_Myptr
	add	eax, DWORD PTR __Off$[ebp]
	push	eax
	call	?compare@?$char_traits@D@std@@SAHPBD0I@Z ; std::char_traits<char>::compare
	add	esp, 12					; 0000000cH
	mov	DWORD PTR __Ans$[ebp], eax
; Line 1901
	cmp	DWORD PTR __Ans$[ebp], 0
	je	SHORT $LN9@compare
	mov	edx, DWORD PTR __Ans$[ebp]
	mov	DWORD PTR tv130[ebp], edx
	jmp	SHORT $LN10@compare
$LN9@compare:
	mov	eax, DWORD PTR __N0$[ebp]
	cmp	eax, DWORD PTR __Count$[ebp]
	jae	SHORT $LN7@compare
	mov	DWORD PTR tv129[ebp], -1
	jmp	SHORT $LN8@compare
$LN7@compare:
	mov	ecx, DWORD PTR __N0$[ebp]
	xor	edx, edx
	cmp	ecx, DWORD PTR __Count$[ebp]
	setne	dl
	mov	DWORD PTR tv129[ebp], edx
$LN8@compare:
	mov	eax, DWORD PTR tv129[ebp]
	mov	DWORD PTR tv130[ebp], eax
$LN10@compare:
	mov	eax, DWORD PTR tv130[ebp]
$LN4@compare:
; Line 1902
	mov	esp, ebp
	pop	ebp
	ret	16					; 00000010H
?compare@?$basic_string@DU?$char_traits@D@std@@V?$allocator@D@2@@std@@QBEHIIPBDI@Z ENDP ; std::basic_string<char,std::char_traits<char>,std::allocator<char> >::compare
_TEXT	ENDS
EXTRN	_memcmp:PROC
; Function compile flags: /Odtp
;	COMDAT ?compare@?$char_traits@D@std@@SAHPBD0I@Z
_TEXT	SEGMENT
__First1$ = 8						; size = 4
__First2$ = 12						; size = 4
__Count$ = 16						; size = 4
?compare@?$char_traits@D@std@@SAHPBD0I@Z PROC		; std::char_traits<char>::compare, COMDAT
; File c:\program files (x86)\microsoft visual studio 10.0\vc\include\iosfwd
; Line 485
	push	ebp
	mov	ebp, esp
; Line 486
	mov	eax, DWORD PTR __Count$[ebp]
	push	eax
	mov	ecx, DWORD PTR __First2$[ebp]
	push	ecx
	mov	edx, DWORD PTR __First1$[ebp]
	push	edx
	call	_memcmp
	add	esp, 12					; 0000000cH
; Line 487
	pop	ebp
	ret	0
?compare@?$char_traits@D@std@@SAHPBD0I@Z ENDP		; std::char_traits<char>::compare
_TEXT	ENDS
PUBLIC	?deallocate@?$allocator@D@std@@QAEXPADI@Z	; std::allocator<char>::deallocate
; Function compile flags: /Odtp
;	COMDAT ?_Tidy@?$basic_string@DU?$char_traits@D@std@@V?$allocator@D@2@@std@@QAEX_NI@Z
_TEXT	SEGMENT
_this$ = -8						; size = 4
__Ptr$34228 = -4					; size = 4
__Built$ = 8						; size = 1
__Newsize$ = 12						; size = 4
?_Tidy@?$basic_string@DU?$char_traits@D@std@@V?$allocator@D@2@@std@@QAEX_NI@Z PROC ; std::basic_string<char,std::char_traits<char>,std::allocator<char> >::_Tidy, COMDAT
; _this$ = ecx
; File c:\program files (x86)\microsoft visual studio 10.0\vc\include\xstring
; Line 1987
	push	ebp
	mov	ebp, esp
	sub	esp, 8
	mov	DWORD PTR _this$[ebp], ecx
; Line 1988
	movzx	eax, BYTE PTR __Built$[ebp]
	test	eax, eax
	jne	SHORT $LN4@Tidy
	jmp	SHORT $LN3@Tidy
$LN4@Tidy:
; Line 1990
	mov	ecx, DWORD PTR _this$[ebp]
	cmp	DWORD PTR [ecx+20], 16			; 00000010H
	jb	SHORT $LN3@Tidy
; Line 1992
	mov	edx, DWORD PTR _this$[ebp]
	mov	eax, DWORD PTR [edx]
	mov	DWORD PTR __Ptr$34228[ebp], eax
; Line 1993
	cmp	DWORD PTR __Newsize$[ebp], 0
	jbe	SHORT $LN1@Tidy
; Line 1994
	mov	ecx, DWORD PTR __Newsize$[ebp]
	push	ecx
	mov	edx, DWORD PTR __Ptr$34228[ebp]
	push	edx
	mov	eax, DWORD PTR _this$[ebp]
	push	eax
	call	?copy@?$char_traits@D@std@@SAPADPADPBDI@Z ; std::char_traits<char>::copy
	add	esp, 12					; 0000000cH
$LN1@Tidy:
; Line 1995
	mov	ecx, DWORD PTR _this$[ebp]
	mov	edx, DWORD PTR [ecx+20]
	add	edx, 1
	push	edx
	mov	eax, DWORD PTR __Ptr$34228[ebp]
	push	eax
	mov	ecx, DWORD PTR _this$[ebp]
	add	ecx, 24					; 00000018H
	call	?deallocate@?$allocator@D@std@@QAEXPADI@Z ; std::allocator<char>::deallocate
$LN3@Tidy:
; Line 1997
	mov	ecx, DWORD PTR _this$[ebp]
	mov	DWORD PTR [ecx+20], 15			; 0000000fH
; Line 1998
	mov	edx, DWORD PTR __Newsize$[ebp]
	push	edx
	mov	ecx, DWORD PTR _this$[ebp]
	call	?_Eos@?$basic_string@DU?$char_traits@D@std@@V?$allocator@D@2@@std@@QAEXI@Z ; std::basic_string<char,std::char_traits<char>,std::allocator<char> >::_Eos
; Line 1999
	mov	esp, ebp
	pop	ebp
	ret	8
?_Tidy@?$basic_string@DU?$char_traits@D@std@@V?$allocator@D@2@@std@@QAEX_NI@Z ENDP ; std::basic_string<char,std::char_traits<char>,std::allocator<char> >::_Tidy
; Function compile flags: /Odtp
_TEXT	ENDS
;	COMDAT ?_Myptr@?$basic_string@DU?$char_traits@D@std@@V?$allocator@D@2@@std@@QBEPBDXZ
_TEXT	SEGMENT
tv80 = -8						; size = 4
_this$ = -4						; size = 4
?_Myptr@?$basic_string@DU?$char_traits@D@std@@V?$allocator@D@2@@std@@QBEPBDXZ PROC ; std::basic_string<char,std::char_traits<char>,std::allocator<char> >::_Myptr, COMDAT
; _this$ = ecx
; Line 2008
	push	ebp
	mov	ebp, esp
	sub	esp, 8
	mov	DWORD PTR _this$[ebp], ecx
; Line 2010
	mov	eax, DWORD PTR _this$[ebp]
	cmp	DWORD PTR [eax+20], 16			; 00000010H
	jb	SHORT $LN3@Myptr
	mov	ecx, DWORD PTR _this$[ebp]
	mov	edx, DWORD PTR [ecx]
	mov	DWORD PTR tv80[ebp], edx
	jmp	SHORT $LN4@Myptr
$LN3@Myptr:
	mov	eax, DWORD PTR _this$[ebp]
	mov	DWORD PTR tv80[ebp], eax
$LN4@Myptr:
	mov	eax, DWORD PTR tv80[ebp]
; Line 2011
	mov	esp, ebp
	pop	ebp
	ret	0
?_Myptr@?$basic_string@DU?$char_traits@D@std@@V?$allocator@D@2@@std@@QBEPBDXZ ENDP ; std::basic_string<char,std::char_traits<char>,std::allocator<char> >::_Myptr
; Function compile flags: /Odtp
_TEXT	ENDS
;	COMDAT ??0?$_String_val@DV?$allocator@D@std@@@std@@QAE@V?$allocator@D@1@@Z
_TEXT	SEGMENT
_this$ = -4						; size = 4
__Al$ = 8						; size = 1
??0?$_String_val@DV?$allocator@D@std@@@std@@QAE@V?$allocator@D@1@@Z PROC ; std::_String_val<char,std::allocator<char> >::_String_val<char,std::allocator<char> >, COMDAT
; _this$ = ecx
; Line 454
	push	ebp
	mov	ebp, esp
	push	ecx
	mov	DWORD PTR _this$[ebp], ecx
	lea	eax, DWORD PTR __Al$[ebp]
	push	eax
	mov	ecx, DWORD PTR _this$[ebp]
	add	ecx, 24					; 00000018H
	call	??0?$allocator@D@std@@QAE@ABV01@@Z	; std::allocator<char>::allocator<char>
; Line 455
	mov	eax, DWORD PTR _this$[ebp]
	mov	esp, ebp
	pop	ebp
	ret	4
??0?$_String_val@DV?$allocator@D@std@@@std@@QAE@V?$allocator@D@1@@Z ENDP ; std::_String_val<char,std::allocator<char> >::_String_val<char,std::allocator<char> >
; Function compile flags: /Odtp
_TEXT	ENDS
;	COMDAT ??1?$_String_val@DV?$allocator@D@std@@@std@@QAE@XZ
_TEXT	SEGMENT
_this$ = -4						; size = 4
??1?$_String_val@DV?$allocator@D@std@@@std@@QAE@XZ PROC	; std::_String_val<char,std::allocator<char> >::~_String_val<char,std::allocator<char> >, COMDAT
; _this$ = ecx
; Line 458
	push	ebp
	mov	ebp, esp
	push	ecx
	mov	DWORD PTR _this$[ebp], ecx
; Line 459
	mov	esp, ebp
	pop	ebp
	ret	0
??1?$_String_val@DV?$allocator@D@std@@@std@@QAE@XZ ENDP	; std::_String_val<char,std::allocator<char> >::~_String_val<char,std::allocator<char> >
; Function compile flags: /Odtp
_TEXT	ENDS
;	COMDAT ??0?$allocator@D@std@@QAE@XZ
_TEXT	SEGMENT
_this$ = -4						; size = 4
??0?$allocator@D@std@@QAE@XZ PROC			; std::allocator<char>::allocator<char>, COMDAT
; _this$ = ecx
; File c:\program files (x86)\microsoft visual studio 10.0\vc\include\xmemory
; Line 161
	push	ebp
	mov	ebp, esp
	push	ecx
	mov	DWORD PTR _this$[ebp], ecx
; Line 163
	mov	eax, DWORD PTR _this$[ebp]
	mov	esp, ebp
	pop	ebp
	ret	0
??0?$allocator@D@std@@QAE@XZ ENDP			; std::allocator<char>::allocator<char>
; Function compile flags: /Odtp
_TEXT	ENDS
;	COMDAT ??0?$allocator@D@std@@QAE@ABV01@@Z
_TEXT	SEGMENT
_this$ = -4						; size = 4
___formal$ = 8						; size = 4
??0?$allocator@D@std@@QAE@ABV01@@Z PROC			; std::allocator<char>::allocator<char>, COMDAT
; _this$ = ecx
; Line 165
	push	ebp
	mov	ebp, esp
	push	ecx
	mov	DWORD PTR _this$[ebp], ecx
; Line 167
	mov	eax, DWORD PTR _this$[ebp]
	mov	esp, ebp
	pop	ebp
	ret	4
??0?$allocator@D@std@@QAE@ABV01@@Z ENDP			; std::allocator<char>::allocator<char>
; Function compile flags: /Odtp
_TEXT	ENDS
;	COMDAT ?capacity@?$vector@PAVLogger@common@ibmras@@V?$allocator@PAVLogger@common@ibmras@@@std@@@std@@QBEIXZ
_TEXT	SEGMENT
_this$ = -4						; size = 4
?capacity@?$vector@PAVLogger@common@ibmras@@V?$allocator@PAVLogger@common@ibmras@@@std@@@std@@QBEIXZ PROC ; std::vector<ibmras::common::Logger *,std::allocator<ibmras::common::Logger *> >::capacity, COMDAT
; _this$ = ecx
; File c:\program files (x86)\microsoft visual studio 10.0\vc\include\vector
; Line 776
	push	ebp
	mov	ebp, esp
	push	ecx
	mov	DWORD PTR _this$[ebp], ecx
; Line 777
	mov	eax, DWORD PTR _this$[ebp]
	mov	ecx, DWORD PTR _this$[ebp]
	mov	eax, DWORD PTR [eax+8]
	sub	eax, DWORD PTR [ecx]
	sar	eax, 2
; Line 778
	mov	esp, ebp
	pop	ebp
	ret	0
?capacity@?$vector@PAVLogger@common@ibmras@@V?$allocator@PAVLogger@common@ibmras@@@std@@@std@@QBEIXZ ENDP ; std::vector<ibmras::common::Logger *,std::allocator<ibmras::common::Logger *> >::capacity
_TEXT	ENDS
PUBLIC	??0?$_Vector_const_iterator@V?$_Vector_val@PAVLogger@common@ibmras@@V?$allocator@PAVLogger@common@ibmras@@@std@@@std@@@std@@QAE@PAPAVLogger@common@ibmras@@PBU_Container_base0@1@@Z ; std::_Vector_const_iterator<std::_Vector_val<ibmras::common::Logger *,std::allocator<ibmras::common::Logger *> > >::_Vector_const_iterator<std::_Vector_val<ibmras::common::Logger *,std::allocator<ibmras::common::Logger *> > >
; Function compile flags: /Odtp
;	COMDAT ?begin@?$vector@PAVLogger@common@ibmras@@V?$allocator@PAVLogger@common@ibmras@@@std@@@std@@QBE?AV?$_Vector_const_iterator@V?$_Vector_val@PAVLogger@common@ibmras@@V?$allocator@PAVLogger@common@ibmras@@@std@@@std@@@2@XZ
_TEXT	SEGMENT
_this$ = -4						; size = 4
___$ReturnUdt$ = 8					; size = 4
?begin@?$vector@PAVLogger@common@ibmras@@V?$allocator@PAVLogger@common@ibmras@@@std@@@std@@QBE?AV?$_Vector_const_iterator@V?$_Vector_val@PAVLogger@common@ibmras@@V?$allocator@PAVLogger@common@ibmras@@@std@@@std@@@2@XZ PROC ; std::vector<ibmras::common::Logger *,std::allocator<ibmras::common::Logger *> >::begin, COMDAT
; _this$ = ecx
; Line 786
	push	ebp
	mov	ebp, esp
	push	ecx
	mov	DWORD PTR _this$[ebp], ecx
; Line 787
	mov	eax, DWORD PTR _this$[ebp]
	push	eax
	mov	ecx, DWORD PTR _this$[ebp]
	mov	edx, DWORD PTR [ecx]
	push	edx
	mov	ecx, DWORD PTR ___$ReturnUdt$[ebp]
	call	??0?$_Vector_const_iterator@V?$_Vector_val@PAVLogger@common@ibmras@@V?$allocator@PAVLogger@common@ibmras@@@std@@@std@@@std@@QAE@PAPAVLogger@common@ibmras@@PBU_Container_base0@1@@Z ; std::_Vector_const_iterator<std::_Vector_val<ibmras::common::Logger *,std::allocator<ibmras::common::Logger *> > >::_Vector_const_iterator<std::_Vector_val<ibmras::common::Logger *,std::allocator<ibmras::common::Logger *> > >
	mov	eax, DWORD PTR ___$ReturnUdt$[ebp]
; Line 788
	mov	esp, ebp
	pop	ebp
	ret	4
?begin@?$vector@PAVLogger@common@ibmras@@V?$allocator@PAVLogger@common@ibmras@@@std@@@std@@QBE?AV?$_Vector_const_iterator@V?$_Vector_val@PAVLogger@common@ibmras@@V?$allocator@PAVLogger@common@ibmras@@@std@@@std@@@2@XZ ENDP ; std::vector<ibmras::common::Logger *,std::allocator<ibmras::common::Logger *> >::begin
; Function compile flags: /Odtp
_TEXT	ENDS
;	COMDAT ?end@?$vector@PAVLogger@common@ibmras@@V?$allocator@PAVLogger@common@ibmras@@@std@@@std@@QBE?AV?$_Vector_const_iterator@V?$_Vector_val@PAVLogger@common@ibmras@@V?$allocator@PAVLogger@common@ibmras@@@std@@@std@@@2@XZ
_TEXT	SEGMENT
_this$ = -4						; size = 4
___$ReturnUdt$ = 8					; size = 4
?end@?$vector@PAVLogger@common@ibmras@@V?$allocator@PAVLogger@common@ibmras@@@std@@@std@@QBE?AV?$_Vector_const_iterator@V?$_Vector_val@PAVLogger@common@ibmras@@V?$allocator@PAVLogger@common@ibmras@@@std@@@std@@@2@XZ PROC ; std::vector<ibmras::common::Logger *,std::allocator<ibmras::common::Logger *> >::end, COMDAT
; _this$ = ecx
; Line 796
	push	ebp
	mov	ebp, esp
	push	ecx
	mov	DWORD PTR _this$[ebp], ecx
; Line 797
	mov	eax, DWORD PTR _this$[ebp]
	push	eax
	mov	ecx, DWORD PTR _this$[ebp]
	mov	edx, DWORD PTR [ecx+4]
	push	edx
	mov	ecx, DWORD PTR ___$ReturnUdt$[ebp]
	call	??0?$_Vector_const_iterator@V?$_Vector_val@PAVLogger@common@ibmras@@V?$allocator@PAVLogger@common@ibmras@@@std@@@std@@@std@@QAE@PAPAVLogger@common@ibmras@@PBU_Container_base0@1@@Z ; std::_Vector_const_iterator<std::_Vector_val<ibmras::common::Logger *,std::allocator<ibmras::common::Logger *> > >::_Vector_const_iterator<std::_Vector_val<ibmras::common::Logger *,std::allocator<ibmras::common::Logger *> > >
	mov	eax, DWORD PTR ___$ReturnUdt$[ebp]
; Line 798
	mov	esp, ebp
	pop	ebp
	ret	4
?end@?$vector@PAVLogger@common@ibmras@@V?$allocator@PAVLogger@common@ibmras@@@std@@@std@@QBE?AV?$_Vector_const_iterator@V?$_Vector_val@PAVLogger@common@ibmras@@V?$allocator@PAVLogger@common@ibmras@@@std@@@std@@@2@XZ ENDP ; std::vector<ibmras::common::Logger *,std::allocator<ibmras::common::Logger *> >::end
; Function compile flags: /Odtp
_TEXT	ENDS
;	COMDAT ?size@?$vector@PAVLogger@common@ibmras@@V?$allocator@PAVLogger@common@ibmras@@@std@@@std@@QBEIXZ
_TEXT	SEGMENT
_this$ = -4						; size = 4
?size@?$vector@PAVLogger@common@ibmras@@V?$allocator@PAVLogger@common@ibmras@@@std@@@std@@QBEIXZ PROC ; std::vector<ibmras::common::Logger *,std::allocator<ibmras::common::Logger *> >::size, COMDAT
; _this$ = ecx
; Line 878
	push	ebp
	mov	ebp, esp
	push	ecx
	mov	DWORD PTR _this$[ebp], ecx
; Line 879
	mov	eax, DWORD PTR _this$[ebp]
	mov	ecx, DWORD PTR _this$[ebp]
	mov	eax, DWORD PTR [eax+4]
	sub	eax, DWORD PTR [ecx]
	sar	eax, 2
; Line 880
	mov	esp, ebp
	pop	ebp
	ret	0
?size@?$vector@PAVLogger@common@ibmras@@V?$allocator@PAVLogger@common@ibmras@@@std@@@std@@QBEIXZ ENDP ; std::vector<ibmras::common::Logger *,std::allocator<ibmras::common::Logger *> >::size
_TEXT	ENDS
PUBLIC	?erase@?$vector@PAVLogger@common@ibmras@@V?$allocator@PAVLogger@common@ibmras@@@std@@@std@@QAE?AV?$_Vector_iterator@V?$_Vector_val@PAVLogger@common@ibmras@@V?$allocator@PAVLogger@common@ibmras@@@std@@@std@@@2@V?$_Vector_const_iterator@V?$_Vector_val@PAVLogger@common@ibmras@@V?$allocator@PAVLogger@common@ibmras@@@std@@@std@@@2@0@Z ; std::vector<ibmras::common::Logger *,std::allocator<ibmras::common::Logger *> >::erase
; Function compile flags: /Odtp
;	COMDAT ?clear@?$vector@PAVLogger@common@ibmras@@V?$allocator@PAVLogger@common@ibmras@@@std@@@std@@QAEXXZ
_TEXT	SEGMENT
_this$ = -24						; size = 4
$T38832 = -20						; size = 4
$T38831 = -16						; size = 4
$T38830 = -12						; size = 4
$T38829 = -8						; size = 4
$T38828 = -4						; size = 4
?clear@?$vector@PAVLogger@common@ibmras@@V?$allocator@PAVLogger@common@ibmras@@@std@@@std@@QAEXXZ PROC ; std::vector<ibmras::common::Logger *,std::allocator<ibmras::common::Logger *> >::clear, COMDAT
; _this$ = ecx
; Line 1217
	push	ebp
	mov	ebp, esp
	sub	esp, 24					; 00000018H
	mov	DWORD PTR _this$[ebp], ecx
; Line 1218
	lea	eax, DWORD PTR $T38829[ebp]
	push	eax
	mov	ecx, DWORD PTR _this$[ebp]
	call	?end@?$vector@PAVLogger@common@ibmras@@V?$allocator@PAVLogger@common@ibmras@@@std@@@std@@QAE?AV?$_Vector_iterator@V?$_Vector_val@PAVLogger@common@ibmras@@V?$allocator@PAVLogger@common@ibmras@@@std@@@std@@@2@XZ ; std::vector<ibmras::common::Logger *,std::allocator<ibmras::common::Logger *> >::end
	mov	ecx, DWORD PTR [eax]
	mov	DWORD PTR $T38828[ebp], ecx
	lea	edx, DWORD PTR $T38831[ebp]
	push	edx
	mov	ecx, DWORD PTR _this$[ebp]
	call	?begin@?$vector@PAVLogger@common@ibmras@@V?$allocator@PAVLogger@common@ibmras@@@std@@@std@@QAE?AV?$_Vector_iterator@V?$_Vector_val@PAVLogger@common@ibmras@@V?$allocator@PAVLogger@common@ibmras@@@std@@@std@@@2@XZ ; std::vector<ibmras::common::Logger *,std::allocator<ibmras::common::Logger *> >::begin
	mov	eax, DWORD PTR [eax]
	mov	DWORD PTR $T38830[ebp], eax
	mov	ecx, DWORD PTR $T38828[ebp]
	push	ecx
	mov	edx, DWORD PTR $T38830[ebp]
	push	edx
	lea	eax, DWORD PTR $T38832[ebp]
	push	eax
	mov	ecx, DWORD PTR _this$[ebp]
	call	?erase@?$vector@PAVLogger@common@ibmras@@V?$allocator@PAVLogger@common@ibmras@@@std@@@std@@QAE?AV?$_Vector_iterator@V?$_Vector_val@PAVLogger@common@ibmras@@V?$allocator@PAVLogger@common@ibmras@@@std@@@std@@@2@V?$_Vector_const_iterator@V?$_Vector_val@PAVLogger@common@ibmras@@V?$allocator@PAVLogger@common@ibmras@@@std@@@std@@@2@0@Z ; std::vector<ibmras::common::Logger *,std::allocator<ibmras::common::Logger *> >::erase
; Line 1219
	mov	esp, ebp
	pop	ebp
	ret	0
?clear@?$vector@PAVLogger@common@ibmras@@V?$allocator@PAVLogger@common@ibmras@@@std@@@std@@QAEXXZ ENDP ; std::vector<ibmras::common::Logger *,std::allocator<ibmras::common::Logger *> >::clear
_TEXT	ENDS
PUBLIC	?allocate@?$allocator@PAVLogger@common@ibmras@@@std@@QAEPAPAVLogger@common@ibmras@@I@Z ; std::allocator<ibmras::common::Logger *>::allocate
PUBLIC	?_Xlen@?$vector@PAVLogger@common@ibmras@@V?$allocator@PAVLogger@common@ibmras@@@std@@@std@@IBEXXZ ; std::vector<ibmras::common::Logger *,std::allocator<ibmras::common::Logger *> >::_Xlen
PUBLIC	?max_size@?$vector@PAVLogger@common@ibmras@@V?$allocator@PAVLogger@common@ibmras@@@std@@@std@@QBEIXZ ; std::vector<ibmras::common::Logger *,std::allocator<ibmras::common::Logger *> >::max_size
; Function compile flags: /Odtp
;	COMDAT ?_Buy@?$vector@PAVLogger@common@ibmras@@V?$allocator@PAVLogger@common@ibmras@@@std@@@std@@IAE_NI@Z
_TEXT	SEGMENT
_this$ = -4						; size = 4
__Capacity$ = 8						; size = 4
?_Buy@?$vector@PAVLogger@common@ibmras@@V?$allocator@PAVLogger@common@ibmras@@@std@@@std@@IAE_NI@Z PROC ; std::vector<ibmras::common::Logger *,std::allocator<ibmras::common::Logger *> >::_Buy, COMDAT
; _this$ = ecx
; Line 1250
	push	ebp
	mov	ebp, esp
	push	ecx
	mov	DWORD PTR _this$[ebp], ecx
; Line 1251
	mov	eax, DWORD PTR _this$[ebp]
	mov	DWORD PTR [eax], 0
; Line 1252
	mov	ecx, DWORD PTR _this$[ebp]
	mov	DWORD PTR [ecx+4], 0
; Line 1253
	mov	edx, DWORD PTR _this$[ebp]
	mov	DWORD PTR [edx+8], 0
; Line 1255
	cmp	DWORD PTR __Capacity$[ebp], 0
	jne	SHORT $LN4@Buy
; Line 1256
	xor	al, al
	jmp	SHORT $LN6@Buy
	jmp	SHORT $LN3@Buy
$LN4@Buy:
; Line 1257
	mov	ecx, DWORD PTR _this$[ebp]
	call	?max_size@?$vector@PAVLogger@common@ibmras@@V?$allocator@PAVLogger@common@ibmras@@@std@@@std@@QBEIXZ ; std::vector<ibmras::common::Logger *,std::allocator<ibmras::common::Logger *> >::max_size
	cmp	eax, DWORD PTR __Capacity$[ebp]
	jae	SHORT $LN2@Buy
; Line 1258
	mov	ecx, DWORD PTR _this$[ebp]
	call	?_Xlen@?$vector@PAVLogger@common@ibmras@@V?$allocator@PAVLogger@common@ibmras@@@std@@@std@@IBEXXZ ; std::vector<ibmras::common::Logger *,std::allocator<ibmras::common::Logger *> >::_Xlen
; Line 1259
	jmp	SHORT $LN3@Buy
$LN2@Buy:
; Line 1261
	mov	eax, DWORD PTR __Capacity$[ebp]
	push	eax
	mov	ecx, DWORD PTR _this$[ebp]
	add	ecx, 12					; 0000000cH
	call	?allocate@?$allocator@PAVLogger@common@ibmras@@@std@@QAEPAPAVLogger@common@ibmras@@I@Z ; std::allocator<ibmras::common::Logger *>::allocate
	mov	ecx, DWORD PTR _this$[ebp]
	mov	DWORD PTR [ecx], eax
; Line 1262
	mov	edx, DWORD PTR _this$[ebp]
	mov	eax, DWORD PTR _this$[ebp]
	mov	ecx, DWORD PTR [eax]
	mov	DWORD PTR [edx+4], ecx
; Line 1263
	mov	edx, DWORD PTR _this$[ebp]
	mov	eax, DWORD PTR [edx]
	mov	ecx, DWORD PTR __Capacity$[ebp]
	lea	edx, DWORD PTR [eax+ecx*4]
	mov	eax, DWORD PTR _this$[ebp]
	mov	DWORD PTR [eax+8], edx
$LN3@Buy:
; Line 1265
	mov	al, 1
$LN6@Buy:
; Line 1266
	mov	esp, ebp
	pop	ebp
	ret	4
?_Buy@?$vector@PAVLogger@common@ibmras@@V?$allocator@PAVLogger@common@ibmras@@@std@@@std@@IAE_NI@Z ENDP ; std::vector<ibmras::common::Logger *,std::allocator<ibmras::common::Logger *> >::_Buy
_TEXT	ENDS
PUBLIC	??$_Destroy_range@V?$allocator@PAVLogger@common@ibmras@@@std@@@std@@YAXPAPAVLogger@common@ibmras@@0AAV?$allocator@PAVLogger@common@ibmras@@@0@@Z ; std::_Destroy_range<std::allocator<ibmras::common::Logger *> >
; Function compile flags: /Odtp
;	COMDAT ?_Destroy@?$vector@PAVLogger@common@ibmras@@V?$allocator@PAVLogger@common@ibmras@@@std@@@std@@IAEXPAPAVLogger@common@ibmras@@0@Z
_TEXT	SEGMENT
_this$ = -4						; size = 4
__First$ = 8						; size = 4
__Last$ = 12						; size = 4
?_Destroy@?$vector@PAVLogger@common@ibmras@@V?$allocator@PAVLogger@common@ibmras@@@std@@@std@@IAEXPAPAVLogger@common@ibmras@@0@Z PROC ; std::vector<ibmras::common::Logger *,std::allocator<ibmras::common::Logger *> >::_Destroy, COMDAT
; _this$ = ecx
; Line 1269
	push	ebp
	mov	ebp, esp
	push	ecx
	mov	DWORD PTR _this$[ebp], ecx
; Line 1270
	mov	eax, DWORD PTR _this$[ebp]
	add	eax, 12					; 0000000cH
	push	eax
	mov	ecx, DWORD PTR __Last$[ebp]
	push	ecx
	mov	edx, DWORD PTR __First$[ebp]
	push	edx
	call	??$_Destroy_range@V?$allocator@PAVLogger@common@ibmras@@@std@@@std@@YAXPAPAVLogger@common@ibmras@@0AAV?$allocator@PAVLogger@common@ibmras@@@0@@Z ; std::_Destroy_range<std::allocator<ibmras::common::Logger *> >
	add	esp, 12					; 0000000cH
; Line 1271
	mov	esp, ebp
	pop	ebp
	ret	8
?_Destroy@?$vector@PAVLogger@common@ibmras@@V?$allocator@PAVLogger@common@ibmras@@@std@@@std@@IAEXPAPAVLogger@common@ibmras@@0@Z ENDP ; std::vector<ibmras::common::Logger *,std::allocator<ibmras::common::Logger *> >::_Destroy
; Function compile flags: /Odtp
_TEXT	ENDS
;	COMDAT ?_Inside@?$vector@PAVLogger@common@ibmras@@V?$allocator@PAVLogger@common@ibmras@@@std@@@std@@IBE_NPBQAVLogger@common@ibmras@@@Z
_TEXT	SEGMENT
tv76 = -8						; size = 4
_this$ = -4						; size = 4
__Ptr$ = 8						; size = 4
?_Inside@?$vector@PAVLogger@common@ibmras@@V?$allocator@PAVLogger@common@ibmras@@@std@@@std@@IBE_NPBQAVLogger@common@ibmras@@@Z PROC ; std::vector<ibmras::common::Logger *,std::allocator<ibmras::common::Logger *> >::_Inside, COMDAT
; _this$ = ecx
; Line 1285
	push	ebp
	mov	ebp, esp
	sub	esp, 8
	mov	DWORD PTR _this$[ebp], ecx
; Line 1286
	mov	eax, DWORD PTR _this$[ebp]
	mov	ecx, DWORD PTR __Ptr$[ebp]
	cmp	ecx, DWORD PTR [eax+4]
	jae	SHORT $LN3@Inside
	mov	edx, DWORD PTR _this$[ebp]
	mov	eax, DWORD PTR [edx]
	cmp	eax, DWORD PTR __Ptr$[ebp]
	ja	SHORT $LN3@Inside
	mov	DWORD PTR tv76[ebp], 1
	jmp	SHORT $LN4@Inside
$LN3@Inside:
	mov	DWORD PTR tv76[ebp], 0
$LN4@Inside:
	mov	al, BYTE PTR tv76[ebp]
; Line 1287
	mov	esp, ebp
	pop	ebp
	ret	4
?_Inside@?$vector@PAVLogger@common@ibmras@@V?$allocator@PAVLogger@common@ibmras@@@std@@@std@@IBE_NPBQAVLogger@common@ibmras@@@Z ENDP ; std::vector<ibmras::common::Logger *,std::allocator<ibmras::common::Logger *> >::_Inside
_TEXT	ENDS
PUBLIC	?reserve@?$vector@PAVLogger@common@ibmras@@V?$allocator@PAVLogger@common@ibmras@@@std@@@std@@QAEXI@Z ; std::vector<ibmras::common::Logger *,std::allocator<ibmras::common::Logger *> >::reserve
PUBLIC	?_Grow_to@?$vector@PAVLogger@common@ibmras@@V?$allocator@PAVLogger@common@ibmras@@@std@@@std@@IBEII@Z ; std::vector<ibmras::common::Logger *,std::allocator<ibmras::common::Logger *> >::_Grow_to
; Function compile flags: /Odtp
;	COMDAT ?_Reserve@?$vector@PAVLogger@common@ibmras@@V?$allocator@PAVLogger@common@ibmras@@@std@@@std@@IAEXI@Z
_TEXT	SEGMENT
_this$ = -8						; size = 4
__Size$ = -4						; size = 4
__Count$ = 8						; size = 4
?_Reserve@?$vector@PAVLogger@common@ibmras@@V?$allocator@PAVLogger@common@ibmras@@@std@@@std@@IAEXI@Z PROC ; std::vector<ibmras::common::Logger *,std::allocator<ibmras::common::Logger *> >::_Reserve, COMDAT
; _this$ = ecx
; Line 1290
	push	ebp
	mov	ebp, esp
	sub	esp, 8
	mov	DWORD PTR _this$[ebp], ecx
; Line 1291
	mov	ecx, DWORD PTR _this$[ebp]
	call	?size@?$vector@PAVLogger@common@ibmras@@V?$allocator@PAVLogger@common@ibmras@@@std@@@std@@QBEIXZ ; std::vector<ibmras::common::Logger *,std::allocator<ibmras::common::Logger *> >::size
	mov	DWORD PTR __Size$[ebp], eax
; Line 1292
	mov	ecx, DWORD PTR _this$[ebp]
	call	?max_size@?$vector@PAVLogger@common@ibmras@@V?$allocator@PAVLogger@common@ibmras@@@std@@@std@@QBEIXZ ; std::vector<ibmras::common::Logger *,std::allocator<ibmras::common::Logger *> >::max_size
	sub	eax, DWORD PTR __Count$[ebp]
	cmp	eax, DWORD PTR __Size$[ebp]
	jae	SHORT $LN4@Reserve
; Line 1293
	mov	ecx, DWORD PTR _this$[ebp]
	call	?_Xlen@?$vector@PAVLogger@common@ibmras@@V?$allocator@PAVLogger@common@ibmras@@@std@@@std@@IBEXXZ ; std::vector<ibmras::common::Logger *,std::allocator<ibmras::common::Logger *> >::_Xlen
	jmp	SHORT $LN6@Reserve
$LN4@Reserve:
; Line 1294
	mov	eax, DWORD PTR __Size$[ebp]
	add	eax, DWORD PTR __Count$[ebp]
	mov	DWORD PTR __Size$[ebp], eax
	mov	ecx, DWORD PTR _this$[ebp]
	call	?capacity@?$vector@PAVLogger@common@ibmras@@V?$allocator@PAVLogger@common@ibmras@@@std@@@std@@QBEIXZ ; std::vector<ibmras::common::Logger *,std::allocator<ibmras::common::Logger *> >::capacity
	cmp	DWORD PTR __Size$[ebp], eax
	ja	SHORT $LN2@Reserve
; Line 1296
	jmp	SHORT $LN6@Reserve
$LN2@Reserve:
; Line 1297
	mov	ecx, DWORD PTR __Size$[ebp]
	push	ecx
	mov	ecx, DWORD PTR _this$[ebp]
	call	?_Grow_to@?$vector@PAVLogger@common@ibmras@@V?$allocator@PAVLogger@common@ibmras@@@std@@@std@@IBEII@Z ; std::vector<ibmras::common::Logger *,std::allocator<ibmras::common::Logger *> >::_Grow_to
	push	eax
	mov	ecx, DWORD PTR _this$[ebp]
	call	?reserve@?$vector@PAVLogger@common@ibmras@@V?$allocator@PAVLogger@common@ibmras@@@std@@@std@@QAEXI@Z ; std::vector<ibmras::common::Logger *,std::allocator<ibmras::common::Logger *> >::reserve
$LN6@Reserve:
; Line 1298
	mov	esp, ebp
	pop	ebp
	ret	4
?_Reserve@?$vector@PAVLogger@common@ibmras@@V?$allocator@PAVLogger@common@ibmras@@@std@@@std@@IAEXI@Z ENDP ; std::vector<ibmras::common::Logger *,std::allocator<ibmras::common::Logger *> >::_Reserve
; Function compile flags: /Odtp
_TEXT	ENDS
;	COMDAT ?_Tidy@?$vector@PAVLogger@common@ibmras@@V?$allocator@PAVLogger@common@ibmras@@@std@@@std@@IAEXXZ
_TEXT	SEGMENT
_this$ = -4						; size = 4
?_Tidy@?$vector@PAVLogger@common@ibmras@@V?$allocator@PAVLogger@common@ibmras@@@std@@@std@@IAEXXZ PROC ; std::vector<ibmras::common::Logger *,std::allocator<ibmras::common::Logger *> >::_Tidy, COMDAT
; _this$ = ecx
; Line 1301
	push	ebp
	mov	ebp, esp
	push	ecx
	mov	DWORD PTR _this$[ebp], ecx
; Line 1302
	mov	eax, DWORD PTR _this$[ebp]
	cmp	DWORD PTR [eax], 0
	je	SHORT $LN1@Tidy@2
; Line 1304
	mov	ecx, DWORD PTR _this$[ebp]
	call	DWORD PTR __imp_?_Orphan_all@_Container_base0@std@@QAEXXZ
; Line 1305
	mov	ecx, DWORD PTR _this$[ebp]
	mov	edx, DWORD PTR [ecx+4]
	push	edx
	mov	eax, DWORD PTR _this$[ebp]
	mov	ecx, DWORD PTR [eax]
	push	ecx
	mov	ecx, DWORD PTR _this$[ebp]
	call	?_Destroy@?$vector@PAVLogger@common@ibmras@@V?$allocator@PAVLogger@common@ibmras@@@std@@@std@@IAEXPAPAVLogger@common@ibmras@@0@Z ; std::vector<ibmras::common::Logger *,std::allocator<ibmras::common::Logger *> >::_Destroy
; Line 1307
	mov	edx, DWORD PTR _this$[ebp]
	mov	eax, DWORD PTR _this$[ebp]
	mov	ecx, DWORD PTR [edx+8]
	sub	ecx, DWORD PTR [eax]
	sar	ecx, 2
	push	ecx
	mov	edx, DWORD PTR _this$[ebp]
	mov	eax, DWORD PTR [edx]
	push	eax
	mov	ecx, DWORD PTR _this$[ebp]
	add	ecx, 12					; 0000000cH
	call	?deallocate@?$allocator@PAVLogger@common@ibmras@@@std@@QAEXPAPAVLogger@common@ibmras@@I@Z ; std::allocator<ibmras::common::Logger *>::deallocate
$LN1@Tidy@2:
; Line 1309
	mov	ecx, DWORD PTR _this$[ebp]
	mov	DWORD PTR [ecx], 0
; Line 1310
	mov	edx, DWORD PTR _this$[ebp]
	mov	DWORD PTR [edx+4], 0
; Line 1311
	mov	eax, DWORD PTR _this$[ebp]
	mov	DWORD PTR [eax+8], 0
; Line 1312
	mov	esp, ebp
	pop	ebp
	ret	0
?_Tidy@?$vector@PAVLogger@common@ibmras@@V?$allocator@PAVLogger@common@ibmras@@@std@@@std@@IAEXXZ ENDP ; std::vector<ibmras::common::Logger *,std::allocator<ibmras::common::Logger *> >::_Tidy
; Function compile flags: /Odtp
_TEXT	ENDS
;	COMDAT ?_Orphan_range@?$vector@PAVLogger@common@ibmras@@V?$allocator@PAVLogger@common@ibmras@@@std@@@std@@IBEXPAPAVLogger@common@ibmras@@0@Z
_TEXT	SEGMENT
_this$ = -4						; size = 4
___formal$ = 8						; size = 4
___formal$ = 12						; size = 4
?_Orphan_range@?$vector@PAVLogger@common@ibmras@@V?$allocator@PAVLogger@common@ibmras@@@std@@@std@@IBEXPAPAVLogger@common@ibmras@@0@Z PROC ; std::vector<ibmras::common::Logger *,std::allocator<ibmras::common::Logger *> >::_Orphan_range, COMDAT
; _this$ = ecx
; Line 1453
	push	ebp
	mov	ebp, esp
	push	ecx
	mov	DWORD PTR _this$[ebp], ecx
; Line 1454
	mov	esp, ebp
	pop	ebp
	ret	8
?_Orphan_range@?$vector@PAVLogger@common@ibmras@@V?$allocator@PAVLogger@common@ibmras@@@std@@@std@@IBEXPAPAVLogger@common@ibmras@@0@Z ENDP ; std::vector<ibmras::common::Logger *,std::allocator<ibmras::common::Logger *> >::_Orphan_range
; Function compile flags: /Odtp
_TEXT	ENDS
;	COMDAT ??0?$_Vector_val@PAVLogger@common@ibmras@@V?$allocator@PAVLogger@common@ibmras@@@std@@@std@@QAE@V?$allocator@PAVLogger@common@ibmras@@@1@@Z
_TEXT	SEGMENT
_this$ = -4						; size = 4
__Al$ = 8						; size = 1
??0?$_Vector_val@PAVLogger@common@ibmras@@V?$allocator@PAVLogger@common@ibmras@@@std@@@std@@QAE@V?$allocator@PAVLogger@common@ibmras@@@1@@Z PROC ; std::_Vector_val<ibmras::common::Logger *,std::allocator<ibmras::common::Logger *> >::_Vector_val<ibmras::common::Logger *,std::allocator<ibmras::common::Logger *> >, COMDAT
; _this$ = ecx
; Line 426
	push	ebp
	mov	ebp, esp
	push	ecx
	mov	DWORD PTR _this$[ebp], ecx
	lea	eax, DWORD PTR __Al$[ebp]
	push	eax
	mov	ecx, DWORD PTR _this$[ebp]
	add	ecx, 12					; 0000000cH
	call	??0?$allocator@PAVLogger@common@ibmras@@@std@@QAE@ABV01@@Z ; std::allocator<ibmras::common::Logger *>::allocator<ibmras::common::Logger *>
; Line 427
	mov	ecx, DWORD PTR _this$[ebp]
	mov	DWORD PTR [ecx], 0
; Line 428
	mov	edx, DWORD PTR _this$[ebp]
	mov	DWORD PTR [edx+4], 0
; Line 429
	mov	eax, DWORD PTR _this$[ebp]
	mov	DWORD PTR [eax+8], 0
; Line 430
	mov	eax, DWORD PTR _this$[ebp]
	mov	esp, ebp
	pop	ebp
	ret	4
??0?$_Vector_val@PAVLogger@common@ibmras@@V?$allocator@PAVLogger@common@ibmras@@@std@@@std@@QAE@V?$allocator@PAVLogger@common@ibmras@@@1@@Z ENDP ; std::_Vector_val<ibmras::common::Logger *,std::allocator<ibmras::common::Logger *> >::_Vector_val<ibmras::common::Logger *,std::allocator<ibmras::common::Logger *> >
; Function compile flags: /Odtp
_TEXT	ENDS
;	COMDAT ??1?$_Vector_val@PAVLogger@common@ibmras@@V?$allocator@PAVLogger@common@ibmras@@@std@@@std@@QAE@XZ
_TEXT	SEGMENT
_this$ = -4						; size = 4
??1?$_Vector_val@PAVLogger@common@ibmras@@V?$allocator@PAVLogger@common@ibmras@@@std@@@std@@QAE@XZ PROC ; std::_Vector_val<ibmras::common::Logger *,std::allocator<ibmras::common::Logger *> >::~_Vector_val<ibmras::common::Logger *,std::allocator<ibmras::common::Logger *> >, COMDAT
; _this$ = ecx
; Line 433
	push	ebp
	mov	ebp, esp
	push	ecx
	mov	DWORD PTR _this$[ebp], ecx
; Line 434
	mov	esp, ebp
	pop	ebp
	ret	0
??1?$_Vector_val@PAVLogger@common@ibmras@@V?$allocator@PAVLogger@common@ibmras@@@std@@@std@@QAE@XZ ENDP ; std::_Vector_val<ibmras::common::Logger *,std::allocator<ibmras::common::Logger *> >::~_Vector_val<ibmras::common::Logger *,std::allocator<ibmras::common::Logger *> >
; Function compile flags: /Odtp
_TEXT	ENDS
;	COMDAT ??0?$allocator@PAVLogger@common@ibmras@@@std@@QAE@XZ
_TEXT	SEGMENT
_this$ = -4						; size = 4
??0?$allocator@PAVLogger@common@ibmras@@@std@@QAE@XZ PROC ; std::allocator<ibmras::common::Logger *>::allocator<ibmras::common::Logger *>, COMDAT
; _this$ = ecx
; File c:\program files (x86)\microsoft visual studio 10.0\vc\include\xmemory
; Line 161
	push	ebp
	mov	ebp, esp
	push	ecx
	mov	DWORD PTR _this$[ebp], ecx
; Line 163
	mov	eax, DWORD PTR _this$[ebp]
	mov	esp, ebp
	pop	ebp
	ret	0
??0?$allocator@PAVLogger@common@ibmras@@@std@@QAE@XZ ENDP ; std::allocator<ibmras::common::Logger *>::allocator<ibmras::common::Logger *>
; Function compile flags: /Odtp
_TEXT	ENDS
;	COMDAT ??0?$allocator@PAVLogger@common@ibmras@@@std@@QAE@ABV01@@Z
_TEXT	SEGMENT
_this$ = -4						; size = 4
___formal$ = 8						; size = 4
??0?$allocator@PAVLogger@common@ibmras@@@std@@QAE@ABV01@@Z PROC ; std::allocator<ibmras::common::Logger *>::allocator<ibmras::common::Logger *>, COMDAT
; _this$ = ecx
; Line 165
	push	ebp
	mov	ebp, esp
	push	ecx
	mov	DWORD PTR _this$[ebp], ecx
; Line 167
	mov	eax, DWORD PTR _this$[ebp]
	mov	esp, ebp
	pop	ebp
	ret	4
??0?$allocator@PAVLogger@common@ibmras@@@std@@QAE@ABV01@@Z ENDP ; std::allocator<ibmras::common::Logger *>::allocator<ibmras::common::Logger *>
; Function compile flags: /Odtp
_TEXT	ENDS
;	COMDAT ?deallocate@?$allocator@PAVLogger@common@ibmras@@@std@@QAEXPAPAVLogger@common@ibmras@@I@Z
_TEXT	SEGMENT
_this$ = -4						; size = 4
__Ptr$ = 8						; size = 4
___formal$ = 12						; size = 4
?deallocate@?$allocator@PAVLogger@common@ibmras@@@std@@QAEXPAPAVLogger@common@ibmras@@I@Z PROC ; std::allocator<ibmras::common::Logger *>::deallocate, COMDAT
; _this$ = ecx
; Line 181
	push	ebp
	mov	ebp, esp
	push	ecx
	mov	DWORD PTR _this$[ebp], ecx
; Line 182
	mov	eax, DWORD PTR __Ptr$[ebp]
	push	eax
	call	??3@YAXPAX@Z				; operator delete
	add	esp, 4
; Line 183
	mov	esp, ebp
	pop	ebp
	ret	8
?deallocate@?$allocator@PAVLogger@common@ibmras@@@std@@QAEXPAPAVLogger@common@ibmras@@I@Z ENDP ; std::allocator<ibmras::common::Logger *>::deallocate
; Function compile flags: /Odtp
_TEXT	ENDS
;	COMDAT ??0?$_Vector_iterator@V?$_Vector_val@PAVLogger@common@ibmras@@V?$allocator@PAVLogger@common@ibmras@@@std@@@std@@@std@@QAE@PAPAVLogger@common@ibmras@@PBU_Container_base0@1@@Z
_TEXT	SEGMENT
_this$ = -4						; size = 4
__Parg$ = 8						; size = 4
__Pvector$ = 12						; size = 4
??0?$_Vector_iterator@V?$_Vector_val@PAVLogger@common@ibmras@@V?$allocator@PAVLogger@common@ibmras@@@std@@@std@@@std@@QAE@PAPAVLogger@common@ibmras@@PBU_Container_base0@1@@Z PROC ; std::_Vector_iterator<std::_Vector_val<ibmras::common::Logger *,std::allocator<ibmras::common::Logger *> > >::_Vector_iterator<std::_Vector_val<ibmras::common::Logger *,std::allocator<ibmras::common::Logger *> > >, COMDAT
; _this$ = ecx
; File c:\program files (x86)\microsoft visual studio 10.0\vc\include\vector
; Line 304
	push	ebp
	mov	ebp, esp
	push	ecx
	mov	DWORD PTR _this$[ebp], ecx
	mov	eax, DWORD PTR __Pvector$[ebp]
	push	eax
	mov	ecx, DWORD PTR __Parg$[ebp]
	push	ecx
	mov	ecx, DWORD PTR _this$[ebp]
	call	??0?$_Vector_const_iterator@V?$_Vector_val@PAVLogger@common@ibmras@@V?$allocator@PAVLogger@common@ibmras@@@std@@@std@@@std@@QAE@PAPAVLogger@common@ibmras@@PBU_Container_base0@1@@Z ; std::_Vector_const_iterator<std::_Vector_val<ibmras::common::Logger *,std::allocator<ibmras::common::Logger *> > >::_Vector_const_iterator<std::_Vector_val<ibmras::common::Logger *,std::allocator<ibmras::common::Logger *> > >
; Line 305
	mov	eax, DWORD PTR _this$[ebp]
	mov	esp, ebp
	pop	ebp
	ret	8
??0?$_Vector_iterator@V?$_Vector_val@PAVLogger@common@ibmras@@V?$allocator@PAVLogger@common@ibmras@@@std@@@std@@@std@@QAE@PAPAVLogger@common@ibmras@@PBU_Container_base0@1@@Z ENDP ; std::_Vector_iterator<std::_Vector_val<ibmras::common::Logger *,std::allocator<ibmras::common::Logger *> > >::_Vector_iterator<std::_Vector_val<ibmras::common::Logger *,std::allocator<ibmras::common::Logger *> > >
; Function compile flags: /Odtp
_TEXT	ENDS
;	COMDAT ??D?$_Vector_const_iterator@V?$_Vector_val@PAVLogger@common@ibmras@@V?$allocator@PAVLogger@common@ibmras@@@std@@@std@@@std@@QBEABQAVLogger@common@ibmras@@XZ
_TEXT	SEGMENT
_this$ = -4						; size = 4
??D?$_Vector_const_iterator@V?$_Vector_val@PAVLogger@common@ibmras@@V?$allocator@PAVLogger@common@ibmras@@@std@@@std@@@std@@QBEABQAVLogger@common@ibmras@@XZ PROC ; std::_Vector_const_iterator<std::_Vector_val<ibmras::common::Logger *,std::allocator<ibmras::common::Logger *> > >::operator*, COMDAT
; _this$ = ecx
; Line 63
	push	ebp
	mov	ebp, esp
	push	ecx
	mov	DWORD PTR _this$[ebp], ecx
; Line 84
	mov	eax, DWORD PTR _this$[ebp]
	mov	eax, DWORD PTR [eax]
; Line 85
	mov	esp, ebp
	pop	ebp
	ret	0
??D?$_Vector_const_iterator@V?$_Vector_val@PAVLogger@common@ibmras@@V?$allocator@PAVLogger@common@ibmras@@@std@@@std@@@std@@QBEABQAVLogger@common@ibmras@@XZ ENDP ; std::_Vector_const_iterator<std::_Vector_val<ibmras::common::Logger *,std::allocator<ibmras::common::Logger *> > >::operator*
; Function compile flags: /Odtp
_TEXT	ENDS
;	COMDAT ??E?$_Vector_const_iterator@V?$_Vector_val@PAVLogger@common@ibmras@@V?$allocator@PAVLogger@common@ibmras@@@std@@@std@@@std@@QAEAAV01@XZ
_TEXT	SEGMENT
_this$ = -4						; size = 4
??E?$_Vector_const_iterator@V?$_Vector_val@PAVLogger@common@ibmras@@V?$allocator@PAVLogger@common@ibmras@@@std@@@std@@@std@@QAEAAV01@XZ PROC ; std::_Vector_const_iterator<std::_Vector_val<ibmras::common::Logger *,std::allocator<ibmras::common::Logger *> > >::operator++, COMDAT
; _this$ = ecx
; Line 93
	push	ebp
	mov	ebp, esp
	push	ecx
	mov	DWORD PTR _this$[ebp], ecx
; Line 110
	mov	eax, DWORD PTR _this$[ebp]
	mov	ecx, DWORD PTR [eax]
	add	ecx, 4
	mov	edx, DWORD PTR _this$[ebp]
	mov	DWORD PTR [edx], ecx
; Line 111
	mov	eax, DWORD PTR _this$[ebp]
; Line 112
	mov	esp, ebp
	pop	ebp
	ret	0
??E?$_Vector_const_iterator@V?$_Vector_val@PAVLogger@common@ibmras@@V?$allocator@PAVLogger@common@ibmras@@@std@@@std@@@std@@QAEAAV01@XZ ENDP ; std::_Vector_const_iterator<std::_Vector_val<ibmras::common::Logger *,std::allocator<ibmras::common::Logger *> > >::operator++
_TEXT	ENDS
PUBLIC	?_Compat@?$_Vector_const_iterator@V?$_Vector_val@PAVLogger@common@ibmras@@V?$allocator@PAVLogger@common@ibmras@@@std@@@std@@@std@@QBEXABV12@@Z ; std::_Vector_const_iterator<std::_Vector_val<ibmras::common::Logger *,std::allocator<ibmras::common::Logger *> > >::_Compat
; Function compile flags: /Odtp
;	COMDAT ??8?$_Vector_const_iterator@V?$_Vector_val@PAVLogger@common@ibmras@@V?$allocator@PAVLogger@common@ibmras@@@std@@@std@@@std@@QBE_NABV01@@Z
_TEXT	SEGMENT
_this$ = -4						; size = 4
__Right$ = 8						; size = 4
??8?$_Vector_const_iterator@V?$_Vector_val@PAVLogger@common@ibmras@@V?$allocator@PAVLogger@common@ibmras@@@std@@@std@@@std@@QBE_NABV01@@Z PROC ; std::_Vector_const_iterator<std::_Vector_val<ibmras::common::Logger *,std::allocator<ibmras::common::Logger *> > >::operator==, COMDAT
; _this$ = ecx
; Line 201
	push	ebp
	mov	ebp, esp
	push	ecx
	mov	DWORD PTR _this$[ebp], ecx
; Line 202
	mov	eax, DWORD PTR __Right$[ebp]
	push	eax
	mov	ecx, DWORD PTR _this$[ebp]
	call	?_Compat@?$_Vector_const_iterator@V?$_Vector_val@PAVLogger@common@ibmras@@V?$allocator@PAVLogger@common@ibmras@@@std@@@std@@@std@@QBEXABV12@@Z ; std::_Vector_const_iterator<std::_Vector_val<ibmras::common::Logger *,std::allocator<ibmras::common::Logger *> > >::_Compat
; Line 203
	mov	ecx, DWORD PTR _this$[ebp]
	mov	edx, DWORD PTR __Right$[ebp]
	mov	eax, DWORD PTR [ecx]
	xor	ecx, ecx
	cmp	eax, DWORD PTR [edx]
	sete	cl
	mov	al, cl
; Line 204
	mov	esp, ebp
	pop	ebp
	ret	4
??8?$_Vector_const_iterator@V?$_Vector_val@PAVLogger@common@ibmras@@V?$allocator@PAVLogger@common@ibmras@@@std@@@std@@@std@@QBE_NABV01@@Z ENDP ; std::_Vector_const_iterator<std::_Vector_val<ibmras::common::Logger *,std::allocator<ibmras::common::Logger *> > >::operator==
_TEXT	ENDS
PUBLIC	?_Inside@?$basic_string@DU?$char_traits@D@std@@V?$allocator@D@2@@std@@QAE_NPBD@Z ; std::basic_string<char,std::char_traits<char>,std::allocator<char> >::_Inside
; Function compile flags: /Odtp
;	COMDAT ?assign@?$basic_string@DU?$char_traits@D@std@@V?$allocator@D@2@@std@@QAEAAV12@PBDI@Z
_TEXT	SEGMENT
_this$ = -4						; size = 4
__Ptr$ = 8						; size = 4
__Count$ = 12						; size = 4
?assign@?$basic_string@DU?$char_traits@D@std@@V?$allocator@D@2@@std@@QAEAAV12@PBDI@Z PROC ; std::basic_string<char,std::char_traits<char>,std::allocator<char> >::assign, COMDAT
; _this$ = ecx
; File c:\program files (x86)\microsoft visual studio 10.0\vc\include\xstring
; Line 910
	push	ebp
	mov	ebp, esp
	push	ecx
	mov	DWORD PTR _this$[ebp], ecx
; Line 916
	mov	eax, DWORD PTR __Ptr$[ebp]
	push	eax
	mov	ecx, DWORD PTR _this$[ebp]
	call	?_Inside@?$basic_string@DU?$char_traits@D@std@@V?$allocator@D@2@@std@@QAE_NPBD@Z ; std::basic_string<char,std::char_traits<char>,std::allocator<char> >::_Inside
	movzx	ecx, al
	test	ecx, ecx
	je	SHORT $LN2@assign@2
; Line 917
	mov	edx, DWORD PTR __Count$[ebp]
	push	edx
	mov	ecx, DWORD PTR _this$[ebp]
	call	?_Myptr@?$basic_string@DU?$char_traits@D@std@@V?$allocator@D@2@@std@@QAEPADXZ ; std::basic_string<char,std::char_traits<char>,std::allocator<char> >::_Myptr
	mov	ecx, DWORD PTR __Ptr$[ebp]
	sub	ecx, eax
	push	ecx
	mov	edx, DWORD PTR _this$[ebp]
	push	edx
	mov	ecx, DWORD PTR _this$[ebp]
	call	?assign@?$basic_string@DU?$char_traits@D@std@@V?$allocator@D@2@@std@@QAEAAV12@ABV12@II@Z ; std::basic_string<char,std::char_traits<char>,std::allocator<char> >::assign
	jmp	SHORT $LN3@assign@2
$LN2@assign@2:
; Line 919
	push	0
	mov	eax, DWORD PTR __Count$[ebp]
	push	eax
	mov	ecx, DWORD PTR _this$[ebp]
	call	?_Grow@?$basic_string@DU?$char_traits@D@std@@V?$allocator@D@2@@std@@QAE_NI_N@Z ; std::basic_string<char,std::char_traits<char>,std::allocator<char> >::_Grow
	movzx	ecx, al
	test	ecx, ecx
	je	SHORT $LN1@assign@2
; Line 921
	mov	edx, DWORD PTR __Count$[ebp]
	push	edx
	mov	eax, DWORD PTR __Ptr$[ebp]
	push	eax
	mov	ecx, DWORD PTR _this$[ebp]
	call	?_Myptr@?$basic_string@DU?$char_traits@D@std@@V?$allocator@D@2@@std@@QAEPADXZ ; std::basic_string<char,std::char_traits<char>,std::allocator<char> >::_Myptr
	push	eax
	call	?copy@?$char_traits@D@std@@SAPADPADPBDI@Z ; std::char_traits<char>::copy
	add	esp, 12					; 0000000cH
; Line 922
	mov	ecx, DWORD PTR __Count$[ebp]
	push	ecx
	mov	ecx, DWORD PTR _this$[ebp]
	call	?_Eos@?$basic_string@DU?$char_traits@D@std@@V?$allocator@D@2@@std@@QAEXI@Z ; std::basic_string<char,std::char_traits<char>,std::allocator<char> >::_Eos
$LN1@assign@2:
; Line 924
	mov	eax, DWORD PTR _this$[ebp]
$LN3@assign@2:
; Line 925
	mov	esp, ebp
	pop	ebp
	ret	8
?assign@?$basic_string@DU?$char_traits@D@std@@V?$allocator@D@2@@std@@QAEAAV12@PBDI@Z ENDP ; std::basic_string<char,std::char_traits<char>,std::allocator<char> >::assign
_TEXT	ENDS
PUBLIC	?move@?$char_traits@D@std@@SAPADPADPBDI@Z	; std::char_traits<char>::move
; Function compile flags: /Odtp
;	COMDAT ?erase@?$basic_string@DU?$char_traits@D@std@@V?$allocator@D@2@@std@@QAEAAV12@II@Z
_TEXT	SEGMENT
_this$ = -8						; size = 4
__Newsize$35236 = -4					; size = 4
__Off$ = 8						; size = 4
__Count$ = 12						; size = 4
?erase@?$basic_string@DU?$char_traits@D@std@@V?$allocator@D@2@@std@@QAEAAV12@II@Z PROC ; std::basic_string<char,std::char_traits<char>,std::allocator<char> >::erase, COMDAT
; _this$ = ecx
; Line 1108
	push	ebp
	mov	ebp, esp
	sub	esp, 8
	mov	DWORD PTR _this$[ebp], ecx
; Line 1109
	mov	eax, DWORD PTR _this$[ebp]
	mov	ecx, DWORD PTR [eax+16]
	cmp	ecx, DWORD PTR __Off$[ebp]
	jae	SHORT $LN3@erase
; Line 1110
	mov	ecx, DWORD PTR _this$[ebp]
	call	?_Xran@?$basic_string@DU?$char_traits@D@std@@V?$allocator@D@2@@std@@QBEXXZ ; std::basic_string<char,std::char_traits<char>,std::allocator<char> >::_Xran
$LN3@erase:
; Line 1111
	mov	edx, DWORD PTR _this$[ebp]
	mov	eax, DWORD PTR [edx+16]
	sub	eax, DWORD PTR __Off$[ebp]
	cmp	eax, DWORD PTR __Count$[ebp]
	jae	SHORT $LN2@erase
; Line 1112
	mov	ecx, DWORD PTR _this$[ebp]
	mov	edx, DWORD PTR [ecx+16]
	sub	edx, DWORD PTR __Off$[ebp]
	mov	DWORD PTR __Count$[ebp], edx
$LN2@erase:
; Line 1113
	cmp	DWORD PTR __Count$[ebp], 0
	jbe	SHORT $LN1@erase
; Line 1116
	mov	eax, DWORD PTR _this$[ebp]
	mov	ecx, DWORD PTR [eax+16]
	sub	ecx, DWORD PTR __Off$[ebp]
	sub	ecx, DWORD PTR __Count$[ebp]
	push	ecx
	mov	ecx, DWORD PTR _this$[ebp]
	call	?_Myptr@?$basic_string@DU?$char_traits@D@std@@V?$allocator@D@2@@std@@QAEPADXZ ; std::basic_string<char,std::char_traits<char>,std::allocator<char> >::_Myptr
	add	eax, DWORD PTR __Off$[ebp]
	add	eax, DWORD PTR __Count$[ebp]
	push	eax
	mov	ecx, DWORD PTR _this$[ebp]
	call	?_Myptr@?$basic_string@DU?$char_traits@D@std@@V?$allocator@D@2@@std@@QAEPADXZ ; std::basic_string<char,std::char_traits<char>,std::allocator<char> >::_Myptr
	add	eax, DWORD PTR __Off$[ebp]
	push	eax
	call	?move@?$char_traits@D@std@@SAPADPADPBDI@Z ; std::char_traits<char>::move
	add	esp, 12					; 0000000cH
; Line 1117
	mov	edx, DWORD PTR _this$[ebp]
	mov	eax, DWORD PTR [edx+16]
	sub	eax, DWORD PTR __Count$[ebp]
	mov	DWORD PTR __Newsize$35236[ebp], eax
; Line 1118
	mov	ecx, DWORD PTR __Newsize$35236[ebp]
	push	ecx
	mov	ecx, DWORD PTR _this$[ebp]
	call	?_Eos@?$basic_string@DU?$char_traits@D@std@@V?$allocator@D@2@@std@@QAEXI@Z ; std::basic_string<char,std::char_traits<char>,std::allocator<char> >::_Eos
$LN1@erase:
; Line 1120
	mov	eax, DWORD PTR _this$[ebp]
$LN5@erase:
; Line 1121
	mov	esp, ebp
	pop	ebp
	ret	8
?erase@?$basic_string@DU?$char_traits@D@std@@V?$allocator@D@2@@std@@QAEAAV12@II@Z ENDP ; std::basic_string<char,std::char_traits<char>,std::allocator<char> >::erase
_TEXT	ENDS
EXTRN	__imp__memmove:PROC
; Function compile flags: /Odtp
;	COMDAT ?move@?$char_traits@D@std@@SAPADPADPBDI@Z
_TEXT	SEGMENT
__First1$ = 8						; size = 4
__First2$ = 12						; size = 4
__Count$ = 16						; size = 4
?move@?$char_traits@D@std@@SAPADPADPBDI@Z PROC		; std::char_traits<char>::move, COMDAT
; File c:\program files (x86)\microsoft visual studio 10.0\vc\include\iosfwd
; Line 516
	push	ebp
	mov	ebp, esp
; Line 517
	mov	eax, DWORD PTR __Count$[ebp]
	push	eax
	mov	ecx, DWORD PTR __First2$[ebp]
	push	ecx
	mov	edx, DWORD PTR __First1$[ebp]
	push	edx
	call	DWORD PTR __imp__memmove
	add	esp, 12					; 0000000cH
; Line 518
	pop	ebp
	ret	0
?move@?$char_traits@D@std@@SAPADPADPBDI@Z ENDP		; std::char_traits<char>::move
_TEXT	ENDS
PUBLIC	?assign@?$char_traits@D@std@@SAXAADABD@Z	; std::char_traits<char>::assign
; Function compile flags: /Odtp
;	COMDAT ?_Eos@?$basic_string@DU?$char_traits@D@std@@V?$allocator@D@2@@std@@QAEXI@Z
_TEXT	SEGMENT
_this$ = -8						; size = 4
$T38873 = -1						; size = 1
__Newsize$ = 8						; size = 4
?_Eos@?$basic_string@DU?$char_traits@D@std@@V?$allocator@D@2@@std@@QAEXI@Z PROC ; std::basic_string<char,std::char_traits<char>,std::allocator<char> >::_Eos, COMDAT
; _this$ = ecx
; File c:\program files (x86)\microsoft visual studio 10.0\vc\include\xstring
; Line 1952
	push	ebp
	mov	ebp, esp
	sub	esp, 8
	mov	DWORD PTR _this$[ebp], ecx
; Line 1953
	mov	BYTE PTR $T38873[ebp], 0
	mov	eax, DWORD PTR _this$[ebp]
	mov	ecx, DWORD PTR __Newsize$[ebp]
	mov	DWORD PTR [eax+16], ecx
	lea	edx, DWORD PTR $T38873[ebp]
	push	edx
	mov	ecx, DWORD PTR _this$[ebp]
	call	?_Myptr@?$basic_string@DU?$char_traits@D@std@@V?$allocator@D@2@@std@@QAEPADXZ ; std::basic_string<char,std::char_traits<char>,std::allocator<char> >::_Myptr
	add	eax, DWORD PTR __Newsize$[ebp]
	push	eax
	call	?assign@?$char_traits@D@std@@SAXAADABD@Z ; std::char_traits<char>::assign
	add	esp, 8
; Line 1954
	mov	esp, ebp
	pop	ebp
	ret	4
?_Eos@?$basic_string@DU?$char_traits@D@std@@V?$allocator@D@2@@std@@QAEXI@Z ENDP ; std::basic_string<char,std::char_traits<char>,std::allocator<char> >::_Eos
; Function compile flags: /Odtp
_TEXT	ENDS
;	COMDAT ?assign@?$char_traits@D@std@@SAXAADABD@Z
_TEXT	SEGMENT
__Left$ = 8						; size = 4
__Right$ = 12						; size = 4
?assign@?$char_traits@D@std@@SAXAADABD@Z PROC		; std::char_traits<char>::assign, COMDAT
; File c:\program files (x86)\microsoft visual studio 10.0\vc\include\iosfwd
; Line 526
	push	ebp
	mov	ebp, esp
; Line 527
	mov	eax, DWORD PTR __Left$[ebp]
	mov	ecx, DWORD PTR __Right$[ebp]
	mov	dl, BYTE PTR [ecx]
	mov	BYTE PTR [eax], dl
; Line 528
	pop	ebp
	ret	0
?assign@?$char_traits@D@std@@SAXAADABD@Z ENDP		; std::char_traits<char>::assign
_TEXT	ENDS
PUBLIC	?_Copy@?$basic_string@DU?$char_traits@D@std@@V?$allocator@D@2@@std@@QAEXII@Z ; std::basic_string<char,std::char_traits<char>,std::allocator<char> >::_Copy
PUBLIC	?_Xlen@?$basic_string@DU?$char_traits@D@std@@V?$allocator@D@2@@std@@QBEXXZ ; std::basic_string<char,std::char_traits<char>,std::allocator<char> >::_Xlen
PUBLIC	?max_size@?$basic_string@DU?$char_traits@D@std@@V?$allocator@D@2@@std@@QBEIXZ ; std::basic_string<char,std::char_traits<char>,std::allocator<char> >::max_size
; Function compile flags: /Odtp
;	COMDAT ?_Grow@?$basic_string@DU?$char_traits@D@std@@V?$allocator@D@2@@std@@QAE_NI_N@Z
_TEXT	SEGMENT
tv129 = -8						; size = 4
_this$ = -4						; size = 4
__Newsize$ = 8						; size = 4
__Trim$ = 12						; size = 1
?_Grow@?$basic_string@DU?$char_traits@D@std@@V?$allocator@D@2@@std@@QAE_NI_N@Z PROC ; std::basic_string<char,std::char_traits<char>,std::allocator<char> >::_Grow, COMDAT
; _this$ = ecx
; File c:\program files (x86)\microsoft visual studio 10.0\vc\include\xstring
; Line 1958
	push	ebp
	mov	ebp, esp
	sub	esp, 8
	mov	DWORD PTR _this$[ebp], ecx
; Line 1959
	mov	ecx, DWORD PTR _this$[ebp]
	call	?max_size@?$basic_string@DU?$char_traits@D@std@@V?$allocator@D@2@@std@@QBEIXZ ; std::basic_string<char,std::char_traits<char>,std::allocator<char> >::max_size
	cmp	eax, DWORD PTR __Newsize$[ebp]
	jae	SHORT $LN6@Grow
; Line 1960
	mov	ecx, DWORD PTR _this$[ebp]
	call	?_Xlen@?$basic_string@DU?$char_traits@D@std@@V?$allocator@D@2@@std@@QBEXXZ ; std::basic_string<char,std::char_traits<char>,std::allocator<char> >::_Xlen
$LN6@Grow:
; Line 1961
	mov	eax, DWORD PTR _this$[ebp]
	mov	ecx, DWORD PTR [eax+20]
	cmp	ecx, DWORD PTR __Newsize$[ebp]
	jae	SHORT $LN5@Grow
; Line 1962
	mov	edx, DWORD PTR _this$[ebp]
	mov	eax, DWORD PTR [edx+16]
	push	eax
	mov	ecx, DWORD PTR __Newsize$[ebp]
	push	ecx
	mov	ecx, DWORD PTR _this$[ebp]
	call	?_Copy@?$basic_string@DU?$char_traits@D@std@@V?$allocator@D@2@@std@@QAEXII@Z ; std::basic_string<char,std::char_traits<char>,std::allocator<char> >::_Copy
	jmp	SHORT $LN4@Grow
$LN5@Grow:
; Line 1963
	movzx	edx, BYTE PTR __Trim$[ebp]
	test	edx, edx
	je	SHORT $LN3@Grow
	cmp	DWORD PTR __Newsize$[ebp], 16		; 00000010H
	jae	SHORT $LN3@Grow
; Line 1965
	mov	eax, DWORD PTR _this$[ebp]
	mov	ecx, DWORD PTR __Newsize$[ebp]
	cmp	ecx, DWORD PTR [eax+16]
	jae	SHORT $LN9@Grow
	mov	edx, DWORD PTR __Newsize$[ebp]
	mov	DWORD PTR tv129[ebp], edx
	jmp	SHORT $LN10@Grow
$LN9@Grow:
	mov	eax, DWORD PTR _this$[ebp]
	mov	ecx, DWORD PTR [eax+16]
	mov	DWORD PTR tv129[ebp], ecx
$LN10@Grow:
	mov	edx, DWORD PTR tv129[ebp]
	push	edx
	push	1
	mov	ecx, DWORD PTR _this$[ebp]
	call	?_Tidy@?$basic_string@DU?$char_traits@D@std@@V?$allocator@D@2@@std@@QAEX_NI@Z ; std::basic_string<char,std::char_traits<char>,std::allocator<char> >::_Tidy
	jmp	SHORT $LN4@Grow
$LN3@Grow:
; Line 1966
	cmp	DWORD PTR __Newsize$[ebp], 0
	jne	SHORT $LN4@Grow
; Line 1967
	push	0
	mov	ecx, DWORD PTR _this$[ebp]
	call	?_Eos@?$basic_string@DU?$char_traits@D@std@@V?$allocator@D@2@@std@@QAEXI@Z ; std::basic_string<char,std::char_traits<char>,std::allocator<char> >::_Eos
$LN4@Grow:
; Line 1968
	xor	eax, eax
	cmp	eax, DWORD PTR __Newsize$[ebp]
	sbb	eax, eax
	neg	eax
$LN8@Grow:
; Line 1969
	mov	esp, ebp
	pop	ebp
	ret	8
?_Grow@?$basic_string@DU?$char_traits@D@std@@V?$allocator@D@2@@std@@QAE_NI_N@Z ENDP ; std::basic_string<char,std::char_traits<char>,std::allocator<char> >::_Grow
; Function compile flags: /Odtp
_TEXT	ENDS
;	COMDAT ?_Myptr@?$basic_string@DU?$char_traits@D@std@@V?$allocator@D@2@@std@@QAEPADXZ
_TEXT	SEGMENT
tv80 = -8						; size = 4
_this$ = -4						; size = 4
?_Myptr@?$basic_string@DU?$char_traits@D@std@@V?$allocator@D@2@@std@@QAEPADXZ PROC ; std::basic_string<char,std::char_traits<char>,std::allocator<char> >::_Myptr, COMDAT
; _this$ = ecx
; Line 2002
	push	ebp
	mov	ebp, esp
	sub	esp, 8
	mov	DWORD PTR _this$[ebp], ecx
; Line 2004
	mov	eax, DWORD PTR _this$[ebp]
	cmp	DWORD PTR [eax+20], 16			; 00000010H
	jb	SHORT $LN3@Myptr@2
	mov	ecx, DWORD PTR _this$[ebp]
	mov	edx, DWORD PTR [ecx]
	mov	DWORD PTR tv80[ebp], edx
	jmp	SHORT $LN4@Myptr@2
$LN3@Myptr@2:
	mov	eax, DWORD PTR _this$[ebp]
	mov	DWORD PTR tv80[ebp], eax
$LN4@Myptr@2:
	mov	eax, DWORD PTR tv80[ebp]
; Line 2005
	mov	esp, ebp
	pop	ebp
	ret	0
?_Myptr@?$basic_string@DU?$char_traits@D@std@@V?$allocator@D@2@@std@@QAEPADXZ ENDP ; std::basic_string<char,std::char_traits<char>,std::allocator<char> >::_Myptr
_TEXT	ENDS
PUBLIC	??_C@_0BI@CFPLBAOH@invalid?5string?5position?$AA@ ; `string'
EXTRN	__imp_?_Xout_of_range@std@@YAXPBD@Z:PROC
;	COMDAT ??_C@_0BI@CFPLBAOH@invalid?5string?5position?$AA@
CONST	SEGMENT
??_C@_0BI@CFPLBAOH@invalid?5string?5position?$AA@ DB 'invalid string posi'
	DB	'tion', 00H					; `string'
; Function compile flags: /Odtp
CONST	ENDS
;	COMDAT ?_Xran@?$basic_string@DU?$char_traits@D@std@@V?$allocator@D@2@@std@@QBEXXZ
_TEXT	SEGMENT
_this$ = -4						; size = 4
?_Xran@?$basic_string@DU?$char_traits@D@std@@V?$allocator@D@2@@std@@QBEXXZ PROC ; std::basic_string<char,std::char_traits<char>,std::allocator<char> >::_Xran, COMDAT
; _this$ = ecx
; Line 2019
	push	ebp
	mov	ebp, esp
	push	ecx
	mov	DWORD PTR _this$[ebp], ecx
; Line 2020
	push	OFFSET ??_C@_0BI@CFPLBAOH@invalid?5string?5position?$AA@
	call	DWORD PTR __imp_?_Xout_of_range@std@@YAXPBD@Z
$LN2@Xran:
; Line 2021
	mov	esp, ebp
	pop	ebp
	ret	0
?_Xran@?$basic_string@DU?$char_traits@D@std@@V?$allocator@D@2@@std@@QBEXXZ ENDP ; std::basic_string<char,std::char_traits<char>,std::allocator<char> >::_Xran
; Function compile flags: /Odtp
_TEXT	ENDS
;	COMDAT ?deallocate@?$allocator@D@std@@QAEXPADI@Z
_TEXT	SEGMENT
_this$ = -4						; size = 4
__Ptr$ = 8						; size = 4
___formal$ = 12						; size = 4
?deallocate@?$allocator@D@std@@QAEXPADI@Z PROC		; std::allocator<char>::deallocate, COMDAT
; _this$ = ecx
; File c:\program files (x86)\microsoft visual studio 10.0\vc\include\xmemory
; Line 181
	push	ebp
	mov	ebp, esp
	push	ecx
	mov	DWORD PTR _this$[ebp], ecx
; Line 182
	mov	eax, DWORD PTR __Ptr$[ebp]
	push	eax
	call	??3@YAXPAX@Z				; operator delete
	add	esp, 4
; Line 183
	mov	esp, ebp
	pop	ebp
	ret	8
?deallocate@?$allocator@D@std@@QAEXPADI@Z ENDP		; std::allocator<char>::deallocate
_TEXT	ENDS
PUBLIC	??$_Umove@PAPAVLogger@common@ibmras@@@?$vector@PAVLogger@common@ibmras@@V?$allocator@PAVLogger@common@ibmras@@@std@@@std@@IAEPAPAVLogger@common@ibmras@@PAPAV234@00@Z ; std::vector<ibmras::common::Logger *,std::allocator<ibmras::common::Logger *> >::_Umove<ibmras::common::Logger * *>
;	COMDAT xdata$x
; File c:\program files (x86)\microsoft visual studio 10.0\vc\include\vector
xdata$x	SEGMENT
__catchsym$?reserve@?$vector@PAVLogger@common@ibmras@@V?$allocator@PAVLogger@common@ibmras@@@std@@@std@@QAEXI@Z$2 DD 040H
	DD	00H
	DD	00H
	DD	FLAT:__catch$?reserve@?$vector@PAVLogger@common@ibmras@@V?$allocator@PAVLogger@common@ibmras@@@std@@@std@@QAEXI@Z$0
__unwindtable$?reserve@?$vector@PAVLogger@common@ibmras@@V?$allocator@PAVLogger@common@ibmras@@@std@@@std@@QAEXI@Z DD 0ffffffffH
	DD	00H
	DD	0ffffffffH
	DD	00H
__tryblocktable$?reserve@?$vector@PAVLogger@common@ibmras@@V?$allocator@PAVLogger@common@ibmras@@@std@@@std@@QAEXI@Z DD 00H
	DD	00H
	DD	01H
	DD	01H
	DD	FLAT:__catchsym$?reserve@?$vector@PAVLogger@common@ibmras@@V?$allocator@PAVLogger@common@ibmras@@@std@@@std@@QAEXI@Z$2
__ehfuncinfo$?reserve@?$vector@PAVLogger@common@ibmras@@V?$allocator@PAVLogger@common@ibmras@@@std@@@std@@QAEXI@Z DD 019930522H
	DD	02H
	DD	FLAT:__unwindtable$?reserve@?$vector@PAVLogger@common@ibmras@@V?$allocator@PAVLogger@common@ibmras@@@std@@@std@@QAEXI@Z
	DD	01H
	DD	FLAT:__tryblocktable$?reserve@?$vector@PAVLogger@common@ibmras@@V?$allocator@PAVLogger@common@ibmras@@@std@@@std@@QAEXI@Z
	DD	2 DUP(00H)
	DD	00H
	DD	01H
; Function compile flags: /Odtp
xdata$x	ENDS
;	COMDAT ?reserve@?$vector@PAVLogger@common@ibmras@@V?$allocator@PAVLogger@common@ibmras@@@std@@@std@@QAEXI@Z
_TEXT	SEGMENT
_this$ = -28						; size = 4
__Size$35629 = -24					; size = 4
__Ptr$35622 = -20					; size = 4
__$EHRec$ = -16						; size = 16
__Count$ = 8						; size = 4
?reserve@?$vector@PAVLogger@common@ibmras@@V?$allocator@PAVLogger@common@ibmras@@@std@@@std@@QAEXI@Z PROC ; std::vector<ibmras::common::Logger *,std::allocator<ibmras::common::Logger *> >::reserve, COMDAT
; _this$ = ecx
; Line 746
	push	ebp
	mov	ebp, esp
	push	-1
	push	__ehhandler$?reserve@?$vector@PAVLogger@common@ibmras@@V?$allocator@PAVLogger@common@ibmras@@@std@@@std@@QAEXI@Z
	mov	eax, DWORD PTR fs:0
	push	eax
	push	ecx
	sub	esp, 12					; 0000000cH
	push	ebx
	push	esi
	push	edi
	mov	eax, DWORD PTR ___security_cookie
	xor	eax, ebp
	push	eax
	lea	eax, DWORD PTR __$EHRec$[ebp+4]
	mov	DWORD PTR fs:0, eax
	mov	DWORD PTR __$EHRec$[ebp], esp
	mov	DWORD PTR _this$[ebp], ecx
; Line 747
	mov	ecx, DWORD PTR _this$[ebp]
	call	?max_size@?$vector@PAVLogger@common@ibmras@@V?$allocator@PAVLogger@common@ibmras@@@std@@@std@@QBEIXZ ; std::vector<ibmras::common::Logger *,std::allocator<ibmras::common::Logger *> >::max_size
	cmp	eax, DWORD PTR __Count$[ebp]
	jae	SHORT $LN5@reserve
; Line 748
	mov	ecx, DWORD PTR _this$[ebp]
	call	?_Xlen@?$vector@PAVLogger@common@ibmras@@V?$allocator@PAVLogger@common@ibmras@@@std@@@std@@IBEXXZ ; std::vector<ibmras::common::Logger *,std::allocator<ibmras::common::Logger *> >::_Xlen
	jmp	$LN7@reserve
$LN5@reserve:
; Line 749
	mov	ecx, DWORD PTR _this$[ebp]
	call	?capacity@?$vector@PAVLogger@common@ibmras@@V?$allocator@PAVLogger@common@ibmras@@@std@@@std@@QBEIXZ ; std::vector<ibmras::common::Logger *,std::allocator<ibmras::common::Logger *> >::capacity
	cmp	eax, DWORD PTR __Count$[ebp]
	jae	$LN7@reserve
; Line 751
	mov	eax, DWORD PTR __Count$[ebp]
	push	eax
	mov	ecx, DWORD PTR _this$[ebp]
	add	ecx, 12					; 0000000cH
	call	?allocate@?$allocator@PAVLogger@common@ibmras@@@std@@QAEPAPAVLogger@common@ibmras@@I@Z ; std::allocator<ibmras::common::Logger *>::allocate
	mov	DWORD PTR __Ptr$35622[ebp], eax
; Line 753
	mov	DWORD PTR __$EHRec$[ebp+12], 0
; Line 754
	mov	ecx, DWORD PTR __Ptr$35622[ebp]
	push	ecx
	mov	edx, DWORD PTR _this$[ebp]
	mov	eax, DWORD PTR [edx+4]
	push	eax
	mov	ecx, DWORD PTR _this$[ebp]
	mov	edx, DWORD PTR [ecx]
	push	edx
	mov	ecx, DWORD PTR _this$[ebp]
	call	??$_Umove@PAPAVLogger@common@ibmras@@@?$vector@PAVLogger@common@ibmras@@V?$allocator@PAVLogger@common@ibmras@@@std@@@std@@IAEPAPAVLogger@common@ibmras@@PAPAV234@00@Z ; std::vector<ibmras::common::Logger *,std::allocator<ibmras::common::Logger *> >::_Umove<ibmras::common::Logger * *>
	jmp	SHORT $LN8@reserve
__catch$?reserve@?$vector@PAVLogger@common@ibmras@@V?$allocator@PAVLogger@common@ibmras@@@std@@@std@@QAEXI@Z$0:
; Line 756
	mov	eax, DWORD PTR __Count$[ebp]
	push	eax
	mov	ecx, DWORD PTR __Ptr$35622[ebp]
	push	ecx
	mov	ecx, DWORD PTR _this$[ebp]
	add	ecx, 12					; 0000000cH
	call	?deallocate@?$allocator@PAVLogger@common@ibmras@@@std@@QAEXPAPAVLogger@common@ibmras@@I@Z ; std::allocator<ibmras::common::Logger *>::deallocate
; Line 757
	push	0
	push	0
	call	__CxxThrowException@8
; Line 758
	mov	DWORD PTR __$EHRec$[ebp+12], -1
	mov	eax, __tryend$?reserve@?$vector@PAVLogger@common@ibmras@@V?$allocator@PAVLogger@common@ibmras@@@std@@@std@@QAEXI@Z$1
	ret	0
$LN8@reserve:
	mov	DWORD PTR __$EHRec$[ebp+12], -1
__tryend$?reserve@?$vector@PAVLogger@common@ibmras@@V?$allocator@PAVLogger@common@ibmras@@@std@@@std@@QAEXI@Z$1:
; Line 760
	mov	ecx, DWORD PTR _this$[ebp]
	call	?size@?$vector@PAVLogger@common@ibmras@@V?$allocator@PAVLogger@common@ibmras@@@std@@@std@@QBEIXZ ; std::vector<ibmras::common::Logger *,std::allocator<ibmras::common::Logger *> >::size
	mov	DWORD PTR __Size$35629[ebp], eax
; Line 761
	mov	edx, DWORD PTR _this$[ebp]
	cmp	DWORD PTR [edx], 0
	je	SHORT $LN1@reserve
; Line 763
	mov	eax, DWORD PTR _this$[ebp]
	mov	ecx, DWORD PTR [eax+4]
	push	ecx
	mov	edx, DWORD PTR _this$[ebp]
	mov	eax, DWORD PTR [edx]
	push	eax
	mov	ecx, DWORD PTR _this$[ebp]
	call	?_Destroy@?$vector@PAVLogger@common@ibmras@@V?$allocator@PAVLogger@common@ibmras@@@std@@@std@@IAEXPAPAVLogger@common@ibmras@@0@Z ; std::vector<ibmras::common::Logger *,std::allocator<ibmras::common::Logger *> >::_Destroy
; Line 765
	mov	ecx, DWORD PTR _this$[ebp]
	mov	edx, DWORD PTR _this$[ebp]
	mov	eax, DWORD PTR [ecx+8]
	sub	eax, DWORD PTR [edx]
	sar	eax, 2
	push	eax
	mov	ecx, DWORD PTR _this$[ebp]
	mov	edx, DWORD PTR [ecx]
	push	edx
	mov	ecx, DWORD PTR _this$[ebp]
	add	ecx, 12					; 0000000cH
	call	?deallocate@?$allocator@PAVLogger@common@ibmras@@@std@@QAEXPAPAVLogger@common@ibmras@@I@Z ; std::allocator<ibmras::common::Logger *>::deallocate
$LN1@reserve:
; Line 768
	mov	ecx, DWORD PTR _this$[ebp]
	call	DWORD PTR __imp_?_Orphan_all@_Container_base0@std@@QAEXXZ
; Line 769
	mov	eax, DWORD PTR __Count$[ebp]
	mov	ecx, DWORD PTR __Ptr$35622[ebp]
	lea	edx, DWORD PTR [ecx+eax*4]
	mov	eax, DWORD PTR _this$[ebp]
	mov	DWORD PTR [eax+8], edx
; Line 770
	mov	ecx, DWORD PTR __Size$35629[ebp]
	mov	edx, DWORD PTR __Ptr$35622[ebp]
	lea	eax, DWORD PTR [edx+ecx*4]
	mov	ecx, DWORD PTR _this$[ebp]
	mov	DWORD PTR [ecx+4], eax
; Line 771
	mov	edx, DWORD PTR _this$[ebp]
	mov	eax, DWORD PTR __Ptr$35622[ebp]
	mov	DWORD PTR [edx], eax
$LN7@reserve:
; Line 773
	mov	ecx, DWORD PTR __$EHRec$[ebp+4]
	mov	DWORD PTR fs:0, ecx
	pop	ecx
	pop	edi
	pop	esi
	pop	ebx
	mov	esp, ebp
	pop	ebp
	ret	4
_TEXT	ENDS
;	COMDAT text$x
text$x	SEGMENT
__ehhandler$?reserve@?$vector@PAVLogger@common@ibmras@@V?$allocator@PAVLogger@common@ibmras@@@std@@@std@@QAEXI@Z:
	mov	edx, DWORD PTR [esp+8]
	lea	eax, DWORD PTR [edx+12]
	mov	ecx, DWORD PTR [edx-32]
	xor	ecx, eax
	call	@__security_check_cookie@4
	mov	eax, OFFSET __ehfuncinfo$?reserve@?$vector@PAVLogger@common@ibmras@@V?$allocator@PAVLogger@common@ibmras@@@std@@@std@@QAEXI@Z
	jmp	___CxxFrameHandler3
text$x	ENDS
?reserve@?$vector@PAVLogger@common@ibmras@@V?$allocator@PAVLogger@common@ibmras@@@std@@@std@@QAEXI@Z ENDP ; std::vector<ibmras::common::Logger *,std::allocator<ibmras::common::Logger *> >::reserve
PUBLIC	?max_size@?$allocator@PAVLogger@common@ibmras@@@std@@QBEIXZ ; std::allocator<ibmras::common::Logger *>::max_size
; Function compile flags: /Odtp
;	COMDAT ?max_size@?$vector@PAVLogger@common@ibmras@@V?$allocator@PAVLogger@common@ibmras@@@std@@@std@@QBEIXZ
_TEXT	SEGMENT
_this$ = -4						; size = 4
?max_size@?$vector@PAVLogger@common@ibmras@@V?$allocator@PAVLogger@common@ibmras@@@std@@@std@@QBEIXZ PROC ; std::vector<ibmras::common::Logger *,std::allocator<ibmras::common::Logger *> >::max_size, COMDAT
; _this$ = ecx
; Line 883
	push	ebp
	mov	ebp, esp
	push	ecx
	mov	DWORD PTR _this$[ebp], ecx
; Line 884
	mov	ecx, DWORD PTR _this$[ebp]
	add	ecx, 12					; 0000000cH
	call	?max_size@?$allocator@PAVLogger@common@ibmras@@@std@@QBEIXZ ; std::allocator<ibmras::common::Logger *>::max_size
; Line 885
	mov	esp, ebp
	pop	ebp
	ret	0
?max_size@?$vector@PAVLogger@common@ibmras@@V?$allocator@PAVLogger@common@ibmras@@@std@@@std@@QBEIXZ ENDP ; std::vector<ibmras::common::Logger *,std::allocator<ibmras::common::Logger *> >::max_size
_TEXT	ENDS
PUBLIC	??$_Move@PAPAVLogger@common@ibmras@@PAPAV123@@std@@YAPAPAVLogger@common@ibmras@@PAPAV123@00@Z ; std::_Move<ibmras::common::Logger * *,ibmras::common::Logger * *>
PUBLIC	?_Make_iter@?$vector@PAVLogger@common@ibmras@@V?$allocator@PAVLogger@common@ibmras@@@std@@@std@@QBE?AV?$_Vector_iterator@V?$_Vector_val@PAVLogger@common@ibmras@@V?$allocator@PAVLogger@common@ibmras@@@std@@@std@@@2@V?$_Vector_const_iterator@V?$_Vector_val@PAVLogger@common@ibmras@@V?$allocator@PAVLogger@common@ibmras@@@std@@@std@@@2@@Z ; std::vector<ibmras::common::Logger *,std::allocator<ibmras::common::Logger *> >::_Make_iter
; Function compile flags: /Odtp
;	COMDAT ?erase@?$vector@PAVLogger@common@ibmras@@V?$allocator@PAVLogger@common@ibmras@@@std@@@std@@QAE?AV?$_Vector_iterator@V?$_Vector_val@PAVLogger@common@ibmras@@V?$allocator@PAVLogger@common@ibmras@@@std@@@std@@@2@V?$_Vector_const_iterator@V?$_Vector_val@PAVLogger@common@ibmras@@V?$allocator@PAVLogger@common@ibmras@@@std@@@std@@@2@0@Z
_TEXT	SEGMENT
_this$ = -20						; size = 4
$T38907 = -16						; size = 4
__Ptr$35641 = -12					; size = 4
__Last$ = -8						; size = 4
__First$ = -4						; size = 4
___$ReturnUdt$ = 8					; size = 4
__First_arg$ = 12					; size = 4
__Last_arg$ = 16					; size = 4
?erase@?$vector@PAVLogger@common@ibmras@@V?$allocator@PAVLogger@common@ibmras@@@std@@@std@@QAE?AV?$_Vector_iterator@V?$_Vector_val@PAVLogger@common@ibmras@@V?$allocator@PAVLogger@common@ibmras@@@std@@@std@@@2@V?$_Vector_const_iterator@V?$_Vector_val@PAVLogger@common@ibmras@@V?$allocator@PAVLogger@common@ibmras@@@std@@@std@@@2@0@Z PROC ; std::vector<ibmras::common::Logger *,std::allocator<ibmras::common::Logger *> >::erase, COMDAT
; _this$ = ecx
; Line 1190
	push	ebp
	mov	ebp, esp
	sub	esp, 20					; 00000014H
	mov	DWORD PTR _this$[ebp], ecx
; Line 1191
	mov	eax, DWORD PTR __First_arg$[ebp]
	push	eax
	lea	ecx, DWORD PTR __First$[ebp]
	push	ecx
	mov	ecx, DWORD PTR _this$[ebp]
	call	?_Make_iter@?$vector@PAVLogger@common@ibmras@@V?$allocator@PAVLogger@common@ibmras@@@std@@@std@@QBE?AV?$_Vector_iterator@V?$_Vector_val@PAVLogger@common@ibmras@@V?$allocator@PAVLogger@common@ibmras@@@std@@@std@@@2@V?$_Vector_const_iterator@V?$_Vector_val@PAVLogger@common@ibmras@@V?$allocator@PAVLogger@common@ibmras@@@std@@@std@@@2@@Z ; std::vector<ibmras::common::Logger *,std::allocator<ibmras::common::Logger *> >::_Make_iter
; Line 1192
	mov	edx, DWORD PTR __Last_arg$[ebp]
	push	edx
	lea	eax, DWORD PTR __Last$[ebp]
	push	eax
	mov	ecx, DWORD PTR _this$[ebp]
	call	?_Make_iter@?$vector@PAVLogger@common@ibmras@@V?$allocator@PAVLogger@common@ibmras@@@std@@@std@@QBE?AV?$_Vector_iterator@V?$_Vector_val@PAVLogger@common@ibmras@@V?$allocator@PAVLogger@common@ibmras@@@std@@@std@@@2@V?$_Vector_const_iterator@V?$_Vector_val@PAVLogger@common@ibmras@@V?$allocator@PAVLogger@common@ibmras@@@std@@@std@@@2@@Z ; std::vector<ibmras::common::Logger *,std::allocator<ibmras::common::Logger *> >::_Make_iter
; Line 1194
	lea	ecx, DWORD PTR __Last$[ebp]
	push	ecx
	lea	ecx, DWORD PTR __First$[ebp]
	call	??9?$_Vector_const_iterator@V?$_Vector_val@PAVLogger@common@ibmras@@V?$allocator@PAVLogger@common@ibmras@@@std@@@std@@@std@@QBE_NABV01@@Z ; std::_Vector_const_iterator<std::_Vector_val<ibmras::common::Logger *,std::allocator<ibmras::common::Logger *> > >::operator!=
	movzx	edx, al
	test	edx, edx
	je	SHORT $LN1@erase@2
; Line 1207
	mov	eax, DWORD PTR __First$[ebp]
	push	eax
	mov	ecx, DWORD PTR _this$[ebp]
	mov	edx, DWORD PTR [ecx+4]
	push	edx
	mov	eax, DWORD PTR __Last$[ebp]
	push	eax
	call	??$_Move@PAPAVLogger@common@ibmras@@PAPAV123@@std@@YAPAPAVLogger@common@ibmras@@PAPAV123@00@Z ; std::_Move<ibmras::common::Logger * *,ibmras::common::Logger * *>
	add	esp, 12					; 0000000cH
	mov	DWORD PTR __Ptr$35641[ebp], eax
; Line 1210
	mov	ecx, DWORD PTR _this$[ebp]
	mov	edx, DWORD PTR [ecx+4]
	push	edx
	mov	eax, DWORD PTR __Ptr$35641[ebp]
	push	eax
	mov	ecx, DWORD PTR _this$[ebp]
	call	?_Destroy@?$vector@PAVLogger@common@ibmras@@V?$allocator@PAVLogger@common@ibmras@@@std@@@std@@IAEXPAPAVLogger@common@ibmras@@0@Z ; std::vector<ibmras::common::Logger *,std::allocator<ibmras::common::Logger *> >::_Destroy
; Line 1211
	mov	ecx, DWORD PTR _this$[ebp]
	mov	edx, DWORD PTR __Ptr$35641[ebp]
	mov	DWORD PTR [ecx+4], edx
$LN1@erase@2:
; Line 1213
	mov	eax, DWORD PTR __First$[ebp]
	mov	DWORD PTR $T38907[ebp], eax
	mov	ecx, DWORD PTR $T38907[ebp]
	push	ecx
	mov	edx, DWORD PTR ___$ReturnUdt$[ebp]
	push	edx
	mov	ecx, DWORD PTR _this$[ebp]
	call	?_Make_iter@?$vector@PAVLogger@common@ibmras@@V?$allocator@PAVLogger@common@ibmras@@@std@@@std@@QBE?AV?$_Vector_iterator@V?$_Vector_val@PAVLogger@common@ibmras@@V?$allocator@PAVLogger@common@ibmras@@@std@@@std@@@2@V?$_Vector_const_iterator@V?$_Vector_val@PAVLogger@common@ibmras@@V?$allocator@PAVLogger@common@ibmras@@@std@@@std@@@2@@Z ; std::vector<ibmras::common::Logger *,std::allocator<ibmras::common::Logger *> >::_Make_iter
	mov	eax, DWORD PTR ___$ReturnUdt$[ebp]
; Line 1214
	mov	esp, ebp
	pop	ebp
	ret	12					; 0000000cH
?erase@?$vector@PAVLogger@common@ibmras@@V?$allocator@PAVLogger@common@ibmras@@@std@@@std@@QAE?AV?$_Vector_iterator@V?$_Vector_val@PAVLogger@common@ibmras@@V?$allocator@PAVLogger@common@ibmras@@@std@@@std@@@2@V?$_Vector_const_iterator@V?$_Vector_val@PAVLogger@common@ibmras@@V?$allocator@PAVLogger@common@ibmras@@@std@@@std@@@2@0@Z ENDP ; std::vector<ibmras::common::Logger *,std::allocator<ibmras::common::Logger *> >::erase
; Function compile flags: /Odtp
_TEXT	ENDS
;	COMDAT ?_Grow_to@?$vector@PAVLogger@common@ibmras@@V?$allocator@PAVLogger@common@ibmras@@@std@@@std@@IBEII@Z
_TEXT	SEGMENT
tv73 = -12						; size = 4
_this$ = -8						; size = 4
__Capacity$ = -4					; size = 4
__Count$ = 8						; size = 4
?_Grow_to@?$vector@PAVLogger@common@ibmras@@V?$allocator@PAVLogger@common@ibmras@@@std@@@std@@IBEII@Z PROC ; std::vector<ibmras::common::Logger *,std::allocator<ibmras::common::Logger *> >::_Grow_to, COMDAT
; _this$ = ecx
; Line 1274
	push	ebp
	mov	ebp, esp
	sub	esp, 12					; 0000000cH
	mov	DWORD PTR _this$[ebp], ecx
; Line 1275
	mov	ecx, DWORD PTR _this$[ebp]
	call	?capacity@?$vector@PAVLogger@common@ibmras@@V?$allocator@PAVLogger@common@ibmras@@@std@@@std@@QBEIXZ ; std::vector<ibmras::common::Logger *,std::allocator<ibmras::common::Logger *> >::capacity
	mov	DWORD PTR __Capacity$[ebp], eax
; Line 1278
	mov	ecx, DWORD PTR _this$[ebp]
	call	?max_size@?$vector@PAVLogger@common@ibmras@@V?$allocator@PAVLogger@common@ibmras@@@std@@@std@@QBEIXZ ; std::vector<ibmras::common::Logger *,std::allocator<ibmras::common::Logger *> >::max_size
	mov	ecx, DWORD PTR __Capacity$[ebp]
	shr	ecx, 1
	sub	eax, ecx
	cmp	eax, DWORD PTR __Capacity$[ebp]
	jae	SHORT $LN4@Grow_to
	mov	DWORD PTR tv73[ebp], 0
	jmp	SHORT $LN5@Grow_to
$LN4@Grow_to:
	mov	edx, DWORD PTR __Capacity$[ebp]
	shr	edx, 1
	add	edx, DWORD PTR __Capacity$[ebp]
	mov	DWORD PTR tv73[ebp], edx
$LN5@Grow_to:
	mov	eax, DWORD PTR tv73[ebp]
	mov	DWORD PTR __Capacity$[ebp], eax
; Line 1279
	mov	ecx, DWORD PTR __Capacity$[ebp]
	cmp	ecx, DWORD PTR __Count$[ebp]
	jae	SHORT $LN1@Grow_to
; Line 1280
	mov	edx, DWORD PTR __Count$[ebp]
	mov	DWORD PTR __Capacity$[ebp], edx
$LN1@Grow_to:
; Line 1281
	mov	eax, DWORD PTR __Capacity$[ebp]
; Line 1282
	mov	esp, ebp
	pop	ebp
	ret	4
?_Grow_to@?$vector@PAVLogger@common@ibmras@@V?$allocator@PAVLogger@common@ibmras@@@std@@@std@@IBEII@Z ENDP ; std::vector<ibmras::common::Logger *,std::allocator<ibmras::common::Logger *> >::_Grow_to
_TEXT	ENDS
PUBLIC	??_C@_0BD@OLBABOEK@vector?$DMT?$DO?5too?5long?$AA@ ; `string'
EXTRN	__imp_?_Xlength_error@std@@YAXPBD@Z:PROC
;	COMDAT ??_C@_0BD@OLBABOEK@vector?$DMT?$DO?5too?5long?$AA@
CONST	SEGMENT
??_C@_0BD@OLBABOEK@vector?$DMT?$DO?5too?5long?$AA@ DB 'vector<T> too long'
	DB	00H						; `string'
; Function compile flags: /Odtp
CONST	ENDS
;	COMDAT ?_Xlen@?$vector@PAVLogger@common@ibmras@@V?$allocator@PAVLogger@common@ibmras@@@std@@@std@@IBEXXZ
_TEXT	SEGMENT
_this$ = -4						; size = 4
?_Xlen@?$vector@PAVLogger@common@ibmras@@V?$allocator@PAVLogger@common@ibmras@@@std@@@std@@IBEXXZ PROC ; std::vector<ibmras::common::Logger *,std::allocator<ibmras::common::Logger *> >::_Xlen, COMDAT
; _this$ = ecx
; Line 1426
	push	ebp
	mov	ebp, esp
	push	ecx
	mov	DWORD PTR _this$[ebp], ecx
; Line 1427
	push	OFFSET ??_C@_0BD@OLBABOEK@vector?$DMT?$DO?5too?5long?$AA@
	call	DWORD PTR __imp_?_Xlength_error@std@@YAXPBD@Z
$LN2@Xlen:
; Line 1428
	mov	esp, ebp
	pop	ebp
	ret	0
?_Xlen@?$vector@PAVLogger@common@ibmras@@V?$allocator@PAVLogger@common@ibmras@@@std@@@std@@IBEXXZ ENDP ; std::vector<ibmras::common::Logger *,std::allocator<ibmras::common::Logger *> >::_Xlen
_TEXT	ENDS
PUBLIC	??$_Allocate@PAVLogger@common@ibmras@@@std@@YAPAPAVLogger@common@ibmras@@IPAPAV123@@Z ; std::_Allocate<ibmras::common::Logger *>
; Function compile flags: /Odtp
;	COMDAT ?allocate@?$allocator@PAVLogger@common@ibmras@@@std@@QAEPAPAVLogger@common@ibmras@@I@Z
_TEXT	SEGMENT
_this$ = -4						; size = 4
__Count$ = 8						; size = 4
?allocate@?$allocator@PAVLogger@common@ibmras@@@std@@QAEPAPAVLogger@common@ibmras@@I@Z PROC ; std::allocator<ibmras::common::Logger *>::allocate, COMDAT
; _this$ = ecx
; File c:\program files (x86)\microsoft visual studio 10.0\vc\include\xmemory
; Line 186
	push	ebp
	mov	ebp, esp
	push	ecx
	mov	DWORD PTR _this$[ebp], ecx
; Line 187
	push	0
	mov	eax, DWORD PTR __Count$[ebp]
	push	eax
	call	??$_Allocate@PAVLogger@common@ibmras@@@std@@YAPAPAVLogger@common@ibmras@@IPAPAV123@@Z ; std::_Allocate<ibmras::common::Logger *>
	add	esp, 8
; Line 188
	mov	esp, ebp
	pop	ebp
	ret	4
?allocate@?$allocator@PAVLogger@common@ibmras@@@std@@QAEPAPAVLogger@common@ibmras@@I@Z ENDP ; std::allocator<ibmras::common::Logger *>::allocate
_TEXT	ENDS
PUBLIC	?_Adopt@_Iterator_base0@std@@QAEXPBX@Z		; std::_Iterator_base0::_Adopt
; Function compile flags: /Odtp
;	COMDAT ??0?$_Vector_const_iterator@V?$_Vector_val@PAVLogger@common@ibmras@@V?$allocator@PAVLogger@common@ibmras@@@std@@@std@@@std@@QAE@PAPAVLogger@common@ibmras@@PBU_Container_base0@1@@Z
_TEXT	SEGMENT
_this$ = -4						; size = 4
__Parg$ = 8						; size = 4
__Pvector$ = 12						; size = 4
??0?$_Vector_const_iterator@V?$_Vector_val@PAVLogger@common@ibmras@@V?$allocator@PAVLogger@common@ibmras@@@std@@@std@@@std@@QAE@PAPAVLogger@common@ibmras@@PBU_Container_base0@1@@Z PROC ; std::_Vector_const_iterator<std::_Vector_val<ibmras::common::Logger *,std::allocator<ibmras::common::Logger *> > >::_Vector_const_iterator<std::_Vector_val<ibmras::common::Logger *,std::allocator<ibmras::common::Logger *> > >, COMDAT
; _this$ = ecx
; File c:\program files (x86)\microsoft visual studio 10.0\vc\include\vector
; Line 45
	push	ebp
	mov	ebp, esp
	push	ecx
	mov	DWORD PTR _this$[ebp], ecx
	mov	eax, DWORD PTR _this$[ebp]
	mov	ecx, DWORD PTR __Parg$[ebp]
	mov	DWORD PTR [eax], ecx
; Line 46
	mov	edx, DWORD PTR __Pvector$[ebp]
	push	edx
	mov	ecx, DWORD PTR _this$[ebp]
	call	?_Adopt@_Iterator_base0@std@@QAEXPBX@Z	; std::_Iterator_base0::_Adopt
; Line 47
	mov	eax, DWORD PTR _this$[ebp]
	mov	esp, ebp
	pop	ebp
	ret	8
??0?$_Vector_const_iterator@V?$_Vector_val@PAVLogger@common@ibmras@@V?$allocator@PAVLogger@common@ibmras@@@std@@@std@@@std@@QAE@PAPAVLogger@common@ibmras@@PBU_Container_base0@1@@Z ENDP ; std::_Vector_const_iterator<std::_Vector_val<ibmras::common::Logger *,std::allocator<ibmras::common::Logger *> > >::_Vector_const_iterator<std::_Vector_val<ibmras::common::Logger *,std::allocator<ibmras::common::Logger *> > >
; Function compile flags: /Odtp
_TEXT	ENDS
;	COMDAT ?_Adopt@_Iterator_base0@std@@QAEXPBX@Z
_TEXT	SEGMENT
_this$ = -4						; size = 4
___formal$ = 8						; size = 4
?_Adopt@_Iterator_base0@std@@QAEXPBX@Z PROC		; std::_Iterator_base0::_Adopt, COMDAT
; _this$ = ecx
; File c:\program files (x86)\microsoft visual studio 10.0\vc\include\xutility
; Line 48
	push	ebp
	mov	ebp, esp
	push	ecx
	mov	DWORD PTR _this$[ebp], ecx
; Line 49
	mov	esp, ebp
	pop	ebp
	ret	4
?_Adopt@_Iterator_base0@std@@QAEXPBX@Z ENDP		; std::_Iterator_base0::_Adopt
; Function compile flags: /Odtp
_TEXT	ENDS
;	COMDAT ?_Compat@?$_Vector_const_iterator@V?$_Vector_val@PAVLogger@common@ibmras@@V?$allocator@PAVLogger@common@ibmras@@@std@@@std@@@std@@QBEXABV12@@Z
_TEXT	SEGMENT
_this$ = -4						; size = 4
___formal$ = 8						; size = 4
?_Compat@?$_Vector_const_iterator@V?$_Vector_val@PAVLogger@common@ibmras@@V?$allocator@PAVLogger@common@ibmras@@@std@@@std@@@std@@QBEXABV12@@Z PROC ; std::_Vector_const_iterator<std::_Vector_val<ibmras::common::Logger *,std::allocator<ibmras::common::Logger *> > >::_Compat, COMDAT
; _this$ = ecx
; File c:\program files (x86)\microsoft visual studio 10.0\vc\include\vector
; Line 252
	push	ebp
	mov	ebp, esp
	push	ecx
	mov	DWORD PTR _this$[ebp], ecx
; Line 253
	mov	esp, ebp
	pop	ebp
	ret	4
?_Compat@?$_Vector_const_iterator@V?$_Vector_val@PAVLogger@common@ibmras@@V?$allocator@PAVLogger@common@ibmras@@@std@@@std@@@std@@QBEXABV12@@Z ENDP ; std::_Vector_const_iterator<std::_Vector_val<ibmras::common::Logger *,std::allocator<ibmras::common::Logger *> > >::_Compat
_TEXT	ENDS
PUBLIC	?max_size@?$allocator@D@std@@QBEIXZ		; std::allocator<char>::max_size
; Function compile flags: /Odtp
;	COMDAT ?max_size@?$basic_string@DU?$char_traits@D@std@@V?$allocator@D@2@@std@@QBEIXZ
_TEXT	SEGMENT
tv73 = -12						; size = 4
_this$ = -8						; size = 4
__Num$ = -4						; size = 4
?max_size@?$basic_string@DU?$char_traits@D@std@@V?$allocator@D@2@@std@@QBEIXZ PROC ; std::basic_string<char,std::char_traits<char>,std::allocator<char> >::max_size, COMDAT
; _this$ = ecx
; File c:\program files (x86)\microsoft visual studio 10.0\vc\include\xstring
; Line 1515
	push	ebp
	mov	ebp, esp
	sub	esp, 12					; 0000000cH
	mov	DWORD PTR _this$[ebp], ecx
; Line 1516
	mov	ecx, DWORD PTR _this$[ebp]
	add	ecx, 24					; 00000018H
	call	?max_size@?$allocator@D@std@@QBEIXZ	; std::allocator<char>::max_size
	mov	DWORD PTR __Num$[ebp], eax
; Line 1517
	cmp	DWORD PTR __Num$[ebp], 1
	ja	SHORT $LN3@max_size
	mov	DWORD PTR tv73[ebp], 1
	jmp	SHORT $LN4@max_size
$LN3@max_size:
	mov	eax, DWORD PTR __Num$[ebp]
	sub	eax, 1
	mov	DWORD PTR tv73[ebp], eax
$LN4@max_size:
	mov	eax, DWORD PTR tv73[ebp]
; Line 1518
	mov	esp, ebp
	pop	ebp
	ret	0
?max_size@?$basic_string@DU?$char_traits@D@std@@V?$allocator@D@2@@std@@QBEIXZ ENDP ; std::basic_string<char,std::char_traits<char>,std::allocator<char> >::max_size
_TEXT	ENDS
PUBLIC	?allocate@?$allocator@D@std@@QAEPADI@Z		; std::allocator<char>::allocate
;	COMDAT xdata$x
xdata$x	SEGMENT
__catchsym$?_Copy@?$basic_string@DU?$char_traits@D@std@@V?$allocator@D@2@@std@@QAEXII@Z$5 DD 040H
	DD	00H
	DD	00H
	DD	FLAT:__catch$?_Copy@?$basic_string@DU?$char_traits@D@std@@V?$allocator@D@2@@std@@QAEXII@Z$0
__catchsym$?_Copy@?$basic_string@DU?$char_traits@D@std@@V?$allocator@D@2@@std@@QAEXII@Z$4 DD 040H
	DD	00H
	DD	00H
	DD	FLAT:__catch$?_Copy@?$basic_string@DU?$char_traits@D@std@@V?$allocator@D@2@@std@@QAEXII@Z$1
__unwindtable$?_Copy@?$basic_string@DU?$char_traits@D@std@@V?$allocator@D@2@@std@@QAEXII@Z DD 0ffffffffH
	DD	00H
	DD	0ffffffffH
	DD	00H
	DD	01H
	DD	00H
	DD	01H
	DD	00H
__ehfuncinfo$?_Copy@?$basic_string@DU?$char_traits@D@std@@V?$allocator@D@2@@std@@QAEXII@Z DD 019930522H
	DD	04H
	DD	FLAT:__unwindtable$?_Copy@?$basic_string@DU?$char_traits@D@std@@V?$allocator@D@2@@std@@QAEXII@Z
	DD	02H
	DD	FLAT:__tryblocktable$?_Copy@?$basic_string@DU?$char_traits@D@std@@V?$allocator@D@2@@std@@QAEXII@Z
	DD	2 DUP(00H)
	DD	00H
	DD	01H
__tryblocktable$?_Copy@?$basic_string@DU?$char_traits@D@std@@V?$allocator@D@2@@std@@QAEXII@Z DD 02H
	DD	02H
	DD	03H
	DD	01H
	DD	FLAT:__catchsym$?_Copy@?$basic_string@DU?$char_traits@D@std@@V?$allocator@D@2@@std@@QAEXII@Z$4
	DD	00H
	DD	00H
	DD	03H
	DD	01H
	DD	FLAT:__catchsym$?_Copy@?$basic_string@DU?$char_traits@D@std@@V?$allocator@D@2@@std@@QAEXII@Z$5
; Function compile flags: /Odtp
xdata$x	ENDS
;	COMDAT ?_Copy@?$basic_string@DU?$char_traits@D@std@@V?$allocator@D@2@@std@@QAEXII@Z
_TEXT	SEGMENT
tv184 = -36						; size = 4
tv183 = -32						; size = 4
_this$ = -28						; size = 4
__Newres$ = -24						; size = 4
__Ptr$ = -20						; size = 4
__$EHRec$ = -16						; size = 16
__Newsize$ = 8						; size = 4
__Oldlen$ = 12						; size = 4
?_Copy@?$basic_string@DU?$char_traits@D@std@@V?$allocator@D@2@@std@@QAEXII@Z PROC ; std::basic_string<char,std::char_traits<char>,std::allocator<char> >::_Copy, COMDAT
; _this$ = ecx
; Line 1918
	push	ebp
	mov	ebp, esp
	push	-1
	push	__ehhandler$?_Copy@?$basic_string@DU?$char_traits@D@std@@V?$allocator@D@2@@std@@QAEXII@Z
	mov	eax, DWORD PTR fs:0
	push	eax
	push	ecx
	sub	esp, 20					; 00000014H
	push	ebx
	push	esi
	push	edi
	mov	eax, DWORD PTR ___security_cookie
	xor	eax, ebp
	push	eax
	lea	eax, DWORD PTR __$EHRec$[ebp+4]
	mov	DWORD PTR fs:0, eax
	mov	DWORD PTR __$EHRec$[ebp], esp
	mov	DWORD PTR _this$[ebp], ecx
; Line 1919
	mov	eax, DWORD PTR __Newsize$[ebp]
	or	eax, 15					; 0000000fH
	mov	DWORD PTR __Newres$[ebp], eax
; Line 1920
	mov	ecx, DWORD PTR _this$[ebp]
	call	?max_size@?$basic_string@DU?$char_traits@D@std@@V?$allocator@D@2@@std@@QBEIXZ ; std::basic_string<char,std::char_traits<char>,std::allocator<char> >::max_size
	cmp	eax, DWORD PTR __Newres$[ebp]
	jae	SHORT $LN9@Copy
; Line 1921
	mov	ecx, DWORD PTR __Newsize$[ebp]
	mov	DWORD PTR __Newres$[ebp], ecx
	jmp	SHORT $LN8@Copy
$LN9@Copy:
; Line 1922
	mov	eax, DWORD PTR __Newres$[ebp]
	xor	edx, edx
	mov	ecx, 3
	div	ecx
	mov	edx, DWORD PTR _this$[ebp]
	mov	ecx, DWORD PTR [edx+20]
	shr	ecx, 1
	cmp	ecx, eax
	ja	SHORT $LN7@Copy
	jmp	SHORT $LN8@Copy
$LN7@Copy:
; Line 1924
	mov	edx, DWORD PTR _this$[ebp]
	mov	esi, DWORD PTR [edx+20]
	shr	esi, 1
	mov	ecx, DWORD PTR _this$[ebp]
	call	?max_size@?$basic_string@DU?$char_traits@D@std@@V?$allocator@D@2@@std@@QBEIXZ ; std::basic_string<char,std::char_traits<char>,std::allocator<char> >::max_size
	sub	eax, esi
	mov	ecx, DWORD PTR _this$[ebp]
	cmp	DWORD PTR [ecx+20], eax
	ja	SHORT $LN5@Copy
; Line 1926
	mov	edx, DWORD PTR _this$[ebp]
	mov	eax, DWORD PTR [edx+20]
	shr	eax, 1
	mov	ecx, DWORD PTR _this$[ebp]
	add	eax, DWORD PTR [ecx+20]
	mov	DWORD PTR __Newres$[ebp], eax
; Line 1927
	jmp	SHORT $LN8@Copy
$LN5@Copy:
; Line 1928
	mov	ecx, DWORD PTR _this$[ebp]
	call	?max_size@?$basic_string@DU?$char_traits@D@std@@V?$allocator@D@2@@std@@QBEIXZ ; std::basic_string<char,std::char_traits<char>,std::allocator<char> >::max_size
	mov	DWORD PTR __Newres$[ebp], eax
$LN8@Copy:
; Line 1931
	mov	DWORD PTR __$EHRec$[ebp+12], 0
; Line 1932
	mov	edx, DWORD PTR __Newres$[ebp]
	add	edx, 1
	push	edx
	mov	ecx, DWORD PTR _this$[ebp]
	add	ecx, 24					; 00000018H
	call	?allocate@?$allocator@D@std@@QAEPADI@Z	; std::allocator<char>::allocate
	mov	DWORD PTR tv183[ebp], eax
	mov	eax, DWORD PTR tv183[ebp]
	mov	DWORD PTR __Ptr$[ebp], eax
	jmp	SHORT $LN12@Copy
__catch$?_Copy@?$basic_string@DU?$char_traits@D@std@@V?$allocator@D@2@@std@@QAEXII@Z$0:
; Line 1933
	mov	DWORD PTR __$EHRec$[ebp], esp
; Line 1934
	mov	ecx, DWORD PTR __Newsize$[ebp]
	mov	DWORD PTR __Newres$[ebp], ecx
; Line 1935
	mov	BYTE PTR __$EHRec$[ebp+12], 2
; Line 1936
	mov	edx, DWORD PTR __Newres$[ebp]
	add	edx, 1
	push	edx
	mov	ecx, DWORD PTR _this$[ebp]
	add	ecx, 24					; 00000018H
	call	?allocate@?$allocator@D@std@@QAEPADI@Z	; std::allocator<char>::allocate
	mov	DWORD PTR tv184[ebp], eax
	mov	eax, DWORD PTR tv184[ebp]
	mov	DWORD PTR __Ptr$[ebp], eax
	jmp	SHORT $LN14@Copy
__catch$?_Copy@?$basic_string@DU?$char_traits@D@std@@V?$allocator@D@2@@std@@QAEXII@Z$1:
; Line 1938
	push	0
	push	1
	mov	ecx, DWORD PTR _this$[ebp]
	call	?_Tidy@?$basic_string@DU?$char_traits@D@std@@V?$allocator@D@2@@std@@QAEX_NI@Z ; std::basic_string<char,std::char_traits<char>,std::allocator<char> >::_Tidy
; Line 1939
	push	0
	push	0
	call	__CxxThrowException@8
; Line 1940
	mov	DWORD PTR __$EHRec$[ebp+12], 1
	mov	eax, __tryend$?_Copy@?$basic_string@DU?$char_traits@D@std@@V?$allocator@D@2@@std@@QAEXII@Z$2
	ret	0
$LN14@Copy:
	mov	DWORD PTR __$EHRec$[ebp+12], 1
__tryend$?_Copy@?$basic_string@DU?$char_traits@D@std@@V?$allocator@D@2@@std@@QAEXII@Z$2:
; Line 1941
	mov	DWORD PTR __$EHRec$[ebp+12], 1
	mov	eax, __tryend$?_Copy@?$basic_string@DU?$char_traits@D@std@@V?$allocator@D@2@@std@@QAEXII@Z$3
	ret	0
$LN12@Copy:
	mov	DWORD PTR __$EHRec$[ebp+12], -1
__tryend$?_Copy@?$basic_string@DU?$char_traits@D@std@@V?$allocator@D@2@@std@@QAEXII@Z$3:
; Line 1943
	cmp	DWORD PTR __Oldlen$[ebp], 0
	jbe	SHORT $LN1@Copy
; Line 1944
	mov	ecx, DWORD PTR __Oldlen$[ebp]
	push	ecx
	mov	ecx, DWORD PTR _this$[ebp]
	call	?_Myptr@?$basic_string@DU?$char_traits@D@std@@V?$allocator@D@2@@std@@QAEPADXZ ; std::basic_string<char,std::char_traits<char>,std::allocator<char> >::_Myptr
	push	eax
	mov	edx, DWORD PTR __Ptr$[ebp]
	push	edx
	call	?copy@?$char_traits@D@std@@SAPADPADPBDI@Z ; std::char_traits<char>::copy
	add	esp, 12					; 0000000cH
$LN1@Copy:
; Line 1945
	push	0
	push	1
	mov	ecx, DWORD PTR _this$[ebp]
	call	?_Tidy@?$basic_string@DU?$char_traits@D@std@@V?$allocator@D@2@@std@@QAEX_NI@Z ; std::basic_string<char,std::char_traits<char>,std::allocator<char> >::_Tidy
; Line 1946
	mov	eax, DWORD PTR _this$[ebp]
	mov	ecx, DWORD PTR __Ptr$[ebp]
	mov	DWORD PTR [eax], ecx
; Line 1947
	mov	edx, DWORD PTR _this$[ebp]
	mov	eax, DWORD PTR __Newres$[ebp]
	mov	DWORD PTR [edx+20], eax
; Line 1948
	mov	ecx, DWORD PTR __Oldlen$[ebp]
	push	ecx
	mov	ecx, DWORD PTR _this$[ebp]
	call	?_Eos@?$basic_string@DU?$char_traits@D@std@@V?$allocator@D@2@@std@@QAEXI@Z ; std::basic_string<char,std::char_traits<char>,std::allocator<char> >::_Eos
$LN11@Copy:
; Line 1949
	mov	ecx, DWORD PTR __$EHRec$[ebp+4]
	mov	DWORD PTR fs:0, ecx
	pop	ecx
	pop	edi
	pop	esi
	pop	ebx
	mov	esp, ebp
	pop	ebp
	ret	8
_TEXT	ENDS
;	COMDAT text$x
text$x	SEGMENT
__ehhandler$?_Copy@?$basic_string@DU?$char_traits@D@std@@V?$allocator@D@2@@std@@QAEXII@Z:
	mov	edx, DWORD PTR [esp+8]
	lea	eax, DWORD PTR [edx+12]
	mov	ecx, DWORD PTR [edx-40]
	xor	ecx, eax
	call	@__security_check_cookie@4
	mov	eax, OFFSET __ehfuncinfo$?_Copy@?$basic_string@DU?$char_traits@D@std@@V?$allocator@D@2@@std@@QAEXII@Z
	jmp	___CxxFrameHandler3
text$x	ENDS
?_Copy@?$basic_string@DU?$char_traits@D@std@@V?$allocator@D@2@@std@@QAEXII@Z ENDP ; std::basic_string<char,std::char_traits<char>,std::allocator<char> >::_Copy
; Function compile flags: /Odtp
;	COMDAT ?_Inside@?$basic_string@DU?$char_traits@D@std@@V?$allocator@D@2@@std@@QAE_NPBD@Z
_TEXT	SEGMENT
_this$ = -4						; size = 4
__Ptr$ = 8						; size = 4
?_Inside@?$basic_string@DU?$char_traits@D@std@@V?$allocator@D@2@@std@@QAE_NPBD@Z PROC ; std::basic_string<char,std::char_traits<char>,std::allocator<char> >::_Inside, COMDAT
; _this$ = ecx
; Line 1972
	push	ebp
	mov	ebp, esp
	push	ecx
	mov	DWORD PTR _this$[ebp], ecx
; Line 1973
	cmp	DWORD PTR __Ptr$[ebp], 0
	je	SHORT $LN2@Inside@2
	mov	ecx, DWORD PTR _this$[ebp]
	call	?_Myptr@?$basic_string@DU?$char_traits@D@std@@V?$allocator@D@2@@std@@QAEPADXZ ; std::basic_string<char,std::char_traits<char>,std::allocator<char> >::_Myptr
	cmp	DWORD PTR __Ptr$[ebp], eax
	jb	SHORT $LN2@Inside@2
	mov	ecx, DWORD PTR _this$[ebp]
	call	?_Myptr@?$basic_string@DU?$char_traits@D@std@@V?$allocator@D@2@@std@@QAEPADXZ ; std::basic_string<char,std::char_traits<char>,std::allocator<char> >::_Myptr
	mov	ecx, DWORD PTR _this$[ebp]
	add	eax, DWORD PTR [ecx+16]
	cmp	eax, DWORD PTR __Ptr$[ebp]
	ja	SHORT $LN3@Inside@2
$LN2@Inside@2:
; Line 1974
	xor	al, al
	jmp	SHORT $LN4@Inside@2
; Line 1975
	jmp	SHORT $LN4@Inside@2
$LN3@Inside@2:
; Line 1976
	mov	al, 1
$LN4@Inside@2:
; Line 1977
	mov	esp, ebp
	pop	ebp
	ret	4
?_Inside@?$basic_string@DU?$char_traits@D@std@@V?$allocator@D@2@@std@@QAE_NPBD@Z ENDP ; std::basic_string<char,std::char_traits<char>,std::allocator<char> >::_Inside
_TEXT	ENDS
PUBLIC	??_C@_0BA@JFNIOLAK@string?5too?5long?$AA@	; `string'
;	COMDAT ??_C@_0BA@JFNIOLAK@string?5too?5long?$AA@
CONST	SEGMENT
??_C@_0BA@JFNIOLAK@string?5too?5long?$AA@ DB 'string too long', 00H ; `string'
; Function compile flags: /Odtp
CONST	ENDS
;	COMDAT ?_Xlen@?$basic_string@DU?$char_traits@D@std@@V?$allocator@D@2@@std@@QBEXXZ
_TEXT	SEGMENT
_this$ = -4						; size = 4
?_Xlen@?$basic_string@DU?$char_traits@D@std@@V?$allocator@D@2@@std@@QBEXXZ PROC ; std::basic_string<char,std::char_traits<char>,std::allocator<char> >::_Xlen, COMDAT
; _this$ = ecx
; Line 2014
	push	ebp
	mov	ebp, esp
	push	ecx
	mov	DWORD PTR _this$[ebp], ecx
; Line 2015
	push	OFFSET ??_C@_0BA@JFNIOLAK@string?5too?5long?$AA@
	call	DWORD PTR __imp_?_Xlength_error@std@@YAXPBD@Z
$LN2@Xlen@2:
; Line 2016
	mov	esp, ebp
	pop	ebp
	ret	0
?_Xlen@?$basic_string@DU?$char_traits@D@std@@V?$allocator@D@2@@std@@QBEXXZ ENDP ; std::basic_string<char,std::char_traits<char>,std::allocator<char> >::_Xlen
; Function compile flags: /Odtp
_TEXT	ENDS
;	COMDAT ?_Make_iter@?$vector@PAVLogger@common@ibmras@@V?$allocator@PAVLogger@common@ibmras@@@std@@@std@@QBE?AV?$_Vector_iterator@V?$_Vector_val@PAVLogger@common@ibmras@@V?$allocator@PAVLogger@common@ibmras@@@std@@@std@@@2@V?$_Vector_const_iterator@V?$_Vector_val@PAVLogger@common@ibmras@@V?$allocator@PAVLogger@common@ibmras@@@std@@@std@@@2@@Z
_TEXT	SEGMENT
_this$ = -4						; size = 4
___$ReturnUdt$ = 8					; size = 4
__Where$ = 12						; size = 4
?_Make_iter@?$vector@PAVLogger@common@ibmras@@V?$allocator@PAVLogger@common@ibmras@@@std@@@std@@QBE?AV?$_Vector_iterator@V?$_Vector_val@PAVLogger@common@ibmras@@V?$allocator@PAVLogger@common@ibmras@@@std@@@std@@@2@V?$_Vector_const_iterator@V?$_Vector_val@PAVLogger@common@ibmras@@V?$allocator@PAVLogger@common@ibmras@@@std@@@std@@@2@@Z PROC ; std::vector<ibmras::common::Logger *,std::allocator<ibmras::common::Logger *> >::_Make_iter, COMDAT
; _this$ = ecx
; File c:\program files (x86)\microsoft visual studio 10.0\vc\include\vector
; Line 801
	push	ebp
	mov	ebp, esp
	push	ecx
	mov	DWORD PTR _this$[ebp], ecx
; Line 802
	mov	eax, DWORD PTR _this$[ebp]
	push	eax
	mov	ecx, DWORD PTR __Where$[ebp]
	push	ecx
	mov	ecx, DWORD PTR ___$ReturnUdt$[ebp]
	call	??0?$_Vector_iterator@V?$_Vector_val@PAVLogger@common@ibmras@@V?$allocator@PAVLogger@common@ibmras@@@std@@@std@@@std@@QAE@PAPAVLogger@common@ibmras@@PBU_Container_base0@1@@Z ; std::_Vector_iterator<std::_Vector_val<ibmras::common::Logger *,std::allocator<ibmras::common::Logger *> > >::_Vector_iterator<std::_Vector_val<ibmras::common::Logger *,std::allocator<ibmras::common::Logger *> > >
	mov	eax, DWORD PTR ___$ReturnUdt$[ebp]
; Line 803
	mov	esp, ebp
	pop	ebp
	ret	8
?_Make_iter@?$vector@PAVLogger@common@ibmras@@V?$allocator@PAVLogger@common@ibmras@@@std@@@std@@QBE?AV?$_Vector_iterator@V?$_Vector_val@PAVLogger@common@ibmras@@V?$allocator@PAVLogger@common@ibmras@@@std@@@std@@@2@V?$_Vector_const_iterator@V?$_Vector_val@PAVLogger@common@ibmras@@V?$allocator@PAVLogger@common@ibmras@@@std@@@std@@@2@@Z ENDP ; std::vector<ibmras::common::Logger *,std::allocator<ibmras::common::Logger *> >::_Make_iter
; Function compile flags: /Odtp
_TEXT	ENDS
;	COMDAT ?max_size@?$allocator@PAVLogger@common@ibmras@@@std@@QBEIXZ
_TEXT	SEGMENT
tv65 = -12						; size = 4
_this$ = -8						; size = 4
__Count$ = -4						; size = 4
?max_size@?$allocator@PAVLogger@common@ibmras@@@std@@QBEIXZ PROC ; std::allocator<ibmras::common::Logger *>::max_size, COMDAT
; _this$ = ecx
; File c:\program files (x86)\microsoft visual studio 10.0\vc\include\xmemory
; Line 217
	push	ebp
	mov	ebp, esp
	sub	esp, 12					; 0000000cH
	mov	DWORD PTR _this$[ebp], ecx
; Line 218
	mov	DWORD PTR __Count$[ebp], 1073741823	; 3fffffffH
; Line 219
	cmp	DWORD PTR __Count$[ebp], 0
	jbe	SHORT $LN3@max_size@2
	mov	eax, DWORD PTR __Count$[ebp]
	mov	DWORD PTR tv65[ebp], eax
	jmp	SHORT $LN4@max_size@2
$LN3@max_size@2:
	mov	DWORD PTR tv65[ebp], 1
$LN4@max_size@2:
	mov	eax, DWORD PTR tv65[ebp]
; Line 220
	mov	esp, ebp
	pop	ebp
	ret	0
?max_size@?$allocator@PAVLogger@common@ibmras@@@std@@QBEIXZ ENDP ; std::allocator<ibmras::common::Logger *>::max_size
_TEXT	ENDS
PUBLIC	??$_Allocate@D@std@@YAPADIPAD@Z			; std::_Allocate<char>
; Function compile flags: /Odtp
;	COMDAT ?allocate@?$allocator@D@std@@QAEPADI@Z
_TEXT	SEGMENT
_this$ = -4						; size = 4
__Count$ = 8						; size = 4
?allocate@?$allocator@D@std@@QAEPADI@Z PROC		; std::allocator<char>::allocate, COMDAT
; _this$ = ecx
; Line 186
	push	ebp
	mov	ebp, esp
	push	ecx
	mov	DWORD PTR _this$[ebp], ecx
; Line 187
	push	0
	mov	eax, DWORD PTR __Count$[ebp]
	push	eax
	call	??$_Allocate@D@std@@YAPADIPAD@Z		; std::_Allocate<char>
	add	esp, 8
; Line 188
	mov	esp, ebp
	pop	ebp
	ret	4
?allocate@?$allocator@D@std@@QAEPADI@Z ENDP		; std::allocator<char>::allocate
; Function compile flags: /Odtp
_TEXT	ENDS
;	COMDAT ?max_size@?$allocator@D@std@@QBEIXZ
_TEXT	SEGMENT
tv65 = -12						; size = 4
_this$ = -8						; size = 4
__Count$ = -4						; size = 4
?max_size@?$allocator@D@std@@QBEIXZ PROC		; std::allocator<char>::max_size, COMDAT
; _this$ = ecx
; Line 217
	push	ebp
	mov	ebp, esp
	sub	esp, 12					; 0000000cH
	mov	DWORD PTR _this$[ebp], ecx
; Line 218
	mov	DWORD PTR __Count$[ebp], -1
; Line 219
	cmp	DWORD PTR __Count$[ebp], 0
	jbe	SHORT $LN3@max_size@3
	mov	eax, DWORD PTR __Count$[ebp]
	mov	DWORD PTR tv65[ebp], eax
	jmp	SHORT $LN4@max_size@3
$LN3@max_size@3:
	mov	DWORD PTR tv65[ebp], 1
$LN4@max_size@3:
	mov	eax, DWORD PTR tv65[ebp]
; Line 220
	mov	esp, ebp
	pop	ebp
	ret	0
?max_size@?$allocator@D@std@@QBEIXZ ENDP		; std::allocator<char>::max_size
_TEXT	ENDS
PUBLIC	??1sentry@?$basic_ostream@DU?$char_traits@D@std@@@std@@QAE@XZ ; std::basic_ostream<char,std::char_traits<char> >::sentry::~sentry
PUBLIC	?c_str@?$basic_string@DU?$char_traits@D@std@@V?$allocator@D@2@@std@@QBEPBDXZ ; std::basic_string<char,std::char_traits<char>,std::allocator<char> >::c_str
PUBLIC	?eq_int_type@?$char_traits@D@std@@SA_NABH0@Z	; std::char_traits<char>::eq_int_type
PUBLIC	?eof@?$char_traits@D@std@@SAHXZ			; std::char_traits<char>::eof
PUBLIC	??Bsentry@?$basic_ostream@DU?$char_traits@D@std@@@std@@QBEPQ_Bool_struct@2@HXZ ; std::basic_ostream<char,std::char_traits<char> >::sentry::operator int std::_Bool_struct::*
PUBLIC	??0sentry@?$basic_ostream@DU?$char_traits@D@std@@@std@@QAE@AAV12@@Z ; std::basic_ostream<char,std::char_traits<char> >::sentry::sentry
EXTRN	__imp_?setstate@?$basic_ios@DU?$char_traits@D@std@@@std@@QAEXH_N@Z:PROC
EXTRN	__imp_?width@ios_base@std@@QAE_J_J@Z:PROC
EXTRN	__imp_?sputn@?$basic_streambuf@DU?$char_traits@D@std@@@std@@QAE_JPBD_J@Z:PROC
EXTRN	__imp_?sputc@?$basic_streambuf@DU?$char_traits@D@std@@@std@@QAEHD@Z:PROC
EXTRN	__imp_?rdbuf@?$basic_ios@DU?$char_traits@D@std@@@std@@QBEPAV?$basic_streambuf@DU?$char_traits@D@std@@@2@XZ:PROC
EXTRN	__imp_?fill@?$basic_ios@DU?$char_traits@D@std@@@std@@QBEDXZ:PROC
EXTRN	__imp_?flags@ios_base@std@@QBEHXZ:PROC
EXTRN	__imp_?width@ios_base@std@@QBE_JXZ:PROC
;	COMDAT xdata$x
; File c:\program files (x86)\microsoft visual studio 10.0\vc\include\string
xdata$x	SEGMENT
__catchsym$??$?6DU?$char_traits@D@std@@V?$allocator@D@1@@std@@YAAAV?$basic_ostream@DU?$char_traits@D@std@@@0@AAV10@ABV?$basic_string@DU?$char_traits@D@std@@V?$allocator@D@2@@0@@Z$3 DD 040H
	DD	00H
	DD	00H
	DD	FLAT:__catch$??$?6DU?$char_traits@D@std@@V?$allocator@D@1@@std@@YAAAV?$basic_ostream@DU?$char_traits@D@std@@@0@AAV10@ABV?$basic_string@DU?$char_traits@D@std@@V?$allocator@D@2@@0@@Z$0
__tryblocktable$??$?6DU?$char_traits@D@std@@V?$allocator@D@1@@std@@YAAAV?$basic_ostream@DU?$char_traits@D@std@@@0@AAV10@ABV?$basic_string@DU?$char_traits@D@std@@V?$allocator@D@2@@0@@Z DD 01H
	DD	01H
	DD	02H
	DD	01H
	DD	FLAT:__catchsym$??$?6DU?$char_traits@D@std@@V?$allocator@D@1@@std@@YAAAV?$basic_ostream@DU?$char_traits@D@std@@@0@AAV10@ABV?$basic_string@DU?$char_traits@D@std@@V?$allocator@D@2@@0@@Z$3
__unwindtable$??$?6DU?$char_traits@D@std@@V?$allocator@D@1@@std@@YAAAV?$basic_ostream@DU?$char_traits@D@std@@@0@AAV10@ABV?$basic_string@DU?$char_traits@D@std@@V?$allocator@D@2@@0@@Z DD 0ffffffffH
	DD	FLAT:__unwindfunclet$??$?6DU?$char_traits@D@std@@V?$allocator@D@1@@std@@YAAAV?$basic_ostream@DU?$char_traits@D@std@@@0@AAV10@ABV?$basic_string@DU?$char_traits@D@std@@V?$allocator@D@2@@0@@Z$2
	DD	00H
	DD	00H
	DD	00H
	DD	00H
__ehfuncinfo$??$?6DU?$char_traits@D@std@@V?$allocator@D@1@@std@@YAAAV?$basic_ostream@DU?$char_traits@D@std@@@0@AAV10@ABV?$basic_string@DU?$char_traits@D@std@@V?$allocator@D@2@@0@@Z DD 019930522H
	DD	03H
	DD	FLAT:__unwindtable$??$?6DU?$char_traits@D@std@@V?$allocator@D@1@@std@@YAAAV?$basic_ostream@DU?$char_traits@D@std@@@0@AAV10@ABV?$basic_string@DU?$char_traits@D@std@@V?$allocator@D@2@@0@@Z
	DD	01H
	DD	FLAT:__tryblocktable$??$?6DU?$char_traits@D@std@@V?$allocator@D@1@@std@@YAAAV?$basic_ostream@DU?$char_traits@D@std@@@0@AAV10@ABV?$basic_string@DU?$char_traits@D@std@@V?$allocator@D@2@@0@@Z
	DD	2 DUP(00H)
	DD	00H
	DD	01H
; Function compile flags: /Odtp
xdata$x	ENDS
;	COMDAT ??$?6DU?$char_traits@D@std@@V?$allocator@D@1@@std@@YAAAV?$basic_ostream@DU?$char_traits@D@std@@@0@AAV10@ABV?$basic_string@DU?$char_traits@D@std@@V?$allocator@D@2@@0@@Z
_TEXT	SEGMENT
tv298 = -133						; size = 1
tv297 = -132						; size = 4
tv296 = -128						; size = 4
tv295 = -124						; size = 4
tv294 = -117						; size = 1
tv402 = -116						; size = 8
tv293 = -108						; size = 8
tv292 = -100						; size = 4
tv291 = -96						; size = 4
tv290 = -89						; size = 1
tv289 = -88						; size = 4
tv288 = -84						; size = 4
tv287 = -80						; size = 4
tv286 = -73						; size = 1
tv138 = -72						; size = 4
tv136 = -68						; size = 4
tv331 = -64						; size = 8
$T38970 = -56						; size = 4
$T38969 = -52						; size = 4
$T38968 = -48						; size = 4
$T38967 = -44						; size = 4
$T38966 = -40						; size = 4
__Size$ = -36						; size = 4
__Ok$ = -32						; size = 8
__Pad$ = -24						; size = 4
__State$ = -20						; size = 4
__$EHRec$ = -16						; size = 16
__Ostr$ = 8						; size = 4
__Str$ = 12						; size = 4
??$?6DU?$char_traits@D@std@@V?$allocator@D@1@@std@@YAAAV?$basic_ostream@DU?$char_traits@D@std@@@0@AAV10@ABV?$basic_string@DU?$char_traits@D@std@@V?$allocator@D@2@@0@@Z PROC ; std::operator<<<char,std::char_traits<char>,std::allocator<char> >, COMDAT
; Line 492
	push	ebp
	mov	ebp, esp
	push	-1
	push	__ehhandler$??$?6DU?$char_traits@D@std@@V?$allocator@D@1@@std@@YAAAV?$basic_ostream@DU?$char_traits@D@std@@@0@AAV10@ABV?$basic_string@DU?$char_traits@D@std@@V?$allocator@D@2@@0@@Z
	mov	eax, DWORD PTR fs:0
	push	eax
	push	ecx
	sub	esp, 120				; 00000078H
	push	ebx
	push	esi
	push	edi
	mov	eax, DWORD PTR ___security_cookie
	xor	eax, ebp
	push	eax
	lea	eax, DWORD PTR __$EHRec$[ebp+4]
	mov	DWORD PTR fs:0, eax
	mov	DWORD PTR __$EHRec$[ebp], esp
; Line 497
	mov	DWORD PTR __State$[ebp], 0
; Line 498
	mov	ecx, DWORD PTR __Str$[ebp]
	call	?size@?$basic_string@DU?$char_traits@D@std@@V?$allocator@D@2@@std@@QBEIXZ ; std::basic_string<char,std::char_traits<char>,std::allocator<char> >::size
	mov	DWORD PTR __Size$[ebp], eax
; Line 500
	mov	eax, DWORD PTR __Ostr$[ebp]
	mov	ecx, DWORD PTR [eax]
	mov	edx, DWORD PTR __Ostr$[ebp]
	add	edx, DWORD PTR [ecx+4]
	mov	ecx, edx
	call	DWORD PTR __imp_?width@ios_base@std@@QBE_JXZ
	mov	DWORD PTR tv331[ebp], eax
	mov	DWORD PTR tv331[ebp+4], edx
	cmp	DWORD PTR tv331[ebp+4], 0
	jl	SHORT $LN17@operator@2
	jg	SHORT $LN25@operator@2
	cmp	DWORD PTR tv331[ebp], 0
	jbe	SHORT $LN17@operator@2
$LN25@operator@2:
	mov	eax, DWORD PTR __Ostr$[ebp]
	mov	ecx, DWORD PTR [eax]
	mov	edx, DWORD PTR __Ostr$[ebp]
	add	edx, DWORD PTR [ecx+4]
	mov	ecx, edx
	call	DWORD PTR __imp_?width@ios_base@std@@QBE_JXZ
	cmp	eax, DWORD PTR __Size$[ebp]
	jbe	SHORT $LN17@operator@2
	mov	eax, DWORD PTR __Ostr$[ebp]
	mov	ecx, DWORD PTR [eax]
	mov	edx, DWORD PTR __Ostr$[ebp]
	add	edx, DWORD PTR [ecx+4]
	mov	ecx, edx
	call	DWORD PTR __imp_?width@ios_base@std@@QBE_JXZ
	sub	eax, DWORD PTR __Size$[ebp]
	mov	DWORD PTR tv136[ebp], eax
	jmp	SHORT $LN18@operator@2
$LN17@operator@2:
	mov	DWORD PTR tv136[ebp], 0
$LN18@operator@2:
	mov	eax, DWORD PTR tv136[ebp]
	mov	DWORD PTR __Pad$[ebp], eax
; Line 501
	mov	ecx, DWORD PTR __Ostr$[ebp]
	push	ecx
	lea	ecx, DWORD PTR __Ok$[ebp]
	call	??0sentry@?$basic_ostream@DU?$char_traits@D@std@@@std@@QAE@AAV12@@Z ; std::basic_ostream<char,std::char_traits<char> >::sentry::sentry
	mov	DWORD PTR __$EHRec$[ebp+12], 0
; Line 503
	lea	ecx, DWORD PTR __Ok$[ebp]
	call	??Bsentry@?$basic_ostream@DU?$char_traits@D@std@@@std@@QBEPQ_Bool_struct@2@HXZ ; std::basic_ostream<char,std::char_traits<char> >::sentry::operator int std::_Bool_struct::*
	cmp	eax, -1
	jne	SHORT $LN14@operator@2
; Line 504
	mov	edx, DWORD PTR __State$[ebp]
	or	edx, 4
	mov	DWORD PTR __State$[ebp], edx
; Line 505
	jmp	$LN13@operator@2
$LN14@operator@2:
; Line 507
	mov	BYTE PTR __$EHRec$[ebp+12], 1
; Line 508
	mov	eax, DWORD PTR __Ostr$[ebp]
	mov	ecx, DWORD PTR [eax]
	mov	edx, DWORD PTR __Ostr$[ebp]
	add	edx, DWORD PTR [ecx+4]
	mov	ecx, edx
	call	DWORD PTR __imp_?flags@ios_base@std@@QBEHXZ
	mov	DWORD PTR tv138[ebp], eax
	mov	eax, DWORD PTR tv138[ebp]
	and	eax, 448				; 000001c0H
	cmp	eax, 64					; 00000040H
	je	$LN11@operator@2
; Line 509
	jmp	SHORT $LN10@operator@2
$LN9@operator@2:
	mov	ecx, DWORD PTR __Pad$[ebp]
	sub	ecx, 1
	mov	DWORD PTR __Pad$[ebp], ecx
$LN10@operator@2:
	cmp	DWORD PTR __Pad$[ebp], 0
	jbe	SHORT $LN11@operator@2
; Line 511
	mov	edx, DWORD PTR __Ostr$[ebp]
	mov	eax, DWORD PTR [edx]
	mov	ecx, DWORD PTR __Ostr$[ebp]
	add	ecx, DWORD PTR [eax+4]
	call	DWORD PTR __imp_?fill@?$basic_ios@DU?$char_traits@D@std@@@std@@QBEDXZ
	mov	BYTE PTR tv286[ebp], al
	mov	ecx, DWORD PTR __Ostr$[ebp]
	mov	edx, DWORD PTR [ecx]
	mov	ecx, DWORD PTR __Ostr$[ebp]
	add	ecx, DWORD PTR [edx+4]
	call	DWORD PTR __imp_?rdbuf@?$basic_ios@DU?$char_traits@D@std@@@std@@QBEPAV?$basic_streambuf@DU?$char_traits@D@std@@@2@XZ
	mov	DWORD PTR tv287[ebp], eax
	movzx	eax, BYTE PTR tv286[ebp]
	push	eax
	mov	ecx, DWORD PTR tv287[ebp]
	call	DWORD PTR __imp_?sputc@?$basic_streambuf@DU?$char_traits@D@std@@@std@@QAEHD@Z
	mov	DWORD PTR tv288[ebp], eax
	mov	ecx, DWORD PTR tv288[ebp]
	mov	DWORD PTR $T38966[ebp], ecx
	call	?eof@?$char_traits@D@std@@SAHXZ		; std::char_traits<char>::eof
	mov	DWORD PTR tv289[ebp], eax
	mov	edx, DWORD PTR tv289[ebp]
	mov	DWORD PTR $T38967[ebp], edx
	lea	eax, DWORD PTR $T38966[ebp]
	push	eax
	lea	ecx, DWORD PTR $T38967[ebp]
	push	ecx
	call	?eq_int_type@?$char_traits@D@std@@SA_NABH0@Z ; std::char_traits<char>::eq_int_type
	add	esp, 8
	mov	BYTE PTR tv290[ebp], al
	movzx	edx, BYTE PTR tv290[ebp]
	test	edx, edx
	je	SHORT $LN7@operator@2
; Line 513
	mov	eax, DWORD PTR __State$[ebp]
	or	eax, 4
	mov	DWORD PTR __State$[ebp], eax
; Line 514
	jmp	SHORT $LN11@operator@2
$LN7@operator@2:
; Line 517
	jmp	$LN9@operator@2
$LN11@operator@2:
; Line 518
	cmp	DWORD PTR __State$[ebp], 0
	jne	SHORT $LN6@operator@2
	mov	ecx, DWORD PTR __Str$[ebp]
	call	?c_str@?$basic_string@DU?$char_traits@D@std@@V?$allocator@D@2@@std@@QBEPBDXZ ; std::basic_string<char,std::char_traits<char>,std::allocator<char> >::c_str
	mov	DWORD PTR tv291[ebp], eax
	mov	ecx, DWORD PTR __Ostr$[ebp]
	mov	edx, DWORD PTR [ecx]
	mov	ecx, DWORD PTR __Ostr$[ebp]
	add	ecx, DWORD PTR [edx+4]
	call	DWORD PTR __imp_?rdbuf@?$basic_ios@DU?$char_traits@D@std@@@std@@QBEPAV?$basic_streambuf@DU?$char_traits@D@std@@@2@XZ
	mov	DWORD PTR tv292[ebp], eax
	mov	eax, DWORD PTR __Size$[ebp]
	xor	ecx, ecx
	push	ecx
	push	eax
	mov	edx, DWORD PTR tv291[ebp]
	push	edx
	mov	ecx, DWORD PTR tv292[ebp]
	call	DWORD PTR __imp_?sputn@?$basic_streambuf@DU?$char_traits@D@std@@@std@@QAE_JPBD_J@Z
	mov	DWORD PTR tv293[ebp], eax
	mov	DWORD PTR tv293[ebp+4], edx
	mov	eax, DWORD PTR __Size$[ebp]
	xor	ecx, ecx
	mov	DWORD PTR tv402[ebp], eax
	mov	DWORD PTR tv402[ebp+4], ecx
	mov	edx, DWORD PTR tv293[ebp]
	cmp	edx, DWORD PTR tv402[ebp]
	jne	SHORT $LN26@operator@2
	mov	eax, DWORD PTR tv293[ebp+4]
	cmp	eax, DWORD PTR tv402[ebp+4]
	je	SHORT $LN6@operator@2
$LN26@operator@2:
; Line 519
	mov	ecx, DWORD PTR __State$[ebp]
	or	ecx, 4
	mov	DWORD PTR __State$[ebp], ecx
; Line 520
	jmp	$LN5@operator@2
$LN6@operator@2:
; Line 521
	jmp	SHORT $LN4@operator@2
$LN3@operator@2:
	mov	edx, DWORD PTR __Pad$[ebp]
	sub	edx, 1
	mov	DWORD PTR __Pad$[ebp], edx
$LN4@operator@2:
	cmp	DWORD PTR __Pad$[ebp], 0
	jbe	$LN5@operator@2
; Line 523
	mov	eax, DWORD PTR __Ostr$[ebp]
	mov	ecx, DWORD PTR [eax]
	mov	edx, DWORD PTR __Ostr$[ebp]
	add	edx, DWORD PTR [ecx+4]
	mov	ecx, edx
	call	DWORD PTR __imp_?fill@?$basic_ios@DU?$char_traits@D@std@@@std@@QBEDXZ
	mov	BYTE PTR tv294[ebp], al
	mov	eax, DWORD PTR __Ostr$[ebp]
	mov	ecx, DWORD PTR [eax]
	mov	edx, DWORD PTR __Ostr$[ebp]
	add	edx, DWORD PTR [ecx+4]
	mov	ecx, edx
	call	DWORD PTR __imp_?rdbuf@?$basic_ios@DU?$char_traits@D@std@@@std@@QBEPAV?$basic_streambuf@DU?$char_traits@D@std@@@2@XZ
	mov	DWORD PTR tv295[ebp], eax
	movzx	eax, BYTE PTR tv294[ebp]
	push	eax
	mov	ecx, DWORD PTR tv295[ebp]
	call	DWORD PTR __imp_?sputc@?$basic_streambuf@DU?$char_traits@D@std@@@std@@QAEHD@Z
	mov	DWORD PTR tv296[ebp], eax
	mov	ecx, DWORD PTR tv296[ebp]
	mov	DWORD PTR $T38968[ebp], ecx
	call	?eof@?$char_traits@D@std@@SAHXZ		; std::char_traits<char>::eof
	mov	DWORD PTR tv297[ebp], eax
	mov	edx, DWORD PTR tv297[ebp]
	mov	DWORD PTR $T38969[ebp], edx
	lea	eax, DWORD PTR $T38968[ebp]
	push	eax
	lea	ecx, DWORD PTR $T38969[ebp]
	push	ecx
	call	?eq_int_type@?$char_traits@D@std@@SA_NABH0@Z ; std::char_traits<char>::eq_int_type
	add	esp, 8
	mov	BYTE PTR tv298[ebp], al
	movzx	edx, BYTE PTR tv298[ebp]
	test	edx, edx
	je	SHORT $LN1@operator@2
; Line 525
	mov	eax, DWORD PTR __State$[ebp]
	or	eax, 4
	mov	DWORD PTR __State$[ebp], eax
; Line 526
	jmp	SHORT $LN5@operator@2
$LN1@operator@2:
; Line 527
	jmp	$LN3@operator@2
$LN5@operator@2:
; Line 528
	push	0
	push	0
	mov	ecx, DWORD PTR __Ostr$[ebp]
	mov	edx, DWORD PTR [ecx]
	mov	ecx, DWORD PTR __Ostr$[ebp]
	add	ecx, DWORD PTR [edx+4]
	call	DWORD PTR __imp_?width@ios_base@std@@QAE_J_J@Z
	jmp	SHORT $LN19@operator@2
__catch$??$?6DU?$char_traits@D@std@@V?$allocator@D@1@@std@@YAAAV?$basic_ostream@DU?$char_traits@D@std@@@0@AAV10@ABV?$basic_string@DU?$char_traits@D@std@@V?$allocator@D@2@@0@@Z$0:
; Line 529
	push	1
	push	4
	mov	eax, DWORD PTR __Ostr$[ebp]
	mov	ecx, DWORD PTR [eax]
	mov	edx, DWORD PTR __Ostr$[ebp]
	add	edx, DWORD PTR [ecx+4]
	mov	ecx, edx
	call	DWORD PTR __imp_?setstate@?$basic_ios@DU?$char_traits@D@std@@@std@@QAEXH_N@Z
	mov	DWORD PTR __$EHRec$[ebp+12], 0
	mov	eax, $LN13@operator@2
	ret	0
$LN19@operator@2:
	mov	DWORD PTR __$EHRec$[ebp+12], 0
$LN13@operator@2:
; Line 532
	push	0
	mov	eax, DWORD PTR __State$[ebp]
	push	eax
	mov	ecx, DWORD PTR __Ostr$[ebp]
	mov	edx, DWORD PTR [ecx]
	mov	ecx, DWORD PTR __Ostr$[ebp]
	add	ecx, DWORD PTR [edx+4]
	call	DWORD PTR __imp_?setstate@?$basic_ios@DU?$char_traits@D@std@@@std@@QAEXH_N@Z
; Line 533
	mov	eax, DWORD PTR __Ostr$[ebp]
	mov	DWORD PTR $T38970[ebp], eax
	mov	DWORD PTR __$EHRec$[ebp+12], -1
	lea	ecx, DWORD PTR __Ok$[ebp]
	call	??1sentry@?$basic_ostream@DU?$char_traits@D@std@@@std@@QAE@XZ ; std::basic_ostream<char,std::char_traits<char> >::sentry::~sentry
	mov	eax, DWORD PTR $T38970[ebp]
; Line 534
	mov	ecx, DWORD PTR __$EHRec$[ebp+4]
	mov	DWORD PTR fs:0, ecx
	pop	ecx
	pop	edi
	pop	esi
	pop	ebx
	mov	esp, ebp
	pop	ebp
	ret	0
_TEXT	ENDS
;	COMDAT text$x
text$x	SEGMENT
__unwindfunclet$??$?6DU?$char_traits@D@std@@V?$allocator@D@1@@std@@YAAAV?$basic_ostream@DU?$char_traits@D@std@@@0@AAV10@ABV?$basic_string@DU?$char_traits@D@std@@V?$allocator@D@2@@0@@Z$2:
	lea	ecx, DWORD PTR __Ok$[ebp]
	jmp	??1sentry@?$basic_ostream@DU?$char_traits@D@std@@@std@@QAE@XZ ; std::basic_ostream<char,std::char_traits<char> >::sentry::~sentry
__ehhandler$??$?6DU?$char_traits@D@std@@V?$allocator@D@1@@std@@YAAAV?$basic_ostream@DU?$char_traits@D@std@@@0@AAV10@ABV?$basic_string@DU?$char_traits@D@std@@V?$allocator@D@2@@0@@Z:
	mov	edx, DWORD PTR [esp+8]
	lea	eax, DWORD PTR [edx+12]
	mov	ecx, DWORD PTR [edx-140]
	xor	ecx, eax
	call	@__security_check_cookie@4
	mov	eax, OFFSET __ehfuncinfo$??$?6DU?$char_traits@D@std@@V?$allocator@D@1@@std@@YAAAV?$basic_ostream@DU?$char_traits@D@std@@@0@AAV10@ABV?$basic_string@DU?$char_traits@D@std@@V?$allocator@D@2@@0@@Z
	jmp	___CxxFrameHandler3
text$x	ENDS
??$?6DU?$char_traits@D@std@@V?$allocator@D@1@@std@@YAAAV?$basic_ostream@DU?$char_traits@D@std@@@0@AAV10@ABV?$basic_string@DU?$char_traits@D@std@@V?$allocator@D@2@@0@@Z ENDP ; std::operator<<<char,std::char_traits<char>,std::allocator<char> >
; Function compile flags: /Odtp
;	COMDAT ?eq_int_type@?$char_traits@D@std@@SA_NABH0@Z
_TEXT	SEGMENT
__Left$ = 8						; size = 4
__Right$ = 12						; size = 4
?eq_int_type@?$char_traits@D@std@@SA_NABH0@Z PROC	; std::char_traits<char>::eq_int_type, COMDAT
; File c:\program files (x86)\microsoft visual studio 10.0\vc\include\iosfwd
; Line 552
	push	ebp
	mov	ebp, esp
; Line 553
	mov	eax, DWORD PTR __Left$[ebp]
	mov	ecx, DWORD PTR __Right$[ebp]
	mov	edx, DWORD PTR [eax]
	xor	eax, eax
	cmp	edx, DWORD PTR [ecx]
	sete	al
; Line 554
	pop	ebp
	ret	0
?eq_int_type@?$char_traits@D@std@@SA_NABH0@Z ENDP	; std::char_traits<char>::eq_int_type
; Function compile flags: /Odtp
_TEXT	ENDS
;	COMDAT ?eof@?$char_traits@D@std@@SAHXZ
_TEXT	SEGMENT
?eof@?$char_traits@D@std@@SAHXZ PROC			; std::char_traits<char>::eof, COMDAT
; Line 562
	push	ebp
	mov	ebp, esp
; Line 563
	or	eax, -1
; Line 564
	pop	ebp
	ret	0
?eof@?$char_traits@D@std@@SAHXZ ENDP			; std::char_traits<char>::eof
; Function compile flags: /Odtp
_TEXT	ENDS
;	COMDAT ?c_str@?$basic_string@DU?$char_traits@D@std@@V?$allocator@D@2@@std@@QBEPBDXZ
_TEXT	SEGMENT
_this$ = -4						; size = 4
?c_str@?$basic_string@DU?$char_traits@D@std@@V?$allocator@D@2@@std@@QBEPBDXZ PROC ; std::basic_string<char,std::char_traits<char>,std::allocator<char> >::c_str, COMDAT
; _this$ = ecx
; File c:\program files (x86)\microsoft visual studio 10.0\vc\include\xstring
; Line 1495
	push	ebp
	mov	ebp, esp
	push	ecx
	mov	DWORD PTR _this$[ebp], ecx
; Line 1496
	mov	ecx, DWORD PTR _this$[ebp]
	call	?_Myptr@?$basic_string@DU?$char_traits@D@std@@V?$allocator@D@2@@std@@QBEPBDXZ ; std::basic_string<char,std::char_traits<char>,std::allocator<char> >::_Myptr
; Line 1497
	mov	esp, ebp
	pop	ebp
	ret	0
?c_str@?$basic_string@DU?$char_traits@D@std@@V?$allocator@D@2@@std@@QBEPBDXZ ENDP ; std::basic_string<char,std::char_traits<char>,std::allocator<char> >::c_str
_TEXT	ENDS
PUBLIC	??1_Sentry_base@?$basic_ostream@DU?$char_traits@D@std@@@std@@QAE@XZ ; std::basic_ostream<char,std::char_traits<char> >::_Sentry_base::~_Sentry_base
PUBLIC	??0_Sentry_base@?$basic_ostream@DU?$char_traits@D@std@@@std@@QAE@AAV12@@Z ; std::basic_ostream<char,std::char_traits<char> >::_Sentry_base::_Sentry_base
EXTRN	__imp_?tie@?$basic_ios@DU?$char_traits@D@std@@@std@@QBEPAV?$basic_ostream@DU?$char_traits@D@std@@@2@XZ:PROC
EXTRN	__imp_?good@ios_base@std@@QBE_NXZ:PROC
;	COMDAT xdata$x
; File c:\program files (x86)\microsoft visual studio 10.0\vc\include\ostream
xdata$x	SEGMENT
__unwindtable$??0sentry@?$basic_ostream@DU?$char_traits@D@std@@@std@@QAE@AAV12@@Z DD 0ffffffffH
	DD	FLAT:__unwindfunclet$??0sentry@?$basic_ostream@DU?$char_traits@D@std@@@std@@QAE@AAV12@@Z$0
__ehfuncinfo$??0sentry@?$basic_ostream@DU?$char_traits@D@std@@@std@@QAE@AAV12@@Z DD 019930522H
	DD	01H
	DD	FLAT:__unwindtable$??0sentry@?$basic_ostream@DU?$char_traits@D@std@@@std@@QAE@AAV12@@Z
	DD	2 DUP(00H)
	DD	2 DUP(00H)
	DD	00H
	DD	01H
; Function compile flags: /Odtp
xdata$x	ENDS
;	COMDAT ??0sentry@?$basic_ostream@DU?$char_traits@D@std@@@std@@QAE@AAV12@@Z
_TEXT	SEGMENT
_this$ = -16						; size = 4
__$EHRec$ = -12						; size = 12
__Ostr$ = 8						; size = 4
??0sentry@?$basic_ostream@DU?$char_traits@D@std@@@std@@QAE@AAV12@@Z PROC ; std::basic_ostream<char,std::char_traits<char> >::sentry::sentry, COMDAT
; _this$ = ecx
; Line 114
	push	ebp
	mov	ebp, esp
	push	-1
	push	__ehhandler$??0sentry@?$basic_ostream@DU?$char_traits@D@std@@@std@@QAE@AAV12@@Z
	mov	eax, DWORD PTR fs:0
	push	eax
	push	ecx
	mov	eax, DWORD PTR ___security_cookie
	xor	eax, ebp
	push	eax
	lea	eax, DWORD PTR __$EHRec$[ebp]
	mov	DWORD PTR fs:0, eax
	mov	DWORD PTR _this$[ebp], ecx
	mov	eax, DWORD PTR __Ostr$[ebp]
	push	eax
	mov	ecx, DWORD PTR _this$[ebp]
	call	??0_Sentry_base@?$basic_ostream@DU?$char_traits@D@std@@@std@@QAE@AAV12@@Z ; std::basic_ostream<char,std::char_traits<char> >::_Sentry_base::_Sentry_base
	mov	DWORD PTR __$EHRec$[ebp+8], 0
; Line 115
	mov	ecx, DWORD PTR __Ostr$[ebp]
	mov	edx, DWORD PTR [ecx]
	mov	ecx, DWORD PTR __Ostr$[ebp]
	add	ecx, DWORD PTR [edx+4]
	call	DWORD PTR __imp_?good@ios_base@std@@QBE_NXZ
	movzx	eax, al
	test	eax, eax
	je	SHORT $LN1@sentry
	mov	ecx, DWORD PTR __Ostr$[ebp]
	mov	edx, DWORD PTR [ecx]
	mov	ecx, DWORD PTR __Ostr$[ebp]
	add	ecx, DWORD PTR [edx+4]
	call	DWORD PTR __imp_?tie@?$basic_ios@DU?$char_traits@D@std@@@std@@QBEPAV?$basic_ostream@DU?$char_traits@D@std@@@2@XZ
	test	eax, eax
	je	SHORT $LN1@sentry
; Line 116
	mov	eax, DWORD PTR __Ostr$[ebp]
	mov	ecx, DWORD PTR [eax]
	mov	edx, DWORD PTR __Ostr$[ebp]
	add	edx, DWORD PTR [ecx+4]
	mov	ecx, edx
	call	DWORD PTR __imp_?tie@?$basic_ios@DU?$char_traits@D@std@@@std@@QBEPAV?$basic_ostream@DU?$char_traits@D@std@@@2@XZ
	mov	ecx, eax
	call	DWORD PTR __imp_?flush@?$basic_ostream@DU?$char_traits@D@std@@@std@@QAEAAV12@XZ
$LN1@sentry:
; Line 117
	mov	eax, DWORD PTR __Ostr$[ebp]
	mov	ecx, DWORD PTR [eax]
	mov	edx, DWORD PTR __Ostr$[ebp]
	add	edx, DWORD PTR [ecx+4]
	mov	ecx, edx
	call	DWORD PTR __imp_?good@ios_base@std@@QBE_NXZ
	mov	ecx, DWORD PTR _this$[ebp]
	mov	BYTE PTR [ecx+4], al
; Line 118
	mov	DWORD PTR __$EHRec$[ebp+8], -1
	mov	eax, DWORD PTR _this$[ebp]
	mov	ecx, DWORD PTR __$EHRec$[ebp]
	mov	DWORD PTR fs:0, ecx
	pop	ecx
	mov	esp, ebp
	pop	ebp
	ret	4
_TEXT	ENDS
;	COMDAT text$x
text$x	SEGMENT
__unwindfunclet$??0sentry@?$basic_ostream@DU?$char_traits@D@std@@@std@@QAE@AAV12@@Z$0:
	mov	ecx, DWORD PTR _this$[ebp]
	jmp	??1_Sentry_base@?$basic_ostream@DU?$char_traits@D@std@@@std@@QAE@XZ ; std::basic_ostream<char,std::char_traits<char> >::_Sentry_base::~_Sentry_base
__ehhandler$??0sentry@?$basic_ostream@DU?$char_traits@D@std@@@std@@QAE@AAV12@@Z:
	mov	edx, DWORD PTR [esp+8]
	lea	eax, DWORD PTR [edx+12]
	mov	ecx, DWORD PTR [edx-8]
	xor	ecx, eax
	call	@__security_check_cookie@4
	mov	eax, OFFSET __ehfuncinfo$??0sentry@?$basic_ostream@DU?$char_traits@D@std@@@std@@QAE@AAV12@@Z
	jmp	___CxxFrameHandler3
text$x	ENDS
??0sentry@?$basic_ostream@DU?$char_traits@D@std@@@std@@QAE@AAV12@@Z ENDP ; std::basic_ostream<char,std::char_traits<char> >::sentry::sentry
EXTRN	__imp_?_Osfx@?$basic_ostream@DU?$char_traits@D@std@@@std@@QAEXXZ:PROC
EXTRN	__imp_?uncaught_exception@std@@YA_NXZ:PROC
;	COMDAT xdata$x
xdata$x	SEGMENT
__unwindtable$??1sentry@?$basic_ostream@DU?$char_traits@D@std@@@std@@QAE@XZ DD 0ffffffffH
	DD	FLAT:__unwindfunclet$??1sentry@?$basic_ostream@DU?$char_traits@D@std@@@std@@QAE@XZ$0
__ehfuncinfo$??1sentry@?$basic_ostream@DU?$char_traits@D@std@@@std@@QAE@XZ DD 019930522H
	DD	01H
	DD	FLAT:__unwindtable$??1sentry@?$basic_ostream@DU?$char_traits@D@std@@@std@@QAE@XZ
	DD	2 DUP(00H)
	DD	2 DUP(00H)
	DD	00H
	DD	01H
; Function compile flags: /Odtp
xdata$x	ENDS
;	COMDAT ??1sentry@?$basic_ostream@DU?$char_traits@D@std@@@std@@QAE@XZ
_TEXT	SEGMENT
_this$ = -16						; size = 4
__$EHRec$ = -12						; size = 12
??1sentry@?$basic_ostream@DU?$char_traits@D@std@@@std@@QAE@XZ PROC ; std::basic_ostream<char,std::char_traits<char> >::sentry::~sentry, COMDAT
; _this$ = ecx
; Line 121
	push	ebp
	mov	ebp, esp
	push	-1
	push	__ehhandler$??1sentry@?$basic_ostream@DU?$char_traits@D@std@@@std@@QAE@XZ
	mov	eax, DWORD PTR fs:0
	push	eax
	push	ecx
	mov	eax, DWORD PTR ___security_cookie
	xor	eax, ebp
	push	eax
	lea	eax, DWORD PTR __$EHRec$[ebp]
	mov	DWORD PTR fs:0, eax
	mov	DWORD PTR _this$[ebp], ecx
	mov	DWORD PTR __$EHRec$[ebp+8], 0
; Line 123
	call	DWORD PTR __imp_?uncaught_exception@std@@YA_NXZ
	movzx	eax, al
	test	eax, eax
	jne	SHORT $LN2@sentry@2
; Line 124
	mov	ecx, DWORD PTR _this$[ebp]
	mov	ecx, DWORD PTR [ecx]
	call	DWORD PTR __imp_?_Osfx@?$basic_ostream@DU?$char_traits@D@std@@@std@@QAEXXZ
$LN2@sentry@2:
; Line 129
	mov	DWORD PTR __$EHRec$[ebp+8], -1
	mov	ecx, DWORD PTR _this$[ebp]
	call	??1_Sentry_base@?$basic_ostream@DU?$char_traits@D@std@@@std@@QAE@XZ ; std::basic_ostream<char,std::char_traits<char> >::_Sentry_base::~_Sentry_base
	mov	ecx, DWORD PTR __$EHRec$[ebp]
	mov	DWORD PTR fs:0, ecx
	pop	ecx
	mov	esp, ebp
	pop	ebp
	ret	0
_TEXT	ENDS
;	COMDAT text$x
text$x	SEGMENT
__unwindfunclet$??1sentry@?$basic_ostream@DU?$char_traits@D@std@@@std@@QAE@XZ$0:
	mov	ecx, DWORD PTR _this$[ebp]
	jmp	??1_Sentry_base@?$basic_ostream@DU?$char_traits@D@std@@@std@@QAE@XZ ; std::basic_ostream<char,std::char_traits<char> >::_Sentry_base::~_Sentry_base
__ehhandler$??1sentry@?$basic_ostream@DU?$char_traits@D@std@@@std@@QAE@XZ:
	mov	edx, DWORD PTR [esp+8]
	lea	eax, DWORD PTR [edx+12]
	mov	ecx, DWORD PTR [edx-8]
	xor	ecx, eax
	call	@__security_check_cookie@4
	mov	eax, OFFSET __ehfuncinfo$??1sentry@?$basic_ostream@DU?$char_traits@D@std@@@std@@QAE@XZ
	jmp	___CxxFrameHandler3
text$x	ENDS
??1sentry@?$basic_ostream@DU?$char_traits@D@std@@@std@@QAE@XZ ENDP ; std::basic_ostream<char,std::char_traits<char> >::sentry::~sentry
; Function compile flags: /Odtp
;	COMDAT ??Bsentry@?$basic_ostream@DU?$char_traits@D@std@@@std@@QBEPQ_Bool_struct@2@HXZ
_TEXT	SEGMENT
_this$ = -4						; size = 4
??Bsentry@?$basic_ostream@DU?$char_traits@D@std@@@std@@QBEPQ_Bool_struct@2@HXZ PROC ; std::basic_ostream<char,std::char_traits<char> >::sentry::operator int std::_Bool_struct::*, COMDAT
; _this$ = ecx
; Line 132
	push	ebp
	mov	ebp, esp
	push	ecx
	mov	DWORD PTR _this$[ebp], ecx
; Line 133
	mov	eax, DWORD PTR _this$[ebp]
	movzx	eax, BYTE PTR [eax+4]
	neg	eax
	sbb	eax, eax
	neg	eax
	sub	eax, 1
; Line 134
	mov	esp, ebp
	pop	ebp
	ret	0
??Bsentry@?$basic_ostream@DU?$char_traits@D@std@@@std@@QBEPQ_Bool_struct@2@HXZ ENDP ; std::basic_ostream<char,std::char_traits<char> >::sentry::operator int std::_Bool_struct::*
; Function compile flags: /Odtp
_TEXT	ENDS
;	COMDAT ??0_Sentry_base@?$basic_ostream@DU?$char_traits@D@std@@@std@@QAE@AAV12@@Z
_TEXT	SEGMENT
tv90 = -8						; size = 4
_this$ = -4						; size = 4
__Ostr$ = 8						; size = 4
??0_Sentry_base@?$basic_ostream@DU?$char_traits@D@std@@@std@@QAE@AAV12@@Z PROC ; std::basic_ostream<char,std::char_traits<char> >::_Sentry_base::_Sentry_base, COMDAT
; _this$ = ecx
; Line 91
	push	ebp
	mov	ebp, esp
	sub	esp, 8
	mov	DWORD PTR _this$[ebp], ecx
	mov	eax, DWORD PTR _this$[ebp]
	mov	ecx, DWORD PTR __Ostr$[ebp]
	mov	DWORD PTR [eax], ecx
; Line 92
	mov	edx, DWORD PTR _this$[ebp]
	mov	eax, DWORD PTR [edx]
	mov	ecx, DWORD PTR [eax]
	mov	edx, DWORD PTR _this$[ebp]
	mov	eax, DWORD PTR [edx]
	add	eax, DWORD PTR [ecx+4]
	mov	ecx, eax
	call	DWORD PTR __imp_?rdbuf@?$basic_ios@DU?$char_traits@D@std@@@std@@QBEPAV?$basic_streambuf@DU?$char_traits@D@std@@@2@XZ
	test	eax, eax
	je	SHORT $LN2@Sentry_bas
; Line 93
	mov	ecx, DWORD PTR _this$[ebp]
	mov	edx, DWORD PTR [ecx]
	mov	eax, DWORD PTR [edx]
	mov	ecx, DWORD PTR _this$[ebp]
	mov	ecx, DWORD PTR [ecx]
	add	ecx, DWORD PTR [eax+4]
	call	DWORD PTR __imp_?rdbuf@?$basic_ios@DU?$char_traits@D@std@@@std@@QBEPAV?$basic_streambuf@DU?$char_traits@D@std@@@2@XZ
	mov	DWORD PTR tv90[ebp], eax
	mov	edx, DWORD PTR tv90[ebp]
	mov	eax, DWORD PTR [edx]
	mov	ecx, DWORD PTR tv90[ebp]
	mov	edx, DWORD PTR [eax+4]
	call	edx
$LN2@Sentry_bas:
; Line 94
	mov	eax, DWORD PTR _this$[ebp]
	mov	esp, ebp
	pop	ebp
	ret	4
??0_Sentry_base@?$basic_ostream@DU?$char_traits@D@std@@@std@@QAE@AAV12@@Z ENDP ; std::basic_ostream<char,std::char_traits<char> >::_Sentry_base::_Sentry_base
; Function compile flags: /Odtp
_TEXT	ENDS
;	COMDAT ??1_Sentry_base@?$basic_ostream@DU?$char_traits@D@std@@@std@@QAE@XZ
_TEXT	SEGMENT
tv90 = -8						; size = 4
_this$ = -4						; size = 4
??1_Sentry_base@?$basic_ostream@DU?$char_traits@D@std@@@std@@QAE@XZ PROC ; std::basic_ostream<char,std::char_traits<char> >::_Sentry_base::~_Sentry_base, COMDAT
; _this$ = ecx
; Line 97
	push	ebp
	mov	ebp, esp
	sub	esp, 8
	mov	DWORD PTR _this$[ebp], ecx
; Line 98
	mov	eax, DWORD PTR _this$[ebp]
	mov	ecx, DWORD PTR [eax]
	mov	edx, DWORD PTR [ecx]
	mov	eax, DWORD PTR _this$[ebp]
	mov	ecx, DWORD PTR [eax]
	add	ecx, DWORD PTR [edx+4]
	call	DWORD PTR __imp_?rdbuf@?$basic_ios@DU?$char_traits@D@std@@@std@@QBEPAV?$basic_streambuf@DU?$char_traits@D@std@@@2@XZ
	test	eax, eax
	je	SHORT $LN2@Sentry_bas@2
; Line 99
	mov	ecx, DWORD PTR _this$[ebp]
	mov	edx, DWORD PTR [ecx]
	mov	eax, DWORD PTR [edx]
	mov	ecx, DWORD PTR _this$[ebp]
	mov	ecx, DWORD PTR [ecx]
	add	ecx, DWORD PTR [eax+4]
	call	DWORD PTR __imp_?rdbuf@?$basic_ios@DU?$char_traits@D@std@@@std@@QBEPAV?$basic_streambuf@DU?$char_traits@D@std@@@2@XZ
	mov	DWORD PTR tv90[ebp], eax
	mov	edx, DWORD PTR tv90[ebp]
	mov	eax, DWORD PTR [edx]
	mov	ecx, DWORD PTR tv90[ebp]
	mov	edx, DWORD PTR [eax+8]
	call	edx
$LN2@Sentry_bas@2:
; Line 100
	mov	esp, ebp
	pop	ebp
	ret	0
??1_Sentry_base@?$basic_ostream@DU?$char_traits@D@std@@@std@@QAE@XZ ENDP ; std::basic_ostream<char,std::char_traits<char> >::_Sentry_base::~_Sentry_base
_TEXT	ENDS
;	COMDAT xdata$x
xdata$x	SEGMENT
__catchsym$??$?6U?$char_traits@D@std@@@std@@YAAAV?$basic_ostream@DU?$char_traits@D@std@@@0@AAV10@D@Z$3 DD 040H
	DD	00H
	DD	00H
	DD	FLAT:__catch$??$?6U?$char_traits@D@std@@@std@@YAAAV?$basic_ostream@DU?$char_traits@D@std@@@0@AAV10@D@Z$0
__tryblocktable$??$?6U?$char_traits@D@std@@@std@@YAAAV?$basic_ostream@DU?$char_traits@D@std@@@0@AAV10@D@Z DD 01H
	DD	01H
	DD	02H
	DD	01H
	DD	FLAT:__catchsym$??$?6U?$char_traits@D@std@@@std@@YAAAV?$basic_ostream@DU?$char_traits@D@std@@@0@AAV10@D@Z$3
__unwindtable$??$?6U?$char_traits@D@std@@@std@@YAAAV?$basic_ostream@DU?$char_traits@D@std@@@0@AAV10@D@Z DD 0ffffffffH
	DD	FLAT:__unwindfunclet$??$?6U?$char_traits@D@std@@@std@@YAAAV?$basic_ostream@DU?$char_traits@D@std@@@0@AAV10@D@Z$2
	DD	00H
	DD	00H
	DD	00H
	DD	00H
__ehfuncinfo$??$?6U?$char_traits@D@std@@@std@@YAAAV?$basic_ostream@DU?$char_traits@D@std@@@0@AAV10@D@Z DD 019930522H
	DD	03H
	DD	FLAT:__unwindtable$??$?6U?$char_traits@D@std@@@std@@YAAAV?$basic_ostream@DU?$char_traits@D@std@@@0@AAV10@D@Z
	DD	01H
	DD	FLAT:__tryblocktable$??$?6U?$char_traits@D@std@@@std@@YAAAV?$basic_ostream@DU?$char_traits@D@std@@@0@AAV10@D@Z
	DD	2 DUP(00H)
	DD	00H
	DD	01H
; Function compile flags: /Odtp
xdata$x	ENDS
;	COMDAT ??$?6U?$char_traits@D@std@@@std@@YAAAV?$basic_ostream@DU?$char_traits@D@std@@@0@AAV10@D@Z
_TEXT	SEGMENT
tv284 = -137						; size = 1
tv283 = -136						; size = 4
tv282 = -132						; size = 4
tv281 = -128						; size = 4
tv280 = -122						; size = 1
tv279 = -121						; size = 1
tv278 = -120						; size = 4
tv277 = -116						; size = 4
tv276 = -112						; size = 4
tv275 = -105						; size = 1
tv274 = -104						; size = 4
tv273 = -100						; size = 4
tv272 = -96						; size = 4
tv271 = -89						; size = 1
tv65 = -88						; size = 4
tv95 = -84						; size = 8
tv316 = -76						; size = 8
$T39027 = -68						; size = 4
$T39026 = -64						; size = 4
$T39025 = -60						; size = 4
$T39024 = -56						; size = 4
$T39023 = -52						; size = 4
$T39022 = -48						; size = 4
$T39021 = -44						; size = 4
__Pad$36165 = -40					; size = 8
__Ok$ = -28						; size = 8
__State$ = -20						; size = 4
__$EHRec$ = -16						; size = 16
__Ostr$ = 8						; size = 4
__Ch$ = 12						; size = 1
??$?6U?$char_traits@D@std@@@std@@YAAAV?$basic_ostream@DU?$char_traits@D@std@@@0@AAV10@D@Z PROC ; std::operator<<<std::char_traits<char> >, COMDAT
; Line 813
	push	ebp
	mov	ebp, esp
	push	-1
	push	__ehhandler$??$?6U?$char_traits@D@std@@@std@@YAAAV?$basic_ostream@DU?$char_traits@D@std@@@0@AAV10@D@Z
	mov	eax, DWORD PTR fs:0
	push	eax
	push	ecx
	sub	esp, 124				; 0000007cH
	push	ebx
	push	esi
	push	edi
	mov	eax, DWORD PTR ___security_cookie
	xor	eax, ebp
	push	eax
	lea	eax, DWORD PTR __$EHRec$[ebp+4]
	mov	DWORD PTR fs:0, eax
	mov	DWORD PTR __$EHRec$[ebp], esp
; Line 816
	mov	DWORD PTR __State$[ebp], 0
; Line 817
	mov	eax, DWORD PTR __Ostr$[ebp]
	push	eax
	lea	ecx, DWORD PTR __Ok$[ebp]
	call	??0sentry@?$basic_ostream@DU?$char_traits@D@std@@@std@@QAE@AAV12@@Z ; std::basic_ostream<char,std::char_traits<char> >::sentry::sentry
	mov	DWORD PTR __$EHRec$[ebp+12], 0
; Line 819
	lea	ecx, DWORD PTR __Ok$[ebp]
	call	??Bsentry@?$basic_ostream@DU?$char_traits@D@std@@@std@@QBEPQ_Bool_struct@2@HXZ ; std::basic_ostream<char,std::char_traits<char> >::sentry::operator int std::_Bool_struct::*
	cmp	eax, -1
	je	$LN12@operator@3
; Line 821
	mov	ecx, DWORD PTR __Ostr$[ebp]
	mov	edx, DWORD PTR [ecx]
	mov	ecx, DWORD PTR __Ostr$[ebp]
	add	ecx, DWORD PTR [edx+4]
	call	DWORD PTR __imp_?width@ios_base@std@@QBE_JXZ
	mov	DWORD PTR tv316[ebp], eax
	mov	DWORD PTR tv316[ebp+4], edx
	cmp	DWORD PTR tv316[ebp+4], 0
	jg	SHORT $LN15@operator@3
	jl	SHORT $LN23@operator@3
	cmp	DWORD PTR tv316[ebp], 1
	ja	SHORT $LN15@operator@3
$LN23@operator@3:
	mov	DWORD PTR tv95[ebp], 0
	mov	DWORD PTR tv95[ebp+4], 0
	jmp	SHORT $LN16@operator@3
$LN15@operator@3:
	mov	eax, DWORD PTR __Ostr$[ebp]
	mov	ecx, DWORD PTR [eax]
	mov	edx, DWORD PTR __Ostr$[ebp]
	add	edx, DWORD PTR [ecx+4]
	mov	ecx, edx
	call	DWORD PTR __imp_?width@ios_base@std@@QBE_JXZ
	sub	eax, 1
	sbb	edx, 0
	mov	DWORD PTR tv95[ebp], eax
	mov	DWORD PTR tv95[ebp+4], edx
$LN16@operator@3:
	mov	eax, DWORD PTR tv95[ebp]
	mov	DWORD PTR __Pad$36165[ebp], eax
	mov	ecx, DWORD PTR tv95[ebp+4]
	mov	DWORD PTR __Pad$36165[ebp+4], ecx
; Line 823
	mov	BYTE PTR __$EHRec$[ebp+12], 1
; Line 824
	mov	edx, DWORD PTR __Ostr$[ebp]
	mov	eax, DWORD PTR [edx]
	mov	ecx, DWORD PTR __Ostr$[ebp]
	add	ecx, DWORD PTR [eax+4]
	call	DWORD PTR __imp_?flags@ios_base@std@@QBEHXZ
	mov	DWORD PTR tv65[ebp], eax
	mov	ecx, DWORD PTR tv65[ebp]
	and	ecx, 448				; 000001c0H
	cmp	ecx, 64					; 00000040H
	je	$LN10@operator@3
; Line 826
	jmp	SHORT $LN9@operator@3
$LN8@operator@3:
	mov	edx, DWORD PTR __Pad$36165[ebp]
	sub	edx, 1
	mov	eax, DWORD PTR __Pad$36165[ebp+4]
	sbb	eax, 0
	mov	DWORD PTR __Pad$36165[ebp], edx
	mov	DWORD PTR __Pad$36165[ebp+4], eax
$LN9@operator@3:
	cmp	DWORD PTR __State$[ebp], 0
	jne	$LN10@operator@3
	cmp	DWORD PTR __Pad$36165[ebp+4], 0
	jl	$LN10@operator@3
	jg	SHORT $LN24@operator@3
	cmp	DWORD PTR __Pad$36165[ebp], 0
	jbe	SHORT $LN10@operator@3
$LN24@operator@3:
; Line 828
	mov	ecx, DWORD PTR __Ostr$[ebp]
	mov	edx, DWORD PTR [ecx]
	mov	ecx, DWORD PTR __Ostr$[ebp]
	add	ecx, DWORD PTR [edx+4]
	call	DWORD PTR __imp_?fill@?$basic_ios@DU?$char_traits@D@std@@@std@@QBEDXZ
	mov	BYTE PTR tv271[ebp], al
	mov	eax, DWORD PTR __Ostr$[ebp]
	mov	ecx, DWORD PTR [eax]
	mov	edx, DWORD PTR __Ostr$[ebp]
	add	edx, DWORD PTR [ecx+4]
	mov	ecx, edx
	call	DWORD PTR __imp_?rdbuf@?$basic_ios@DU?$char_traits@D@std@@@std@@QBEPAV?$basic_streambuf@DU?$char_traits@D@std@@@2@XZ
	mov	DWORD PTR tv272[ebp], eax
	movzx	eax, BYTE PTR tv271[ebp]
	push	eax
	mov	ecx, DWORD PTR tv272[ebp]
	call	DWORD PTR __imp_?sputc@?$basic_streambuf@DU?$char_traits@D@std@@@std@@QAEHD@Z
	mov	DWORD PTR tv273[ebp], eax
	mov	ecx, DWORD PTR tv273[ebp]
	mov	DWORD PTR $T39021[ebp], ecx
	call	?eof@?$char_traits@D@std@@SAHXZ		; std::char_traits<char>::eof
	mov	DWORD PTR tv274[ebp], eax
	mov	edx, DWORD PTR tv274[ebp]
	mov	DWORD PTR $T39022[ebp], edx
	lea	eax, DWORD PTR $T39021[ebp]
	push	eax
	lea	ecx, DWORD PTR $T39022[ebp]
	push	ecx
	call	?eq_int_type@?$char_traits@D@std@@SA_NABH0@Z ; std::char_traits<char>::eq_int_type
	add	esp, 8
	mov	BYTE PTR tv275[ebp], al
	movzx	edx, BYTE PTR tv275[ebp]
	test	edx, edx
	je	SHORT $LN6@operator@3
; Line 829
	mov	eax, DWORD PTR __State$[ebp]
	or	eax, 4
	mov	DWORD PTR __State$[ebp], eax
$LN6@operator@3:
; Line 831
	jmp	$LN8@operator@3
$LN10@operator@3:
; Line 833
	cmp	DWORD PTR __State$[ebp], 0
	jne	SHORT $LN5@operator@3
	mov	ecx, DWORD PTR __Ostr$[ebp]
	mov	edx, DWORD PTR [ecx]
	mov	ecx, DWORD PTR __Ostr$[ebp]
	add	ecx, DWORD PTR [edx+4]
	call	DWORD PTR __imp_?rdbuf@?$basic_ios@DU?$char_traits@D@std@@@std@@QBEPAV?$basic_streambuf@DU?$char_traits@D@std@@@2@XZ
	mov	DWORD PTR tv276[ebp], eax
	movzx	eax, BYTE PTR __Ch$[ebp]
	push	eax
	mov	ecx, DWORD PTR tv276[ebp]
	call	DWORD PTR __imp_?sputc@?$basic_streambuf@DU?$char_traits@D@std@@@std@@QAEHD@Z
	mov	DWORD PTR tv277[ebp], eax
	mov	ecx, DWORD PTR tv277[ebp]
	mov	DWORD PTR $T39023[ebp], ecx
	call	?eof@?$char_traits@D@std@@SAHXZ		; std::char_traits<char>::eof
	mov	DWORD PTR tv278[ebp], eax
	mov	edx, DWORD PTR tv278[ebp]
	mov	DWORD PTR $T39024[ebp], edx
	lea	eax, DWORD PTR $T39023[ebp]
	push	eax
	lea	ecx, DWORD PTR $T39024[ebp]
	push	ecx
	call	?eq_int_type@?$char_traits@D@std@@SA_NABH0@Z ; std::char_traits<char>::eq_int_type
	add	esp, 8
	mov	BYTE PTR tv279[ebp], al
	movzx	edx, BYTE PTR tv279[ebp]
	test	edx, edx
	je	SHORT $LN5@operator@3
; Line 834
	mov	eax, DWORD PTR __State$[ebp]
	or	eax, 4
	mov	DWORD PTR __State$[ebp], eax
$LN5@operator@3:
; Line 837
	jmp	SHORT $LN4@operator@3
$LN3@operator@3:
	mov	ecx, DWORD PTR __Pad$36165[ebp]
	sub	ecx, 1
	mov	edx, DWORD PTR __Pad$36165[ebp+4]
	sbb	edx, 0
	mov	DWORD PTR __Pad$36165[ebp], ecx
	mov	DWORD PTR __Pad$36165[ebp+4], edx
$LN4@operator@3:
	cmp	DWORD PTR __State$[ebp], 0
	jne	$LN2@operator@3
	cmp	DWORD PTR __Pad$36165[ebp+4], 0
	jl	$LN2@operator@3
	jg	SHORT $LN25@operator@3
	cmp	DWORD PTR __Pad$36165[ebp], 0
	jbe	$LN2@operator@3
$LN25@operator@3:
; Line 839
	mov	eax, DWORD PTR __Ostr$[ebp]
	mov	ecx, DWORD PTR [eax]
	mov	edx, DWORD PTR __Ostr$[ebp]
	add	edx, DWORD PTR [ecx+4]
	mov	ecx, edx
	call	DWORD PTR __imp_?fill@?$basic_ios@DU?$char_traits@D@std@@@std@@QBEDXZ
	mov	BYTE PTR tv280[ebp], al
	mov	eax, DWORD PTR __Ostr$[ebp]
	mov	ecx, DWORD PTR [eax]
	mov	edx, DWORD PTR __Ostr$[ebp]
	add	edx, DWORD PTR [ecx+4]
	mov	ecx, edx
	call	DWORD PTR __imp_?rdbuf@?$basic_ios@DU?$char_traits@D@std@@@std@@QBEPAV?$basic_streambuf@DU?$char_traits@D@std@@@2@XZ
	mov	DWORD PTR tv281[ebp], eax
	movzx	eax, BYTE PTR tv280[ebp]
	push	eax
	mov	ecx, DWORD PTR tv281[ebp]
	call	DWORD PTR __imp_?sputc@?$basic_streambuf@DU?$char_traits@D@std@@@std@@QAEHD@Z
	mov	DWORD PTR tv282[ebp], eax
	mov	ecx, DWORD PTR tv282[ebp]
	mov	DWORD PTR $T39025[ebp], ecx
	call	?eof@?$char_traits@D@std@@SAHXZ		; std::char_traits<char>::eof
	mov	DWORD PTR tv283[ebp], eax
	mov	edx, DWORD PTR tv283[ebp]
	mov	DWORD PTR $T39026[ebp], edx
	lea	eax, DWORD PTR $T39025[ebp]
	push	eax
	lea	ecx, DWORD PTR $T39026[ebp]
	push	ecx
	call	?eq_int_type@?$char_traits@D@std@@SA_NABH0@Z ; std::char_traits<char>::eq_int_type
	add	esp, 8
	mov	BYTE PTR tv284[ebp], al
	movzx	edx, BYTE PTR tv284[ebp]
	test	edx, edx
	je	SHORT $LN1@operator@3
; Line 840
	mov	eax, DWORD PTR __State$[ebp]
	or	eax, 4
	mov	DWORD PTR __State$[ebp], eax
$LN1@operator@3:
; Line 841
	jmp	$LN3@operator@3
$LN2@operator@3:
	jmp	SHORT $LN17@operator@3
__catch$??$?6U?$char_traits@D@std@@@std@@YAAAV?$basic_ostream@DU?$char_traits@D@std@@@0@AAV10@D@Z$0:
	push	1
	push	4
	mov	ecx, DWORD PTR __Ostr$[ebp]
	mov	edx, DWORD PTR [ecx]
	mov	ecx, DWORD PTR __Ostr$[ebp]
	add	ecx, DWORD PTR [edx+4]
	call	DWORD PTR __imp_?setstate@?$basic_ios@DU?$char_traits@D@std@@@std@@QAEXH_N@Z
	mov	DWORD PTR __$EHRec$[ebp+12], 0
	mov	eax, $LN12@operator@3
	ret	0
$LN17@operator@3:
	mov	DWORD PTR __$EHRec$[ebp+12], 0
$LN12@operator@3:
; Line 844
	push	0
	push	0
	mov	eax, DWORD PTR __Ostr$[ebp]
	mov	ecx, DWORD PTR [eax]
	mov	edx, DWORD PTR __Ostr$[ebp]
	add	edx, DWORD PTR [ecx+4]
	mov	ecx, edx
	call	DWORD PTR __imp_?width@ios_base@std@@QAE_J_J@Z
; Line 845
	push	0
	mov	eax, DWORD PTR __State$[ebp]
	push	eax
	mov	ecx, DWORD PTR __Ostr$[ebp]
	mov	edx, DWORD PTR [ecx]
	mov	ecx, DWORD PTR __Ostr$[ebp]
	add	ecx, DWORD PTR [edx+4]
	call	DWORD PTR __imp_?setstate@?$basic_ios@DU?$char_traits@D@std@@@std@@QAEXH_N@Z
; Line 846
	mov	eax, DWORD PTR __Ostr$[ebp]
	mov	DWORD PTR $T39027[ebp], eax
	mov	DWORD PTR __$EHRec$[ebp+12], -1
	lea	ecx, DWORD PTR __Ok$[ebp]
	call	??1sentry@?$basic_ostream@DU?$char_traits@D@std@@@std@@QAE@XZ ; std::basic_ostream<char,std::char_traits<char> >::sentry::~sentry
	mov	eax, DWORD PTR $T39027[ebp]
; Line 847
	mov	ecx, DWORD PTR __$EHRec$[ebp+4]
	mov	DWORD PTR fs:0, ecx
	pop	ecx
	pop	edi
	pop	esi
	pop	ebx
	mov	esp, ebp
	pop	ebp
	ret	0
_TEXT	ENDS
;	COMDAT text$x
text$x	SEGMENT
__unwindfunclet$??$?6U?$char_traits@D@std@@@std@@YAAAV?$basic_ostream@DU?$char_traits@D@std@@@0@AAV10@D@Z$2:
	lea	ecx, DWORD PTR __Ok$[ebp]
	jmp	??1sentry@?$basic_ostream@DU?$char_traits@D@std@@@std@@QAE@XZ ; std::basic_ostream<char,std::char_traits<char> >::sentry::~sentry
__ehhandler$??$?6U?$char_traits@D@std@@@std@@YAAAV?$basic_ostream@DU?$char_traits@D@std@@@0@AAV10@D@Z:
	mov	edx, DWORD PTR [esp+8]
	lea	eax, DWORD PTR [edx+12]
	mov	ecx, DWORD PTR [edx-144]
	xor	ecx, eax
	call	@__security_check_cookie@4
