; Listing generated by Microsoft (R) Optimizing Compiler Version 16.00.40219.01 

	TITLE	C:\workspaces\newagent2\Paho\org.eclipse.paho.mqtt.c\src\Messages.c
	.686P
	.XMM
	include listing.inc
	.model	flat

INCLUDELIB MSVCRT
INCLUDELIB OLDNAMES

_BSS	SEGMENT
$SG4958	DB	01H DUP (?)
_BSS	ENDS
_DATA	SEGMENT
COMM	_Log_levels:DWORD
$SG4919	DB	'%d %s -> CONNECT cleansession: %d (%d)', 00H
	ORG $+1
$SG4920	DB	'%d %s <- CONNACK rc: %d', 00H
$SG4921	DB	'%d %s -> CONNACK rc: %d (%d)', 00H
	ORG $+3
$SG4922	DB	'%d %s <- PINGREQ', 00H
	ORG $+3
$SG4923	DB	'%d %s -> PINGRESP (%d)', 00H
	ORG $+1
$SG4924	DB	'%d %s <- DISCONNECT', 00H
$SG4925	DB	'%d %s <- SUBSCRIBE msgid: %d', 00H
	ORG $+3
$SG4926	DB	'%d %s -> SUBACK msgid: %d (%d)', 00H
	ORG $+1
$SG4927	DB	'%d %s <- UNSUBSCRIBE msgid: %d', 00H
	ORG $+1
$SG4928	DB	'%d %s -> UNSUBACK msgid: %d (%d)', 00H
	ORG $+7
$SG4929	DB	'%d %s -> PUBLISH msgid: %d qos: %d retained: %d (%d) pay'
	DB	'load: %.*s', 00H
	ORG $+1
$SG4930	DB	'%d %s <- PUBLISH msgid: %d qos: %d retained: %d payload:'
	DB	' %.*s', 00H
	ORG $+2
$SG4931	DB	'%d %s -> PUBACK msgid: %d (%d)', 00H
	ORG $+1
$SG4932	DB	'%d %s -> PUBREC msgid: %d (%d)', 00H
	ORG $+1
$SG4933	DB	'%d %s <- PUBACK msgid: %d', 00H
	ORG $+2
$SG4934	DB	'%d %s <- PUBREC msgid: %d', 00H
	ORG $+2
$SG4935	DB	'%d %s -> PUBREL msgid: %d (%d)', 00H
	ORG $+1
$SG4936	DB	'%d %s <- PUBREL msgid %d', 00H
	ORG $+3
$SG4937	DB	'%d %s -> PUBCOMP msgid %d (%d)', 00H
	ORG $+1
$SG4938	DB	'%d %s <- PUBCOMP msgid:%d', 00H
	ORG $+2
$SG4939	DB	'%d %s -> PINGREQ (%d)', 00H
	ORG $+2
$SG4940	DB	'%d %s <- PINGRESP', 00H
	ORG $+2
$SG4941	DB	'%d %s -> SUBSCRIBE msgid: %d (%d)', 00H
	ORG $+2
$SG4942	DB	'%d %s <- SUBACK msgid: %d', 00H
	ORG $+2
$SG4943	DB	'%d %s <- UNSUBACK msgid: %d', 00H
$SG4944	DB	'%d %s -> UNSUBSCRIBE msgid: %d (%d)', 00H
$SG4945	DB	'%d %s <- CONNECT', 00H
	ORG $+3
$SG4946	DB	'%d %s -> PUBLISH qos: 0 retained: %d (%d)', 00H
	ORG $+2
$SG4947	DB	'%d %s -> DISCONNECT (%d)', 00H
	ORG $+7
$SG4948	DB	'Socket error for client identifier %s, socket %d, peer a'
	DB	'ddress %s; ending connection', 00H
	ORG $+3
_protocol_message_list DD FLAT:$SG4919
	DD	FLAT:$SG4920
	DD	FLAT:$SG4921
	DD	FLAT:$SG4922
	DD	FLAT:$SG4923
	DD	FLAT:$SG4924
	DD	FLAT:$SG4925
	DD	FLAT:$SG4926
	DD	FLAT:$SG4927
	DD	FLAT:$SG4928
	DD	FLAT:$SG4929
	DD	FLAT:$SG4930
	DD	FLAT:$SG4931
	DD	FLAT:$SG4932
	DD	FLAT:$SG4933
	DD	FLAT:$SG4934
	DD	FLAT:$SG4935
	DD	FLAT:$SG4936
	DD	FLAT:$SG4937
	DD	FLAT:$SG4938
	DD	FLAT:$SG4939
	DD	FLAT:$SG4940
	DD	FLAT:$SG4941
	DD	FLAT:$SG4942
	DD	FLAT:$SG4943
	DD	FLAT:$SG4944
	DD	FLAT:$SG4945
	DD	FLAT:$SG4946
	DD	FLAT:$SG4947
	DD	FLAT:$SG4948
$SG4950	DB	'Failed to remove client from bstate->clients', 00H
	ORG $+3
$SG4951	DB	'Removed client %s from bstate->clients, socket %d', 00H
	ORG $+2
$SG4952	DB	'Packet_Factory: unhandled packet type %d', 00H
	ORG $+3
$SG4953	DB	'Packet %s received from client %s for message identifier'
	DB	' %d, but no record of that message identifier found', 00H
	ORG $+4
$SG4954	DB	'Packet %s received from client %s for message identifier'
	DB	' %d, but message is wrong QoS, %d', 00H
	ORG $+6
$SG4955	DB	'Packet %s received from client %s for message identifier'
	DB	' %d, but message is in wrong state', 00H
	ORG $+5
$SG4956	DB	'%s received from client %s for message id %d - removing '
	DB	'publication', 00H
	ORG $+4
$SG4957	DB	'Trying %s again for client %s, socket %d, message identi'
	DB	'fier %d', 00H
$SG4959	DB	'(%lu) %*s(%d)> %s:%d', 00H
	ORG $+3
$SG4960	DB	'(%lu) %*s(%d)< %s:%d', 00H
	ORG $+3
$SG4961	DB	'(%lu) %*s(%d)< %s:%d (%d)', 00H
	ORG $+2
$SG4962	DB	'Storing unsent QoS 0 message', 00H
	ORG $+3
_trace_message_list DD FLAT:$SG4950
	DD	FLAT:$SG4951
	DD	FLAT:$SG4952
	DD	FLAT:$SG4953
	DD	FLAT:$SG4954
	DD	FLAT:$SG4955
	DD	FLAT:$SG4956
	DD	FLAT:$SG4957
	DD	FLAT:$SG4958
	DD	FLAT:$SG4959
	DD	FLAT:$SG4960
	DD	FLAT:$SG4961
	DD	FLAT:$SG4962
_DATA	ENDS
PUBLIC	_Messages_get
; Function compile flags: /Odtp
_TEXT	SEGMENT
tv74 = -12						; size = 4
tv69 = -8						; size = 4
_msg$ = -4						; size = 4
_index$ = 8						; size = 4
_log_level$ = 12					; size = 4
_Messages_get PROC
; File c:\workspaces\newagent2\paho\org.eclipse.paho.mqtt.c\src\messages.c
; Line 96
	push	ebp
	mov	ebp, esp
	sub	esp, 12					; 0000000cH
; Line 97
	mov	DWORD PTR _msg$[ebp], 0
; Line 99
	cmp	DWORD PTR _log_level$[ebp], 4
	jne	SHORT $LN2@Messages_g
; Line 100
	cmp	DWORD PTR _index$[ebp], 0
	jl	SHORT $LN5@Messages_g
	cmp	DWORD PTR _index$[ebp], 30		; 0000001eH
	jae	SHORT $LN5@Messages_g
	mov	eax, DWORD PTR _index$[ebp]
	mov	ecx, DWORD PTR _protocol_message_list[eax*4]
	mov	DWORD PTR tv69[ebp], ecx
	jmp	SHORT $LN6@Messages_g
$LN5@Messages_g:
	mov	DWORD PTR tv69[ebp], 0
$LN6@Messages_g:
	mov	edx, DWORD PTR tv69[ebp]
	mov	DWORD PTR _msg$[ebp], edx
; Line 101
	jmp	SHORT $LN1@Messages_g
$LN2@Messages_g:
; Line 102
	cmp	DWORD PTR _index$[ebp], 0
	jl	SHORT $LN7@Messages_g
	cmp	DWORD PTR _index$[ebp], 13		; 0000000dH
	jae	SHORT $LN7@Messages_g
	mov	eax, DWORD PTR _index$[ebp]
	mov	ecx, DWORD PTR _trace_message_list[eax*4]
	mov	DWORD PTR tv74[ebp], ecx
	jmp	SHORT $LN8@Messages_g
$LN7@Messages_g:
	mov	DWORD PTR tv74[ebp], 0
$LN8@Messages_g:
	mov	edx, DWORD PTR tv74[ebp]
	mov	DWORD PTR _msg$[ebp], edx
$LN1@Messages_g:
; Line 103
	mov	eax, DWORD PTR _msg$[ebp]
; Line 104
	mov	esp, ebp
	pop	ebp
	ret	0
_Messages_get ENDP
_TEXT	ENDS
END
