; Listing generated by Microsoft (R) Optimizing Compiler Version 16.00.40219.01 

	TITLE	C:\workspaces\newagent2\runtime.tools\src\ibmras\monitoring\plugins\j9\trace\TraceDataProvider.cpp
	.686P
	.XMM
	include listing.inc
	.model	flat

INCLUDELIB MSVCRT
INCLUDELIB OLDNAMES

PUBLIC	?sendDataToAgent@trace@j9@plugins@monitoring@ibmras@@3P6AXPAUmonitordata@@@ZA ; ibmras::monitoring::plugins::j9::trace::sendDataToAgent
PUBLIC	?provID@trace@j9@plugins@monitoring@ibmras@@3IA	; ibmras::monitoring::plugins::j9::trace::provID
PUBLIC	?vmData@trace@j9@plugins@monitoring@ibmras@@3UjvmFunctions@@A ; ibmras::monitoring::plugins::j9::trace::vmData
PUBLIC	?value@?$integral_constant@_N$0A@@tr1@std@@2_NB	; std::tr1::integral_constant<bool,0>::value
PUBLIC	?value@?$integral_constant@_N$00@tr1@std@@2_NB	; std::tr1::integral_constant<bool,1>::value
PUBLIC	?value@?$integral_constant@I$0A@@tr1@std@@2IB	; std::tr1::integral_constant<unsigned int,0>::value
PUBLIC	?_Rank@?$_Arithmetic_traits@_N@std@@2HB		; std::_Arithmetic_traits<bool>::_Rank
PUBLIC	?_Rank@?$_Arithmetic_traits@D@std@@2HB		; std::_Arithmetic_traits<char>::_Rank
PUBLIC	?_Rank@?$_Arithmetic_traits@C@std@@2HB		; std::_Arithmetic_traits<signed char>::_Rank
PUBLIC	?_Rank@?$_Arithmetic_traits@E@std@@2HB		; std::_Arithmetic_traits<unsigned char>::_Rank
PUBLIC	?_Rank@?$_Arithmetic_traits@F@std@@2HB		; std::_Arithmetic_traits<short>::_Rank
PUBLIC	?_Rank@?$_Arithmetic_traits@G@std@@2HB		; std::_Arithmetic_traits<unsigned short>::_Rank
PUBLIC	?_Rank@?$_Arithmetic_traits@H@std@@2HB		; std::_Arithmetic_traits<int>::_Rank
PUBLIC	?_Rank@?$_Arithmetic_traits@I@std@@2HB		; std::_Arithmetic_traits<unsigned int>::_Rank
PUBLIC	?_Rank@?$_Arithmetic_traits@J@std@@2HB		; std::_Arithmetic_traits<long>::_Rank
PUBLIC	?_Rank@?$_Arithmetic_traits@K@std@@2HB		; std::_Arithmetic_traits<unsigned long>::_Rank
PUBLIC	?_Rank@?$_Arithmetic_traits@_J@std@@2HB		; std::_Arithmetic_traits<__int64>::_Rank
PUBLIC	?_Rank@?$_Arithmetic_traits@_K@std@@2HB		; std::_Arithmetic_traits<unsigned __int64>::_Rank
PUBLIC	?_Rank@?$_Arithmetic_traits@M@std@@2HB		; std::_Arithmetic_traits<float>::_Rank
PUBLIC	?_Rank@?$_Arithmetic_traits@N@std@@2HB		; std::_Arithmetic_traits<double>::_Rank
PUBLIC	?_Rank@?$_Arithmetic_traits@O@std@@2HB		; std::_Arithmetic_traits<long double>::_Rank
PUBLIC	?collate@?$_Locbase@H@std@@2HB			; std::_Locbase<int>::collate
PUBLIC	?ctype@?$_Locbase@H@std@@2HB			; std::_Locbase<int>::ctype
PUBLIC	?monetary@?$_Locbase@H@std@@2HB			; std::_Locbase<int>::monetary
PUBLIC	?numeric@?$_Locbase@H@std@@2HB			; std::_Locbase<int>::numeric
PUBLIC	?time@?$_Locbase@H@std@@2HB			; std::_Locbase<int>::time
PUBLIC	?messages@?$_Locbase@H@std@@2HB			; std::_Locbase<int>::messages
PUBLIC	?all@?$_Locbase@H@std@@2HB			; std::_Locbase<int>::all
PUBLIC	?none@?$_Locbase@H@std@@2HB			; std::_Locbase<int>::none
PUBLIC	?skipws@?$_Iosb@H@std@@2W4_Fmtflags@12@B	; std::_Iosb<int>::skipws
PUBLIC	?unitbuf@?$_Iosb@H@std@@2W4_Fmtflags@12@B	; std::_Iosb<int>::unitbuf
PUBLIC	?uppercase@?$_Iosb@H@std@@2W4_Fmtflags@12@B	; std::_Iosb<int>::uppercase
PUBLIC	?showbase@?$_Iosb@H@std@@2W4_Fmtflags@12@B	; std::_Iosb<int>::showbase
PUBLIC	?showpoint@?$_Iosb@H@std@@2W4_Fmtflags@12@B	; std::_Iosb<int>::showpoint
PUBLIC	?showpos@?$_Iosb@H@std@@2W4_Fmtflags@12@B	; std::_Iosb<int>::showpos
PUBLIC	?left@?$_Iosb@H@std@@2W4_Fmtflags@12@B		; std::_Iosb<int>::left
PUBLIC	?right@?$_Iosb@H@std@@2W4_Fmtflags@12@B		; std::_Iosb<int>::right
PUBLIC	?internal@?$_Iosb@H@std@@2W4_Fmtflags@12@B	; std::_Iosb<int>::internal
PUBLIC	?dec@?$_Iosb@H@std@@2W4_Fmtflags@12@B		; std::_Iosb<int>::dec
PUBLIC	?oct@?$_Iosb@H@std@@2W4_Fmtflags@12@B		; std::_Iosb<int>::oct
PUBLIC	?hex@?$_Iosb@H@std@@2W4_Fmtflags@12@B		; std::_Iosb<int>::hex
PUBLIC	?scientific@?$_Iosb@H@std@@2W4_Fmtflags@12@B	; std::_Iosb<int>::scientific
PUBLIC	?fixed@?$_Iosb@H@std@@2W4_Fmtflags@12@B		; std::_Iosb<int>::fixed
PUBLIC	?hexfloat@?$_Iosb@H@std@@2W4_Fmtflags@12@B	; std::_Iosb<int>::hexfloat
PUBLIC	?boolalpha@?$_Iosb@H@std@@2W4_Fmtflags@12@B	; std::_Iosb<int>::boolalpha
PUBLIC	?_Stdio@?$_Iosb@H@std@@2W4_Fmtflags@12@B	; std::_Iosb<int>::_Stdio
PUBLIC	?adjustfield@?$_Iosb@H@std@@2W4_Fmtflags@12@B	; std::_Iosb<int>::adjustfield
PUBLIC	?basefield@?$_Iosb@H@std@@2W4_Fmtflags@12@B	; std::_Iosb<int>::basefield
PUBLIC	?floatfield@?$_Iosb@H@std@@2W4_Fmtflags@12@B	; std::_Iosb<int>::floatfield
PUBLIC	?goodbit@?$_Iosb@H@std@@2W4_Iostate@12@B	; std::_Iosb<int>::goodbit
PUBLIC	?eofbit@?$_Iosb@H@std@@2W4_Iostate@12@B		; std::_Iosb<int>::eofbit
PUBLIC	?failbit@?$_Iosb@H@std@@2W4_Iostate@12@B	; std::_Iosb<int>::failbit
PUBLIC	?badbit@?$_Iosb@H@std@@2W4_Iostate@12@B		; std::_Iosb<int>::badbit
PUBLIC	?_Hardfail@?$_Iosb@H@std@@2W4_Iostate@12@B	; std::_Iosb<int>::_Hardfail
PUBLIC	?in@?$_Iosb@H@std@@2W4_Openmode@12@B		; std::_Iosb<int>::in
PUBLIC	?out@?$_Iosb@H@std@@2W4_Openmode@12@B		; std::_Iosb<int>::out
PUBLIC	?ate@?$_Iosb@H@std@@2W4_Openmode@12@B		; std::_Iosb<int>::ate
PUBLIC	?app@?$_Iosb@H@std@@2W4_Openmode@12@B		; std::_Iosb<int>::app
PUBLIC	?trunc@?$_Iosb@H@std@@2W4_Openmode@12@B		; std::_Iosb<int>::trunc
PUBLIC	?_Nocreate@?$_Iosb@H@std@@2W4_Openmode@12@B	; std::_Iosb<int>::_Nocreate
PUBLIC	?_Noreplace@?$_Iosb@H@std@@2W4_Openmode@12@B	; std::_Iosb<int>::_Noreplace
PUBLIC	?binary@?$_Iosb@H@std@@2W4_Openmode@12@B	; std::_Iosb<int>::binary
PUBLIC	?beg@?$_Iosb@H@std@@2W4_Seekdir@12@B		; std::_Iosb<int>::beg
PUBLIC	?cur@?$_Iosb@H@std@@2W4_Seekdir@12@B		; std::_Iosb<int>::cur
PUBLIC	?end@?$_Iosb@H@std@@2W4_Seekdir@12@B		; std::_Iosb<int>::end
PUBLIC	?_EEM_DS@?$deque@VReceivedMessage@ConnectorManager@connector@monitoring@ibmras@@V?$allocator@VReceivedMessage@ConnectorManager@connector@monitoring@ibmras@@@std@@@std@@2HB ; std::deque<ibmras::monitoring::connector::ConnectorManager::ReceivedMessage,std::allocator<ibmras::monitoring::connector::ConnectorManager::ReceivedMessage> >::_EEM_DS
PUBLIC	?traceMetadata@trace@j9@plugins@monitoring@ibmras@@3PADA ; ibmras::monitoring::plugins::j9::trace::traceMetadata
PUBLIC	?headerSize@trace@j9@plugins@monitoring@ibmras@@3HA ; ibmras::monitoring::plugins::j9::trace::headerSize
PUBLIC	?DEFAULT_MAX_CIRCULAR_BUFFER_SIZE@trace@j9@plugins@monitoring@ibmras@@3HA ; ibmras::monitoring::plugins::j9::trace::DEFAULT_MAX_CIRCULAR_BUFFER_SIZE
PUBLIC	?running@trace@j9@plugins@monitoring@ibmras@@3_NA ; ibmras::monitoring::plugins::j9::trace::running
PUBLIC	?vgcFile@trace@j9@plugins@monitoring@ibmras@@3PAU_iobuf@@A ; ibmras::monitoring::plugins::j9::trace::vgcFile
PUBLIC	?vgcsubscriptionID@trace@j9@plugins@monitoring@ibmras@@3PAXA ; ibmras::monitoring::plugins::j9::trace::vgcsubscriptionID
PUBLIC	?allocationThresholdInitialized@trace@j9@plugins@monitoring@ibmras@@3_NA ; ibmras::monitoring::plugins::j9::trace::allocationThresholdInitialized
PUBLIC	?stackTraceDepthSet@trace@j9@plugins@monitoring@ibmras@@3_NA ; ibmras::monitoring::plugins::j9::trace::stackTraceDepthSet
PUBLIC	?instance@trace@j9@plugins@monitoring@ibmras@@3PAVTraceDataProvider@12345@A ; ibmras::monitoring::plugins::j9::trace::instance
_BSS	SEGMENT
?sendDataToAgent@trace@j9@plugins@monitoring@ibmras@@3P6AXPAUmonitordata@@@ZA DD 01H DUP (?) ; ibmras::monitoring::plugins::j9::trace::sendDataToAgent
?provID@trace@j9@plugins@monitoring@ibmras@@3IA DD 01H DUP (?) ; ibmras::monitoring::plugins::j9::trace::provID
?vmData@trace@j9@plugins@monitoring@ibmras@@3UjvmFunctions@@A DB 048H DUP (?) ; ibmras::monitoring::plugins::j9::trace::vmData
?traceMetadata@trace@j9@plugins@monitoring@ibmras@@3PADA DD 01H DUP (?) ; ibmras::monitoring::plugins::j9::trace::traceMetadata
?headerSize@trace@j9@plugins@monitoring@ibmras@@3HA DD 01H DUP (?) ; ibmras::monitoring::plugins::j9::trace::headerSize
?running@trace@j9@plugins@monitoring@ibmras@@3_NA DB 01H DUP (?) ; ibmras::monitoring::plugins::j9::trace::running
	ALIGN	4

?vgcFile@trace@j9@plugins@monitoring@ibmras@@3PAU_iobuf@@A DD 01H DUP (?) ; ibmras::monitoring::plugins::j9::trace::vgcFile
?vgcsubscriptionID@trace@j9@plugins@monitoring@ibmras@@3PAXA DD 01H DUP (?) ; ibmras::monitoring::plugins::j9::trace::vgcsubscriptionID
?allocationThresholdInitialized@trace@j9@plugins@monitoring@ibmras@@3_NA DB 01H DUP (?) ; ibmras::monitoring::plugins::j9::trace::allocationThresholdInitialized
	ALIGN	4

?stackTraceDepthSet@trace@j9@plugins@monitoring@ibmras@@3_NA DB 01H DUP (?) ; ibmras::monitoring::plugins::j9::trace::stackTraceDepthSet
	ALIGN	4

?instance@trace@j9@plugins@monitoring@ibmras@@3PAVTraceDataProvider@12345@A DD 01H DUP (?) ; ibmras::monitoring::plugins::j9::trace::instance
_BSS	ENDS
_DATA	SEGMENT
?DEFAULT_MAX_CIRCULAR_BUFFER_SIZE@trace@j9@plugins@monitoring@ibmras@@3HA DD 03d0900H ; ibmras::monitoring::plugins::j9::trace::DEFAULT_MAX_CIRCULAR_BUFFER_SIZE
_SUBSYSTEM DD	FLAT:$SG106248
_VERBOSE_GC_AVAILABLE DD FLAT:$SG106257
_ALLOCATION_SAMPLING_AVAILABLE DD FLAT:$SG106259
_ALLOCATION_THRESHOLD_AVAILABLE DD FLAT:$SG106261
_LOW_ALLOCATION_THRESHOLD DD FLAT:$SG106263
_HIGH_ALLOCATION_THRESHOLD DD FLAT:$SG106265
_STACKTRACEDEPTH DD FLAT:$SG106267
_TRIGGER_STACK_TRACE_ON DD FLAT:$SG106269
_TRIGGER_STACK_TRACE_OFF DD FLAT:$SG106271
_STACK_TRACE_TRIGGER_SUFFIX DD FLAT:$SG106273
_SET_ALLOCATION_THRESHOLD_TRACEPOINT DD FLAT:$SG106275
_ALLOCATION_THRESHOLD_TRACEPOINT DD FLAT:$SG106277
_MAX_THRESHOLD_VALUE DD FLAT:$SG106279
_ALLOCATION_EVENT_DUMP_SILENT DD FLAT:$SG106281
_ALLOCATION_EVENT_DUMP_OPTIONS DD FLAT:$SG106283
_ALLOCATION_FILTER_SIZE_SEPARATOR DD FLAT:$SG106285
_VERBOSE_GC DD	FLAT:$SG106295
_profiling DD	FLAT:$SG106297
	DD	FLAT:$SG106298
	DD	FLAT:$SG106299
	DD	FLAT:$SG106300
	DD	FLAT:$SG106301
	DD	FLAT:$SG106302
_gc	DD	FLAT:$SG106304
	DD	FLAT:$SG106305
	DD	FLAT:$SG106306
	DD	FLAT:$SG106307
	DD	FLAT:$SG106308
	DD	FLAT:$SG106309
	DD	FLAT:$SG106310
	DD	FLAT:$SG106311
	DD	FLAT:$SG106312
	DD	FLAT:$SG106313
	DD	FLAT:$SG106314
	DD	FLAT:$SG106315
	DD	FLAT:$SG106316
	DD	FLAT:$SG106317
	DD	FLAT:$SG106318
	DD	FLAT:$SG106319
	DD	FLAT:$SG106320
	DD	FLAT:$SG106321
	DD	FLAT:$SG106322
	DD	FLAT:$SG106323
	DD	FLAT:$SG106324
	DD	FLAT:$SG106325
	DD	FLAT:$SG106326
	DD	FLAT:$SG106327
	DD	FLAT:$SG106328
	DD	FLAT:$SG106329
	DD	FLAT:$SG106330
	DD	FLAT:$SG106331
	DD	FLAT:$SG106332
	DD	FLAT:$SG106333
	DD	FLAT:$SG106334
	DD	FLAT:$SG106335
	DD	FLAT:$SG106336
	DD	FLAT:$SG106337
	DD	FLAT:$SG106338
	DD	FLAT:$SG106339
	DD	FLAT:$SG106340
	DD	FLAT:$SG106341
	DD	FLAT:$SG106342
	DD	FLAT:$SG106343
	DD	FLAT:$SG106344
	DD	FLAT:$SG106345
	DD	FLAT:$SG106346
	DD	FLAT:$SG106347
	DD	FLAT:$SG106348
	DD	FLAT:$SG106349
	DD	FLAT:$SG106350
	DD	FLAT:$SG106351
	DD	FLAT:$SG106352
	DD	FLAT:$SG106353
	DD	FLAT:$SG106354
	DD	FLAT:$SG106355
	DD	FLAT:$SG106356
	DD	FLAT:$SG106357
	DD	FLAT:$SG106358
	DD	FLAT:$SG106359
	DD	FLAT:$SG106360
	DD	FLAT:$SG106361
	DD	FLAT:$SG106362
	DD	FLAT:$SG106363
	DD	FLAT:$SG106364
	DD	FLAT:$SG106365
	DD	FLAT:$SG106366
	DD	FLAT:$SG106367
	DD	FLAT:$SG106368
	DD	FLAT:$SG106369
	DD	FLAT:$SG106370
	DD	FLAT:$SG106371
	DD	FLAT:$SG106372
_classes DD	FLAT:$SG106374
	DD	FLAT:$SG106375
	DD	FLAT:$SG106376
	DD	FLAT:$SG106377
	DD	FLAT:$SG106378
_jit	DD	FLAT:$SG106380
	DD	FLAT:$SG106381
	DD	FLAT:$SG106382
	DD	FLAT:$SG106383
	DD	FLAT:$SG106384
	DD	FLAT:$SG106385
	DD	FLAT:$SG106386
	DD	FLAT:$SG106387
	DD	FLAT:$SG106388
_DUMP_POINTS DD	FLAT:$SG106419
	DD	FLAT:$SG106420
	DD	FLAT:$SG106421
	DD	FLAT:$SG106422
	DD	FLAT:$SG106423
_io	DD	FLAT:$SG106390
	DD	FLAT:$SG106391
	DD	FLAT:$SG106392
	DD	FLAT:$SG106393
	DD	FLAT:$SG106394
	DD	FLAT:$SG106395
	DD	FLAT:$SG106396
	DD	FLAT:$SG106397
	DD	FLAT:$SG106398
	DD	FLAT:$SG106399
	DD	FLAT:$SG106400
	DD	FLAT:$SG106401
	DD	FLAT:$SG106402
	DD	FLAT:$SG106403
	DD	FLAT:$SG106404
	DD	FLAT:$SG106405
	DD	FLAT:$SG106406
	DD	FLAT:$SG106407
	DD	FLAT:$SG106408
	DD	FLAT:$SG106409
	DD	FLAT:$SG106410
	DD	FLAT:$SG106411
	DD	FLAT:$SG106412
	DD	FLAT:$SG106413
	DD	FLAT:$SG106414
	DD	FLAT:$SG106415
	DD	FLAT:$SG106416
	DD	FLAT:$SG106417
_DATA	ENDS
CONST	SEGMENT
$SG106194 DB	'TraceDataProvider', 00H
$SG106302 DB	00H
$SG106372 DB	00H
$SG106248 DB	'_subsystem', 00H
$SG106378 DB	00H
$SG106252 DB	'capability.', 00H
$SG106257 DB	'verbose.gc.available', 00H
$SG106388 DB	00H
$SG106417 DB	00H
$SG106423 DB	00H
$SG106259 DB	'allocation.sampling.available', 00H
$SG108314 DB	00H
$SG108365 DB	00H
$SG106261 DB	'allocation.threshold.available', 00H
$SG108372 DB	00H
$SG106263 DB	'lowallocationthreshold', 00H
$SG108385 DB	00H
$SG106265 DB	'highallocationthreshold', 00H
$SG106267 DB	'stacktracedepth', 00H
$SG106269 DB	'stacktrace.on', 00H
	ORG $+2
$SG106271 DB	'stacktrace.off', 00H
	ORG $+1
$SG106273 DB	'_stacktrace.trigger', 00H
$SG106275 DB	'j9mm.231', 00H
	ORG $+3
$SG106277 DB	'j9mm.234', 00H
	ORG $+3
$SG106279 DB	'4294967295', 00H
	ORG $+1
$SG106281 DB	'silent:', 00H
$SG106283 DB	'events=allocation,filter=#', 00H
	ORG $+1
$SG106285 DB	'..', 00H
	ORG $+1
$SG106295 DB	'verbose.gc', 00H
	ORG $+1
$SG106297 DB	'j9vm.333', 00H
	ORG $+3
$SG106298 DB	'j9jit.15', 00H
	ORG $+3
$SG106299 DB	'j9jit.16', 00H
	ORG $+3
$SG106300 DB	'j9jit.17', 00H
	ORG $+3
$SG106301 DB	'j9jit.18', 00H
	ORG $+3
$SG106304 DB	'j9mm.1', 00H
	ORG $+1
$SG106305 DB	'j9mm.2', 00H
	ORG $+1
$SG106306 DB	'j9mm.50', 00H
$SG106307 DB	'j9mm.51', 00H
$SG106308 DB	'j9mm.52', 00H
$SG106309 DB	'j9mm.53', 00H
$SG106310 DB	'j9mm.54', 00H
$SG106311 DB	'j9mm.55', 00H
$SG106312 DB	'j9mm.56', 00H
$SG106313 DB	'j9mm.57', 00H
$SG106314 DB	'j9mm.58', 00H
$SG106315 DB	'j9mm.59', 00H
$SG106316 DB	'j9mm.60', 00H
$SG106317 DB	'j9mm.64', 00H
$SG106318 DB	'j9mm.65', 00H
$SG106319 DB	'j9mm.68', 00H
$SG106320 DB	'j9mm.69', 00H
$SG106321 DB	'j9mm.71', 00H
$SG106322 DB	'j9mm.72', 00H
$SG106323 DB	'j9mm.73', 00H
$SG106324 DB	'j9mm.74', 00H
$SG106325 DB	'j9mm.75', 00H
$SG106326 DB	'j9mm.85', 00H
$SG106327 DB	'j9mm.86', 00H
$SG106328 DB	'j9mm.90', 00H
$SG106329 DB	'j9mm.91', 00H
$SG106330 DB	'j9mm.94', 00H
$SG106331 DB	'j9mm.131', 00H
	ORG $+3
$SG106332 DB	'j9mm.132', 00H
	ORG $+3
$SG106333 DB	'j9mm.133', 00H
	ORG $+3
$SG106334 DB	'j9mm.134', 00H
	ORG $+3
$SG106335 DB	'j9mm.135', 00H
	ORG $+3
$SG106336 DB	'j9mm.136', 00H
	ORG $+3
$SG106337 DB	'j9mm.137', 00H
	ORG $+3
$SG106338 DB	'j9mm.138', 00H
	ORG $+3
$SG106339 DB	'j9mm.139', 00H
	ORG $+3
$SG106340 DB	'j9mm.231', 00H
	ORG $+3
$SG106341 DB	'j9mm.234', 00H
	ORG $+3
$SG106342 DB	'j9mm.279', 00H
	ORG $+3
$SG106343 DB	'j9mm.280', 00H
	ORG $+3
$SG106344 DB	'j9mm.281', 00H
	ORG $+3
$SG106345 DB	'j9mm.282', 00H
	ORG $+3
$SG106346 DB	'j9jit.2', 00H
$SG106347 DB	'j9jit.4', 00H
$SG106348 DB	'j9jit.5', 00H
$SG106349 DB	'j9jit.6', 00H
$SG106350 DB	'j9jit.9', 00H
$SG106351 DB	'j9jit.11', 00H
	ORG $+3
$SG106352 DB	'j9jit.12', 00H
	ORG $+3
$SG106353 DB	'j9jit.18', 00H
	ORG $+3
$SG106354 DB	'j9mm.383', 00H
	ORG $+3
$SG106355 DB	'j9mm.384', 00H
	ORG $+3
$SG106356 DB	'j9mm.345', 00H
	ORG $+3
$SG106357 DB	'j9mm.346', 00H
	ORG $+3
$SG106358 DB	'j9mm.347', 00H
	ORG $+3
$SG106359 DB	'j9mm.348', 00H
	ORG $+3
$SG106360 DB	'j9mm.463', 00H
	ORG $+3
$SG106361 DB	'j9mm.464', 00H
	ORG $+3
$SG106362 DB	'j9mm.467', 00H
	ORG $+3
$SG106363 DB	'j9mm.468', 00H
	ORG $+3
$SG106364 DB	'j9mm.469', 00H
	ORG $+3
$SG106365 DB	'j9mm.470', 00H
	ORG $+3
$SG106366 DB	'j9mm.560', 00H
	ORG $+3
$SG106367 DB	'j9mm.474', 00H
	ORG $+3
$SG106368 DB	'j9mm.475', 00H
	ORG $+3
$SG106369 DB	'j9mm.395', 00H
	ORG $+3
$SG106370 DB	'j9mm.285', 00H
	ORG $+3
$SG106371 DB	'j9mm.286', 00H
	ORG $+3
$SG106374 DB	'j9bcu.1', 00H
$SG106375 DB	'j9shr.51', 00H
	ORG $+3
$SG106376 DB	'j9bcverify.14', 00H
	ORG $+2
$SG106377 DB	'j9bcverify.18', 00H
	ORG $+2
$SG106380 DB	'j9jit.1', 00H
$SG106381 DB	'j9jit.20', 00H
	ORG $+3
$SG106382 DB	'j9jit.21', 00H
	ORG $+3
$SG106383 DB	'j9jit.22', 00H
	ORG $+3
$SG106384 DB	'j9jit.23', 00H
	ORG $+3
$SG106385 DB	'j9jit.24', 00H
	ORG $+3
$SG106386 DB	'j9jit.28', 00H
	ORG $+3
$SG106387 DB	'j9jit.29', 00H
	ORG $+3
$SG106390 DB	'IO.100', 00H
	ORG $+1
$SG106391 DB	'IO.101', 00H
	ORG $+1
$SG106392 DB	'IO.102', 00H
	ORG $+1
$SG106393 DB	'IO.103', 00H
	ORG $+1
$SG106394 DB	'IO.104', 00H
	ORG $+1
$SG106395 DB	'IO.105', 00H
	ORG $+1
$SG106396 DB	'IO.106', 00H
	ORG $+1
$SG106397 DB	'IO.107', 00H
	ORG $+1
$SG106398 DB	'IO.108', 00H
	ORG $+1
$SG106399 DB	'JAVA.315', 00H
	ORG $+3
$SG106400 DB	'JAVA.316', 00H
	ORG $+3
$SG106401 DB	'JAVA.317', 00H
	ORG $+3
$SG106402 DB	'JAVA.318', 00H
	ORG $+3
$SG106403 DB	'JAVA.319', 00H
	ORG $+3
$SG106404 DB	'JAVA.320', 00H
	ORG $+3
$SG106405 DB	'JAVA.321', 00H
	ORG $+3
$SG106406 DB	'JAVA.322', 00H
	ORG $+3
$SG106407 DB	'JAVA.323', 00H
	ORG $+3
$SG106408 DB	'j9scar.35', 00H
	ORG $+2
$SG106409 DB	'j9scar.36', 00H
	ORG $+2
$SG106410 DB	'j9scar.37', 00H
	ORG $+2
$SG106411 DB	'j9scar.38', 00H
	ORG $+2
$SG106412 DB	'j9scar.136', 00H
	ORG $+1
$SG106413 DB	'j9scar.137', 00H
	ORG $+1
$SG106414 DB	'j9scar.138', 00H
	ORG $+1
$SG106415 DB	'j9scar.139', 00H
	ORG $+1
$SG106416 DB	'j9scar.140', 00H
	ORG $+1
$SG106419 DB	'j9dmp.4', 00H
$SG106420 DB	'j9dmp.7', 00H
$SG106421 DB	'j9dmp.9', 00H
$SG106422 DB	'j9dmp.10', 00H
	ORG $+3
$SG107074 DB	'=', 00H
	ORG $+2
$SG107084 DB	'agent.bufferSize', 00H
	ORG $+3
$SG107089 DB	'using trace bucket size of %d', 00H
	ORG $+2
$SG107100 DB	'trace', 00H
	ORG $+2
$SG107101 DB	'Data provided by jvmti trace engine', 00H
$SG107155 DB	'4', 00H
	ORG $+2
$SG107157 DB	'7', 00H
	ORG $+2
$SG107160 DB	'9', 00H
	ORG $+2
$SG107161 DB	'10', 00H
	ORG $+1
$SG107506 DB	'j9jit', 00H
	ORG $+2
$SG107507 DB	'1', 00H
	ORG $+2
$SG107508 DB	'20', 00H
	ORG $+1
$SG107509 DB	'21', 00H
	ORG $+1
$SG107510 DB	'22', 00H
	ORG $+1
$SG107511 DB	'23', 00H
	ORG $+1
$SG107512 DB	'24', 00H
	ORG $+1
$SG107513 DB	'28', 00H
	ORG $+1
$SG107514 DB	'29', 00H
	ORG $+1
$SG107517 DB	'j9shr.1326', 00H
	ORG $+1
$SG107520 DB	'j9jit', 00H
	ORG $+2
$SG107521 DB	'15', 00H
	ORG $+1
$SG107522 DB	'16', 00H
	ORG $+1
$SG107523 DB	'17', 00H
	ORG $+1
$SG107524 DB	'18', 00H
	ORG $+1
$SG107526 DB	'j9mm.231', 00H
	ORG $+3
$SG107527 DB	'j9mm.234', 00H
	ORG $+3
$SG107541 DB	'j9dmp', 00H
	ORG $+2
$SG107543 DB	'java', 00H
	ORG $+3
$SG107544 DB	'315', 00H
$SG107545 DB	'316', 00H
$SG107546 DB	'317', 00H
$SG107547 DB	'318', 00H
$SG107548 DB	'319', 00H
$SG107549 DB	'320', 00H
$SG107550 DB	'321', 00H
$SG107551 DB	'322', 00H
$SG107552 DB	'323', 00H
$SG107558 DB	'j9mm', 00H
	ORG $+3
$SG107561 DB	'j9vm.333', 00H
	ORG $+3
$SG107566 DB	'headless', 00H
	ORG $+3
$SG107570 DB	'on', 00H
	ORG $+1
$SG107605 DB	'off', 00H
$SG107608 DB	'on', 00H
	ORG $+1
$SG107613 DB	'on', 00H
	ORG $+1
$SG107624 DB	'leave.dynamic.trace', 00H
$SG107626 DB	'buffers=nodynamic', 00H
	ORG $+2
$SG107630 DB	'Tracestart enter', 00H
	ORG $+3
$SG107641 DB	'failed to get trace header', 00H
	ORG $+1
$SG107647 DB	'none=all', 00H
	ORG $+3
$SG107649 DB	'maximal=mt', 00H
	ORG $+1
$SG107651 DB	'gc_subsystem', 00H
	ORG $+3
$SG107652 DB	'on', 00H
	ORG $+1
$SG107654 DB	'profiling_subsystem', 00H
$SG107655 DB	'on', 00H
	ORG $+1
$SG107657 DB	'classes_subsystem', 00H
	ORG $+2
$SG107658 DB	'on', 00H
	ORG $+1
$SG107660 DB	'jit_subsystem', 00H
	ORG $+2
$SG107661 DB	'on', 00H
	ORG $+1
$SG107663 DB	'io_subsystem', 00H
	ORG $+3
$SG107664 DB	'on', 00H
	ORG $+1
$SG107666 DB	'Tracestart exit', 00H
$SG107695 DB	'Trace data provider', 00H
$SG107701 DB	'start of turning on tracepoints', 00H
$SG107708 DB	'end of turning on tracepoints', 00H
	ORG $+2
$SG107713 DB	'start of turning off tracepoints', 00H
	ORG $+3
$SG107720 DB	'end of turning off tracepoints', 00H
	ORG $+1
$SG107728 DB	'off', 00H
$SG107733 DB	'on', 00H
	ORG $+1
$SG107740 DB	'processing subsystem command: %s %s', 00H
$SG107742 DB	'gc', 00H
	ORG $+1
$SG107745 DB	'profiling', 00H
	ORG $+2
$SG107748 DB	'classes', 00H
$SG107751 DB	'jit', 00H
$SG107754 DB	'io', 00H
	ORG $+1
$SG107856 DB	'stackdepth=', 00H
$SG107863 DB	'trigger=', 00H
	ORG $+3
$SG107867 DB	'off', 00H
$SG107868 DB	'tpnid{', 00H
	ORG $+1
$SG107869 DB	',jstacktrace}', 00H
	ORG $+2
$SG107874 DB	'stack.trace.depth', 00H
	ORG $+2
$SG107885 DB	'handleSetCommand', 00H
	ORG $+3
$SG107997 DB	'processing: set %s', 00H
	ORG $+1
$SG108006 DB	'processing: set %s=%s', 00H
	ORG $+2
$SG108023 DB	'on', 00H
	ORG $+1
$SG108029 DB	'off', 00H
$SG108037 DB	'on', 00H
	ORG $+1
$SG108039 DB	'on', 00H
	ORG $+1
$SG108044 DB	'off', 00H
$SG108046 DB	'off', 00H
$SG108059 DB	'command received: %s', 00H
	ORG $+3
$SG108063 DB	'set', 00H
$SG108077 DB	'processing command: %s %s', 00H
	ORG $+2
$SG108094 DB	'j9mm.', 00H
	ORG $+2
$SG108097 DB	'on', 00H
	ORG $+1
$SG108101 DB	'on', 00H
	ORG $+1
$SG108107 DB	'j9mm.', 00H
	ORG $+2
$SG108109 DB	'off', 00H
$SG108119 DB	'}', 00H
	ORG $+2
$SG108120 DB	'maximal=tpnid{', 00H
	ORG $+1
$SG108127 DB	'}', 00H
	ORG $+2
$SG108128 DB	'exception=!tpnid{', 00H
	ORG $+2
$SG108133 DB	'in enableExceptionTracePoint', 00H
	ORG $+3
$SG108137 DB	'}', 00H
	ORG $+2
$SG108138 DB	'exception=tpnid{', 00H
	ORG $+3
$SG108146 DB	'}', 00H
	ORG $+2
$SG108147 DB	'maximal=!tpnid{', 00H
$SG108174 DB	'> startTraceSubscriber', 00H
	ORG $+1
$SG108178 DB	'Health Center (trace subscriber)', 00H
	ORG $+3
$SG108180 DB	'return code from jvmtiRegisterTraceSubscriber %d', 00H
	ORG $+3
$SG108183 DB	'startTraceSubscriber registered to jvmtiRegisterTraceSub'
	DB	'scriber', 00H
$SG108186 DB	'startTraceSubscriber unable to register to jvmtiRegister'
	DB	'TraceSubscriber', 00H
$SG108189 DB	'startTraceSubscriber failed to start', 00H
	ORG $+3
$SG108197 DB	'entering trace subscriber callback', 00H
	ORG $+1
$SG108201 DB	'exiting trace subscriber callback: no buffer', 00H
	ORG $+3
$SG108208 DB	'HCTB', 00H
	ORG $+3
$SG108219 DB	'exiting trace subscriber callback', 00H
	ORG $+2
$SG108229 DB	'publishing config: %s', 00H
	ORG $+2
$SG108232 DB	'configuration/trace', 00H
$SG108245 DB	'> verboseGCSubscriber', 00H
	ORG $+2
$SG108248 DB	'< verboseGCSubscriber', 00H
	ORG $+2
$SG108255 DB	'> verboseGCAlarm', 00H
	ORG $+3
$SG108257 DB	'< verboseGCAlarm', 00H
	ORG $+3
$SG108262 DB	'> registerVerboseGCSubscriber', 00H
	ORG $+2
$SG108265 DB	'< registerVerboseGCSubscriber feature not available on t'
	DB	'his vm', 00H
	ORG $+1
$SG108276 DB	'w', 00H
	ORG $+2
$SG108270 DB	'< registerVerboseGCSubscriber agent already subscribed t'
	DB	'o verbosegc', 00H
$SG108274 DB	'null file name for registerVerboseGCSubscriber', 00H
	ORG $+1
$SG108279 DB	'Error opening a file for writing verbose gc. %s', 00H
$SG108282 DB	'Health Center verbose GC subscriber', 00H
$SG108285 DB	'verboseGCsubscribe failed: %i', 00H
	ORG $+2
$SG108287 DB	'< registerVerboseGCSubscriber', 00H
	ORG $+2
$SG108291 DB	'writing verbose gc data to %s', 00H
	ORG $+2
$SG108293 DB	'< registerVerboseGCSubscriber', 00H
	ORG $+2
$SG108299 DB	'> deregisterVerboseGCSubscriber', 00H
$SG108302 DB	'< deregisterVerboseGCSubscriber feature not available on'
	DB	' this vm', 00H
	ORG $+3
$SG108306 DB	'verboseGCunsubscribe failed: %i', 00H
$SG108308 DB	'< deregisterVerboseGCSubscriber', 00H
$SG108316 DB	'Health Center (vgc)', 00H
$SG108324 DB	'Attaching to thread', 00H
$SG108330 DB	'Cannot set environment', 00H
	ORG $+1
$SG108332 DB	'<< Trace [NOATTACH]', 00H
$SG108334 DB	'Environment set', 00H
$SG108339 DB	'output.directory', 00H
	ORG $+3
$SG108346 DB	'(Ljava/lang/String;)Ljava/lang/String;', 00H
	ORG $+1
$SG108347 DB	'findWriteableDirectory', 00H
	ORG $+1
$SG108348 DB	'com/ibm/java/diagnostics/healthcenter/agent/dataprovider'
	DB	's/Util', 00H
	ORG $+1
$SG108358 DB	'>>getString', 00H
$SG108360 DB	'Retrieving class', 00H
	ORG $+3
$SG108364 DB	'Failed to find class', 00H
	ORG $+3
$SG108367 DB	'Found class', 00H
$SG108371 DB	'Failed to get %s method ID', 00H
	ORG $+1
$SG108374 DB	'method loaded, calling thru JNI', 00H
$SG108378 DB	'Back from %s method', 00H
$SG108384 DB	'<<getString', 00H
$SG108390 DB	'>>> handleVerboseGCSetting(%s)', 00H
	ORG $+1
$SG108393 DB	'on', 00H
	ORG $+1
$SG108398 DB	'No writeable dir found', 00H
	ORG $+1
$SG108400 DB	'verbosegc_', 00H
	ORG $+1
$SG108412 DB	'_', 00H
	ORG $+2
$SG108422 DB	'\', 00H
	ORG $+2
$SG108424 DB	'.log', 00H
	ORG $+3
$SG108657 DB	'off', 00H
$SG108659 DB	'Error in registerVerboseGCSubscriber(vgcFileName)', 00H
	ORG $+2
$SG108663 DB	'registerVerboseGCSubscriber(vgcFileName) success', 00H
	ORG $+3
$SG108668 DB	'Error in deregisterVerboseGCSubscriber(vgcFileName)', 00H
$SG108671 DB	'deregisterVerboseGCSubscriber(vgcFileName) success', 00H
	ORG $+1
$SG108673 DB	'off', 00H
CONST	ENDS
;	COMDAT ?_EEM_DS@?$deque@VReceivedMessage@ConnectorManager@connector@monitoring@ibmras@@V?$allocator@VReceivedMessage@ConnectorManager@connector@monitoring@ibmras@@@std@@@std@@2HB
CONST	SEGMENT
?_EEM_DS@?$deque@VReceivedMessage@ConnectorManager@connector@monitoring@ibmras@@V?$allocator@VReceivedMessage@ConnectorManager@connector@monitoring@ibmras@@@std@@@std@@2HB DD 01H ; std::deque<ibmras::monitoring::connector::ConnectorManager::ReceivedMessage,std::allocator<ibmras::monitoring::connector::ConnectorManager::ReceivedMessage> >::_EEM_DS
CONST	ENDS
;	COMDAT ?end@?$_Iosb@H@std@@2W4_Seekdir@12@B
CONST	SEGMENT
?end@?$_Iosb@H@std@@2W4_Seekdir@12@B DD 02H		; std::_Iosb<int>::end
CONST	ENDS
;	COMDAT ?cur@?$_Iosb@H@std@@2W4_Seekdir@12@B
CONST	SEGMENT
?cur@?$_Iosb@H@std@@2W4_Seekdir@12@B DD 01H		; std::_Iosb<int>::cur
CONST	ENDS
;	COMDAT ?beg@?$_Iosb@H@std@@2W4_Seekdir@12@B
CONST	SEGMENT
?beg@?$_Iosb@H@std@@2W4_Seekdir@12@B DD 00H		; std::_Iosb<int>::beg
CONST	ENDS
;	COMDAT ?binary@?$_Iosb@H@std@@2W4_Openmode@12@B
CONST	SEGMENT
?binary@?$_Iosb@H@std@@2W4_Openmode@12@B DD 020H	; std::_Iosb<int>::binary
CONST	ENDS
;	COMDAT ?_Noreplace@?$_Iosb@H@std@@2W4_Openmode@12@B
CONST	SEGMENT
?_Noreplace@?$_Iosb@H@std@@2W4_Openmode@12@B DD 080H	; std::_Iosb<int>::_Noreplace
CONST	ENDS
;	COMDAT ?_Nocreate@?$_Iosb@H@std@@2W4_Openmode@12@B
CONST	SEGMENT
?_Nocreate@?$_Iosb@H@std@@2W4_Openmode@12@B DD 040H	; std::_Iosb<int>::_Nocreate
CONST	ENDS
;	COMDAT ?trunc@?$_Iosb@H@std@@2W4_Openmode@12@B
CONST	SEGMENT
?trunc@?$_Iosb@H@std@@2W4_Openmode@12@B DD 010H		; std::_Iosb<int>::trunc
CONST	ENDS
;	COMDAT ?app@?$_Iosb@H@std@@2W4_Openmode@12@B
CONST	SEGMENT
?app@?$_Iosb@H@std@@2W4_Openmode@12@B DD 08H		; std::_Iosb<int>::app
CONST	ENDS
;	COMDAT ?ate@?$_Iosb@H@std@@2W4_Openmode@12@B
CONST	SEGMENT
?ate@?$_Iosb@H@std@@2W4_Openmode@12@B DD 04H		; std::_Iosb<int>::ate
CONST	ENDS
;	COMDAT ?out@?$_Iosb@H@std@@2W4_Openmode@12@B
CONST	SEGMENT
?out@?$_Iosb@H@std@@2W4_Openmode@12@B DD 02H		; std::_Iosb<int>::out
CONST	ENDS
;	COMDAT ?in@?$_Iosb@H@std@@2W4_Openmode@12@B
CONST	SEGMENT
?in@?$_Iosb@H@std@@2W4_Openmode@12@B DD 01H		; std::_Iosb<int>::in
CONST	ENDS
;	COMDAT ?_Hardfail@?$_Iosb@H@std@@2W4_Iostate@12@B
CONST	SEGMENT
?_Hardfail@?$_Iosb@H@std@@2W4_Iostate@12@B DD 010H	; std::_Iosb<int>::_Hardfail
CONST	ENDS
;	COMDAT ?badbit@?$_Iosb@H@std@@2W4_Iostate@12@B
CONST	SEGMENT
?badbit@?$_Iosb@H@std@@2W4_Iostate@12@B DD 04H		; std::_Iosb<int>::badbit
CONST	ENDS
;	COMDAT ?failbit@?$_Iosb@H@std@@2W4_Iostate@12@B
CONST	SEGMENT
?failbit@?$_Iosb@H@std@@2W4_Iostate@12@B DD 02H		; std::_Iosb<int>::failbit
CONST	ENDS
;	COMDAT ?eofbit@?$_Iosb@H@std@@2W4_Iostate@12@B
CONST	SEGMENT
?eofbit@?$_Iosb@H@std@@2W4_Iostate@12@B DD 01H		; std::_Iosb<int>::eofbit
CONST	ENDS
;	COMDAT ?goodbit@?$_Iosb@H@std@@2W4_Iostate@12@B
CONST	SEGMENT
?goodbit@?$_Iosb@H@std@@2W4_Iostate@12@B DD 00H		; std::_Iosb<int>::goodbit
CONST	ENDS
;	COMDAT ?floatfield@?$_Iosb@H@std@@2W4_Fmtflags@12@B
CONST	SEGMENT
?floatfield@?$_Iosb@H@std@@2W4_Fmtflags@12@B DD 03000H	; std::_Iosb<int>::floatfield
CONST	ENDS
;	COMDAT ?basefield@?$_Iosb@H@std@@2W4_Fmtflags@12@B
CONST	SEGMENT
?basefield@?$_Iosb@H@std@@2W4_Fmtflags@12@B DD 0e00H	; std::_Iosb<int>::basefield
CONST	ENDS
;	COMDAT ?adjustfield@?$_Iosb@H@std@@2W4_Fmtflags@12@B
CONST	SEGMENT
?adjustfield@?$_Iosb@H@std@@2W4_Fmtflags@12@B DD 01c0H	; std::_Iosb<int>::adjustfield
CONST	ENDS
;	COMDAT ?_Stdio@?$_Iosb@H@std@@2W4_Fmtflags@12@B
CONST	SEGMENT
?_Stdio@?$_Iosb@H@std@@2W4_Fmtflags@12@B DD 08000H	; std::_Iosb<int>::_Stdio
CONST	ENDS
;	COMDAT ?boolalpha@?$_Iosb@H@std@@2W4_Fmtflags@12@B
CONST	SEGMENT
?boolalpha@?$_Iosb@H@std@@2W4_Fmtflags@12@B DD 04000H	; std::_Iosb<int>::boolalpha
CONST	ENDS
;	COMDAT ?hexfloat@?$_Iosb@H@std@@2W4_Fmtflags@12@B
CONST	SEGMENT
?hexfloat@?$_Iosb@H@std@@2W4_Fmtflags@12@B DD 03000H	; std::_Iosb<int>::hexfloat
CONST	ENDS
;	COMDAT ?fixed@?$_Iosb@H@std@@2W4_Fmtflags@12@B
CONST	SEGMENT
?fixed@?$_Iosb@H@std@@2W4_Fmtflags@12@B DD 02000H	; std::_Iosb<int>::fixed
CONST	ENDS
;	COMDAT ?scientific@?$_Iosb@H@std@@2W4_Fmtflags@12@B
CONST	SEGMENT
?scientific@?$_Iosb@H@std@@2W4_Fmtflags@12@B DD 01000H	; std::_Iosb<int>::scientific
CONST	ENDS
;	COMDAT ?hex@?$_Iosb@H@std@@2W4_Fmtflags@12@B
CONST	SEGMENT
?hex@?$_Iosb@H@std@@2W4_Fmtflags@12@B DD 0800H		; std::_Iosb<int>::hex
CONST	ENDS
;	COMDAT ?oct@?$_Iosb@H@std@@2W4_Fmtflags@12@B
CONST	SEGMENT
?oct@?$_Iosb@H@std@@2W4_Fmtflags@12@B DD 0400H		; std::_Iosb<int>::oct
CONST	ENDS
;	COMDAT ?dec@?$_Iosb@H@std@@2W4_Fmtflags@12@B
CONST	SEGMENT
?dec@?$_Iosb@H@std@@2W4_Fmtflags@12@B DD 0200H		; std::_Iosb<int>::dec
CONST	ENDS
;	COMDAT ?internal@?$_Iosb@H@std@@2W4_Fmtflags@12@B
CONST	SEGMENT
?internal@?$_Iosb@H@std@@2W4_Fmtflags@12@B DD 0100H	; std::_Iosb<int>::internal
CONST	ENDS
;	COMDAT ?right@?$_Iosb@H@std@@2W4_Fmtflags@12@B
CONST	SEGMENT
?right@?$_Iosb@H@std@@2W4_Fmtflags@12@B DD 080H		; std::_Iosb<int>::right
CONST	ENDS
;	COMDAT ?left@?$_Iosb@H@std@@2W4_Fmtflags@12@B
CONST	SEGMENT
?left@?$_Iosb@H@std@@2W4_Fmtflags@12@B DD 040H		; std::_Iosb<int>::left
CONST	ENDS
;	COMDAT ?showpos@?$_Iosb@H@std@@2W4_Fmtflags@12@B
CONST	SEGMENT
?showpos@?$_Iosb@H@std@@2W4_Fmtflags@12@B DD 020H	; std::_Iosb<int>::showpos
CONST	ENDS
;	COMDAT ?showpoint@?$_Iosb@H@std@@2W4_Fmtflags@12@B
CONST	SEGMENT
?showpoint@?$_Iosb@H@std@@2W4_Fmtflags@12@B DD 010H	; std::_Iosb<int>::showpoint
CONST	ENDS
;	COMDAT ?showbase@?$_Iosb@H@std@@2W4_Fmtflags@12@B
CONST	SEGMENT
?showbase@?$_Iosb@H@std@@2W4_Fmtflags@12@B DD 08H	; std::_Iosb<int>::showbase
CONST	ENDS
;	COMDAT ?uppercase@?$_Iosb@H@std@@2W4_Fmtflags@12@B
CONST	SEGMENT
?uppercase@?$_Iosb@H@std@@2W4_Fmtflags@12@B DD 04H	; std::_Iosb<int>::uppercase
CONST	ENDS
;	COMDAT ?unitbuf@?$_Iosb@H@std@@2W4_Fmtflags@12@B
CONST	SEGMENT
?unitbuf@?$_Iosb@H@std@@2W4_Fmtflags@12@B DD 02H	; std::_Iosb<int>::unitbuf
CONST	ENDS
;	COMDAT ?skipws@?$_Iosb@H@std@@2W4_Fmtflags@12@B
CONST	SEGMENT
?skipws@?$_Iosb@H@std@@2W4_Fmtflags@12@B DD 01H		; std::_Iosb<int>::skipws
CONST	ENDS
;	COMDAT ?none@?$_Locbase@H@std@@2HB
CONST	SEGMENT
?none@?$_Locbase@H@std@@2HB DD 00H			; std::_Locbase<int>::none
CONST	ENDS
;	COMDAT ?all@?$_Locbase@H@std@@2HB
CONST	SEGMENT
?all@?$_Locbase@H@std@@2HB DD 03fH			; std::_Locbase<int>::all
CONST	ENDS
;	COMDAT ?messages@?$_Locbase@H@std@@2HB
CONST	SEGMENT
?messages@?$_Locbase@H@std@@2HB DD 020H			; std::_Locbase<int>::messages
CONST	ENDS
;	COMDAT ?time@?$_Locbase@H@std@@2HB
CONST	SEGMENT
?time@?$_Locbase@H@std@@2HB DD 010H			; std::_Locbase<int>::time
CONST	ENDS
;	COMDAT ?numeric@?$_Locbase@H@std@@2HB
CONST	SEGMENT
?numeric@?$_Locbase@H@std@@2HB DD 08H			; std::_Locbase<int>::numeric
CONST	ENDS
;	COMDAT ?monetary@?$_Locbase@H@std@@2HB
CONST	SEGMENT
?monetary@?$_Locbase@H@std@@2HB DD 04H			; std::_Locbase<int>::monetary
CONST	ENDS
;	COMDAT ?ctype@?$_Locbase@H@std@@2HB
CONST	SEGMENT
?ctype@?$_Locbase@H@std@@2HB DD 02H			; std::_Locbase<int>::ctype
CONST	ENDS
;	COMDAT ?collate@?$_Locbase@H@std@@2HB
CONST	SEGMENT
?collate@?$_Locbase@H@std@@2HB DD 01H			; std::_Locbase<int>::collate
CONST	ENDS
;	COMDAT ?_Rank@?$_Arithmetic_traits@O@std@@2HB
CONST	SEGMENT
?_Rank@?$_Arithmetic_traits@O@std@@2HB DD 09H		; std::_Arithmetic_traits<long double>::_Rank
CONST	ENDS
;	COMDAT ?_Rank@?$_Arithmetic_traits@N@std@@2HB
CONST	SEGMENT
?_Rank@?$_Arithmetic_traits@N@std@@2HB DD 08H		; std::_Arithmetic_traits<double>::_Rank
CONST	ENDS
;	COMDAT ?_Rank@?$_Arithmetic_traits@M@std@@2HB
CONST	SEGMENT
?_Rank@?$_Arithmetic_traits@M@std@@2HB DD 07H		; std::_Arithmetic_traits<float>::_Rank
CONST	ENDS
;	COMDAT ?_Rank@?$_Arithmetic_traits@_K@std@@2HB
CONST	SEGMENT
?_Rank@?$_Arithmetic_traits@_K@std@@2HB DD 06H		; std::_Arithmetic_traits<unsigned __int64>::_Rank
CONST	ENDS
;	COMDAT ?_Rank@?$_Arithmetic_traits@_J@std@@2HB
CONST	SEGMENT
?_Rank@?$_Arithmetic_traits@_J@std@@2HB DD 06H		; std::_Arithmetic_traits<__int64>::_Rank
CONST	ENDS
;	COMDAT ?_Rank@?$_Arithmetic_traits@K@std@@2HB
CONST	SEGMENT
?_Rank@?$_Arithmetic_traits@K@std@@2HB DD 05H		; std::_Arithmetic_traits<unsigned long>::_Rank
CONST	ENDS
;	COMDAT ?_Rank@?$_Arithmetic_traits@J@std@@2HB
CONST	SEGMENT
?_Rank@?$_Arithmetic_traits@J@std@@2HB DD 05H		; std::_Arithmetic_traits<long>::_Rank
CONST	ENDS
;	COMDAT ?_Rank@?$_Arithmetic_traits@I@std@@2HB
CONST	SEGMENT
?_Rank@?$_Arithmetic_traits@I@std@@2HB DD 04H		; std::_Arithmetic_traits<unsigned int>::_Rank
CONST	ENDS
;	COMDAT ?_Rank@?$_Arithmetic_traits@H@std@@2HB
CONST	SEGMENT
?_Rank@?$_Arithmetic_traits@H@std@@2HB DD 04H		; std::_Arithmetic_traits<int>::_Rank
CONST	ENDS
;	COMDAT ?_Rank@?$_Arithmetic_traits@G@std@@2HB
CONST	SEGMENT
?_Rank@?$_Arithmetic_traits@G@std@@2HB DD 03H		; std::_Arithmetic_traits<unsigned short>::_Rank
CONST	ENDS
;	COMDAT ?_Rank@?$_Arithmetic_traits@F@std@@2HB
CONST	SEGMENT
?_Rank@?$_Arithmetic_traits@F@std@@2HB DD 03H		; std::_Arithmetic_traits<short>::_Rank
CONST	ENDS
;	COMDAT ?_Rank@?$_Arithmetic_traits@E@std@@2HB
CONST	SEGMENT
?_Rank@?$_Arithmetic_traits@E@std@@2HB DD 02H		; std::_Arithmetic_traits<unsigned char>::_Rank
CONST	ENDS
;	COMDAT ?_Rank@?$_Arithmetic_traits@C@std@@2HB
CONST	SEGMENT
?_Rank@?$_Arithmetic_traits@C@std@@2HB DD 02H		; std::_Arithmetic_traits<signed char>::_Rank
CONST	ENDS
;	COMDAT ?_Rank@?$_Arithmetic_traits@D@std@@2HB
CONST	SEGMENT
?_Rank@?$_Arithmetic_traits@D@std@@2HB DD 02H		; std::_Arithmetic_traits<char>::_Rank
CONST	ENDS
;	COMDAT ?_Rank@?$_Arithmetic_traits@_N@std@@2HB
CONST	SEGMENT
?_Rank@?$_Arithmetic_traits@_N@std@@2HB DD 01H		; std::_Arithmetic_traits<bool>::_Rank
CONST	ENDS
;	COMDAT ?value@?$integral_constant@I$0A@@tr1@std@@2IB
CONST	SEGMENT
?value@?$integral_constant@I$0A@@tr1@std@@2IB DD 00H	; std::tr1::integral_constant<unsigned int,0>::value
CONST	ENDS
;	COMDAT ?value@?$integral_constant@_N$00@tr1@std@@2_NB
CONST	SEGMENT
?value@?$integral_constant@_N$00@tr1@std@@2_NB DB 01H	; std::tr1::integral_constant<bool,1>::value
CONST	ENDS
;	COMDAT ?value@?$integral_constant@_N$0A@@tr1@std@@2_NB
CONST	SEGMENT
?value@?$integral_constant@_N$0A@@tr1@std@@2_NB DB 00H	; std::tr1::integral_constant<bool,0>::value
CONST	ENDS
PUBLIC	??4Lock@port@common@ibmras@@QAEAAV0123@ABV0123@@Z ; ibmras::common::port::Lock::operator=
; Function compile flags: /Odtp
;	COMDAT ??4Lock@port@common@ibmras@@QAEAAV0123@ABV0123@@Z
_TEXT	SEGMENT
_this$ = -4						; size = 4
___that$ = 8						; size = 4
??4Lock@port@common@ibmras@@QAEAAV0123@ABV0123@@Z PROC	; ibmras::common::port::Lock::operator=, COMDAT
; _this$ = ecx
	push	ebp
	mov	ebp, esp
	push	ecx
	mov	DWORD PTR _this$[ebp], ecx
	mov	eax, DWORD PTR ___that$[ebp]
	mov	ecx, DWORD PTR [eax]
	mov	edx, DWORD PTR _this$[ebp]
	mov	DWORD PTR [edx], ecx
	mov	eax, DWORD PTR _this$[ebp]
	mov	esp, ebp
	pop	ebp
	ret	4
??4Lock@port@common@ibmras@@QAEAAV0123@ABV0123@@Z ENDP	; ibmras::common::port::Lock::operator=
_TEXT	ENDS
PUBLIC	??1?$basic_string@DU?$char_traits@D@std@@V?$allocator@D@2@@std@@QAE@XZ ; std::basic_string<char,std::char_traits<char>,std::allocator<char> >::~basic_string<char,std::char_traits<char>,std::allocator<char> >
PUBLIC	??1Bucket@agent@monitoring@ibmras@@QAE@XZ	; ibmras::monitoring::agent::Bucket::~Bucket
; Function compile flags: /Odtp
;	COMDAT ??1Bucket@agent@monitoring@ibmras@@QAE@XZ
_TEXT	SEGMENT
_this$ = -4						; size = 4
??1Bucket@agent@monitoring@ibmras@@QAE@XZ PROC		; ibmras::monitoring::agent::Bucket::~Bucket, COMDAT
; _this$ = ecx
	push	ebp
	mov	ebp, esp
	push	ecx
	mov	DWORD PTR _this$[ebp], ecx
	mov	ecx, DWORD PTR _this$[ebp]
	add	ecx, 8
	call	??1?$basic_string@DU?$char_traits@D@std@@V?$allocator@D@2@@std@@QAE@XZ ; std::basic_string<char,std::char_traits<char>,std::allocator<char> >::~basic_string<char,std::char_traits<char>,std::allocator<char> >
	mov	esp, ebp
	pop	ebp
	ret	0
??1Bucket@agent@monitoring@ibmras@@QAE@XZ ENDP		; ibmras::monitoring::agent::Bucket::~Bucket
_TEXT	ENDS
PUBLIC	??0?$basic_string@DU?$char_traits@D@std@@V?$allocator@D@2@@std@@QAE@ABV01@@Z ; std::basic_string<char,std::char_traits<char>,std::allocator<char> >::basic_string<char,std::char_traits<char>,std::allocator<char> >
PUBLIC	??0Bucket@agent@monitoring@ibmras@@QAE@ABV0123@@Z ; ibmras::monitoring::agent::Bucket::Bucket
; Function compile flags: /Odtp
;	COMDAT ??0Bucket@agent@monitoring@ibmras@@QAE@ABV0123@@Z
_TEXT	SEGMENT
_this$ = -4						; size = 4
___that$ = 8						; size = 4
??0Bucket@agent@monitoring@ibmras@@QAE@ABV0123@@Z PROC	; ibmras::monitoring::agent::Bucket::Bucket, COMDAT
; _this$ = ecx
	push	ebp
	mov	ebp, esp
	push	ecx
	mov	DWORD PTR _this$[ebp], ecx
	mov	eax, DWORD PTR _this$[ebp]
	mov	ecx, DWORD PTR ___that$[ebp]
	mov	edx, DWORD PTR [ecx]
	mov	DWORD PTR [eax], edx
	mov	eax, DWORD PTR _this$[ebp]
	mov	ecx, DWORD PTR ___that$[ebp]
	mov	edx, DWORD PTR [ecx+4]
	mov	DWORD PTR [eax+4], edx
	mov	eax, DWORD PTR ___that$[ebp]
	add	eax, 8
	push	eax
	mov	ecx, DWORD PTR _this$[ebp]
	add	ecx, 8
	call	??0?$basic_string@DU?$char_traits@D@std@@V?$allocator@D@2@@std@@QAE@ABV01@@Z ; std::basic_string<char,std::char_traits<char>,std::allocator<char> >::basic_string<char,std::char_traits<char>,std::allocator<char> >
	mov	ecx, DWORD PTR _this$[ebp]
	mov	edx, DWORD PTR ___that$[ebp]
	mov	eax, DWORD PTR [edx+36]
	mov	DWORD PTR [ecx+36], eax
	mov	ecx, DWORD PTR _this$[ebp]
	mov	edx, DWORD PTR ___that$[ebp]
	mov	eax, DWORD PTR [edx+40]
	mov	DWORD PTR [ecx+40], eax
	mov	ecx, DWORD PTR _this$[ebp]
	mov	edx, DWORD PTR ___that$[ebp]
	mov	eax, DWORD PTR [edx+44]
	mov	DWORD PTR [ecx+44], eax
	mov	ecx, DWORD PTR _this$[ebp]
	mov	edx, DWORD PTR ___that$[ebp]
	mov	eax, DWORD PTR [edx+48]
	mov	DWORD PTR [ecx+48], eax
	mov	ecx, DWORD PTR _this$[ebp]
	mov	edx, DWORD PTR ___that$[ebp]
	mov	eax, DWORD PTR [edx+52]
	mov	DWORD PTR [ecx+52], eax
	mov	ecx, DWORD PTR _this$[ebp]
	mov	edx, DWORD PTR ___that$[ebp]
	mov	eax, DWORD PTR [edx+56]
	mov	DWORD PTR [ecx+56], eax
	mov	ecx, DWORD PTR _this$[ebp]
	mov	edx, DWORD PTR ___that$[ebp]
	mov	eax, DWORD PTR [edx+60]
	mov	DWORD PTR [ecx+60], eax
	mov	ecx, DWORD PTR _this$[ebp]
	mov	edx, DWORD PTR ___that$[ebp]
	mov	eax, DWORD PTR [edx+64]
	mov	DWORD PTR [ecx+64], eax
	mov	ecx, DWORD PTR _this$[ebp]
	mov	edx, DWORD PTR ___that$[ebp]
	mov	eax, DWORD PTR [edx+68]
	mov	DWORD PTR [ecx+68], eax
	mov	eax, DWORD PTR _this$[ebp]
	mov	esp, ebp
	pop	ebp
	ret	4
??0Bucket@agent@monitoring@ibmras@@QAE@ABV0123@@Z ENDP	; ibmras::monitoring::agent::Bucket::Bucket
_TEXT	ENDS
PUBLIC	??4?$basic_string@DU?$char_traits@D@std@@V?$allocator@D@2@@std@@QAEAAV01@ABV01@@Z ; std::basic_string<char,std::char_traits<char>,std::allocator<char> >::operator=
PUBLIC	??4Bucket@agent@monitoring@ibmras@@QAEAAV0123@ABV0123@@Z ; ibmras::monitoring::agent::Bucket::operator=
; Function compile flags: /Odtp
;	COMDAT ??4Bucket@agent@monitoring@ibmras@@QAEAAV0123@ABV0123@@Z
_TEXT	SEGMENT
_this$ = -4						; size = 4
___that$ = 8						; size = 4
??4Bucket@agent@monitoring@ibmras@@QAEAAV0123@ABV0123@@Z PROC ; ibmras::monitoring::agent::Bucket::operator=, COMDAT
; _this$ = ecx
	push	ebp
	mov	ebp, esp
	push	ecx
	mov	DWORD PTR _this$[ebp], ecx
	mov	eax, DWORD PTR _this$[ebp]
	mov	ecx, DWORD PTR ___that$[ebp]
	mov	edx, DWORD PTR [ecx]
	mov	DWORD PTR [eax], edx
	mov	eax, DWORD PTR _this$[ebp]
	mov	ecx, DWORD PTR ___that$[ebp]
	mov	edx, DWORD PTR [ecx+4]
	mov	DWORD PTR [eax+4], edx
	mov	eax, DWORD PTR ___that$[ebp]
	add	eax, 8
	push	eax
	mov	ecx, DWORD PTR _this$[ebp]
	add	ecx, 8
	call	??4?$basic_string@DU?$char_traits@D@std@@V?$allocator@D@2@@std@@QAEAAV01@ABV01@@Z ; std::basic_string<char,std::char_traits<char>,std::allocator<char> >::operator=
	mov	ecx, DWORD PTR _this$[ebp]
	mov	edx, DWORD PTR ___that$[ebp]
	mov	eax, DWORD PTR [edx+36]
	mov	DWORD PTR [ecx+36], eax
	mov	ecx, DWORD PTR _this$[ebp]
	mov	edx, DWORD PTR ___that$[ebp]
	mov	eax, DWORD PTR [edx+40]
	mov	DWORD PTR [ecx+40], eax
	mov	ecx, DWORD PTR _this$[ebp]
	mov	edx, DWORD PTR ___that$[ebp]
	mov	eax, DWORD PTR [edx+44]
	mov	DWORD PTR [ecx+44], eax
	mov	ecx, DWORD PTR _this$[ebp]
	mov	edx, DWORD PTR ___that$[ebp]
	mov	eax, DWORD PTR [edx+48]
	mov	DWORD PTR [ecx+48], eax
	mov	ecx, DWORD PTR _this$[ebp]
	mov	edx, DWORD PTR ___that$[ebp]
	mov	eax, DWORD PTR [edx+52]
	mov	DWORD PTR [ecx+52], eax
	mov	ecx, DWORD PTR _this$[ebp]
	mov	edx, DWORD PTR ___that$[ebp]
	mov	eax, DWORD PTR [edx+56]
	mov	DWORD PTR [ecx+56], eax
	mov	ecx, DWORD PTR _this$[ebp]
	mov	edx, DWORD PTR ___that$[ebp]
	mov	eax, DWORD PTR [edx+60]
	mov	DWORD PTR [ecx+60], eax
	mov	ecx, DWORD PTR _this$[ebp]
	mov	edx, DWORD PTR ___that$[ebp]
	mov	eax, DWORD PTR [edx+64]
	mov	DWORD PTR [ecx+64], eax
	mov	ecx, DWORD PTR _this$[ebp]
	mov	edx, DWORD PTR ___that$[ebp]
	mov	eax, DWORD PTR [edx+68]
	mov	DWORD PTR [ecx+68], eax
	mov	eax, DWORD PTR _this$[ebp]
	mov	esp, ebp
	pop	ebp
	ret	4
??4Bucket@agent@monitoring@ibmras@@QAEAAV0123@ABV0123@@Z ENDP ; ibmras::monitoring::agent::Bucket::operator=
_TEXT	ENDS
PUBLIC	??0?$vector@PAVBucket@agent@monitoring@ibmras@@V?$allocator@PAVBucket@agent@monitoring@ibmras@@@std@@@std@@QAE@XZ ; std::vector<ibmras::monitoring::agent::Bucket *,std::allocator<ibmras::monitoring::agent::Bucket *> >::vector<ibmras::monitoring::agent::Bucket *,std::allocator<ibmras::monitoring::agent::Bucket *> >
PUBLIC	??0BucketList@agent@monitoring@ibmras@@QAE@XZ	; ibmras::monitoring::agent::BucketList::BucketList
; Function compile flags: /Odtp
;	COMDAT ??0BucketList@agent@monitoring@ibmras@@QAE@XZ
_TEXT	SEGMENT
_this$ = -4						; size = 4
??0BucketList@agent@monitoring@ibmras@@QAE@XZ PROC	; ibmras::monitoring::agent::BucketList::BucketList, COMDAT
; _this$ = ecx
	push	ebp
	mov	ebp, esp
	push	ecx
	mov	DWORD PTR _this$[ebp], ecx
	mov	ecx, DWORD PTR _this$[ebp]
	call	??0?$vector@PAVBucket@agent@monitoring@ibmras@@V?$allocator@PAVBucket@agent@monitoring@ibmras@@@std@@@std@@QAE@XZ ; std::vector<ibmras::monitoring::agent::Bucket *,std::allocator<ibmras::monitoring::agent::Bucket *> >::vector<ibmras::monitoring::agent::Bucket *,std::allocator<ibmras::monitoring::agent::Bucket *> >
	mov	eax, DWORD PTR _this$[ebp]
	mov	esp, ebp
	pop	ebp
	ret	0
??0BucketList@agent@monitoring@ibmras@@QAE@XZ ENDP	; ibmras::monitoring::agent::BucketList::BucketList
_TEXT	ENDS
PUBLIC	??1?$vector@PAVBucket@agent@monitoring@ibmras@@V?$allocator@PAVBucket@agent@monitoring@ibmras@@@std@@@std@@QAE@XZ ; std::vector<ibmras::monitoring::agent::Bucket *,std::allocator<ibmras::monitoring::agent::Bucket *> >::~vector<ibmras::monitoring::agent::Bucket *,std::allocator<ibmras::monitoring::agent::Bucket *> >
PUBLIC	??1BucketList@agent@monitoring@ibmras@@QAE@XZ	; ibmras::monitoring::agent::BucketList::~BucketList
; Function compile flags: /Odtp
;	COMDAT ??1BucketList@agent@monitoring@ibmras@@QAE@XZ
_TEXT	SEGMENT
_this$ = -4						; size = 4
??1BucketList@agent@monitoring@ibmras@@QAE@XZ PROC	; ibmras::monitoring::agent::BucketList::~BucketList, COMDAT
; _this$ = ecx
	push	ebp
	mov	ebp, esp
	push	ecx
	mov	DWORD PTR _this$[ebp], ecx
	mov	ecx, DWORD PTR _this$[ebp]
	call	??1?$vector@PAVBucket@agent@monitoring@ibmras@@V?$allocator@PAVBucket@agent@monitoring@ibmras@@@std@@@std@@QAE@XZ ; std::vector<ibmras::monitoring::agent::Bucket *,std::allocator<ibmras::monitoring::agent::Bucket *> >::~vector<ibmras::monitoring::agent::Bucket *,std::allocator<ibmras::monitoring::agent::Bucket *> >
	mov	esp, ebp
	pop	ebp
	ret	0
??1BucketList@agent@monitoring@ibmras@@QAE@XZ ENDP	; ibmras::monitoring::agent::BucketList::~BucketList
_TEXT	ENDS
PUBLIC	??0?$vector@PAVBucket@agent@monitoring@ibmras@@V?$allocator@PAVBucket@agent@monitoring@ibmras@@@std@@@std@@QAE@ABV01@@Z ; std::vector<ibmras::monitoring::agent::Bucket *,std::allocator<ibmras::monitoring::agent::Bucket *> >::vector<ibmras::monitoring::agent::Bucket *,std::allocator<ibmras::monitoring::agent::Bucket *> >
PUBLIC	??0BucketList@agent@monitoring@ibmras@@QAE@ABV0123@@Z ; ibmras::monitoring::agent::BucketList::BucketList
; Function compile flags: /Odtp
;	COMDAT ??0BucketList@agent@monitoring@ibmras@@QAE@ABV0123@@Z
_TEXT	SEGMENT
_this$ = -4						; size = 4
___that$ = 8						; size = 4
??0BucketList@agent@monitoring@ibmras@@QAE@ABV0123@@Z PROC ; ibmras::monitoring::agent::BucketList::BucketList, COMDAT
; _this$ = ecx
	push	ebp
	mov	ebp, esp
	push	ecx
	mov	DWORD PTR _this$[ebp], ecx
	mov	eax, DWORD PTR ___that$[ebp]
	push	eax
	mov	ecx, DWORD PTR _this$[ebp]
	call	??0?$vector@PAVBucket@agent@monitoring@ibmras@@V?$allocator@PAVBucket@agent@monitoring@ibmras@@@std@@@std@@QAE@ABV01@@Z ; std::vector<ibmras::monitoring::agent::Bucket *,std::allocator<ibmras::monitoring::agent::Bucket *> >::vector<ibmras::monitoring::agent::Bucket *,std::allocator<ibmras::monitoring::agent::Bucket *> >
	mov	eax, DWORD PTR _this$[ebp]
	mov	esp, ebp
	pop	ebp
	ret	4
??0BucketList@agent@monitoring@ibmras@@QAE@ABV0123@@Z ENDP ; ibmras::monitoring::agent::BucketList::BucketList
_TEXT	ENDS
PUBLIC	??4?$vector@PAVBucket@agent@monitoring@ibmras@@V?$allocator@PAVBucket@agent@monitoring@ibmras@@@std@@@std@@QAEAAV01@ABV01@@Z ; std::vector<ibmras::monitoring::agent::Bucket *,std::allocator<ibmras::monitoring::agent::Bucket *> >::operator=
PUBLIC	??4BucketList@agent@monitoring@ibmras@@QAEAAV0123@ABV0123@@Z ; ibmras::monitoring::agent::BucketList::operator=
; Function compile flags: /Odtp
;	COMDAT ??4BucketList@agent@monitoring@ibmras@@QAEAAV0123@ABV0123@@Z
_TEXT	SEGMENT
_this$ = -4						; size = 4
___that$ = 8						; size = 4
??4BucketList@agent@monitoring@ibmras@@QAEAAV0123@ABV0123@@Z PROC ; ibmras::monitoring::agent::BucketList::operator=, COMDAT
; _this$ = ecx
	push	ebp
	mov	ebp, esp
	push	ecx
	mov	DWORD PTR _this$[ebp], ecx
	mov	eax, DWORD PTR ___that$[ebp]
	push	eax
	mov	ecx, DWORD PTR _this$[ebp]
	call	??4?$vector@PAVBucket@agent@monitoring@ibmras@@V?$allocator@PAVBucket@agent@monitoring@ibmras@@@std@@@std@@QAEAAV01@ABV01@@Z ; std::vector<ibmras::monitoring::agent::Bucket *,std::allocator<ibmras::monitoring::agent::Bucket *> >::operator=
	mov	eax, DWORD PTR _this$[ebp]
	mov	esp, ebp
	pop	ebp
	ret	4
??4BucketList@agent@monitoring@ibmras@@QAEAAV0123@ABV0123@@Z ENDP ; ibmras::monitoring::agent::BucketList::operator=
_TEXT	ENDS
PUBLIC	??1?$set@PAVConnector@connector@monitoring@ibmras@@U?$less@PAVConnector@connector@monitoring@ibmras@@@std@@V?$allocator@PAVConnector@connector@monitoring@ibmras@@@6@@std@@QAE@XZ ; std::set<ibmras::monitoring::connector::Connector *,std::less<ibmras::monitoring::connector::Connector *>,std::allocator<ibmras::monitoring::connector::Connector *> >::~set<ibmras::monitoring::connector::Connector *,std::less<ibmras::monitoring::connector::Connector *>,std::allocator<ibmras::monitoring::connector::Connector *> >
PUBLIC	??1?$queue@VReceivedMessage@ConnectorManager@connector@monitoring@ibmras@@V?$deque@VReceivedMessage@ConnectorManager@connector@monitoring@ibmras@@V?$allocator@VReceivedMessage@ConnectorManager@connector@monitoring@ibmras@@@std@@@std@@@std@@QAE@XZ ; std::queue<ibmras::monitoring::connector::ConnectorManager::ReceivedMessage,std::deque<ibmras::monitoring::connector::ConnectorManager::ReceivedMessage,std::allocator<ibmras::monitoring::connector::ConnectorManager::ReceivedMessage> > >::~queue<ibmras::monitoring::connector::ConnectorManager::ReceivedMessage,std::deque<ibmras::monitoring::connector::ConnectorManager::ReceivedMessage,std::allocator<ibmras::monitoring::connector::ConnectorManager::ReceivedMessage> > >
PUBLIC	??1ThreadData@port@common@ibmras@@QAE@XZ	; ibmras::common::port::ThreadData::~ThreadData
PUBLIC	??1Receiver@connector@monitoring@ibmras@@UAE@XZ	; ibmras::monitoring::connector::Receiver::~Receiver
PUBLIC	??1Connector@connector@monitoring@ibmras@@UAE@XZ ; ibmras::monitoring::connector::Connector::~Connector
PUBLIC	??0?$set@PAVReceiver@connector@monitoring@ibmras@@U?$less@PAVReceiver@connector@monitoring@ibmras@@@std@@V?$allocator@PAVReceiver@connector@monitoring@ibmras@@@6@@std@@QAE@ABV01@@Z ; std::set<ibmras::monitoring::connector::Receiver *,std::less<ibmras::monitoring::connector::Receiver *>,std::allocator<ibmras::monitoring::connector::Receiver *> >::set<ibmras::monitoring::connector::Receiver *,std::less<ibmras::monitoring::connector::Receiver *>,std::allocator<ibmras::monitoring::connector::Receiver *> >
PUBLIC	??0?$set@PAVConnector@connector@monitoring@ibmras@@U?$less@PAVConnector@connector@monitoring@ibmras@@@std@@V?$allocator@PAVConnector@connector@monitoring@ibmras@@@6@@std@@QAE@ABV01@@Z ; std::set<ibmras::monitoring::connector::Connector *,std::less<ibmras::monitoring::connector::Connector *>,std::allocator<ibmras::monitoring::connector::Connector *> >::set<ibmras::monitoring::connector::Connector *,std::less<ibmras::monitoring::connector::Connector *>,std::allocator<ibmras::monitoring::connector::Connector *> >
PUBLIC	??0?$queue@VReceivedMessage@ConnectorManager@connector@monitoring@ibmras@@V?$deque@VReceivedMessage@ConnectorManager@connector@monitoring@ibmras@@V?$allocator@VReceivedMessage@ConnectorManager@connector@monitoring@ibmras@@@std@@@std@@@std@@QAE@ABV01@@Z ; std::queue<ibmras::monitoring::connector::ConnectorManager::ReceivedMessage,std::deque<ibmras::monitoring::connector::ConnectorManager::ReceivedMessage,std::allocator<ibmras::monitoring::connector::ConnectorManager::ReceivedMessage> > >::queue<ibmras::monitoring::connector::ConnectorManager::ReceivedMessage,std::deque<ibmras::monitoring::connector::ConnectorManager::ReceivedMessage,std::allocator<ibmras::monitoring::connector::ConnectorManager::ReceivedMessage> > >
PUBLIC	??_7ConnectorManager@connector@monitoring@ibmras@@6BReceiver@123@@ ; ibmras::monitoring::connector::ConnectorManager::`vftable'
PUBLIC	??_7ConnectorManager@connector@monitoring@ibmras@@6BConnector@123@@ ; ibmras::monitoring::connector::ConnectorManager::`vftable'
PUBLIC	??0Receiver@connector@monitoring@ibmras@@QAE@ABV0123@@Z ; ibmras::monitoring::connector::Receiver::Receiver
PUBLIC	??0Connector@connector@monitoring@ibmras@@QAE@ABV0123@@Z ; ibmras::monitoring::connector::Connector::Connector
PUBLIC	??0ConnectorManager@connector@monitoring@ibmras@@QAE@ABV0123@@Z ; ibmras::monitoring::connector::ConnectorManager::ConnectorManager
PUBLIC	??_R4ConnectorManager@connector@monitoring@ibmras@@6BConnector@123@@ ; ibmras::monitoring::connector::ConnectorManager::`RTTI Complete Object Locator'
PUBLIC	??_R0?AVConnectorManager@connector@monitoring@ibmras@@@8 ; ibmras::monitoring::connector::ConnectorManager `RTTI Type Descriptor'
PUBLIC	??_R3ConnectorManager@connector@monitoring@ibmras@@8 ; ibmras::monitoring::connector::ConnectorManager::`RTTI Class Hierarchy Descriptor'
PUBLIC	??_R2ConnectorManager@connector@monitoring@ibmras@@8 ; ibmras::monitoring::connector::ConnectorManager::`RTTI Base Class Array'
PUBLIC	??_R1A@?0A@EA@ConnectorManager@connector@monitoring@ibmras@@8 ; ibmras::monitoring::connector::ConnectorManager::`RTTI Base Class Descriptor at (0,-1,0,64)'
PUBLIC	??_R1A@?0A@EA@Connector@connector@monitoring@ibmras@@8 ; ibmras::monitoring::connector::Connector::`RTTI Base Class Descriptor at (0,-1,0,64)'
PUBLIC	??_R0?AVConnector@connector@monitoring@ibmras@@@8 ; ibmras::monitoring::connector::Connector `RTTI Type Descriptor'
PUBLIC	??_R3Connector@connector@monitoring@ibmras@@8	; ibmras::monitoring::connector::Connector::`RTTI Class Hierarchy Descriptor'
PUBLIC	??_R2Connector@connector@monitoring@ibmras@@8	; ibmras::monitoring::connector::Connector::`RTTI Base Class Array'
PUBLIC	??_R13?0A@EA@Receiver@connector@monitoring@ibmras@@8 ; ibmras::monitoring::connector::Receiver::`RTTI Base Class Descriptor at (4,-1,0,64)'
PUBLIC	??_R0?AVReceiver@connector@monitoring@ibmras@@@8 ; ibmras::monitoring::connector::Receiver `RTTI Type Descriptor'
PUBLIC	??_R3Receiver@connector@monitoring@ibmras@@8	; ibmras::monitoring::connector::Receiver::`RTTI Class Hierarchy Descriptor'
PUBLIC	??_R2Receiver@connector@monitoring@ibmras@@8	; ibmras::monitoring::connector::Receiver::`RTTI Base Class Array'
PUBLIC	??_R1A@?0A@EA@Receiver@connector@monitoring@ibmras@@8 ; ibmras::monitoring::connector::Receiver::`RTTI Base Class Descriptor at (0,-1,0,64)'
PUBLIC	?getID@Connector@connector@monitoring@ibmras@@UAE?AV?$basic_string@DU?$char_traits@D@std@@V?$allocator@D@2@@std@@XZ ; ibmras::monitoring::connector::Connector::getID
PUBLIC	?registerReceiver@Connector@connector@monitoring@ibmras@@UAEXPAVReceiver@234@@Z ; ibmras::monitoring::connector::Connector::registerReceiver
PUBLIC	??_EConnectorManager@connector@monitoring@ibmras@@UAEPAXI@Z ; ibmras::monitoring::connector::ConnectorManager::`vector deleting destructor'
PUBLIC	??_R4ConnectorManager@connector@monitoring@ibmras@@6BReceiver@123@@ ; ibmras::monitoring::connector::ConnectorManager::`RTTI Complete Object Locator'
PUBLIC	??_EConnectorManager@connector@monitoring@ibmras@@W3AEPAXI@Z ; [thunk]:ibmras::monitoring::connector::ConnectorManager::`vector deleting destructor'
EXTRN	??1Lock@port@common@ibmras@@QAE@XZ:PROC		; ibmras::common::port::Lock::~Lock
EXTRN	___security_cookie:DWORD
EXTRN	___CxxFrameHandler3:PROC
EXTRN	@__security_check_cookie@4:PROC
EXTRN	??_7type_info@@6B@:QWORD			; type_info::`vftable'
EXTRN	?sendMessage@ConnectorManager@connector@monitoring@ibmras@@UAEHABV?$basic_string@DU?$char_traits@D@std@@V?$allocator@D@2@@std@@IPAX@Z:PROC ; ibmras::monitoring::connector::ConnectorManager::sendMessage
EXTRN	?start@ConnectorManager@connector@monitoring@ibmras@@UAEHXZ:PROC ; ibmras::monitoring::connector::ConnectorManager::start
EXTRN	?stop@ConnectorManager@connector@monitoring@ibmras@@UAEHXZ:PROC ; ibmras::monitoring::connector::ConnectorManager::stop
EXTRN	?receiveMessage@ConnectorManager@connector@monitoring@ibmras@@UAEXABV?$basic_string@DU?$char_traits@D@std@@V?$allocator@D@2@@std@@IPAX@Z:PROC ; ibmras::monitoring::connector::ConnectorManager::receiveMessage
;	COMDAT ??_R4ConnectorManager@connector@monitoring@ibmras@@6BReceiver@123@@
rdata$r	SEGMENT
??_R4ConnectorManager@connector@monitoring@ibmras@@6BReceiver@123@@ DD 00H ; ibmras::monitoring::connector::ConnectorManager::`RTTI Complete Object Locator'
	DD	04H
	DD	00H
	DD	FLAT:??_R0?AVConnectorManager@connector@monitoring@ibmras@@@8
	DD	FLAT:??_R3ConnectorManager@connector@monitoring@ibmras@@8
rdata$r	ENDS
;	COMDAT ??_R1A@?0A@EA@Receiver@connector@monitoring@ibmras@@8
rdata$r	SEGMENT
??_R1A@?0A@EA@Receiver@connector@monitoring@ibmras@@8 DD FLAT:??_R0?AVReceiver@connector@monitoring@ibmras@@@8 ; ibmras::monitoring::connector::Receiver::`RTTI Base Class Descriptor at (0,-1,0,64)'
	DD	00H
	DD	00H
	DD	0ffffffffH
	DD	00H
	DD	040H
	DD	FLAT:??_R3Receiver@connector@monitoring@ibmras@@8
rdata$r	ENDS
;	COMDAT ??_R2Receiver@connector@monitoring@ibmras@@8
rdata$r	SEGMENT
??_R2Receiver@connector@monitoring@ibmras@@8 DD FLAT:??_R1A@?0A@EA@Receiver@connector@monitoring@ibmras@@8 ; ibmras::monitoring::connector::Receiver::`RTTI Base Class Array'
rdata$r	ENDS
;	COMDAT ??_R3Receiver@connector@monitoring@ibmras@@8
rdata$r	SEGMENT
??_R3Receiver@connector@monitoring@ibmras@@8 DD 00H	; ibmras::monitoring::connector::Receiver::`RTTI Class Hierarchy Descriptor'
	DD	00H
	DD	01H
	DD	FLAT:??_R2Receiver@connector@monitoring@ibmras@@8
rdata$r	ENDS
;	COMDAT ??_R0?AVReceiver@connector@monitoring@ibmras@@@8
_DATA	SEGMENT
??_R0?AVReceiver@connector@monitoring@ibmras@@@8 DD FLAT:??_7type_info@@6B@ ; ibmras::monitoring::connector::Receiver `RTTI Type Descriptor'
	DD	00H
	DB	'.?AVReceiver@connector@monitoring@ibmras@@', 00H
_DATA	ENDS
;	COMDAT ??_R13?0A@EA@Receiver@connector@monitoring@ibmras@@8
rdata$r	SEGMENT
??_R13?0A@EA@Receiver@connector@monitoring@ibmras@@8 DD FLAT:??_R0?AVReceiver@connector@monitoring@ibmras@@@8 ; ibmras::monitoring::connector::Receiver::`RTTI Base Class Descriptor at (4,-1,0,64)'
	DD	00H
	DD	04H
	DD	0ffffffffH
	DD	00H
	DD	040H
	DD	FLAT:??_R3Receiver@connector@monitoring@ibmras@@8
rdata$r	ENDS
;	COMDAT ??_R2Connector@connector@monitoring@ibmras@@8
rdata$r	SEGMENT
??_R2Connector@connector@monitoring@ibmras@@8 DD FLAT:??_R1A@?0A@EA@Connector@connector@monitoring@ibmras@@8 ; ibmras::monitoring::connector::Connector::`RTTI Base Class Array'
rdata$r	ENDS
;	COMDAT ??_R3Connector@connector@monitoring@ibmras@@8
rdata$r	SEGMENT
??_R3Connector@connector@monitoring@ibmras@@8 DD 00H	; ibmras::monitoring::connector::Connector::`RTTI Class Hierarchy Descriptor'
	DD	00H
	DD	01H
	DD	FLAT:??_R2Connector@connector@monitoring@ibmras@@8
rdata$r	ENDS
;	COMDAT ??_R0?AVConnector@connector@monitoring@ibmras@@@8
_DATA	SEGMENT
??_R0?AVConnector@connector@monitoring@ibmras@@@8 DD FLAT:??_7type_info@@6B@ ; ibmras::monitoring::connector::Connector `RTTI Type Descriptor'
	DD	00H
	DB	'.?AVConnector@connector@monitoring@ibmras@@', 00H
_DATA	ENDS
;	COMDAT ??_R1A@?0A@EA@Connector@connector@monitoring@ibmras@@8
rdata$r	SEGMENT
??_R1A@?0A@EA@Connector@connector@monitoring@ibmras@@8 DD FLAT:??_R0?AVConnector@connector@monitoring@ibmras@@@8 ; ibmras::monitoring::connector::Connector::`RTTI Base Class Descriptor at (0,-1,0,64)'
	DD	00H
	DD	00H
	DD	0ffffffffH
	DD	00H
	DD	040H
	DD	FLAT:??_R3Connector@connector@monitoring@ibmras@@8
rdata$r	ENDS
;	COMDAT ??_R1A@?0A@EA@ConnectorManager@connector@monitoring@ibmras@@8
rdata$r	SEGMENT
??_R1A@?0A@EA@ConnectorManager@connector@monitoring@ibmras@@8 DD FLAT:??_R0?AVConnectorManager@connector@monitoring@ibmras@@@8 ; ibmras::monitoring::connector::ConnectorManager::`RTTI Base Class Descriptor at (0,-1,0,64)'
	DD	02H
	DD	00H
	DD	0ffffffffH
	DD	00H
	DD	040H
	DD	FLAT:??_R3ConnectorManager@connector@monitoring@ibmras@@8
rdata$r	ENDS
;	COMDAT ??_R2ConnectorManager@connector@monitoring@ibmras@@8
rdata$r	SEGMENT
??_R2ConnectorManager@connector@monitoring@ibmras@@8 DD FLAT:??_R1A@?0A@EA@ConnectorManager@connector@monitoring@ibmras@@8 ; ibmras::monitoring::connector::ConnectorManager::`RTTI Base Class Array'
	DD	FLAT:??_R1A@?0A@EA@Connector@connector@monitoring@ibmras@@8
	DD	FLAT:??_R13?0A@EA@Receiver@connector@monitoring@ibmras@@8
rdata$r	ENDS
;	COMDAT ??_R3ConnectorManager@connector@monitoring@ibmras@@8
rdata$r	SEGMENT
??_R3ConnectorManager@connector@monitoring@ibmras@@8 DD 00H ; ibmras::monitoring::connector::ConnectorManager::`RTTI Class Hierarchy Descriptor'
	DD	01H
	DD	03H
	DD	FLAT:??_R2ConnectorManager@connector@monitoring@ibmras@@8
rdata$r	ENDS
;	COMDAT ??_R0?AVConnectorManager@connector@monitoring@ibmras@@@8
_DATA	SEGMENT
??_R0?AVConnectorManager@connector@monitoring@ibmras@@@8 DD FLAT:??_7type_info@@6B@ ; ibmras::monitoring::connector::ConnectorManager `RTTI Type Descriptor'
	DD	00H
	DB	'.?AVConnectorManager@connector@monitoring@ibmras@@', 00H
_DATA	ENDS
;	COMDAT ??_R4ConnectorManager@connector@monitoring@ibmras@@6BConnector@123@@
rdata$r	SEGMENT
??_R4ConnectorManager@connector@monitoring@ibmras@@6BConnector@123@@ DD 00H ; ibmras::monitoring::connector::ConnectorManager::`RTTI Complete Object Locator'
	DD	00H
	DD	00H
	DD	FLAT:??_R0?AVConnectorManager@connector@monitoring@ibmras@@@8
	DD	FLAT:??_R3ConnectorManager@connector@monitoring@ibmras@@8
rdata$r	ENDS
;	COMDAT ??_7ConnectorManager@connector@monitoring@ibmras@@6BReceiver@123@@
CONST	SEGMENT
??_7ConnectorManager@connector@monitoring@ibmras@@6BReceiver@123@@ DD FLAT:??_R4ConnectorManager@connector@monitoring@ibmras@@6BReceiver@123@@ ; ibmras::monitoring::connector::ConnectorManager::`vftable'
	DD	FLAT:?receiveMessage@ConnectorManager@connector@monitoring@ibmras@@UAEXABV?$basic_string@DU?$char_traits@D@std@@V?$allocator@D@2@@std@@IPAX@Z
	DD	FLAT:??_EConnectorManager@connector@monitoring@ibmras@@W3AEPAXI@Z
CONST	ENDS
;	COMDAT ??_7ConnectorManager@connector@monitoring@ibmras@@6BConnector@123@@
CONST	SEGMENT
??_7ConnectorManager@connector@monitoring@ibmras@@6BConnector@123@@ DD FLAT:??_R4ConnectorManager@connector@monitoring@ibmras@@6BConnector@123@@ ; ibmras::monitoring::connector::ConnectorManager::`vftable'
	DD	FLAT:?getID@Connector@connector@monitoring@ibmras@@UAE?AV?$basic_string@DU?$char_traits@D@std@@V?$allocator@D@2@@std@@XZ
	DD	FLAT:?sendMessage@ConnectorManager@connector@monitoring@ibmras@@UAEHABV?$basic_string@DU?$char_traits@D@std@@V?$allocator@D@2@@std@@IPAX@Z
	DD	FLAT:?registerReceiver@Connector@connector@monitoring@ibmras@@UAEXPAVReceiver@234@@Z
	DD	FLAT:?start@ConnectorManager@connector@monitoring@ibmras@@UAEHXZ
	DD	FLAT:?stop@ConnectorManager@connector@monitoring@ibmras@@UAEHXZ
	DD	FLAT:??_EConnectorManager@connector@monitoring@ibmras@@UAEPAXI@Z
CONST	ENDS
;	COMDAT xdata$x
xdata$x	SEGMENT
__ehfuncinfo$??0ConnectorManager@connector@monitoring@ibmras@@QAE@ABV0123@@Z DD 019930522H
	DD	07H
	DD	FLAT:__unwindtable$??0ConnectorManager@connector@monitoring@ibmras@@QAE@ABV0123@@Z
	DD	2 DUP(00H)
	DD	2 DUP(00H)
	DD	00H
	DD	01H
__unwindtable$??0ConnectorManager@connector@monitoring@ibmras@@QAE@ABV0123@@Z DD 0ffffffffH
	DD	FLAT:__unwindfunclet$??0ConnectorManager@connector@monitoring@ibmras@@QAE@ABV0123@@Z$0
	DD	00H
	DD	FLAT:__unwindfunclet$??0ConnectorManager@connector@monitoring@ibmras@@QAE@ABV0123@@Z$1
	DD	01H
	DD	FLAT:__unwindfunclet$??0ConnectorManager@connector@monitoring@ibmras@@QAE@ABV0123@@Z$2
	DD	02H
	DD	FLAT:__unwindfunclet$??0ConnectorManager@connector@monitoring@ibmras@@QAE@ABV0123@@Z$3
	DD	03H
	DD	FLAT:__unwindfunclet$??0ConnectorManager@connector@monitoring@ibmras@@QAE@ABV0123@@Z$4
	DD	04H
	DD	FLAT:__unwindfunclet$??0ConnectorManager@connector@monitoring@ibmras@@QAE@ABV0123@@Z$5
	DD	05H
	DD	FLAT:__unwindfunclet$??0ConnectorManager@connector@monitoring@ibmras@@QAE@ABV0123@@Z$6
; Function compile flags: /Odtp
xdata$x	ENDS
;	COMDAT ??0ConnectorManager@connector@monitoring@ibmras@@QAE@ABV0123@@Z
_TEXT	SEGMENT
tv90 = -20						; size = 4
_this$ = -16						; size = 4
__$EHRec$ = -12						; size = 12
___that$ = 8						; size = 4
??0ConnectorManager@connector@monitoring@ibmras@@QAE@ABV0123@@Z PROC ; ibmras::monitoring::connector::ConnectorManager::ConnectorManager, COMDAT
; _this$ = ecx
	push	ebp
	mov	ebp, esp
	push	-1
	push	__ehhandler$??0ConnectorManager@connector@monitoring@ibmras@@QAE@ABV0123@@Z
	mov	eax, DWORD PTR fs:0
	push	eax
	sub	esp, 8
	mov	eax, DWORD PTR ___security_cookie
	xor	eax, ebp
	push	eax
	lea	eax, DWORD PTR __$EHRec$[ebp]
	mov	DWORD PTR fs:0, eax
	mov	DWORD PTR _this$[ebp], ecx
	mov	eax, DWORD PTR ___that$[ebp]
	push	eax
	mov	ecx, DWORD PTR _this$[ebp]
	call	??0Connector@connector@monitoring@ibmras@@QAE@ABV0123@@Z
	mov	DWORD PTR __$EHRec$[ebp+8], 0
	cmp	DWORD PTR ___that$[ebp], 0
	je	SHORT $LN3@ConnectorM
	mov	ecx, DWORD PTR ___that$[ebp]
	add	ecx, 4
	mov	DWORD PTR tv90[ebp], ecx
	jmp	SHORT $LN4@ConnectorM
$LN3@ConnectorM:
	mov	DWORD PTR tv90[ebp], 0
$LN4@ConnectorM:
	mov	edx, DWORD PTR tv90[ebp]
	push	edx
	mov	ecx, DWORD PTR _this$[ebp]
	add	ecx, 4
	call	??0Receiver@connector@monitoring@ibmras@@QAE@ABV0123@@Z
	mov	BYTE PTR __$EHRec$[ebp+8], 1
	mov	eax, DWORD PTR _this$[ebp]
	mov	DWORD PTR [eax], OFFSET ??_7ConnectorManager@connector@monitoring@ibmras@@6BConnector@123@@
	mov	ecx, DWORD PTR _this$[ebp]
	mov	DWORD PTR [ecx+4], OFFSET ??_7ConnectorManager@connector@monitoring@ibmras@@6BReceiver@123@@
	mov	edx, DWORD PTR _this$[ebp]
	mov	eax, DWORD PTR ___that$[ebp]
	mov	cl, BYTE PTR [eax+8]
	mov	BYTE PTR [edx+8], cl
	mov	edx, DWORD PTR ___that$[ebp]
	add	edx, 12					; 0000000cH
	mov	eax, DWORD PTR _this$[ebp]
	add	eax, 12					; 0000000cH
	mov	ecx, DWORD PTR [edx]
	mov	DWORD PTR [eax], ecx
	mov	ecx, DWORD PTR [edx+4]
	mov	DWORD PTR [eax+4], ecx
	mov	edx, DWORD PTR [edx+8]
	mov	DWORD PTR [eax+8], edx
	mov	BYTE PTR __$EHRec$[ebp+8], 2
	mov	eax, DWORD PTR ___that$[ebp]
	add	eax, 24					; 00000018H
	push	eax
	mov	ecx, DWORD PTR _this$[ebp]
	add	ecx, 24					; 00000018H
	call	??0?$queue@VReceivedMessage@ConnectorManager@connector@monitoring@ibmras@@V?$deque@VReceivedMessage@ConnectorManager@connector@monitoring@ibmras@@V?$allocator@VReceivedMessage@ConnectorManager@connector@monitoring@ibmras@@@std@@@std@@@std@@QAE@ABV01@@Z ; std::queue<ibmras::monitoring::connector::ConnectorManager::ReceivedMessage,std::deque<ibmras::monitoring::connector::ConnectorManager::ReceivedMessage,std::allocator<ibmras::monitoring::connector::ConnectorManager::ReceivedMessage> > >::queue<ibmras::monitoring::connector::ConnectorManager::ReceivedMessage,std::deque<ibmras::monitoring::connector::ConnectorManager::ReceivedMessage,std::allocator<ibmras::monitoring::connector::ConnectorManager::ReceivedMessage> > >
	mov	BYTE PTR __$EHRec$[ebp+8], 3
	mov	ecx, DWORD PTR ___that$[ebp]
	mov	edx, DWORD PTR [ecx+48]
	mov	eax, DWORD PTR _this$[ebp]
	mov	DWORD PTR [eax+48], edx
	mov	BYTE PTR __$EHRec$[ebp+8], 4
	mov	ecx, DWORD PTR ___that$[ebp]
	mov	edx, DWORD PTR [ecx+52]
	mov	eax, DWORD PTR _this$[ebp]
	mov	DWORD PTR [eax+52], edx
	mov	BYTE PTR __$EHRec$[ebp+8], 5
	mov	ecx, DWORD PTR ___that$[ebp]
	add	ecx, 56					; 00000038H
	push	ecx
	mov	ecx, DWORD PTR _this$[ebp]
	add	ecx, 56					; 00000038H
	call	??0?$set@PAVConnector@connector@monitoring@ibmras@@U?$less@PAVConnector@connector@monitoring@ibmras@@@std@@V?$allocator@PAVConnector@connector@monitoring@ibmras@@@6@@std@@QAE@ABV01@@Z ; std::set<ibmras::monitoring::connector::Connector *,std::less<ibmras::monitoring::connector::Connector *>,std::allocator<ibmras::monitoring::connector::Connector *> >::set<ibmras::monitoring::connector::Connector *,std::less<ibmras::monitoring::connector::Connector *>,std::allocator<ibmras::monitoring::connector::Connector *> >
	mov	BYTE PTR __$EHRec$[ebp+8], 6
	mov	edx, DWORD PTR ___that$[ebp]
	add	edx, 72					; 00000048H
	push	edx
	mov	ecx, DWORD PTR _this$[ebp]
	add	ecx, 72					; 00000048H
	call	??0?$set@PAVReceiver@connector@monitoring@ibmras@@U?$less@PAVReceiver@connector@monitoring@ibmras@@@std@@V?$allocator@PAVReceiver@connector@monitoring@ibmras@@@6@@std@@QAE@ABV01@@Z ; std::set<ibmras::monitoring::connector::Receiver *,std::less<ibmras::monitoring::connector::Receiver *>,std::allocator<ibmras::monitoring::connector::Receiver *> >::set<ibmras::monitoring::connector::Receiver *,std::less<ibmras::monitoring::connector::Receiver *>,std::allocator<ibmras::monitoring::connector::Receiver *> >
	mov	DWORD PTR __$EHRec$[ebp+8], -1
	mov	eax, DWORD PTR _this$[ebp]
	mov	ecx, DWORD PTR __$EHRec$[ebp]
	mov	DWORD PTR fs:0, ecx
	pop	ecx
	mov	esp, ebp
	pop	ebp
	ret	4
_TEXT	ENDS
;	COMDAT text$x
text$x	SEGMENT
__unwindfunclet$??0ConnectorManager@connector@monitoring@ibmras@@QAE@ABV0123@@Z$0:
	mov	ecx, DWORD PTR _this$[ebp]
	jmp	??1Connector@connector@monitoring@ibmras@@UAE@XZ ; ibmras::monitoring::connector::Connector::~Connector
__unwindfunclet$??0ConnectorManager@connector@monitoring@ibmras@@QAE@ABV0123@@Z$1:
	mov	ecx, DWORD PTR _this$[ebp]
	add	ecx, 4
	jmp	??1Receiver@connector@monitoring@ibmras@@UAE@XZ ; ibmras::monitoring::connector::Receiver::~Receiver
__unwindfunclet$??0ConnectorManager@connector@monitoring@ibmras@@QAE@ABV0123@@Z$2:
	mov	ecx, DWORD PTR _this$[ebp]
	add	ecx, 12					; 0000000cH
	jmp	??1ThreadData@port@common@ibmras@@QAE@XZ ; ibmras::common::port::ThreadData::~ThreadData
__unwindfunclet$??0ConnectorManager@connector@monitoring@ibmras@@QAE@ABV0123@@Z$3:
	mov	ecx, DWORD PTR _this$[ebp]
	add	ecx, 24					; 00000018H
	jmp	??1?$queue@VReceivedMessage@ConnectorManager@connector@monitoring@ibmras@@V?$deque@VReceivedMessage@ConnectorManager@connector@monitoring@ibmras@@V?$allocator@VReceivedMessage@ConnectorManager@connector@monitoring@ibmras@@@std@@@std@@@std@@QAE@XZ
__unwindfunclet$??0ConnectorManager@connector@monitoring@ibmras@@QAE@ABV0123@@Z$4:
	mov	ecx, DWORD PTR _this$[ebp]
	add	ecx, 48					; 00000030H
	jmp	??1Lock@port@common@ibmras@@QAE@XZ	; ibmras::common::port::Lock::~Lock
__unwindfunclet$??0ConnectorManager@connector@monitoring@ibmras@@QAE@ABV0123@@Z$5:
	mov	ecx, DWORD PTR _this$[ebp]
	add	ecx, 52					; 00000034H
	jmp	??1Lock@port@common@ibmras@@QAE@XZ	; ibmras::common::port::Lock::~Lock
__unwindfunclet$??0ConnectorManager@connector@monitoring@ibmras@@QAE@ABV0123@@Z$6:
	mov	ecx, DWORD PTR _this$[ebp]
	add	ecx, 56					; 00000038H
	jmp	??1?$set@PAVConnector@connector@monitoring@ibmras@@U?$less@PAVConnector@connector@monitoring@ibmras@@@std@@V?$allocator@PAVConnector@connector@monitoring@ibmras@@@6@@std@@QAE@XZ
__ehhandler$??0ConnectorManager@connector@monitoring@ibmras@@QAE@ABV0123@@Z:
	mov	edx, DWORD PTR [esp+8]
	lea	eax, DWORD PTR [edx+12]
	mov	ecx, DWORD PTR [edx-12]
	xor	ecx, eax
	call	@__security_check_cookie@4
	mov	eax, OFFSET __ehfuncinfo$??0ConnectorManager@connector@monitoring@ibmras@@QAE@ABV0123@@Z
	jmp	___CxxFrameHandler3
text$x	ENDS
??0ConnectorManager@connector@monitoring@ibmras@@QAE@ABV0123@@Z ENDP ; ibmras::monitoring::connector::ConnectorManager::ConnectorManager
PUBLIC	??_7Receiver@connector@monitoring@ibmras@@6B@	; ibmras::monitoring::connector::Receiver::`vftable'
PUBLIC	??_R4Receiver@connector@monitoring@ibmras@@6B@	; ibmras::monitoring::connector::Receiver::`RTTI Complete Object Locator'
EXTRN	__purecall:PROC
EXTRN	??_EReceiver@connector@monitoring@ibmras@@UAEPAXI@Z:PROC ; ibmras::monitoring::connector::Receiver::`vector deleting destructor'
;	COMDAT ??_R4Receiver@connector@monitoring@ibmras@@6B@
; File c:\workspaces\newagent2\runtime.tools\src\ibmras\monitoring\connector\receiver.h
rdata$r	SEGMENT
??_R4Receiver@connector@monitoring@ibmras@@6B@ DD 00H	; ibmras::monitoring::connector::Receiver::`RTTI Complete Object Locator'
	DD	00H
	DD	00H
	DD	FLAT:??_R0?AVReceiver@connector@monitoring@ibmras@@@8
	DD	FLAT:??_R3Receiver@connector@monitoring@ibmras@@8
rdata$r	ENDS
;	COMDAT ??_7Receiver@connector@monitoring@ibmras@@6B@
CONST	SEGMENT
??_7Receiver@connector@monitoring@ibmras@@6B@ DD FLAT:??_R4Receiver@connector@monitoring@ibmras@@6B@ ; ibmras::monitoring::connector::Receiver::`vftable'
	DD	FLAT:__purecall
	DD	FLAT:??_EReceiver@connector@monitoring@ibmras@@UAEPAXI@Z
; Function compile flags: /Odtp
CONST	ENDS
;	COMDAT ??1Receiver@connector@monitoring@ibmras@@UAE@XZ
_TEXT	SEGMENT
_this$ = -4						; size = 4
??1Receiver@connector@monitoring@ibmras@@UAE@XZ PROC	; ibmras::monitoring::connector::Receiver::~Receiver, COMDAT
; _this$ = ecx
; Line 27
	push	ebp
	mov	ebp, esp
	push	ecx
	mov	DWORD PTR _this$[ebp], ecx
	mov	eax, DWORD PTR _this$[ebp]
	mov	DWORD PTR [eax], OFFSET ??_7Receiver@connector@monitoring@ibmras@@6B@
; Line 28
	mov	esp, ebp
	pop	ebp
	ret	0
??1Receiver@connector@monitoring@ibmras@@UAE@XZ ENDP	; ibmras::monitoring::connector::Receiver::~Receiver
_TEXT	ENDS
EXTRN	??3@YAXPAX@Z:PROC				; operator delete
; Function compile flags: /Odtp
;	COMDAT ??_GReceiver@connector@monitoring@ibmras@@UAEPAXI@Z
_TEXT	SEGMENT
_this$ = -4						; size = 4
___flags$ = 8						; size = 4
??_GReceiver@connector@monitoring@ibmras@@UAEPAXI@Z PROC ; ibmras::monitoring::connector::Receiver::`scalar deleting destructor', COMDAT
; _this$ = ecx
	push	ebp
	mov	ebp, esp
	push	ecx
	mov	DWORD PTR _this$[ebp], ecx
	mov	ecx, DWORD PTR _this$[ebp]
	call	??1Receiver@connector@monitoring@ibmras@@UAE@XZ ; ibmras::monitoring::connector::Receiver::~Receiver
	mov	eax, DWORD PTR ___flags$[ebp]
	and	eax, 1
	je	SHORT $LN1@scalar
	mov	ecx, DWORD PTR _this$[ebp]
	push	ecx
	call	??3@YAXPAX@Z				; operator delete
	add	esp, 4
$LN1@scalar:
	mov	eax, DWORD PTR _this$[ebp]
	mov	esp, ebp
	pop	ebp
	ret	4
??_GReceiver@connector@monitoring@ibmras@@UAEPAXI@Z ENDP ; ibmras::monitoring::connector::Receiver::`scalar deleting destructor'
; Function compile flags: /Odtp
_TEXT	ENDS
;	COMDAT ??1ThreadData@port@common@ibmras@@QAE@XZ
_TEXT	SEGMENT
_this$ = -4						; size = 4
??1ThreadData@port@common@ibmras@@QAE@XZ PROC		; ibmras::common::port::ThreadData::~ThreadData, COMDAT
; _this$ = ecx
; File c:\workspaces\newagent2\runtime.tools\src\ibmras\common\port\threaddata.h
; Line 33
	push	ebp
	mov	ebp, esp
	push	ecx
	mov	DWORD PTR _this$[ebp], ecx
	mov	esp, ebp
	pop	ebp
	ret	0
??1ThreadData@port@common@ibmras@@QAE@XZ ENDP		; ibmras::common::port::ThreadData::~ThreadData
_TEXT	ENDS
PUBLIC	??0?$basic_string@DU?$char_traits@D@std@@V?$allocator@D@2@@std@@QAE@PBD@Z ; std::basic_string<char,std::char_traits<char>,std::allocator<char> >::basic_string<char,std::char_traits<char>,std::allocator<char> >
PUBLIC	??_C@_09MILONDLI@Connector?$AA@			; `string'
;	COMDAT ??_C@_09MILONDLI@Connector?$AA@
; File c:\workspaces\newagent2\runtime.tools\src\ibmras\monitoring\connector\connector.h
CONST	SEGMENT
??_C@_09MILONDLI@Connector?$AA@ DB 'Connector', 00H	; `string'
; Function compile flags: /Odtp
CONST	ENDS
;	COMDAT ?getID@Connector@connector@monitoring@ibmras@@UAE?AV?$basic_string@DU?$char_traits@D@std@@V?$allocator@D@2@@std@@XZ
_TEXT	SEGMENT
_this$ = -8						; size = 4
$T122627 = -4						; size = 4
___$ReturnUdt$ = 8					; size = 4
?getID@Connector@connector@monitoring@ibmras@@UAE?AV?$basic_string@DU?$char_traits@D@std@@V?$allocator@D@2@@std@@XZ PROC ; ibmras::monitoring::connector::Connector::getID, COMDAT
; _this$ = ecx
; Line 24
	push	ebp
	mov	ebp, esp
	sub	esp, 8
	mov	DWORD PTR _this$[ebp], ecx
	mov	DWORD PTR $T122627[ebp], 0
	push	OFFSET ??_C@_09MILONDLI@Connector?$AA@
	mov	ecx, DWORD PTR ___$ReturnUdt$[ebp]
	call	??0?$basic_string@DU?$char_traits@D@std@@V?$allocator@D@2@@std@@QAE@PBD@Z ; std::basic_string<char,std::char_traits<char>,std::allocator<char> >::basic_string<char,std::char_traits<char>,std::allocator<char> >
	mov	eax, DWORD PTR $T122627[ebp]
	or	eax, 1
	mov	DWORD PTR $T122627[ebp], eax
	mov	eax, DWORD PTR ___$ReturnUdt$[ebp]
	mov	esp, ebp
	pop	ebp
	ret	4
?getID@Connector@connector@monitoring@ibmras@@UAE?AV?$basic_string@DU?$char_traits@D@std@@V?$allocator@D@2@@std@@XZ ENDP ; ibmras::monitoring::connector::Connector::getID
; Function compile flags: /Odtp
_TEXT	ENDS
;	COMDAT ?registerReceiver@Connector@connector@monitoring@ibmras@@UAEXPAVReceiver@234@@Z
_TEXT	SEGMENT
_this$ = -4						; size = 4
_receiver$ = 8						; size = 4
?registerReceiver@Connector@connector@monitoring@ibmras@@UAEXPAVReceiver@234@@Z PROC ; ibmras::monitoring::connector::Connector::registerReceiver, COMDAT
; _this$ = ecx
; Line 28
	push	ebp
	mov	ebp, esp
	push	ecx
	mov	DWORD PTR _this$[ebp], ecx
	mov	esp, ebp
	pop	ebp
	ret	4
?registerReceiver@Connector@connector@monitoring@ibmras@@UAEXPAVReceiver@234@@Z ENDP ; ibmras::monitoring::connector::Connector::registerReceiver
_TEXT	ENDS
PUBLIC	??_7Connector@connector@monitoring@ibmras@@6B@	; ibmras::monitoring::connector::Connector::`vftable'
PUBLIC	??_R4Connector@connector@monitoring@ibmras@@6B@	; ibmras::monitoring::connector::Connector::`RTTI Complete Object Locator'
PUBLIC	?sendMessage@Connector@connector@monitoring@ibmras@@UAEHABV?$basic_string@DU?$char_traits@D@std@@V?$allocator@D@2@@std@@IPAX@Z ; ibmras::monitoring::connector::Connector::sendMessage
PUBLIC	?start@Connector@connector@monitoring@ibmras@@UAEHXZ ; ibmras::monitoring::connector::Connector::start
PUBLIC	?stop@Connector@connector@monitoring@ibmras@@UAEHXZ ; ibmras::monitoring::connector::Connector::stop
EXTRN	??_EConnector@connector@monitoring@ibmras@@UAEPAXI@Z:PROC ; ibmras::monitoring::connector::Connector::`vector deleting destructor'
;	COMDAT ??_R4Connector@connector@monitoring@ibmras@@6B@
rdata$r	SEGMENT
??_R4Connector@connector@monitoring@ibmras@@6B@ DD 00H	; ibmras::monitoring::connector::Connector::`RTTI Complete Object Locator'
	DD	00H
	DD	00H
	DD	FLAT:??_R0?AVConnector@connector@monitoring@ibmras@@@8
	DD	FLAT:??_R3Connector@connector@monitoring@ibmras@@8
rdata$r	ENDS
;	COMDAT ??_7Connector@connector@monitoring@ibmras@@6B@
CONST	SEGMENT
??_7Connector@connector@monitoring@ibmras@@6B@ DD FLAT:??_R4Connector@connector@monitoring@ibmras@@6B@ ; ibmras::monitoring::connector::Connector::`vftable'
	DD	FLAT:?getID@Connector@connector@monitoring@ibmras@@UAE?AV?$basic_string@DU?$char_traits@D@std@@V?$allocator@D@2@@std@@XZ
	DD	FLAT:?sendMessage@Connector@connector@monitoring@ibmras@@UAEHABV?$basic_string@DU?$char_traits@D@std@@V?$allocator@D@2@@std@@IPAX@Z
	DD	FLAT:?registerReceiver@Connector@connector@monitoring@ibmras@@UAEXPAVReceiver@234@@Z
	DD	FLAT:?start@Connector@connector@monitoring@ibmras@@UAEHXZ
	DD	FLAT:?stop@Connector@connector@monitoring@ibmras@@UAEHXZ
	DD	FLAT:??_EConnector@connector@monitoring@ibmras@@UAEPAXI@Z
; Function compile flags: /Odtp
CONST	ENDS
;	COMDAT ??1Connector@connector@monitoring@ibmras@@UAE@XZ
_TEXT	SEGMENT
_this$ = -4						; size = 4
??1Connector@connector@monitoring@ibmras@@UAE@XZ PROC	; ibmras::monitoring::connector::Connector::~Connector, COMDAT
; _this$ = ecx
; Line 33
	push	ebp
	mov	ebp, esp
	push	ecx
	mov	DWORD PTR _this$[ebp], ecx
	mov	eax, DWORD PTR _this$[ebp]
	mov	DWORD PTR [eax], OFFSET ??_7Connector@connector@monitoring@ibmras@@6B@
	mov	esp, ebp
	pop	ebp
	ret	0
??1Connector@connector@monitoring@ibmras@@UAE@XZ ENDP	; ibmras::monitoring::connector::Connector::~Connector
; Function compile flags: /Odtp
_TEXT	ENDS
;	COMDAT ?sendMessage@Connector@connector@monitoring@ibmras@@UAEHABV?$basic_string@DU?$char_traits@D@std@@V?$allocator@D@2@@std@@IPAX@Z
_TEXT	SEGMENT
_this$ = -4						; size = 4
_sourceId$ = 8						; size = 4
_size$ = 12						; size = 4
_data$ = 16						; size = 4
?sendMessage@Connector@connector@monitoring@ibmras@@UAEHABV?$basic_string@DU?$char_traits@D@std@@V?$allocator@D@2@@std@@IPAX@Z PROC ; ibmras::monitoring::connector::Connector::sendMessage, COMDAT
; _this$ = ecx
; Line 26
	push	ebp
	mov	ebp, esp
	push	ecx
	mov	DWORD PTR _this$[ebp], ecx
	xor	eax, eax
	mov	esp, ebp
	pop	ebp
	ret	12					; 0000000cH
?sendMessage@Connector@connector@monitoring@ibmras@@UAEHABV?$basic_string@DU?$char_traits@D@std@@V?$allocator@D@2@@std@@IPAX@Z ENDP ; ibmras::monitoring::connector::Connector::sendMessage
; Function compile flags: /Odtp
_TEXT	ENDS
;	COMDAT ?start@Connector@connector@monitoring@ibmras@@UAEHXZ
_TEXT	SEGMENT
_this$ = -4						; size = 4
?start@Connector@connector@monitoring@ibmras@@UAEHXZ PROC ; ibmras::monitoring::connector::Connector::start, COMDAT
; _this$ = ecx
; Line 30
	push	ebp
	mov	ebp, esp
	push	ecx
	mov	DWORD PTR _this$[ebp], ecx
	xor	eax, eax
	mov	esp, ebp
	pop	ebp
	ret	0
?start@Connector@connector@monitoring@ibmras@@UAEHXZ ENDP ; ibmras::monitoring::connector::Connector::start
; Function compile flags: /Odtp
_TEXT	ENDS
;	COMDAT ?stop@Connector@connector@monitoring@ibmras@@UAEHXZ
_TEXT	SEGMENT
_this$ = -4						; size = 4
?stop@Connector@connector@monitoring@ibmras@@UAEHXZ PROC ; ibmras::monitoring::connector::Connector::stop, COMDAT
; _this$ = ecx
; Line 31
	push	ebp
	mov	ebp, esp
	push	ecx
	mov	DWORD PTR _this$[ebp], ecx
	xor	eax, eax
	mov	esp, ebp
	pop	ebp
	ret	0
?stop@Connector@connector@monitoring@ibmras@@UAEHXZ ENDP ; ibmras::monitoring::connector::Connector::stop
; Function compile flags: /Odtp
_TEXT	ENDS
;	COMDAT ??_GConnector@connector@monitoring@ibmras@@UAEPAXI@Z
_TEXT	SEGMENT
_this$ = -4						; size = 4
___flags$ = 8						; size = 4
??_GConnector@connector@monitoring@ibmras@@UAEPAXI@Z PROC ; ibmras::monitoring::connector::Connector::`scalar deleting destructor', COMDAT
; _this$ = ecx
	push	ebp
	mov	ebp, esp
	push	ecx
	mov	DWORD PTR _this$[ebp], ecx
	mov	ecx, DWORD PTR _this$[ebp]
	call	??1Connector@connector@monitoring@ibmras@@UAE@XZ ; ibmras::monitoring::connector::Connector::~Connector
	mov	eax, DWORD PTR ___flags$[ebp]
	and	eax, 1
	je	SHORT $LN1@scalar@2
	mov	ecx, DWORD PTR _this$[ebp]
	push	ecx
	call	??3@YAXPAX@Z				; operator delete
	add	esp, 4
$LN1@scalar@2:
	mov	eax, DWORD PTR _this$[ebp]
	mov	esp, ebp
	pop	ebp
	ret	4
??_GConnector@connector@monitoring@ibmras@@UAEPAXI@Z ENDP ; ibmras::monitoring::connector::Connector::`scalar deleting destructor'
_TEXT	ENDS
PUBLIC	??4?$set@PAVReceiver@connector@monitoring@ibmras@@U?$less@PAVReceiver@connector@monitoring@ibmras@@@std@@V?$allocator@PAVReceiver@connector@monitoring@ibmras@@@6@@std@@QAEAAV01@ABV01@@Z ; std::set<ibmras::monitoring::connector::Receiver *,std::less<ibmras::monitoring::connector::Receiver *>,std::allocator<ibmras::monitoring::connector::Receiver *> >::operator=
PUBLIC	??4?$set@PAVConnector@connector@monitoring@ibmras@@U?$less@PAVConnector@connector@monitoring@ibmras@@@std@@V?$allocator@PAVConnector@connector@monitoring@ibmras@@@6@@std@@QAEAAV01@ABV01@@Z ; std::set<ibmras::monitoring::connector::Connector *,std::less<ibmras::monitoring::connector::Connector *>,std::allocator<ibmras::monitoring::connector::Connector *> >::operator=
PUBLIC	??4?$queue@VReceivedMessage@ConnectorManager@connector@monitoring@ibmras@@V?$deque@VReceivedMessage@ConnectorManager@connector@monitoring@ibmras@@V?$allocator@VReceivedMessage@ConnectorManager@connector@monitoring@ibmras@@@std@@@std@@@std@@QAEAAV01@ABV01@@Z ; std::queue<ibmras::monitoring::connector::ConnectorManager::ReceivedMessage,std::deque<ibmras::monitoring::connector::ConnectorManager::ReceivedMessage,std::allocator<ibmras::monitoring::connector::ConnectorManager::ReceivedMessage> > >::operator=
PUBLIC	??4Receiver@connector@monitoring@ibmras@@QAEAAV0123@ABV0123@@Z ; ibmras::monitoring::connector::Receiver::operator=
PUBLIC	??4Connector@connector@monitoring@ibmras@@QAEAAV0123@ABV0123@@Z ; ibmras::monitoring::connector::Connector::operator=
PUBLIC	??4ConnectorManager@connector@monitoring@ibmras@@QAEAAV0123@ABV0123@@Z ; ibmras::monitoring::connector::ConnectorManager::operator=
; Function compile flags: /Odtp
;	COMDAT ??4ConnectorManager@connector@monitoring@ibmras@@QAEAAV0123@ABV0123@@Z
_TEXT	SEGMENT
tv84 = -8						; size = 4
_this$ = -4						; size = 4
___that$ = 8						; size = 4
??4ConnectorManager@connector@monitoring@ibmras@@QAEAAV0123@ABV0123@@Z PROC ; ibmras::monitoring::connector::ConnectorManager::operator=, COMDAT
; _this$ = ecx
	push	ebp
	mov	ebp, esp
	sub	esp, 8
	mov	DWORD PTR _this$[ebp], ecx
	mov	eax, DWORD PTR ___that$[ebp]
	push	eax
	mov	ecx, DWORD PTR _this$[ebp]
	call	??4Connector@connector@monitoring@ibmras@@QAEAAV0123@ABV0123@@Z
	cmp	DWORD PTR ___that$[ebp], 0
	je	SHORT $LN3@operator
	mov	ecx, DWORD PTR ___that$[ebp]
	add	ecx, 4
	mov	DWORD PTR tv84[ebp], ecx
	jmp	SHORT $LN4@operator
$LN3@operator:
	mov	DWORD PTR tv84[ebp], 0
$LN4@operator:
	mov	edx, DWORD PTR tv84[ebp]
	push	edx
	mov	ecx, DWORD PTR _this$[ebp]
	add	ecx, 4
	call	??4Receiver@connector@monitoring@ibmras@@QAEAAV0123@ABV0123@@Z
	mov	eax, DWORD PTR _this$[ebp]
	mov	ecx, DWORD PTR ___that$[ebp]
	mov	dl, BYTE PTR [ecx+8]
	mov	BYTE PTR [eax+8], dl
	mov	eax, DWORD PTR ___that$[ebp]
	add	eax, 12					; 0000000cH
	mov	ecx, DWORD PTR _this$[ebp]
	add	ecx, 12					; 0000000cH
	mov	edx, DWORD PTR [eax]
	mov	DWORD PTR [ecx], edx
	mov	edx, DWORD PTR [eax+4]
	mov	DWORD PTR [ecx+4], edx
	mov	eax, DWORD PTR [eax+8]
	mov	DWORD PTR [ecx+8], eax
	mov	ecx, DWORD PTR ___that$[ebp]
	add	ecx, 24					; 00000018H
	push	ecx
	mov	ecx, DWORD PTR _this$[ebp]
	add	ecx, 24					; 00000018H
	call	??4?$queue@VReceivedMessage@ConnectorManager@connector@monitoring@ibmras@@V?$deque@VReceivedMessage@ConnectorManager@connector@monitoring@ibmras@@V?$allocator@VReceivedMessage@ConnectorManager@connector@monitoring@ibmras@@@std@@@std@@@std@@QAEAAV01@ABV01@@Z ; std::queue<ibmras::monitoring::connector::ConnectorManager::ReceivedMessage,std::deque<ibmras::monitoring::connector::ConnectorManager::ReceivedMessage,std::allocator<ibmras::monitoring::connector::ConnectorManager::ReceivedMessage> > >::operator=
	mov	edx, DWORD PTR ___that$[ebp]
	mov	eax, DWORD PTR [edx+48]
	mov	ecx, DWORD PTR _this$[ebp]
	mov	DWORD PTR [ecx+48], eax
	mov	edx, DWORD PTR ___that$[ebp]
	mov	eax, DWORD PTR [edx+52]
	mov	ecx, DWORD PTR _this$[ebp]
	mov	DWORD PTR [ecx+52], eax
	mov	edx, DWORD PTR ___that$[ebp]
	add	edx, 56					; 00000038H
	push	edx
	mov	ecx, DWORD PTR _this$[ebp]
	add	ecx, 56					; 00000038H
	call	??4?$set@PAVConnector@connector@monitoring@ibmras@@U?$less@PAVConnector@connector@monitoring@ibmras@@@std@@V?$allocator@PAVConnector@connector@monitoring@ibmras@@@6@@std@@QAEAAV01@ABV01@@Z ; std::set<ibmras::monitoring::connector::Connector *,std::less<ibmras::monitoring::connector::Connector *>,std::allocator<ibmras::monitoring::connector::Connector *> >::operator=
	mov	eax, DWORD PTR ___that$[ebp]
	add	eax, 72					; 00000048H
	push	eax
	mov	ecx, DWORD PTR _this$[ebp]
	add	ecx, 72					; 00000048H
	call	??4?$set@PAVReceiver@connector@monitoring@ibmras@@U?$less@PAVReceiver@connector@monitoring@ibmras@@@std@@V?$allocator@PAVReceiver@connector@monitoring@ibmras@@@6@@std@@QAEAAV01@ABV01@@Z ; std::set<ibmras::monitoring::connector::Receiver *,std::less<ibmras::monitoring::connector::Receiver *>,std::allocator<ibmras::monitoring::connector::Receiver *> >::operator=
	mov	eax, DWORD PTR _this$[ebp]
	mov	esp, ebp
	pop	ebp
	ret	4
??4ConnectorManager@connector@monitoring@ibmras@@QAEAAV0123@ABV0123@@Z ENDP ; ibmras::monitoring::connector::ConnectorManager::operator=
_TEXT	ENDS
PUBLIC	??_GConnectorManager@connector@monitoring@ibmras@@UAEPAXI@Z ; ibmras::monitoring::connector::ConnectorManager::`scalar deleting destructor'
EXTRN	??1ConnectorManager@connector@monitoring@ibmras@@UAE@XZ:PROC ; ibmras::monitoring::connector::ConnectorManager::~ConnectorManager
; Function compile flags: /Odtp
;	COMDAT ??_GConnectorManager@connector@monitoring@ibmras@@UAEPAXI@Z
_TEXT	SEGMENT
_this$ = -4						; size = 4
___flags$ = 8						; size = 4
??_GConnectorManager@connector@monitoring@ibmras@@UAEPAXI@Z PROC ; ibmras::monitoring::connector::ConnectorManager::`scalar deleting destructor', COMDAT
; _this$ = ecx
	push	ebp
	mov	ebp, esp
	push	ecx
	mov	DWORD PTR _this$[ebp], ecx
	mov	ecx, DWORD PTR _this$[ebp]
	call	??1ConnectorManager@connector@monitoring@ibmras@@UAE@XZ ; ibmras::monitoring::connector::ConnectorManager::~ConnectorManager
	mov	eax, DWORD PTR ___flags$[ebp]
	and	eax, 1
	je	SHORT $LN1@scalar@3
	mov	ecx, DWORD PTR _this$[ebp]
	push	ecx
	call	??3@YAXPAX@Z				; operator delete
	add	esp, 4
$LN1@scalar@3:
	mov	eax, DWORD PTR _this$[ebp]
	mov	esp, ebp
	pop	ebp
	ret	4
??_GConnectorManager@connector@monitoring@ibmras@@UAEPAXI@Z ENDP ; ibmras::monitoring::connector::ConnectorManager::`scalar deleting destructor'
_TEXT	ENDS
EXTRN	??_V@YAXPAX@Z:PROC				; operator delete[]
EXTRN	??_M@YGXPAXIHP6EX0@Z@Z:PROC			; `eh vector destructor iterator'
; Function compile flags: /Odtp
;	COMDAT ??_EConnectorManager@connector@monitoring@ibmras@@UAEPAXI@Z
_TEXT	SEGMENT
_this$ = -4						; size = 4
___flags$ = 8						; size = 4
??_EConnectorManager@connector@monitoring@ibmras@@UAEPAXI@Z PROC ; ibmras::monitoring::connector::ConnectorManager::`vector deleting destructor', COMDAT
; _this$ = ecx
	push	ebp
	mov	ebp, esp
	push	ecx
	mov	DWORD PTR _this$[ebp], ecx
	mov	eax, DWORD PTR ___flags$[ebp]
	and	eax, 2
	je	SHORT $LN3@vector
	push	OFFSET ??1ConnectorManager@connector@monitoring@ibmras@@UAE@XZ ; ibmras::monitoring::connector::ConnectorManager::~ConnectorManager
	mov	ecx, DWORD PTR _this$[ebp]
	mov	edx, DWORD PTR [ecx-4]
	push	edx
	push	88					; 00000058H
	mov	eax, DWORD PTR _this$[ebp]
	push	eax
	call	??_M@YGXPAXIHP6EX0@Z@Z
	mov	ecx, DWORD PTR ___flags$[ebp]
	and	ecx, 1
	je	SHORT $LN2@vector
	mov	edx, DWORD PTR _this$[ebp]
	sub	edx, 4
	push	edx
	call	??_V@YAXPAX@Z				; operator delete[]
	add	esp, 4
$LN2@vector:
	mov	eax, DWORD PTR _this$[ebp]
	sub	eax, 4
	jmp	SHORT $LN4@vector
$LN3@vector:
	mov	ecx, DWORD PTR _this$[ebp]
	call	??1ConnectorManager@connector@monitoring@ibmras@@UAE@XZ ; ibmras::monitoring::connector::ConnectorManager::~ConnectorManager
	mov	eax, DWORD PTR ___flags$[ebp]
	and	eax, 1
	je	SHORT $LN1@vector
	mov	ecx, DWORD PTR _this$[ebp]
	push	ecx
	call	??3@YAXPAX@Z				; operator delete
	add	esp, 4
$LN1@vector:
	mov	eax, DWORD PTR _this$[ebp]
$LN4@vector:
	mov	esp, ebp
	pop	ebp
	ret	4
??_EConnectorManager@connector@monitoring@ibmras@@UAEPAXI@Z ENDP ; ibmras::monitoring::connector::ConnectorManager::`vector deleting destructor'
; Function compile flags: /Odtp
_TEXT	ENDS
;	COMDAT ??0Connector@connector@monitoring@ibmras@@QAE@ABV0123@@Z
_TEXT	SEGMENT
_this$ = -4						; size = 4
___that$ = 8						; size = 4
??0Connector@connector@monitoring@ibmras@@QAE@ABV0123@@Z PROC ; ibmras::monitoring::connector::Connector::Connector, COMDAT
; _this$ = ecx
	push	ebp
	mov	ebp, esp
	push	ecx
	mov	DWORD PTR _this$[ebp], ecx
	mov	eax, DWORD PTR _this$[ebp]
	mov	DWORD PTR [eax], OFFSET ??_7Connector@connector@monitoring@ibmras@@6B@
	mov	eax, DWORD PTR _this$[ebp]
	mov	esp, ebp
	pop	ebp
	ret	4
??0Connector@connector@monitoring@ibmras@@QAE@ABV0123@@Z ENDP ; ibmras::monitoring::connector::Connector::Connector
; Function compile flags: /Odtp
_TEXT	ENDS
;	COMDAT ??0Receiver@connector@monitoring@ibmras@@QAE@ABV0123@@Z
_TEXT	SEGMENT
_this$ = -4						; size = 4
___that$ = 8						; size = 4
??0Receiver@connector@monitoring@ibmras@@QAE@ABV0123@@Z PROC ; ibmras::monitoring::connector::Receiver::Receiver, COMDAT
; _this$ = ecx
	push	ebp
	mov	ebp, esp
	push	ecx
	mov	DWORD PTR _this$[ebp], ecx
	mov	eax, DWORD PTR _this$[ebp]
	mov	DWORD PTR [eax], OFFSET ??_7Receiver@connector@monitoring@ibmras@@6B@
	mov	eax, DWORD PTR _this$[ebp]
	mov	esp, ebp
	pop	ebp
	ret	4
??0Receiver@connector@monitoring@ibmras@@QAE@ABV0123@@Z ENDP ; ibmras::monitoring::connector::Receiver::Receiver
_TEXT	ENDS
PUBLIC	??1?$deque@VReceivedMessage@ConnectorManager@connector@monitoring@ibmras@@V?$allocator@VReceivedMessage@ConnectorManager@connector@monitoring@ibmras@@@std@@@std@@QAE@XZ ; std::deque<ibmras::monitoring::connector::ConnectorManager::ReceivedMessage,std::allocator<ibmras::monitoring::connector::ConnectorManager::ReceivedMessage> >::~deque<ibmras::monitoring::connector::ConnectorManager::ReceivedMessage,std::allocator<ibmras::monitoring::connector::ConnectorManager::ReceivedMessage> >
; Function compile flags: /Odtp
;	COMDAT ??1?$queue@VReceivedMessage@ConnectorManager@connector@monitoring@ibmras@@V?$deque@VReceivedMessage@ConnectorManager@connector@monitoring@ibmras@@V?$allocator@VReceivedMessage@ConnectorManager@connector@monitoring@ibmras@@@std@@@std@@@std@@QAE@XZ
_TEXT	SEGMENT
_this$ = -4						; size = 4
??1?$queue@VReceivedMessage@ConnectorManager@connector@monitoring@ibmras@@V?$deque@VReceivedMessage@ConnectorManager@connector@monitoring@ibmras@@V?$allocator@VReceivedMessage@ConnectorManager@connector@monitoring@ibmras@@@std@@@std@@@std@@QAE@XZ PROC ; std::queue<ibmras::monitoring::connector::ConnectorManager::ReceivedMessage,std::deque<ibmras::monitoring::connector::ConnectorManager::ReceivedMessage,std::allocator<ibmras::monitoring::connector::ConnectorManager::ReceivedMessage> > >::~queue<ibmras::monitoring::connector::ConnectorManager::ReceivedMessage,std::deque<ibmras::monitoring::connector::ConnectorManager::ReceivedMessage,std::allocator<ibmras::monitoring::connector::ConnectorManager::ReceivedMessage> > >, COMDAT
; _this$ = ecx
	push	ebp
	mov	ebp, esp
	push	ecx
	mov	DWORD PTR _this$[ebp], ecx
	mov	ecx, DWORD PTR _this$[ebp]
	call	??1?$deque@VReceivedMessage@ConnectorManager@connector@monitoring@ibmras@@V?$allocator@VReceivedMessage@ConnectorManager@connector@monitoring@ibmras@@@std@@@std@@QAE@XZ ; std::deque<ibmras::monitoring::connector::ConnectorManager::ReceivedMessage,std::allocator<ibmras::monitoring::connector::ConnectorManager::ReceivedMessage> >::~deque<ibmras::monitoring::connector::ConnectorManager::ReceivedMessage,std::allocator<ibmras::monitoring::connector::ConnectorManager::ReceivedMessage> >
	mov	esp, ebp
	pop	ebp
	ret	0
??1?$queue@VReceivedMessage@ConnectorManager@connector@monitoring@ibmras@@V?$deque@VReceivedMessage@ConnectorManager@connector@monitoring@ibmras@@V?$allocator@VReceivedMessage@ConnectorManager@connector@monitoring@ibmras@@@std@@@std@@@std@@QAE@XZ ENDP ; std::queue<ibmras::monitoring::connector::ConnectorManager::ReceivedMessage,std::deque<ibmras::monitoring::connector::ConnectorManager::ReceivedMessage,std::allocator<ibmras::monitoring::connector::ConnectorManager::ReceivedMessage> > >::~queue<ibmras::monitoring::connector::ConnectorManager::ReceivedMessage,std::deque<ibmras::monitoring::connector::ConnectorManager::ReceivedMessage,std::allocator<ibmras::monitoring::connector::ConnectorManager::ReceivedMessage> > >
_TEXT	ENDS
PUBLIC	??1?$_Tree@V?$_Tset_traits@PAVConnector@connector@monitoring@ibmras@@U?$less@PAVConnector@connector@monitoring@ibmras@@@std@@V?$allocator@PAVConnector@connector@monitoring@ibmras@@@6@$0A@@std@@@std@@QAE@XZ ; std::_Tree<std::_Tset_traits<ibmras::monitoring::connector::Connector *,std::less<ibmras::monitoring::connector::Connector *>,std::allocator<ibmras::monitoring::connector::Connector *>,0> >::~_Tree<std::_Tset_traits<ibmras::monitoring::connector::Connector *,std::less<ibmras::monitoring::connector::Connector *>,std::allocator<ibmras::monitoring::connector::Connector *>,0> >
; Function compile flags: /Odtp
;	COMDAT ??1?$set@PAVConnector@connector@monitoring@ibmras@@U?$less@PAVConnector@connector@monitoring@ibmras@@@std@@V?$allocator@PAVConnector@connector@monitoring@ibmras@@@6@@std@@QAE@XZ
_TEXT	SEGMENT
_this$ = -4						; size = 4
??1?$set@PAVConnector@connector@monitoring@ibmras@@U?$less@PAVConnector@connector@monitoring@ibmras@@@std@@V?$allocator@PAVConnector@connector@monitoring@ibmras@@@6@@std@@QAE@XZ PROC ; std::set<ibmras::monitoring::connector::Connector *,std::less<ibmras::monitoring::connector::Connector *>,std::allocator<ibmras::monitoring::connector::Connector *> >::~set<ibmras::monitoring::connector::Connector *,std::less<ibmras::monitoring::connector::Connector *>,std::allocator<ibmras::monitoring::connector::Connector *> >, COMDAT
; _this$ = ecx
	push	ebp
	mov	ebp, esp
	push	ecx
	mov	DWORD PTR _this$[ebp], ecx
	mov	ecx, DWORD PTR _this$[ebp]
	call	??1?$_Tree@V?$_Tset_traits@PAVConnector@connector@monitoring@ibmras@@U?$less@PAVConnector@connector@monitoring@ibmras@@@std@@V?$allocator@PAVConnector@connector@monitoring@ibmras@@@6@$0A@@std@@@std@@QAE@XZ ; std::_Tree<std::_Tset_traits<ibmras::monitoring::connector::Connector *,std::less<ibmras::monitoring::connector::Connector *>,std::allocator<ibmras::monitoring::connector::Connector *>,0> >::~_Tree<std::_Tset_traits<ibmras::monitoring::connector::Connector *,std::less<ibmras::monitoring::connector::Connector *>,std::allocator<ibmras::monitoring::connector::Connector *>,0> >
	mov	esp, ebp
	pop	ebp
	ret	0
??1?$set@PAVConnector@connector@monitoring@ibmras@@U?$less@PAVConnector@connector@monitoring@ibmras@@@std@@V?$allocator@PAVConnector@connector@monitoring@ibmras@@@6@@std@@QAE@XZ ENDP ; std::set<ibmras::monitoring::connector::Connector *,std::less<ibmras::monitoring::connector::Connector *>,std::allocator<ibmras::monitoring::connector::Connector *> >::~set<ibmras::monitoring::connector::Connector *,std::less<ibmras::monitoring::connector::Connector *>,std::allocator<ibmras::monitoring::connector::Connector *> >
; Function compile flags: /Odtp
_TEXT	ENDS
;	COMDAT ??4Connector@connector@monitoring@ibmras@@QAEAAV0123@ABV0123@@Z
_TEXT	SEGMENT
_this$ = -4						; size = 4
___that$ = 8						; size = 4
??4Connector@connector@monitoring@ibmras@@QAEAAV0123@ABV0123@@Z PROC ; ibmras::monitoring::connector::Connector::operator=, COMDAT
; _this$ = ecx
	push	ebp
	mov	ebp, esp
	push	ecx
	mov	DWORD PTR _this$[ebp], ecx
	mov	eax, DWORD PTR _this$[ebp]
	mov	esp, ebp
	pop	ebp
	ret	4
??4Connector@connector@monitoring@ibmras@@QAEAAV0123@ABV0123@@Z ENDP ; ibmras::monitoring::connector::Connector::operator=
; Function compile flags: /Odtp
_TEXT	ENDS
;	COMDAT ??4Receiver@connector@monitoring@ibmras@@QAEAAV0123@ABV0123@@Z
_TEXT	SEGMENT
_this$ = -4						; size = 4
___that$ = 8						; size = 4
??4Receiver@connector@monitoring@ibmras@@QAEAAV0123@ABV0123@@Z PROC ; ibmras::monitoring::connector::Receiver::operator=, COMDAT
; _this$ = ecx
	push	ebp
	mov	ebp, esp
	push	ecx
	mov	DWORD PTR _this$[ebp], ecx
	mov	eax, DWORD PTR _this$[ebp]
	mov	esp, ebp
	pop	ebp
	ret	4
??4Receiver@connector@monitoring@ibmras@@QAEAAV0123@ABV0123@@Z ENDP ; ibmras::monitoring::connector::Receiver::operator=
_TEXT	ENDS
PUBLIC	??_7Logger@common@ibmras@@6B@			; ibmras::common::Logger::`vftable'
PUBLIC	??0Logger@common@ibmras@@QAE@ABV012@@Z		; ibmras::common::Logger::Logger
PUBLIC	??_R4Logger@common@ibmras@@6B@			; ibmras::common::Logger::`RTTI Complete Object Locator'
PUBLIC	??_R0?AVLogger@common@ibmras@@@8		; ibmras::common::Logger `RTTI Type Descriptor'
PUBLIC	??_R3Logger@common@ibmras@@8			; ibmras::common::Logger::`RTTI Class Hierarchy Descriptor'
PUBLIC	??_R2Logger@common@ibmras@@8			; ibmras::common::Logger::`RTTI Base Class Array'
PUBLIC	??_R1A@?0A@EA@Logger@common@ibmras@@8		; ibmras::common::Logger::`RTTI Base Class Descriptor at (0,-1,0,64)'
PUBLIC	??_ELogger@common@ibmras@@UAEPAXI@Z		; ibmras::common::Logger::`vector deleting destructor'
;	COMDAT ??_R1A@?0A@EA@Logger@common@ibmras@@8
rdata$r	SEGMENT
??_R1A@?0A@EA@Logger@common@ibmras@@8 DD FLAT:??_R0?AVLogger@common@ibmras@@@8 ; ibmras::common::Logger::`RTTI Base Class Descriptor at (0,-1,0,64)'
	DD	00H
	DD	00H
	DD	0ffffffffH
	DD	00H
	DD	040H
	DD	FLAT:??_R3Logger@common@ibmras@@8
rdata$r	ENDS
;	COMDAT ??_R2Logger@common@ibmras@@8
rdata$r	SEGMENT
??_R2Logger@common@ibmras@@8 DD FLAT:??_R1A@?0A@EA@Logger@common@ibmras@@8 ; ibmras::common::Logger::`RTTI Base Class Array'
rdata$r	ENDS
;	COMDAT ??_R3Logger@common@ibmras@@8
rdata$r	SEGMENT
??_R3Logger@common@ibmras@@8 DD 00H			; ibmras::common::Logger::`RTTI Class Hierarchy Descriptor'
	DD	00H
	DD	01H
	DD	FLAT:??_R2Logger@common@ibmras@@8
rdata$r	ENDS
;	COMDAT ??_R0?AVLogger@common@ibmras@@@8
_DATA	SEGMENT
??_R0?AVLogger@common@ibmras@@@8 DD FLAT:??_7type_info@@6B@ ; ibmras::common::Logger `RTTI Type Descriptor'
	DD	00H
	DB	'.?AVLogger@common@ibmras@@', 00H
_DATA	ENDS
;	COMDAT ??_R4Logger@common@ibmras@@6B@
rdata$r	SEGMENT
??_R4Logger@common@ibmras@@6B@ DD 00H			; ibmras::common::Logger::`RTTI Complete Object Locator'
	DD	00H
	DD	00H
	DD	FLAT:??_R0?AVLogger@common@ibmras@@@8
	DD	FLAT:??_R3Logger@common@ibmras@@8
rdata$r	ENDS
;	COMDAT ??_7Logger@common@ibmras@@6B@
CONST	SEGMENT
??_7Logger@common@ibmras@@6B@ DD FLAT:??_R4Logger@common@ibmras@@6B@ ; ibmras::common::Logger::`vftable'
	DD	FLAT:??_ELogger@common@ibmras@@UAEPAXI@Z
; Function compile flags: /Odtp
CONST	ENDS
;	COMDAT ??0Logger@common@ibmras@@QAE@ABV012@@Z
_TEXT	SEGMENT
_this$ = -4						; size = 4
___that$ = 8						; size = 4
??0Logger@common@ibmras@@QAE@ABV012@@Z PROC		; ibmras::common::Logger::Logger, COMDAT
; _this$ = ecx
	push	ebp
	mov	ebp, esp
	push	ecx
	mov	DWORD PTR _this$[ebp], ecx
	mov	eax, DWORD PTR _this$[ebp]
	mov	DWORD PTR [eax], OFFSET ??_7Logger@common@ibmras@@6B@
	mov	ecx, DWORD PTR _this$[ebp]
	mov	edx, DWORD PTR ___that$[ebp]
	mov	eax, DWORD PTR [edx+4]
	mov	DWORD PTR [ecx+4], eax
	mov	ecx, DWORD PTR _this$[ebp]
	mov	edx, DWORD PTR ___that$[ebp]
	mov	eax, DWORD PTR [edx+8]
	mov	DWORD PTR [ecx+8], eax
	mov	ecx, DWORD PTR ___that$[ebp]
	add	ecx, 12					; 0000000cH
	push	ecx
	mov	ecx, DWORD PTR _this$[ebp]
	add	ecx, 12					; 0000000cH
	call	??0?$basic_string@DU?$char_traits@D@std@@V?$allocator@D@2@@std@@QAE@ABV01@@Z ; std::basic_string<char,std::char_traits<char>,std::allocator<char> >::basic_string<char,std::char_traits<char>,std::allocator<char> >
	mov	edx, DWORD PTR _this$[ebp]
	mov	eax, DWORD PTR ___that$[ebp]
	mov	ecx, DWORD PTR [eax+40]
	mov	DWORD PTR [edx+40], ecx
	mov	eax, DWORD PTR _this$[ebp]
	mov	esp, ebp
	pop	ebp
	ret	4
??0Logger@common@ibmras@@QAE@ABV012@@Z ENDP		; ibmras::common::Logger::Logger
_TEXT	ENDS
PUBLIC	??4Logger@common@ibmras@@QAEAAV012@ABV012@@Z	; ibmras::common::Logger::operator=
; Function compile flags: /Odtp
;	COMDAT ??4Logger@common@ibmras@@QAEAAV012@ABV012@@Z
_TEXT	SEGMENT
_this$ = -4						; size = 4
___that$ = 8						; size = 4
??4Logger@common@ibmras@@QAEAAV012@ABV012@@Z PROC	; ibmras::common::Logger::operator=, COMDAT
; _this$ = ecx
	push	ebp
	mov	ebp, esp
	push	ecx
	mov	DWORD PTR _this$[ebp], ecx
	mov	eax, DWORD PTR _this$[ebp]
	mov	ecx, DWORD PTR ___that$[ebp]
	mov	edx, DWORD PTR [ecx+4]
	mov	DWORD PTR [eax+4], edx
	mov	eax, DWORD PTR _this$[ebp]
	mov	ecx, DWORD PTR ___that$[ebp]
	mov	edx, DWORD PTR [ecx+8]
	mov	DWORD PTR [eax+8], edx
	mov	eax, DWORD PTR ___that$[ebp]
	add	eax, 12					; 0000000cH
	push	eax
	mov	ecx, DWORD PTR _this$[ebp]
	add	ecx, 12					; 0000000cH
	call	??4?$basic_string@DU?$char_traits@D@std@@V?$allocator@D@2@@std@@QAEAAV01@ABV01@@Z ; std::basic_string<char,std::char_traits<char>,std::allocator<char> >::operator=
	mov	ecx, DWORD PTR _this$[ebp]
	mov	edx, DWORD PTR ___that$[ebp]
	mov	eax, DWORD PTR [edx+40]
	mov	DWORD PTR [ecx+40], eax
	mov	eax, DWORD PTR _this$[ebp]
	mov	esp, ebp
	pop	ebp
	ret	4
??4Logger@common@ibmras@@QAEAAV012@ABV012@@Z ENDP	; ibmras::common::Logger::operator=
_TEXT	ENDS
PUBLIC	??_GLogger@common@ibmras@@UAEPAXI@Z		; ibmras::common::Logger::`scalar deleting destructor'
EXTRN	??1Logger@common@ibmras@@UAE@XZ:PROC		; ibmras::common::Logger::~Logger
; Function compile flags: /Odtp
;	COMDAT ??_GLogger@common@ibmras@@UAEPAXI@Z
_TEXT	SEGMENT
_this$ = -4						; size = 4
___flags$ = 8						; size = 4
??_GLogger@common@ibmras@@UAEPAXI@Z PROC		; ibmras::common::Logger::`scalar deleting destructor', COMDAT
; _this$ = ecx
	push	ebp
	mov	ebp, esp
	push	ecx
	mov	DWORD PTR _this$[ebp], ecx
	mov	ecx, DWORD PTR _this$[ebp]
	call	??1Logger@common@ibmras@@UAE@XZ		; ibmras::common::Logger::~Logger
	mov	eax, DWORD PTR ___flags$[ebp]
	and	eax, 1
	je	SHORT $LN1@scalar@4
	mov	ecx, DWORD PTR _this$[ebp]
	push	ecx
	call	??3@YAXPAX@Z				; operator delete
	add	esp, 4
$LN1@scalar@4:
	mov	eax, DWORD PTR _this$[ebp]
	mov	esp, ebp
	pop	ebp
	ret	4
??_GLogger@common@ibmras@@UAEPAXI@Z ENDP		; ibmras::common::Logger::`scalar deleting destructor'
; Function compile flags: /Odtp
_TEXT	ENDS
;	COMDAT ??_ELogger@common@ibmras@@UAEPAXI@Z
_TEXT	SEGMENT
_this$ = -4						; size = 4
___flags$ = 8						; size = 4
??_ELogger@common@ibmras@@UAEPAXI@Z PROC		; ibmras::common::Logger::`vector deleting destructor', COMDAT
; _this$ = ecx
	push	ebp
	mov	ebp, esp
	push	ecx
	mov	DWORD PTR _this$[ebp], ecx
	mov	eax, DWORD PTR ___flags$[ebp]
	and	eax, 2
	je	SHORT $LN3@vector@2
	push	OFFSET ??1Logger@common@ibmras@@UAE@XZ	; ibmras::common::Logger::~Logger
	mov	ecx, DWORD PTR _this$[ebp]
	mov	edx, DWORD PTR [ecx-4]
	push	edx
	push	44					; 0000002cH
	mov	eax, DWORD PTR _this$[ebp]
	push	eax
	call	??_M@YGXPAXIHP6EX0@Z@Z
	mov	ecx, DWORD PTR ___flags$[ebp]
	and	ecx, 1
	je	SHORT $LN2@vector@2
	mov	edx, DWORD PTR _this$[ebp]
	sub	edx, 4
	push	edx
	call	??_V@YAXPAX@Z				; operator delete[]
	add	esp, 4
$LN2@vector@2:
	mov	eax, DWORD PTR _this$[ebp]
	sub	eax, 4
	jmp	SHORT $LN4@vector@2
$LN3@vector@2:
	mov	ecx, DWORD PTR _this$[ebp]
	call	??1Logger@common@ibmras@@UAE@XZ		; ibmras::common::Logger::~Logger
	mov	eax, DWORD PTR ___flags$[ebp]
	and	eax, 1
	je	SHORT $LN1@vector@2
	mov	ecx, DWORD PTR _this$[ebp]
	push	ecx
	call	??3@YAXPAX@Z				; operator delete
	add	esp, 4
$LN1@vector@2:
	mov	eax, DWORD PTR _this$[ebp]
$LN4@vector@2:
	mov	esp, ebp
	pop	ebp
	ret	4
??_ELogger@common@ibmras@@UAEPAXI@Z ENDP		; ibmras::common::Logger::`vector deleting destructor'
_TEXT	ENDS
PUBLIC	??1?$vector@PAVLogger@common@ibmras@@V?$allocator@PAVLogger@common@ibmras@@@std@@@std@@QAE@XZ ; std::vector<ibmras::common::Logger *,std::allocator<ibmras::common::Logger *> >::~vector<ibmras::common::Logger *,std::allocator<ibmras::common::Logger *> >
PUBLIC	??1LogManager@common@ibmras@@QAE@XZ		; ibmras::common::LogManager::~LogManager
; Function compile flags: /Odtp
;	COMDAT ??1LogManager@common@ibmras@@QAE@XZ
_TEXT	SEGMENT
_this$ = -4						; size = 4
??1LogManager@common@ibmras@@QAE@XZ PROC		; ibmras::common::LogManager::~LogManager, COMDAT
; _this$ = ecx
	push	ebp
	mov	ebp, esp
	push	ecx
	mov	DWORD PTR _this$[ebp], ecx
	mov	ecx, DWORD PTR _this$[ebp]
	add	ecx, 8
	call	??1?$vector@PAVLogger@common@ibmras@@V?$allocator@PAVLogger@common@ibmras@@@std@@@std@@QAE@XZ ; std::vector<ibmras::common::Logger *,std::allocator<ibmras::common::Logger *> >::~vector<ibmras::common::Logger *,std::allocator<ibmras::common::Logger *> >
	mov	esp, ebp
	pop	ebp
	ret	0
??1LogManager@common@ibmras@@QAE@XZ ENDP		; ibmras::common::LogManager::~LogManager
_TEXT	ENDS
PUBLIC	??0?$vector@PAVLogger@common@ibmras@@V?$allocator@PAVLogger@common@ibmras@@@std@@@std@@QAE@ABV01@@Z ; std::vector<ibmras::common::Logger *,std::allocator<ibmras::common::Logger *> >::vector<ibmras::common::Logger *,std::allocator<ibmras::common::Logger *> >
PUBLIC	??0LogManager@common@ibmras@@QAE@ABV012@@Z	; ibmras::common::LogManager::LogManager
; Function compile flags: /Odtp
;	COMDAT ??0LogManager@common@ibmras@@QAE@ABV012@@Z
_TEXT	SEGMENT
_this$ = -4						; size = 4
___that$ = 8						; size = 4
??0LogManager@common@ibmras@@QAE@ABV012@@Z PROC		; ibmras::common::LogManager::LogManager, COMDAT
; _this$ = ecx
	push	ebp
	mov	ebp, esp
	push	ecx
	mov	DWORD PTR _this$[ebp], ecx
	mov	eax, DWORD PTR _this$[ebp]
	mov	ecx, DWORD PTR ___that$[ebp]
	mov	edx, DWORD PTR [ecx]
	mov	DWORD PTR [eax], edx
	mov	eax, DWORD PTR _this$[ebp]
	mov	ecx, DWORD PTR ___that$[ebp]
	mov	dl, BYTE PTR [ecx+4]
	mov	BYTE PTR [eax+4], dl
	mov	eax, DWORD PTR ___that$[ebp]
	add	eax, 8
	push	eax
	mov	ecx, DWORD PTR _this$[ebp]
	add	ecx, 8
	call	??0?$vector@PAVLogger@common@ibmras@@V?$allocator@PAVLogger@common@ibmras@@@std@@@std@@QAE@ABV01@@Z ; std::vector<ibmras::common::Logger *,std::allocator<ibmras::common::Logger *> >::vector<ibmras::common::Logger *,std::allocator<ibmras::common::Logger *> >
	mov	ecx, DWORD PTR _this$[ebp]
	mov	edx, DWORD PTR ___that$[ebp]
	mov	eax, DWORD PTR [edx+24]
	mov	DWORD PTR [ecx+24], eax
	mov	eax, DWORD PTR _this$[ebp]
	mov	esp, ebp
	pop	ebp
	ret	4
??0LogManager@common@ibmras@@QAE@ABV012@@Z ENDP		; ibmras::common::LogManager::LogManager
_TEXT	ENDS
PUBLIC	??4?$vector@PAVLogger@common@ibmras@@V?$allocator@PAVLogger@common@ibmras@@@std@@@std@@QAEAAV01@ABV01@@Z ; std::vector<ibmras::common::Logger *,std::allocator<ibmras::common::Logger *> >::operator=
PUBLIC	??4LogManager@common@ibmras@@QAEAAV012@ABV012@@Z ; ibmras::common::LogManager::operator=
; Function compile flags: /Odtp
;	COMDAT ??4LogManager@common@ibmras@@QAEAAV012@ABV012@@Z
_TEXT	SEGMENT
_this$ = -4						; size = 4
___that$ = 8						; size = 4
??4LogManager@common@ibmras@@QAEAAV012@ABV012@@Z PROC	; ibmras::common::LogManager::operator=, COMDAT
; _this$ = ecx
	push	ebp
	mov	ebp, esp
	push	ecx
	mov	DWORD PTR _this$[ebp], ecx
	mov	eax, DWORD PTR _this$[ebp]
	mov	ecx, DWORD PTR ___that$[ebp]
	mov	edx, DWORD PTR [ecx]
	mov	DWORD PTR [eax], edx
	mov	eax, DWORD PTR _this$[ebp]
	mov	ecx, DWORD PTR ___that$[ebp]
	mov	dl, BYTE PTR [ecx+4]
	mov	BYTE PTR [eax+4], dl
	mov	eax, DWORD PTR ___that$[ebp]
	add	eax, 8
	push	eax
	mov	ecx, DWORD PTR _this$[ebp]
	add	ecx, 8
	call	??4?$vector@PAVLogger@common@ibmras@@V?$allocator@PAVLogger@common@ibmras@@@std@@@std@@QAEAAV01@ABV01@@Z ; std::vector<ibmras::common::Logger *,std::allocator<ibmras::common::Logger *> >::operator=
	mov	ecx, DWORD PTR _this$[ebp]
	mov	edx, DWORD PTR ___that$[ebp]
	mov	eax, DWORD PTR [edx+24]
	mov	DWORD PTR [ecx+24], eax
	mov	eax, DWORD PTR _this$[ebp]
	mov	esp, ebp
	pop	ebp
	ret	4
??4LogManager@common@ibmras@@QAEAAV012@ABV012@@Z ENDP	; ibmras::common::LogManager::operator=
_TEXT	ENDS
PUBLIC	??1?$map@V?$basic_string@DU?$char_traits@D@std@@V?$allocator@D@2@@std@@V12@U?$less@V?$basic_string@DU?$char_traits@D@std@@V?$allocator@D@2@@std@@@2@V?$allocator@U?$pair@$$CBV?$basic_string@DU?$char_traits@D@std@@V?$allocator@D@2@@std@@V12@@std@@@2@@std@@QAE@XZ ; std::map<std::basic_string<char,std::char_traits<char>,std::allocator<char> >,std::basic_string<char,std::char_traits<char>,std::allocator<char> >,std::less<std::basic_string<char,std::char_traits<char>,std::allocator<char> > >,std::allocator<std::pair<std::basic_string<char,std::char_traits<char>,std::allocator<char> > const ,std::basic_string<char,std::char_traits<char>,std::allocator<char> > > > >::~map<std::basic_string<char,std::char_traits<char>,std::allocator<char> >,std::basic_string<char,std::char_traits<char>,std::allocator<char> >,std::less<std::basic_string<char,std::char_traits<char>,std::allocator<char> > >,std::allocator<std::pair<std::basic_string<char,std::char_traits<char>,std::allocator<char> > const ,std::basic_string<char,std::char_traits<char>,std::allocator<char> > > > >
PUBLIC	??_7Properties@common@ibmras@@6B@		; ibmras::common::Properties::`vftable'
PUBLIC	??1Properties@common@ibmras@@UAE@XZ		; ibmras::common::Properties::~Properties
PUBLIC	??_R4Properties@common@ibmras@@6B@		; ibmras::common::Properties::`RTTI Complete Object Locator'
PUBLIC	??_R0?AVProperties@common@ibmras@@@8		; ibmras::common::Properties `RTTI Type Descriptor'
PUBLIC	??_R3Properties@common@ibmras@@8		; ibmras::common::Properties::`RTTI Class Hierarchy Descriptor'
PUBLIC	??_R2Properties@common@ibmras@@8		; ibmras::common::Properties::`RTTI Base Class Array'
PUBLIC	??_R1A@?0A@EA@Properties@common@ibmras@@8	; ibmras::common::Properties::`RTTI Base Class Descriptor at (0,-1,0,64)'
PUBLIC	??_EProperties@common@ibmras@@UAEPAXI@Z		; ibmras::common::Properties::`vector deleting destructor'
EXTRN	?get@Properties@common@ibmras@@UAE?AV?$basic_string@DU?$char_traits@D@std@@V?$allocator@D@2@@std@@ABV45@0@Z:PROC ; ibmras::common::Properties::get
EXTRN	?exists@Properties@common@ibmras@@UAE_NABV?$basic_string@DU?$char_traits@D@std@@V?$allocator@D@2@@std@@@Z:PROC ; ibmras::common::Properties::exists
EXTRN	?put@Properties@common@ibmras@@UAEXABV?$basic_string@DU?$char_traits@D@std@@V?$allocator@D@2@@std@@0@Z:PROC ; ibmras::common::Properties::put
EXTRN	?add@Properties@common@ibmras@@UAEXABV?$basic_string@DU?$char_traits@D@std@@V?$allocator@D@2@@std@@@Z:PROC ; ibmras::common::Properties::add
EXTRN	?add@Properties@common@ibmras@@UAEXABV123@@Z:PROC ; ibmras::common::Properties::add
EXTRN	?getKeys@Properties@common@ibmras@@UAE?AV?$list@V?$basic_string@DU?$char_traits@D@std@@V?$allocator@D@2@@std@@V?$allocator@V?$basic_string@DU?$char_traits@D@std@@V?$allocator@D@2@@std@@@2@@std@@ABV?$basic_string@DU?$char_traits@D@std@@V?$allocator@D@2@@5@@Z:PROC ; ibmras::common::Properties::getKeys
EXTRN	?toString@Properties@common@ibmras@@UAE?AV?$basic_string@DU?$char_traits@D@std@@V?$allocator@D@2@@std@@XZ:PROC ; ibmras::common::Properties::toString
;	COMDAT ??_R1A@?0A@EA@Properties@common@ibmras@@8
; File c:\workspaces\newagent2\runtime.tools\src\ibmras\common\properties.h
rdata$r	SEGMENT
??_R1A@?0A@EA@Properties@common@ibmras@@8 DD FLAT:??_R0?AVProperties@common@ibmras@@@8 ; ibmras::common::Properties::`RTTI Base Class Descriptor at (0,-1,0,64)'
	DD	00H
	DD	00H
	DD	0ffffffffH
	DD	00H
	DD	040H
	DD	FLAT:??_R3Properties@common@ibmras@@8
rdata$r	ENDS
;	COMDAT ??_R2Properties@common@ibmras@@8
rdata$r	SEGMENT
??_R2Properties@common@ibmras@@8 DD FLAT:??_R1A@?0A@EA@Properties@common@ibmras@@8 ; ibmras::common::Properties::`RTTI Base Class Array'
rdata$r	ENDS
;	COMDAT ??_R3Properties@common@ibmras@@8
rdata$r	SEGMENT
??_R3Properties@common@ibmras@@8 DD 00H			; ibmras::common::Properties::`RTTI Class Hierarchy Descriptor'
	DD	00H
	DD	01H
	DD	FLAT:??_R2Properties@common@ibmras@@8
rdata$r	ENDS
;	COMDAT ??_R0?AVProperties@common@ibmras@@@8
_DATA	SEGMENT
??_R0?AVProperties@common@ibmras@@@8 DD FLAT:??_7type_info@@6B@ ; ibmras::common::Properties `RTTI Type Descriptor'
	DD	00H
	DB	'.?AVProperties@common@ibmras@@', 00H
_DATA	ENDS
;	COMDAT ??_R4Properties@common@ibmras@@6B@
rdata$r	SEGMENT
??_R4Properties@common@ibmras@@6B@ DD 00H		; ibmras::common::Properties::`RTTI Complete Object Locator'
	DD	00H
	DD	00H
	DD	FLAT:??_R0?AVProperties@common@ibmras@@@8
	DD	FLAT:??_R3Properties@common@ibmras@@8
rdata$r	ENDS
;	COMDAT ??_7Properties@common@ibmras@@6B@
CONST	SEGMENT
??_7Properties@common@ibmras@@6B@ DD FLAT:??_R4Properties@common@ibmras@@6B@ ; ibmras::common::Properties::`vftable'
	DD	FLAT:?get@Properties@common@ibmras@@UAE?AV?$basic_string@DU?$char_traits@D@std@@V?$allocator@D@2@@std@@ABV45@0@Z
	DD	FLAT:?exists@Properties@common@ibmras@@UAE_NABV?$basic_string@DU?$char_traits@D@std@@V?$allocator@D@2@@std@@@Z
	DD	FLAT:?put@Properties@common@ibmras@@UAEXABV?$basic_string@DU?$char_traits@D@std@@V?$allocator@D@2@@std@@0@Z
	DD	FLAT:?add@Properties@common@ibmras@@UAEXABV?$basic_string@DU?$char_traits@D@std@@V?$allocator@D@2@@std@@@Z
	DD	FLAT:?add@Properties@common@ibmras@@UAEXABV123@@Z
	DD	FLAT:?getKeys@Properties@common@ibmras@@UAE?AV?$list@V?$basic_string@DU?$char_traits@D@std@@V?$allocator@D@2@@std@@V?$allocator@V?$basic_string@DU?$char_traits@D@std@@V?$allocator@D@2@@std@@@2@@std@@ABV?$basic_string@DU?$char_traits@D@std@@V?$allocator@D@2@@5@@Z
	DD	FLAT:?toString@Properties@common@ibmras@@UAE?AV?$basic_string@DU?$char_traits@D@std@@V?$allocator@D@2@@std@@XZ
	DD	FLAT:??_EProperties@common@ibmras@@UAEPAXI@Z
; Function compile flags: /Odtp
CONST	ENDS
;	COMDAT ??1Properties@common@ibmras@@UAE@XZ
_TEXT	SEGMENT
_this$ = -4						; size = 4
??1Properties@common@ibmras@@UAE@XZ PROC		; ibmras::common::Properties::~Properties, COMDAT
; _this$ = ecx
; Line 34
	push	ebp
	mov	ebp, esp
	push	ecx
	mov	DWORD PTR _this$[ebp], ecx
	mov	eax, DWORD PTR _this$[ebp]
	mov	DWORD PTR [eax], OFFSET ??_7Properties@common@ibmras@@6B@
	mov	ecx, DWORD PTR _this$[ebp]
	add	ecx, 4
	call	??1?$map@V?$basic_string@DU?$char_traits@D@std@@V?$allocator@D@2@@std@@V12@U?$less@V?$basic_string@DU?$char_traits@D@std@@V?$allocator@D@2@@std@@@2@V?$allocator@U?$pair@$$CBV?$basic_string@DU?$char_traits@D@std@@V?$allocator@D@2@@std@@V12@@std@@@2@@std@@QAE@XZ
	mov	esp, ebp
	pop	ebp
	ret	0
??1Properties@common@ibmras@@UAE@XZ ENDP		; ibmras::common::Properties::~Properties
_TEXT	ENDS
PUBLIC	??0?$map@V?$basic_string@DU?$char_traits@D@std@@V?$allocator@D@2@@std@@V12@U?$less@V?$basic_string@DU?$char_traits@D@std@@V?$allocator@D@2@@std@@@2@V?$allocator@U?$pair@$$CBV?$basic_string@DU?$char_traits@D@std@@V?$allocator@D@2@@std@@V12@@std@@@2@@std@@QAE@XZ ; std::map<std::basic_string<char,std::char_traits<char>,std::allocator<char> >,std::basic_string<char,std::char_traits<char>,std::allocator<char> >,std::less<std::basic_string<char,std::char_traits<char>,std::allocator<char> > >,std::allocator<std::pair<std::basic_string<char,std::char_traits<char>,std::allocator<char> > const ,std::basic_string<char,std::char_traits<char>,std::allocator<char> > > > >::map<std::basic_string<char,std::char_traits<char>,std::allocator<char> >,std::basic_string<char,std::char_traits<char>,std::allocator<char> >,std::less<std::basic_string<char,std::char_traits<char>,std::allocator<char> > >,std::allocator<std::pair<std::basic_string<char,std::char_traits<char>,std::allocator<char> > const ,std::basic_string<char,std::char_traits<char>,std::allocator<char> > > > >
PUBLIC	??0Properties@common@ibmras@@QAE@XZ		; ibmras::common::Properties::Properties
; Function compile flags: /Odtp
;	COMDAT ??0Properties@common@ibmras@@QAE@XZ
_TEXT	SEGMENT
_this$ = -4						; size = 4
??0Properties@common@ibmras@@QAE@XZ PROC		; ibmras::common::Properties::Properties, COMDAT
; _this$ = ecx
	push	ebp
	mov	ebp, esp
	push	ecx
	mov	DWORD PTR _this$[ebp], ecx
	mov	eax, DWORD PTR _this$[ebp]
	mov	DWORD PTR [eax], OFFSET ??_7Properties@common@ibmras@@6B@
	mov	ecx, DWORD PTR _this$[ebp]
	add	ecx, 4
	call	??0?$map@V?$basic_string@DU?$char_traits@D@std@@V?$allocator@D@2@@std@@V12@U?$less@V?$basic_string@DU?$char_traits@D@std@@V?$allocator@D@2@@std@@@2@V?$allocator@U?$pair@$$CBV?$basic_string@DU?$char_traits@D@std@@V?$allocator@D@2@@std@@V12@@std@@@2@@std@@QAE@XZ ; std::map<std::basic_string<char,std::char_traits<char>,std::allocator<char> >,std::basic_string<char,std::char_traits<char>,std::allocator<char> >,std::less<std::basic_string<char,std::char_traits<char>,std::allocator<char> > >,std::allocator<std::pair<std::basic_string<char,std::char_traits<char>,std::allocator<char> > const ,std::basic_string<char,std::char_traits<char>,std::allocator<char> > > > >::map<std::basic_string<char,std::char_traits<char>,std::allocator<char> >,std::basic_string<char,std::char_traits<char>,std::allocator<char> >,std::less<std::basic_string<char,std::char_traits<char>,std::allocator<char> > >,std::allocator<std::pair<std::basic_string<char,std::char_traits<char>,std::allocator<char> > const ,std::basic_string<char,std::char_traits<char>,std::allocator<char> > > > >
	mov	eax, DWORD PTR _this$[ebp]
	mov	esp, ebp
	pop	ebp
	ret	0
??0Properties@common@ibmras@@QAE@XZ ENDP		; ibmras::common::Properties::Properties
_TEXT	ENDS
PUBLIC	??0?$map@V?$basic_string@DU?$char_traits@D@std@@V?$allocator@D@2@@std@@V12@U?$less@V?$basic_string@DU?$char_traits@D@std@@V?$allocator@D@2@@std@@@2@V?$allocator@U?$pair@$$CBV?$basic_string@DU?$char_traits@D@std@@V?$allocator@D@2@@std@@V12@@std@@@2@@std@@QAE@ABV01@@Z ; std::map<std::basic_string<char,std::char_traits<char>,std::allocator<char> >,std::basic_string<char,std::char_traits<char>,std::allocator<char> >,std::less<std::basic_string<char,std::char_traits<char>,std::allocator<char> > >,std::allocator<std::pair<std::basic_string<char,std::char_traits<char>,std::allocator<char> > const ,std::basic_string<char,std::char_traits<char>,std::allocator<char> > > > >::map<std::basic_string<char,std::char_traits<char>,std::allocator<char> >,std::basic_string<char,std::char_traits<char>,std::allocator<char> >,std::less<std::basic_string<char,std::char_traits<char>,std::allocator<char> > >,std::allocator<std::pair<std::basic_string<char,std::char_traits<char>,std::allocator<char> > const ,std::basic_string<char,std::char_traits<char>,std::allocator<char> > > > >
PUBLIC	??0Properties@common@ibmras@@QAE@ABV012@@Z	; ibmras::common::Properties::Properties
; Function compile flags: /Odtp
;	COMDAT ??0Properties@common@ibmras@@QAE@ABV012@@Z
_TEXT	SEGMENT
_this$ = -4						; size = 4
___that$ = 8						; size = 4
??0Properties@common@ibmras@@QAE@ABV012@@Z PROC		; ibmras::common::Properties::Properties, COMDAT
; _this$ = ecx
	push	ebp
	mov	ebp, esp
	push	ecx
	mov	DWORD PTR _this$[ebp], ecx
	mov	eax, DWORD PTR _this$[ebp]
	mov	DWORD PTR [eax], OFFSET ??_7Properties@common@ibmras@@6B@
	mov	ecx, DWORD PTR ___that$[ebp]
	add	ecx, 4
	push	ecx
	mov	ecx, DWORD PTR _this$[ebp]
	add	ecx, 4
	call	??0?$map@V?$basic_string@DU?$char_traits@D@std@@V?$allocator@D@2@@std@@V12@U?$less@V?$basic_string@DU?$char_traits@D@std@@V?$allocator@D@2@@std@@@2@V?$allocator@U?$pair@$$CBV?$basic_string@DU?$char_traits@D@std@@V?$allocator@D@2@@std@@V12@@std@@@2@@std@@QAE@ABV01@@Z ; std::map<std::basic_string<char,std::char_traits<char>,std::allocator<char> >,std::basic_string<char,std::char_traits<char>,std::allocator<char> >,std::less<std::basic_string<char,std::char_traits<char>,std::allocator<char> > >,std::allocator<std::pair<std::basic_string<char,std::char_traits<char>,std::allocator<char> > const ,std::basic_string<char,std::char_traits<char>,std::allocator<char> > > > >::map<std::basic_string<char,std::char_traits<char>,std::allocator<char> >,std::basic_string<char,std::char_traits<char>,std::allocator<char> >,std::less<std::basic_string<char,std::char_traits<char>,std::allocator<char> > >,std::allocator<std::pair<std::basic_string<char,std::char_traits<char>,std::allocator<char> > const ,std::basic_string<char,std::char_traits<char>,std::allocator<char> > > > >
	mov	eax, DWORD PTR _this$[ebp]
	mov	esp, ebp
	pop	ebp
	ret	4
??0Properties@common@ibmras@@QAE@ABV012@@Z ENDP		; ibmras::common::Properties::Properties
_TEXT	ENDS
PUBLIC	??4?$map@V?$basic_string@DU?$char_traits@D@std@@V?$allocator@D@2@@std@@V12@U?$less@V?$basic_string@DU?$char_traits@D@std@@V?$allocator@D@2@@std@@@2@V?$allocator@U?$pair@$$CBV?$basic_string@DU?$char_traits@D@std@@V?$allocator@D@2@@std@@V12@@std@@@2@@std@@QAEAAV01@ABV01@@Z ; std::map<std::basic_string<char,std::char_traits<char>,std::allocator<char> >,std::basic_string<char,std::char_traits<char>,std::allocator<char> >,std::less<std::basic_string<char,std::char_traits<char>,std::allocator<char> > >,std::allocator<std::pair<std::basic_string<char,std::char_traits<char>,std::allocator<char> > const ,std::basic_string<char,std::char_traits<char>,std::allocator<char> > > > >::operator=
PUBLIC	??4Properties@common@ibmras@@QAEAAV012@ABV012@@Z ; ibmras::common::Properties::operator=
; Function compile flags: /Odtp
;	COMDAT ??4Properties@common@ibmras@@QAEAAV012@ABV012@@Z
_TEXT	SEGMENT
_this$ = -4						; size = 4
___that$ = 8						; size = 4
??4Properties@common@ibmras@@QAEAAV012@ABV012@@Z PROC	; ibmras::common::Properties::operator=, COMDAT
; _this$ = ecx
	push	ebp
	mov	ebp, esp
	push	ecx
	mov	DWORD PTR _this$[ebp], ecx
	mov	eax, DWORD PTR ___that$[ebp]
	add	eax, 4
	push	eax
	mov	ecx, DWORD PTR _this$[ebp]
	add	ecx, 4
	call	??4?$map@V?$basic_string@DU?$char_traits@D@std@@V?$allocator@D@2@@std@@V12@U?$less@V?$basic_string@DU?$char_traits@D@std@@V?$allocator@D@2@@std@@@2@V?$allocator@U?$pair@$$CBV?$basic_string@DU?$char_traits@D@std@@V?$allocator@D@2@@std@@V12@@std@@@2@@std@@QAEAAV01@ABV01@@Z ; std::map<std::basic_string<char,std::char_traits<char>,std::allocator<char> >,std::basic_string<char,std::char_traits<char>,std::allocator<char> >,std::less<std::basic_string<char,std::char_traits<char>,std::allocator<char> > >,std::allocator<std::pair<std::basic_string<char,std::char_traits<char>,std::allocator<char> > const ,std::basic_string<char,std::char_traits<char>,std::allocator<char> > > > >::operator=
	mov	eax, DWORD PTR _this$[ebp]
	mov	esp, ebp
	pop	ebp
	ret	4
??4Properties@common@ibmras@@QAEAAV012@ABV012@@Z ENDP	; ibmras::common::Properties::operator=
_TEXT	ENDS
PUBLIC	??_GProperties@common@ibmras@@UAEPAXI@Z		; ibmras::common::Properties::`scalar deleting destructor'
; Function compile flags: /Odtp
;	COMDAT ??_GProperties@common@ibmras@@UAEPAXI@Z
_TEXT	SEGMENT
_this$ = -4						; size = 4
___flags$ = 8						; size = 4
??_GProperties@common@ibmras@@UAEPAXI@Z PROC		; ibmras::common::Properties::`scalar deleting destructor', COMDAT
; _this$ = ecx
	push	ebp
	mov	ebp, esp
	push	ecx
	mov	DWORD PTR _this$[ebp], ecx
	mov	ecx, DWORD PTR _this$[ebp]
	call	??1Properties@common@ibmras@@UAE@XZ	; ibmras::common::Properties::~Properties
	mov	eax, DWORD PTR ___flags$[ebp]
	and	eax, 1
	je	SHORT $LN1@scalar@5
	mov	ecx, DWORD PTR _this$[ebp]
	push	ecx
	call	??3@YAXPAX@Z				; operator delete
	add	esp, 4
$LN1@scalar@5:
	mov	eax, DWORD PTR _this$[ebp]
	mov	esp, ebp
	pop	ebp
	ret	4
??_GProperties@common@ibmras@@UAEPAXI@Z ENDP		; ibmras::common::Properties::`scalar deleting destructor'
; Function compile flags: /Odtp
_TEXT	ENDS
;	COMDAT ??_EProperties@common@ibmras@@UAEPAXI@Z
_TEXT	SEGMENT
_this$ = -4						; size = 4
___flags$ = 8						; size = 4
??_EProperties@common@ibmras@@UAEPAXI@Z PROC		; ibmras::common::Properties::`vector deleting destructor', COMDAT
; _this$ = ecx
	push	ebp
	mov	ebp, esp
	push	ecx
	mov	DWORD PTR _this$[ebp], ecx
	mov	eax, DWORD PTR ___flags$[ebp]
	and	eax, 2
	je	SHORT $LN3@vector@3
	push	OFFSET ??1Properties@common@ibmras@@UAE@XZ ; ibmras::common::Properties::~Properties
	mov	ecx, DWORD PTR _this$[ebp]
	mov	edx, DWORD PTR [ecx-4]
	push	edx
	push	20					; 00000014H
	mov	eax, DWORD PTR _this$[ebp]
	push	eax
	call	??_M@YGXPAXIHP6EX0@Z@Z
	mov	ecx, DWORD PTR ___flags$[ebp]
	and	ecx, 1
	je	SHORT $LN2@vector@3
	mov	edx, DWORD PTR _this$[ebp]
	sub	edx, 4
	push	edx
	call	??_V@YAXPAX@Z				; operator delete[]
	add	esp, 4
$LN2@vector@3:
	mov	eax, DWORD PTR _this$[ebp]
	sub	eax, 4
	jmp	SHORT $LN4@vector@3
$LN3@vector@3:
	mov	ecx, DWORD PTR _this$[ebp]
	call	??1Properties@common@ibmras@@UAE@XZ	; ibmras::common::Properties::~Properties
	mov	eax, DWORD PTR ___flags$[ebp]
	and	eax, 1
	je	SHORT $LN1@vector@3
	mov	ecx, DWORD PTR _this$[ebp]
	push	ecx
	call	??3@YAXPAX@Z				; operator delete
	add	esp, 4
$LN1@vector@3:
	mov	eax, DWORD PTR _this$[ebp]
$LN4@vector@3:
	mov	esp, ebp
	pop	ebp
	ret	4
??_EProperties@common@ibmras@@UAEPAXI@Z ENDP		; ibmras::common::Properties::`vector deleting destructor'
_TEXT	ENDS
PUBLIC	??1?$_Tree@V?$_Tmap_traits@V?$basic_string@DU?$char_traits@D@std@@V?$allocator@D@2@@std@@V12@U?$less@V?$basic_string@DU?$char_traits@D@std@@V?$allocator@D@2@@std@@@2@V?$allocator@U?$pair@$$CBV?$basic_string@DU?$char_traits@D@std@@V?$allocator@D@2@@std@@V12@@std@@@2@$0A@@std@@@std@@QAE@XZ ; std::_Tree<std::_Tmap_traits<std::basic_string<char,std::char_traits<char>,std::allocator<char> >,std::basic_string<char,std::char_traits<char>,std::allocator<char> >,std::less<std::basic_string<char,std::char_traits<char>,std::allocator<char> > >,std::allocator<std::pair<std::basic_string<char,std::char_traits<char>,std::allocator<char> > const ,std::basic_string<char,std::char_traits<char>,std::allocator<char> > > >,0> >::~_Tree<std::_Tmap_traits<std::basic_string<char,std::char_traits<char>,std::allocator<char> >,std::basic_string<char,std::char_traits<char>,std::allocator<char> >,std::less<std::basic_string<char,std::char_traits<char>,std::allocator<char> > >,std::allocator<std::pair<std::basic_string<char,std::char_traits<char>,std::allocator<char> > const ,std::basic_string<char,std::char_traits<char>,std::allocator<char> > > >,0> >
; Function compile flags: /Odtp
;	COMDAT ??1?$map@V?$basic_string@DU?$char_traits@D@std@@V?$allocator@D@2@@std@@V12@U?$less@V?$basic_string@DU?$char_traits@D@std@@V?$allocator@D@2@@std@@@2@V?$allocator@U?$pair@$$CBV?$basic_string@DU?$char_traits@D@std@@V?$allocator@D@2@@std@@V12@@std@@@2@@std@@QAE@XZ
_TEXT	SEGMENT
_this$ = -4						; size = 4
??1?$map@V?$basic_string@DU?$char_traits@D@std@@V?$allocator@D@2@@std@@V12@U?$less@V?$basic_string@DU?$char_traits@D@std@@V?$allocator@D@2@@std@@@2@V?$allocator@U?$pair@$$CBV?$basic_string@DU?$char_traits@D@std@@V?$allocator@D@2@@std@@V12@@std@@@2@@std@@QAE@XZ PROC ; std::map<std::basic_string<char,std::char_traits<char>,std::allocator<char> >,std::basic_string<char,std::char_traits<char>,std::allocator<char> >,std::less<std::basic_string<char,std::char_traits<char>,std::allocator<char> > >,std::allocator<std::pair<std::basic_string<char,std::char_traits<char>,std::allocator<char> > const ,std::basic_string<char,std::char_traits<char>,std::allocator<char> > > > >::~map<std::basic_string<char,std::char_traits<char>,std::allocator<char> >,std::basic_string<char,std::char_traits<char>,std::allocator<char> >,std::less<std::basic_string<char,std::char_traits<char>,std::allocator<char> > >,std::allocator<std::pair<std::basic_string<char,std::char_traits<char>,std::allocator<char> > const ,std::basic_string<char,std::char_traits<char>,std::allocator<char> > > > >, COMDAT
; _this$ = ecx
	push	ebp
	mov	ebp, esp
	push	ecx
	mov	DWORD PTR _this$[ebp], ecx
	mov	ecx, DWORD PTR _this$[ebp]
	call	??1?$_Tree@V?$_Tmap_traits@V?$basic_string@DU?$char_traits@D@std@@V?$allocator@D@2@@std@@V12@U?$less@V?$basic_string@DU?$char_traits@D@std@@V?$allocator@D@2@@std@@@2@V?$allocator@U?$pair@$$CBV?$basic_string@DU?$char_traits@D@std@@V?$allocator@D@2@@std@@V12@@std@@@2@$0A@@std@@@std@@QAE@XZ ; std::_Tree<std::_Tmap_traits<std::basic_string<char,std::char_traits<char>,std::allocator<char> >,std::basic_string<char,std::char_traits<char>,std::allocator<char> >,std::less<std::basic_string<char,std::char_traits<char>,std::allocator<char> > >,std::allocator<std::pair<std::basic_string<char,std::char_traits<char>,std::allocator<char> > const ,std::basic_string<char,std::char_traits<char>,std::allocator<char> > > >,0> >::~_Tree<std::_Tmap_traits<std::basic_string<char,std::char_traits<char>,std::allocator<char> >,std::basic_string<char,std::char_traits<char>,std::allocator<char> >,std::less<std::basic_string<char,std::char_traits<char>,std::allocator<char> > >,std::allocator<std::pair<std::basic_string<char,std::char_traits<char>,std::allocator<char> > const ,std::basic_string<char,std::char_traits<char>,std::allocator<char> > > >,0> >
	mov	esp, ebp
	pop	ebp
	ret	0
??1?$map@V?$basic_string@DU?$char_traits@D@std@@V?$allocator@D@2@@std@@V12@U?$less@V?$basic_string@DU?$char_traits@D@std@@V?$allocator@D@2@@std@@@2@V?$allocator@U?$pair@$$CBV?$basic_string@DU?$char_traits@D@std@@V?$allocator@D@2@@std@@V12@@std@@@2@@std@@QAE@XZ ENDP ; std::map<std::basic_string<char,std::char_traits<char>,std::allocator<char> >,std::basic_string<char,std::char_traits<char>,std::allocator<char> >,std::less<std::basic_string<char,std::char_traits<char>,std::allocator<char> > >,std::allocator<std::pair<std::basic_string<char,std::char_traits<char>,std::allocator<char> > const ,std::basic_string<char,std::char_traits<char>,std::allocator<char> > > > >::~map<std::basic_string<char,std::char_traits<char>,std::allocator<char> >,std::basic_string<char,std::char_traits<char>,std::allocator<char> >,std::less<std::basic_string<char,std::char_traits<char>,std::allocator<char> > >,std::allocator<std::pair<std::basic_string<char,std::char_traits<char>,std::allocator<char> > const ,std::basic_string<char,std::char_traits<char>,std::allocator<char> > > > >
_TEXT	ENDS
PUBLIC	??_C@_0BH@NMDFCGG@ConfigurationConnector?$AA@	; `string'
PUBLIC	?getID@ConfigurationConnector@connector@monitoring@ibmras@@UAE?AV?$basic_string@DU?$char_traits@D@std@@V?$allocator@D@2@@std@@XZ ; ibmras::monitoring::connector::ConfigurationConnector::getID
;	COMDAT ??_C@_0BH@NMDFCGG@ConfigurationConnector?$AA@
; File c:\workspaces\newagent2\runtime.tools\src\ibmras\monitoring\connector\configuration\configurationconnector.h
CONST	SEGMENT
??_C@_0BH@NMDFCGG@ConfigurationConnector?$AA@ DB 'ConfigurationConnector', 00H ; `string'
; Function compile flags: /Odtp
CONST	ENDS
;	COMDAT ?getID@ConfigurationConnector@connector@monitoring@ibmras@@UAE?AV?$basic_string@DU?$char_traits@D@std@@V?$allocator@D@2@@std@@XZ
_TEXT	SEGMENT
_this$ = -8						; size = 4
$T122701 = -4						; size = 4
___$ReturnUdt$ = 8					; size = 4
?getID@ConfigurationConnector@connector@monitoring@ibmras@@UAE?AV?$basic_string@DU?$char_traits@D@std@@V?$allocator@D@2@@std@@XZ PROC ; ibmras::monitoring::connector::ConfigurationConnector::getID, COMDAT
; _this$ = ecx
; Line 33
	push	ebp
	mov	ebp, esp
	sub	esp, 8
	mov	DWORD PTR _this$[ebp], ecx
	mov	DWORD PTR $T122701[ebp], 0
; Line 34
	push	OFFSET ??_C@_0BH@NMDFCGG@ConfigurationConnector?$AA@
	mov	ecx, DWORD PTR ___$ReturnUdt$[ebp]
	call	??0?$basic_string@DU?$char_traits@D@std@@V?$allocator@D@2@@std@@QAE@PBD@Z ; std::basic_string<char,std::char_traits<char>,std::allocator<char> >::basic_string<char,std::char_traits<char>,std::allocator<char> >
	mov	eax, DWORD PTR $T122701[ebp]
	or	eax, 1
	mov	DWORD PTR $T122701[ebp], eax
	mov	eax, DWORD PTR ___$ReturnUdt$[ebp]
; Line 35
	mov	esp, ebp
	pop	ebp
	ret	4
?getID@ConfigurationConnector@connector@monitoring@ibmras@@UAE?AV?$basic_string@DU?$char_traits@D@std@@V?$allocator@D@2@@std@@XZ ENDP ; ibmras::monitoring::connector::ConfigurationConnector::getID
_TEXT	ENDS
PUBLIC	??_7ConfigurationConnector@connector@monitoring@ibmras@@6B@ ; ibmras::monitoring::connector::ConfigurationConnector::`vftable'
PUBLIC	??0ConfigurationConnector@connector@monitoring@ibmras@@QAE@ABV0123@@Z ; ibmras::monitoring::connector::ConfigurationConnector::ConfigurationConnector
PUBLIC	??_R4ConfigurationConnector@connector@monitoring@ibmras@@6B@ ; ibmras::monitoring::connector::ConfigurationConnector::`RTTI Complete Object Locator'
PUBLIC	??_R0?AVConfigurationConnector@connector@monitoring@ibmras@@@8 ; ibmras::monitoring::connector::ConfigurationConnector `RTTI Type Descriptor'
PUBLIC	??_R3ConfigurationConnector@connector@monitoring@ibmras@@8 ; ibmras::monitoring::connector::ConfigurationConnector::`RTTI Class Hierarchy Descriptor'
PUBLIC	??_R2ConfigurationConnector@connector@monitoring@ibmras@@8 ; ibmras::monitoring::connector::ConfigurationConnector::`RTTI Base Class Array'
PUBLIC	??_R1A@?0A@EA@ConfigurationConnector@connector@monitoring@ibmras@@8 ; ibmras::monitoring::connector::ConfigurationConnector::`RTTI Base Class Descriptor at (0,-1,0,64)'
PUBLIC	??_EConfigurationConnector@connector@monitoring@ibmras@@UAEPAXI@Z ; ibmras::monitoring::connector::ConfigurationConnector::`vector deleting destructor'
EXTRN	?sendMessage@ConfigurationConnector@connector@monitoring@ibmras@@UAEHABV?$basic_string@DU?$char_traits@D@std@@V?$allocator@D@2@@std@@IPAX@Z:PROC ; ibmras::monitoring::connector::ConfigurationConnector::sendMessage
;	COMDAT ??_R1A@?0A@EA@ConfigurationConnector@connector@monitoring@ibmras@@8
rdata$r	SEGMENT
??_R1A@?0A@EA@ConfigurationConnector@connector@monitoring@ibmras@@8 DD FLAT:??_R0?AVConfigurationConnector@connector@monitoring@ibmras@@@8 ; ibmras::monitoring::connector::ConfigurationConnector::`RTTI Base Class Descriptor at (0,-1,0,64)'
	DD	01H
	DD	00H
	DD	0ffffffffH
	DD	00H
	DD	040H
	DD	FLAT:??_R3ConfigurationConnector@connector@monitoring@ibmras@@8
rdata$r	ENDS
;	COMDAT ??_R2ConfigurationConnector@connector@monitoring@ibmras@@8
rdata$r	SEGMENT
??_R2ConfigurationConnector@connector@monitoring@ibmras@@8 DD FLAT:??_R1A@?0A@EA@ConfigurationConnector@connector@monitoring@ibmras@@8 ; ibmras::monitoring::connector::ConfigurationConnector::`RTTI Base Class Array'
	DD	FLAT:??_R1A@?0A@EA@Connector@connector@monitoring@ibmras@@8
rdata$r	ENDS
;	COMDAT ??_R3ConfigurationConnector@connector@monitoring@ibmras@@8
rdata$r	SEGMENT
??_R3ConfigurationConnector@connector@monitoring@ibmras@@8 DD 00H ; ibmras::monitoring::connector::ConfigurationConnector::`RTTI Class Hierarchy Descriptor'
	DD	00H
	DD	02H
	DD	FLAT:??_R2ConfigurationConnector@connector@monitoring@ibmras@@8
rdata$r	ENDS
;	COMDAT ??_R0?AVConfigurationConnector@connector@monitoring@ibmras@@@8
_DATA	SEGMENT
??_R0?AVConfigurationConnector@connector@monitoring@ibmras@@@8 DD FLAT:??_7type_info@@6B@ ; ibmras::monitoring::connector::ConfigurationConnector `RTTI Type Descriptor'
	DD	00H
	DB	'.?AVConfigurationConnector@connector@monitoring@ibmras@@'
	DB	00H
_DATA	ENDS
;	COMDAT ??_R4ConfigurationConnector@connector@monitoring@ibmras@@6B@
rdata$r	SEGMENT
??_R4ConfigurationConnector@connector@monitoring@ibmras@@6B@ DD 00H ; ibmras::monitoring::connector::ConfigurationConnector::`RTTI Complete Object Locator'
	DD	00H
	DD	00H
	DD	FLAT:??_R0?AVConfigurationConnector@connector@monitoring@ibmras@@@8
	DD	FLAT:??_R3ConfigurationConnector@connector@monitoring@ibmras@@8
rdata$r	ENDS
;	COMDAT ??_7ConfigurationConnector@connector@monitoring@ibmras@@6B@
CONST	SEGMENT
??_7ConfigurationConnector@connector@monitoring@ibmras@@6B@ DD FLAT:??_R4ConfigurationConnector@connector@monitoring@ibmras@@6B@ ; ibmras::monitoring::connector::ConfigurationConnector::`vftable'
	DD	FLAT:?getID@ConfigurationConnector@connector@monitoring@ibmras@@UAE?AV?$basic_string@DU?$char_traits@D@std@@V?$allocator@D@2@@std@@XZ
	DD	FLAT:?sendMessage@ConfigurationConnector@connector@monitoring@ibmras@@UAEHABV?$basic_string@DU?$char_traits@D@std@@V?$allocator@D@2@@std@@IPAX@Z
	DD	FLAT:?registerReceiver@Connector@connector@monitoring@ibmras@@UAEXPAVReceiver@234@@Z
	DD	FLAT:?start@Connector@connector@monitoring@ibmras@@UAEHXZ
	DD	FLAT:?stop@Connector@connector@monitoring@ibmras@@UAEHXZ
	DD	FLAT:??_EConfigurationConnector@connector@monitoring@ibmras@@UAEPAXI@Z
CONST	ENDS
;	COMDAT xdata$x
xdata$x	SEGMENT
__unwindtable$??0ConfigurationConnector@connector@monitoring@ibmras@@QAE@ABV0123@@Z DD 0ffffffffH
	DD	FLAT:__unwindfunclet$??0ConfigurationConnector@connector@monitoring@ibmras@@QAE@ABV0123@@Z$0
__ehfuncinfo$??0ConfigurationConnector@connector@monitoring@ibmras@@QAE@ABV0123@@Z DD 019930522H
	DD	01H
	DD	FLAT:__unwindtable$??0ConfigurationConnector@connector@monitoring@ibmras@@QAE@ABV0123@@Z
	DD	2 DUP(00H)
	DD	2 DUP(00H)
	DD	00H
	DD	01H
; Function compile flags: /Odtp
xdata$x	ENDS
;	COMDAT ??0ConfigurationConnector@connector@monitoring@ibmras@@QAE@ABV0123@@Z
_TEXT	SEGMENT
_this$ = -16						; size = 4
__$EHRec$ = -12						; size = 12
___that$ = 8						; size = 4
??0ConfigurationConnector@connector@monitoring@ibmras@@QAE@ABV0123@@Z PROC ; ibmras::monitoring::connector::ConfigurationConnector::ConfigurationConnector, COMDAT
; _this$ = ecx
	push	ebp
	mov	ebp, esp
	push	-1
	push	__ehhandler$??0ConfigurationConnector@connector@monitoring@ibmras@@QAE@ABV0123@@Z
	mov	eax, DWORD PTR fs:0
	push	eax
	push	ecx
	mov	eax, DWORD PTR ___security_cookie
	xor	eax, ebp
	push	eax
	lea	eax, DWORD PTR __$EHRec$[ebp]
	mov	DWORD PTR fs:0, eax
	mov	DWORD PTR _this$[ebp], ecx
	mov	eax, DWORD PTR ___that$[ebp]
	push	eax
	mov	ecx, DWORD PTR _this$[ebp]
	call	??0Connector@connector@monitoring@ibmras@@QAE@ABV0123@@Z
	mov	DWORD PTR __$EHRec$[ebp+8], 0
	mov	ecx, DWORD PTR _this$[ebp]
	mov	DWORD PTR [ecx], OFFSET ??_7ConfigurationConnector@connector@monitoring@ibmras@@6B@
	mov	edx, DWORD PTR ___that$[ebp]
	add	edx, 4
	push	edx
	mov	ecx, DWORD PTR _this$[ebp]
	add	ecx, 4
	call	??0Properties@common@ibmras@@QAE@ABV012@@Z
	mov	eax, DWORD PTR ___that$[ebp]
	mov	ecx, DWORD PTR [eax+24]
	mov	edx, DWORD PTR _this$[ebp]
	mov	DWORD PTR [edx+24], ecx
	mov	DWORD PTR __$EHRec$[ebp+8], -1
	mov	eax, DWORD PTR _this$[ebp]
	mov	ecx, DWORD PTR __$EHRec$[ebp]
	mov	DWORD PTR fs:0, ecx
	pop	ecx
	mov	esp, ebp
	pop	ebp
	ret	4
_TEXT	ENDS
;	COMDAT text$x
text$x	SEGMENT
__unwindfunclet$??0ConfigurationConnector@connector@monitoring@ibmras@@QAE@ABV0123@@Z$0:
	mov	ecx, DWORD PTR _this$[ebp]
	jmp	??1Connector@connector@monitoring@ibmras@@UAE@XZ ; ibmras::monitoring::connector::Connector::~Connector
__ehhandler$??0ConfigurationConnector@connector@monitoring@ibmras@@QAE@ABV0123@@Z:
	mov	edx, DWORD PTR [esp+8]
	lea	eax, DWORD PTR [edx+12]
	mov	ecx, DWORD PTR [edx-8]
	xor	ecx, eax
	call	@__security_check_cookie@4
	mov	eax, OFFSET __ehfuncinfo$??0ConfigurationConnector@connector@monitoring@ibmras@@QAE@ABV0123@@Z
	jmp	___CxxFrameHandler3
text$x	ENDS
??0ConfigurationConnector@connector@monitoring@ibmras@@QAE@ABV0123@@Z ENDP ; ibmras::monitoring::connector::ConfigurationConnector::ConfigurationConnector
PUBLIC	??4ConfigurationConnector@connector@monitoring@ibmras@@QAEAAV0123@ABV0123@@Z ; ibmras::monitoring::connector::ConfigurationConnector::operator=
; Function compile flags: /Odtp
;	COMDAT ??4ConfigurationConnector@connector@monitoring@ibmras@@QAEAAV0123@ABV0123@@Z
_TEXT	SEGMENT
_this$ = -4						; size = 4
___that$ = 8						; size = 4
??4ConfigurationConnector@connector@monitoring@ibmras@@QAEAAV0123@ABV0123@@Z PROC ; ibmras::monitoring::connector::ConfigurationConnector::operator=, COMDAT
; _this$ = ecx
	push	ebp
	mov	ebp, esp
	push	ecx
	mov	DWORD PTR _this$[ebp], ecx
	mov	eax, DWORD PTR ___that$[ebp]
	push	eax
	mov	ecx, DWORD PTR _this$[ebp]
	call	??4Connector@connector@monitoring@ibmras@@QAEAAV0123@ABV0123@@Z
	mov	ecx, DWORD PTR ___that$[ebp]
	add	ecx, 4
	push	ecx
	mov	ecx, DWORD PTR _this$[ebp]
	add	ecx, 4
	call	??4Properties@common@ibmras@@QAEAAV012@ABV012@@Z
	mov	edx, DWORD PTR ___that$[ebp]
	mov	eax, DWORD PTR [edx+24]
	mov	ecx, DWORD PTR _this$[ebp]
	mov	DWORD PTR [ecx+24], eax
	mov	eax, DWORD PTR _this$[ebp]
	mov	esp, ebp
	pop	ebp
	ret	4
??4ConfigurationConnector@connector@monitoring@ibmras@@QAEAAV0123@ABV0123@@Z ENDP ; ibmras::monitoring::connector::ConfigurationConnector::operator=
_TEXT	ENDS
PUBLIC	??_GConfigurationConnector@connector@monitoring@ibmras@@UAEPAXI@Z ; ibmras::monitoring::connector::ConfigurationConnector::`scalar deleting destructor'
EXTRN	??1ConfigurationConnector@connector@monitoring@ibmras@@UAE@XZ:PROC ; ibmras::monitoring::connector::ConfigurationConnector::~ConfigurationConnector
; Function compile flags: /Odtp
;	COMDAT ??_GConfigurationConnector@connector@monitoring@ibmras@@UAEPAXI@Z
_TEXT	SEGMENT
_this$ = -4						; size = 4
___flags$ = 8						; size = 4
??_GConfigurationConnector@connector@monitoring@ibmras@@UAEPAXI@Z PROC ; ibmras::monitoring::connector::ConfigurationConnector::`scalar deleting destructor', COMDAT
; _this$ = ecx
	push	ebp
	mov	ebp, esp
	push	ecx
	mov	DWORD PTR _this$[ebp], ecx
	mov	ecx, DWORD PTR _this$[ebp]
	call	??1ConfigurationConnector@connector@monitoring@ibmras@@UAE@XZ ; ibmras::monitoring::connector::ConfigurationConnector::~ConfigurationConnector
	mov	eax, DWORD PTR ___flags$[ebp]
	and	eax, 1
	je	SHORT $LN1@scalar@6
	mov	ecx, DWORD PTR _this$[ebp]
	push	ecx
	call	??3@YAXPAX@Z				; operator delete
	add	esp, 4
$LN1@scalar@6:
	mov	eax, DWORD PTR _this$[ebp]
	mov	esp, ebp
	pop	ebp
	ret	4
??_GConfigurationConnector@connector@monitoring@ibmras@@UAEPAXI@Z ENDP ; ibmras::monitoring::connector::ConfigurationConnector::`scalar deleting destructor'
; Function compile flags: /Odtp
_TEXT	ENDS
;	COMDAT ??_EConfigurationConnector@connector@monitoring@ibmras@@UAEPAXI@Z
_TEXT	SEGMENT
_this$ = -4						; size = 4
___flags$ = 8						; size = 4
??_EConfigurationConnector@connector@monitoring@ibmras@@UAEPAXI@Z PROC ; ibmras::monitoring::connector::ConfigurationConnector::`vector deleting destructor', COMDAT
; _this$ = ecx
	push	ebp
	mov	ebp, esp
	push	ecx
	mov	DWORD PTR _this$[ebp], ecx
	mov	eax, DWORD PTR ___flags$[ebp]
	and	eax, 2
	je	SHORT $LN3@vector@4
	push	OFFSET ??1ConfigurationConnector@connector@monitoring@ibmras@@UAE@XZ ; ibmras::monitoring::connector::ConfigurationConnector::~ConfigurationConnector
	mov	ecx, DWORD PTR _this$[ebp]
	mov	edx, DWORD PTR [ecx-4]
	push	edx
	push	28					; 0000001cH
	mov	eax, DWORD PTR _this$[ebp]
	push	eax
	call	??_M@YGXPAXIHP6EX0@Z@Z
	mov	ecx, DWORD PTR ___flags$[ebp]
	and	ecx, 1
	je	SHORT $LN2@vector@4
	mov	edx, DWORD PTR _this$[ebp]
	sub	edx, 4
	push	edx
	call	??_V@YAXPAX@Z				; operator delete[]
	add	esp, 4
$LN2@vector@4:
	mov	eax, DWORD PTR _this$[ebp]
	sub	eax, 4
	jmp	SHORT $LN4@vector@4
$LN3@vector@4:
	mov	ecx, DWORD PTR _this$[ebp]
	call	??1ConfigurationConnector@connector@monitoring@ibmras@@UAE@XZ ; ibmras::monitoring::connector::ConfigurationConnector::~ConfigurationConnector
	mov	eax, DWORD PTR ___flags$[ebp]
	and	eax, 1
	je	SHORT $LN1@vector@4
	mov	ecx, DWORD PTR _this$[ebp]
	push	ecx
	call	??3@YAXPAX@Z				; operator delete
	add	esp, 4
$LN1@vector@4:
	mov	eax, DWORD PTR _this$[ebp]
$LN4@vector@4:
	mov	esp, ebp
	pop	ebp
	ret	4
??_EConfigurationConnector@connector@monitoring@ibmras@@UAEPAXI@Z ENDP ; ibmras::monitoring::connector::ConfigurationConnector::`vector deleting destructor'
_TEXT	ENDS
PUBLIC	??1?$vector@PAVPlugin@monitoring@ibmras@@V?$allocator@PAVPlugin@monitoring@ibmras@@@std@@@std@@QAE@XZ ; std::vector<ibmras::monitoring::Plugin *,std::allocator<ibmras::monitoring::Plugin *> >::~vector<ibmras::monitoring::Plugin *,std::allocator<ibmras::monitoring::Plugin *> >
PUBLIC	??1Agent@agent@monitoring@ibmras@@QAE@XZ	; ibmras::monitoring::agent::Agent::~Agent
;	COMDAT xdata$x
xdata$x	SEGMENT
__unwindtable$??1Agent@agent@monitoring@ibmras@@QAE@XZ DD 0ffffffffH
	DD	FLAT:__unwindfunclet$??1Agent@agent@monitoring@ibmras@@QAE@XZ$0
	DD	00H
	DD	FLAT:__unwindfunclet$??1Agent@agent@monitoring@ibmras@@QAE@XZ$1
	DD	01H
	DD	FLAT:__unwindfunclet$??1Agent@agent@monitoring@ibmras@@QAE@XZ$2
	DD	02H
	DD	FLAT:__unwindfunclet$??1Agent@agent@monitoring@ibmras@@QAE@XZ$3
__ehfuncinfo$??1Agent@agent@monitoring@ibmras@@QAE@XZ DD 019930522H
	DD	04H
	DD	FLAT:__unwindtable$??1Agent@agent@monitoring@ibmras@@QAE@XZ
	DD	2 DUP(00H)
	DD	2 DUP(00H)
	DD	00H
	DD	01H
; Function compile flags: /Odtp
xdata$x	ENDS
;	COMDAT ??1Agent@agent@monitoring@ibmras@@QAE@XZ
_TEXT	SEGMENT
_this$ = -16						; size = 4
__$EHRec$ = -12						; size = 12
??1Agent@agent@monitoring@ibmras@@QAE@XZ PROC		; ibmras::monitoring::agent::Agent::~Agent, COMDAT
; _this$ = ecx
	push	ebp
	mov	ebp, esp
	push	-1
	push	__ehhandler$??1Agent@agent@monitoring@ibmras@@QAE@XZ
	mov	eax, DWORD PTR fs:0
	push	eax
	push	ecx
	mov	eax, DWORD PTR ___security_cookie
	xor	eax, ebp
	push	eax
	lea	eax, DWORD PTR __$EHRec$[ebp]
	mov	DWORD PTR fs:0, eax
	mov	DWORD PTR _this$[ebp], ecx
	mov	DWORD PTR __$EHRec$[ebp+8], 3
	mov	ecx, DWORD PTR _this$[ebp]
	add	ecx, 160				; 000000a0H
	call	??1ConfigurationConnector@connector@monitoring@ibmras@@UAE@XZ ; ibmras::monitoring::connector::ConfigurationConnector::~ConfigurationConnector
	mov	BYTE PTR __$EHRec$[ebp+8], 2
	mov	ecx, DWORD PTR _this$[ebp]
	add	ecx, 140				; 0000008cH
	call	??1Properties@common@ibmras@@UAE@XZ	; ibmras::common::Properties::~Properties
	mov	BYTE PTR __$EHRec$[ebp+8], 1
	mov	ecx, DWORD PTR _this$[ebp]
	add	ecx, 120				; 00000078H
	call	??1?$vector@PAVPlugin@monitoring@ibmras@@V?$allocator@PAVPlugin@monitoring@ibmras@@@std@@@std@@QAE@XZ ; std::vector<ibmras::monitoring::Plugin *,std::allocator<ibmras::monitoring::Plugin *> >::~vector<ibmras::monitoring::Plugin *,std::allocator<ibmras::monitoring::Plugin *> >
	mov	BYTE PTR __$EHRec$[ebp+8], 0
	mov	ecx, DWORD PTR _this$[ebp]
	add	ecx, 16					; 00000010H
	call	??1ConnectorManager@connector@monitoring@ibmras@@UAE@XZ ; ibmras::monitoring::connector::ConnectorManager::~ConnectorManager
	mov	DWORD PTR __$EHRec$[ebp+8], -1
	mov	ecx, DWORD PTR _this$[ebp]
	call	??1BucketList@agent@monitoring@ibmras@@QAE@XZ
	mov	ecx, DWORD PTR __$EHRec$[ebp]
	mov	DWORD PTR fs:0, ecx
	pop	ecx
	mov	esp, ebp
	pop	ebp
	ret	0
_TEXT	ENDS
;	COMDAT text$x
text$x	SEGMENT
__unwindfunclet$??1Agent@agent@monitoring@ibmras@@QAE@XZ$0:
	mov	ecx, DWORD PTR _this$[ebp]
	jmp	??1BucketList@agent@monitoring@ibmras@@QAE@XZ
__unwindfunclet$??1Agent@agent@monitoring@ibmras@@QAE@XZ$1:
	mov	ecx, DWORD PTR _this$[ebp]
	add	ecx, 16					; 00000010H
	jmp	??1ConnectorManager@connector@monitoring@ibmras@@UAE@XZ ; ibmras::monitoring::connector::ConnectorManager::~ConnectorManager
__unwindfunclet$??1Agent@agent@monitoring@ibmras@@QAE@XZ$2:
	mov	ecx, DWORD PTR _this$[ebp]
	add	ecx, 120				; 00000078H
	jmp	??1?$vector@PAVPlugin@monitoring@ibmras@@V?$allocator@PAVPlugin@monitoring@ibmras@@@std@@@std@@QAE@XZ ; std::vector<ibmras::monitoring::Plugin *,std::allocator<ibmras::monitoring::Plugin *> >::~vector<ibmras::monitoring::Plugin *,std::allocator<ibmras::monitoring::Plugin *> >
__unwindfunclet$??1Agent@agent@monitoring@ibmras@@QAE@XZ$3:
	mov	ecx, DWORD PTR _this$[ebp]
	add	ecx, 140				; 0000008cH
	jmp	??1Properties@common@ibmras@@UAE@XZ	; ibmras::common::Properties::~Properties
__ehhandler$??1Agent@agent@monitoring@ibmras@@QAE@XZ:
	mov	edx, DWORD PTR [esp+8]
	lea	eax, DWORD PTR [edx+12]
	mov	ecx, DWORD PTR [edx-8]
	xor	ecx, eax
	call	@__security_check_cookie@4
	mov	eax, OFFSET __ehfuncinfo$??1Agent@agent@monitoring@ibmras@@QAE@XZ
	jmp	___CxxFrameHandler3
text$x	ENDS
??1Agent@agent@monitoring@ibmras@@QAE@XZ ENDP		; ibmras::monitoring::agent::Agent::~Agent
PUBLIC	??0?$vector@PAVPlugin@monitoring@ibmras@@V?$allocator@PAVPlugin@monitoring@ibmras@@@std@@@std@@QAE@ABV01@@Z ; std::vector<ibmras::monitoring::Plugin *,std::allocator<ibmras::monitoring::Plugin *> >::vector<ibmras::monitoring::Plugin *,std::allocator<ibmras::monitoring::Plugin *> >
PUBLIC	??0Agent@agent@monitoring@ibmras@@QAE@ABV0123@@Z ; ibmras::monitoring::agent::Agent::Agent
;	COMDAT xdata$x
xdata$x	SEGMENT
__unwindtable$??0Agent@agent@monitoring@ibmras@@QAE@ABV0123@@Z DD 0ffffffffH
	DD	FLAT:__unwindfunclet$??0Agent@agent@monitoring@ibmras@@QAE@ABV0123@@Z$0
	DD	00H
	DD	FLAT:__unwindfunclet$??0Agent@agent@monitoring@ibmras@@QAE@ABV0123@@Z$1
	DD	01H
	DD	FLAT:__unwindfunclet$??0Agent@agent@monitoring@ibmras@@QAE@ABV0123@@Z$2
	DD	02H
	DD	FLAT:__unwindfunclet$??0Agent@agent@monitoring@ibmras@@QAE@ABV0123@@Z$3
__ehfuncinfo$??0Agent@agent@monitoring@ibmras@@QAE@ABV0123@@Z DD 019930522H
	DD	04H
	DD	FLAT:__unwindtable$??0Agent@agent@monitoring@ibmras@@QAE@ABV0123@@Z
	DD	2 DUP(00H)
	DD	2 DUP(00H)
	DD	00H
	DD	01H
; Function compile flags: /Odtp
xdata$x	ENDS
;	COMDAT ??0Agent@agent@monitoring@ibmras@@QAE@ABV0123@@Z
_TEXT	SEGMENT
_this$ = -16						; size = 4
__$EHRec$ = -12						; size = 12
___that$ = 8						; size = 4
??0Agent@agent@monitoring@ibmras@@QAE@ABV0123@@Z PROC	; ibmras::monitoring::agent::Agent::Agent, COMDAT
; _this$ = ecx
	push	ebp
	mov	ebp, esp
	push	-1
	push	__ehhandler$??0Agent@agent@monitoring@ibmras@@QAE@ABV0123@@Z
	mov	eax, DWORD PTR fs:0
	push	eax
	push	ecx
	mov	eax, DWORD PTR ___security_cookie
	xor	eax, ebp
	push	eax
	lea	eax, DWORD PTR __$EHRec$[ebp]
	mov	DWORD PTR fs:0, eax
	mov	DWORD PTR _this$[ebp], ecx
	mov	eax, DWORD PTR ___that$[ebp]
	push	eax
	mov	ecx, DWORD PTR _this$[ebp]
	call	??0BucketList@agent@monitoring@ibmras@@QAE@ABV0123@@Z
	mov	DWORD PTR __$EHRec$[ebp+8], 0
	mov	ecx, DWORD PTR ___that$[ebp]
	add	ecx, 16					; 00000010H
	push	ecx
	mov	ecx, DWORD PTR _this$[ebp]
	add	ecx, 16					; 00000010H
	call	??0ConnectorManager@connector@monitoring@ibmras@@QAE@ABV0123@@Z
	mov	BYTE PTR __$EHRec$[ebp+8], 1
	mov	edx, DWORD PTR ___that$[ebp]
	mov	eax, DWORD PTR [edx+104]
	mov	ecx, DWORD PTR [edx+108]
	mov	edx, DWORD PTR _this$[ebp]
	mov	DWORD PTR [edx+104], eax
	mov	DWORD PTR [edx+108], ecx
	mov	eax, DWORD PTR ___that$[ebp]
	mov	ecx, DWORD PTR [eax+112]
	mov	edx, DWORD PTR [eax+116]
	mov	eax, DWORD PTR _this$[ebp]
	mov	DWORD PTR [eax+112], ecx
	mov	DWORD PTR [eax+116], edx
	mov	ecx, DWORD PTR ___that$[ebp]
	add	ecx, 120				; 00000078H
	push	ecx
	mov	ecx, DWORD PTR _this$[ebp]
	add	ecx, 120				; 00000078H
	call	??0?$vector@PAVPlugin@monitoring@ibmras@@V?$allocator@PAVPlugin@monitoring@ibmras@@@std@@@std@@QAE@ABV01@@Z ; std::vector<ibmras::monitoring::Plugin *,std::allocator<ibmras::monitoring::Plugin *> >::vector<ibmras::monitoring::Plugin *,std::allocator<ibmras::monitoring::Plugin *> >
	mov	BYTE PTR __$EHRec$[ebp+8], 2
	mov	edx, DWORD PTR _this$[ebp]
	mov	eax, DWORD PTR ___that$[ebp]
	mov	ecx, DWORD PTR [eax+136]
	mov	DWORD PTR [edx+136], ecx
	mov	edx, DWORD PTR ___that$[ebp]
	add	edx, 140				; 0000008cH
	push	edx
	mov	ecx, DWORD PTR _this$[ebp]
	add	ecx, 140				; 0000008cH
	call	??0Properties@common@ibmras@@QAE@ABV012@@Z
	mov	BYTE PTR __$EHRec$[ebp+8], 3
	mov	eax, DWORD PTR ___that$[ebp]
	add	eax, 160				; 000000a0H
	push	eax
	mov	ecx, DWORD PTR _this$[ebp]
	add	ecx, 160				; 000000a0H
	call	??0ConfigurationConnector@connector@monitoring@ibmras@@QAE@ABV0123@@Z
	mov	DWORD PTR __$EHRec$[ebp+8], -1
	mov	eax, DWORD PTR _this$[ebp]
	mov	ecx, DWORD PTR __$EHRec$[ebp]
	mov	DWORD PTR fs:0, ecx
	pop	ecx
	mov	esp, ebp
	pop	ebp
	ret	4
_TEXT	ENDS
;	COMDAT text$x
text$x	SEGMENT
__unwindfunclet$??0Agent@agent@monitoring@ibmras@@QAE@ABV0123@@Z$0:
	mov	ecx, DWORD PTR _this$[ebp]
	jmp	??1BucketList@agent@monitoring@ibmras@@QAE@XZ
__unwindfunclet$??0Agent@agent@monitoring@ibmras@@QAE@ABV0123@@Z$1:
	mov	ecx, DWORD PTR _this$[ebp]
	add	ecx, 16					; 00000010H
	jmp	??1ConnectorManager@connector@monitoring@ibmras@@UAE@XZ ; ibmras::monitoring::connector::ConnectorManager::~ConnectorManager
__unwindfunclet$??0Agent@agent@monitoring@ibmras@@QAE@ABV0123@@Z$2:
	mov	ecx, DWORD PTR _this$[ebp]
	add	ecx, 120				; 00000078H
	jmp	??1?$vector@PAVPlugin@monitoring@ibmras@@V?$allocator@PAVPlugin@monitoring@ibmras@@@std@@@std@@QAE@XZ ; std::vector<ibmras::monitoring::Plugin *,std::allocator<ibmras::monitoring::Plugin *> >::~vector<ibmras::monitoring::Plugin *,std::allocator<ibmras::monitoring::Plugin *> >
__unwindfunclet$??0Agent@agent@monitoring@ibmras@@QAE@ABV0123@@Z$3:
	mov	ecx, DWORD PTR _this$[ebp]
	add	ecx, 140				; 0000008cH
	jmp	??1Properties@common@ibmras@@UAE@XZ	; ibmras::common::Properties::~Properties
__ehhandler$??0Agent@agent@monitoring@ibmras@@QAE@ABV0123@@Z:
	mov	edx, DWORD PTR [esp+8]
	lea	eax, DWORD PTR [edx+12]
	mov	ecx, DWORD PTR [edx-8]
	xor	ecx, eax
	call	@__security_check_cookie@4
	mov	eax, OFFSET __ehfuncinfo$??0Agent@agent@monitoring@ibmras@@QAE@ABV0123@@Z
	jmp	___CxxFrameHandler3
text$x	ENDS
??0Agent@agent@monitoring@ibmras@@QAE@ABV0123@@Z ENDP	; ibmras::monitoring::agent::Agent::Agent
PUBLIC	??4?$vector@PAVPlugin@monitoring@ibmras@@V?$allocator@PAVPlugin@monitoring@ibmras@@@std@@@std@@QAEAAV01@ABV01@@Z ; std::vector<ibmras::monitoring::Plugin *,std::allocator<ibmras::monitoring::Plugin *> >::operator=
PUBLIC	??4Agent@agent@monitoring@ibmras@@QAEAAV0123@ABV0123@@Z ; ibmras::monitoring::agent::Agent::operator=
; Function compile flags: /Odtp
;	COMDAT ??4Agent@agent@monitoring@ibmras@@QAEAAV0123@ABV0123@@Z
_TEXT	SEGMENT
_this$ = -4						; size = 4
___that$ = 8						; size = 4
??4Agent@agent@monitoring@ibmras@@QAEAAV0123@ABV0123@@Z PROC ; ibmras::monitoring::agent::Agent::operator=, COMDAT
; _this$ = ecx
	push	ebp
	mov	ebp, esp
	push	ecx
	mov	DWORD PTR _this$[ebp], ecx
	mov	eax, DWORD PTR ___that$[ebp]
	push	eax
	mov	ecx, DWORD PTR _this$[ebp]
	call	??4BucketList@agent@monitoring@ibmras@@QAEAAV0123@ABV0123@@Z
	mov	ecx, DWORD PTR ___that$[ebp]
	add	ecx, 16					; 00000010H
	push	ecx
	mov	ecx, DWORD PTR _this$[ebp]
	add	ecx, 16					; 00000010H
	call	??4ConnectorManager@connector@monitoring@ibmras@@QAEAAV0123@ABV0123@@Z
	mov	edx, DWORD PTR ___that$[ebp]
	mov	eax, DWORD PTR [edx+104]
	mov	ecx, DWORD PTR [edx+108]
	mov	edx, DWORD PTR _this$[ebp]
	mov	DWORD PTR [edx+104], eax
	mov	DWORD PTR [edx+108], ecx
	mov	eax, DWORD PTR ___that$[ebp]
	mov	ecx, DWORD PTR [eax+112]
	mov	edx, DWORD PTR [eax+116]
	mov	eax, DWORD PTR _this$[ebp]
	mov	DWORD PTR [eax+112], ecx
	mov	DWORD PTR [eax+116], edx
	mov	ecx, DWORD PTR ___that$[ebp]
	add	ecx, 120				; 00000078H
	push	ecx
	mov	ecx, DWORD PTR _this$[ebp]
	add	ecx, 120				; 00000078H
	call	??4?$vector@PAVPlugin@monitoring@ibmras@@V?$allocator@PAVPlugin@monitoring@ibmras@@@std@@@std@@QAEAAV01@ABV01@@Z ; std::vector<ibmras::monitoring::Plugin *,std::allocator<ibmras::monitoring::Plugin *> >::operator=
	mov	edx, DWORD PTR _this$[ebp]
	mov	eax, DWORD PTR ___that$[ebp]
	mov	ecx, DWORD PTR [eax+136]
	mov	DWORD PTR [edx+136], ecx
	mov	edx, DWORD PTR ___that$[ebp]
	add	edx, 140				; 0000008cH
	push	edx
	mov	ecx, DWORD PTR _this$[ebp]
	add	ecx, 140				; 0000008cH
	call	??4Properties@common@ibmras@@QAEAAV012@ABV012@@Z
	mov	eax, DWORD PTR ___that$[ebp]
	add	eax, 160				; 000000a0H
	push	eax
	mov	ecx, DWORD PTR _this$[ebp]
	add	ecx, 160				; 000000a0H
	call	??4ConfigurationConnector@connector@monitoring@ibmras@@QAEAAV0123@ABV0123@@Z
	mov	eax, DWORD PTR _this$[ebp]
	mov	esp, ebp
	pop	ebp
	ret	4
??4Agent@agent@monitoring@ibmras@@QAEAAV0123@ABV0123@@Z ENDP ; ibmras::monitoring::agent::Agent::operator=
_TEXT	ENDS
PUBLIC	??_D?$basic_stringstream@DU?$char_traits@D@std@@V?$allocator@D@2@@std@@QAEXXZ ; std::basic_stringstream<char,std::char_traits<char>,std::allocator<char> >::`vbase destructor'
PUBLIC	?str@?$basic_stringstream@DU?$char_traits@D@std@@V?$allocator@D@2@@std@@QBE?AV?$basic_string@DU?$char_traits@D@std@@V?$allocator@D@2@@2@XZ ; std::basic_stringstream<char,std::char_traits<char>,std::allocator<char> >::str
PUBLIC	??$?6U?$char_traits@D@std@@@std@@YAAAV?$basic_ostream@DU?$char_traits@D@std@@@0@AAV10@D@Z ; std::operator<<<std::char_traits<char> >
PUBLIC	??$?6U?$char_traits@D@std@@@std@@YAAAV?$basic_ostream@DU?$char_traits@D@std@@@0@AAV10@PBD@Z ; std::operator<<<std::char_traits<char> >
PUBLIC	??$?6DU?$char_traits@D@std@@V?$allocator@D@1@@std@@YAAAV?$basic_ostream@DU?$char_traits@D@std@@@0@AAV10@ABV?$basic_string@DU?$char_traits@D@std@@V?$allocator@D@2@@0@@Z ; std::operator<<<char,std::char_traits<char>,std::allocator<char> >
PUBLIC	??C?$_Tree_iterator@V?$_Tree_val@V?$_Tmap_traits@V?$basic_string@DU?$char_traits@D@std@@V?$allocator@D@2@@std@@V12@U?$less@V?$basic_string@DU?$char_traits@D@std@@V?$allocator@D@2@@std@@@2@V?$allocator@U?$pair@$$CBV?$basic_string@DU?$char_traits@D@std@@V?$allocator@D@2@@std@@V12@@std@@@2@$0A@@std@@@std@@@std@@QBEPAU?$pair@$$CBV?$basic_string@DU?$char_traits@D@std@@V?$allocator@D@2@@std@@V12@@1@XZ ; std::_Tree_iterator<std::_Tree_val<std::_Tmap_traits<std::basic_string<char,std::char_traits<char>,std::allocator<char> >,std::basic_string<char,std::char_traits<char>,std::allocator<char> >,std::less<std::basic_string<char,std::char_traits<char>,std::allocator<char> > >,std::allocator<std::pair<std::basic_string<char,std::char_traits<char>,std::allocator<char> > const ,std::basic_string<char,std::char_traits<char>,std::allocator<char> > > >,0> > >::operator->
PUBLIC	??9?$_Tree_const_iterator@V?$_Tree_val@V?$_Tmap_traits@V?$basic_string@DU?$char_traits@D@std@@V?$allocator@D@2@@std@@V12@U?$less@V?$basic_string@DU?$char_traits@D@std@@V?$allocator@D@2@@std@@@2@V?$allocator@U?$pair@$$CBV?$basic_string@DU?$char_traits@D@std@@V?$allocator@D@2@@std@@V12@@std@@@2@$0A@@std@@@std@@@std@@QBE_NABV01@@Z ; std::_Tree_const_iterator<std::_Tree_val<std::_Tmap_traits<std::basic_string<char,std::char_traits<char>,std::allocator<char> >,std::basic_string<char,std::char_traits<char>,std::allocator<char> >,std::less<std::basic_string<char,std::char_traits<char>,std::allocator<char> > >,std::allocator<std::pair<std::basic_string<char,std::char_traits<char>,std::allocator<char> > const ,std::basic_string<char,std::char_traits<char>,std::allocator<char> > > >,0> > >::operator!=
PUBLIC	?end@?$_Tree@V?$_Tmap_traits@V?$basic_string@DU?$char_traits@D@std@@V?$allocator@D@2@@std@@V12@U?$less@V?$basic_string@DU?$char_traits@D@std@@V?$allocator@D@2@@std@@@2@V?$allocator@U?$pair@$$CBV?$basic_string@DU?$char_traits@D@std@@V?$allocator@D@2@@std@@V12@@std@@@2@$0A@@std@@@std@@QAE?AV?$_Tree_iterator@V?$_Tree_val@V?$_Tmap_traits@V?$basic_string@DU?$char_traits@D@std@@V?$allocator@D@2@@std@@V12@U?$less@V?$basic_string@DU?$char_traits@D@std@@V?$allocator@D@2@@std@@@2@V?$allocator@U?$pair@$$CBV?$basic_string@DU?$char_traits@D@std@@V?$allocator@D@2@@std@@V12@@std@@@2@$0A@@std@@@std@@@2@XZ ; std::_Tree<std::_Tmap_traits<std::basic_string<char,std::char_traits<char>,std::allocator<char> >,std::basic_string<char,std::char_traits<char>,std::allocator<char> >,std::less<std::basic_string<char,std::char_traits<char>,std::allocator<char> > >,std::allocator<std::pair<std::basic_string<char,std::char_traits<char>,std::allocator<char> > const ,std::basic_string<char,std::char_traits<char>,std::allocator<char> > > >,0> >::end
PUBLIC	??E?$_Tree_iterator@V?$_Tree_val@V?$_Tmap_traits@V?$basic_string@DU?$char_traits@D@std@@V?$allocator@D@2@@std@@V12@U?$less@V?$basic_string@DU?$char_traits@D@std@@V?$allocator@D@2@@std@@@2@V?$allocator@U?$pair@$$CBV?$basic_string@DU?$char_traits@D@std@@V?$allocator@D@2@@std@@V12@@std@@@2@$0A@@std@@@std@@@std@@QAEAAV01@XZ ; std::_Tree_iterator<std::_Tree_val<std::_Tmap_traits<std::basic_string<char,std::char_traits<char>,std::allocator<char> >,std::basic_string<char,std::char_traits<char>,std::allocator<char> >,std::less<std::basic_string<char,std::char_traits<char>,std::allocator<char> > >,std::allocator<std::pair<std::basic_string<char,std::char_traits<char>,std::allocator<char> > const ,std::basic_string<char,std::char_traits<char>,std::allocator<char> > > >,0> > >::operator++
PUBLIC	?begin@?$_Tree@V?$_Tmap_traits@V?$basic_string@DU?$char_traits@D@std@@V?$allocator@D@2@@std@@V12@U?$less@V?$basic_string@DU?$char_traits@D@std@@V?$allocator@D@2@@std@@@2@V?$allocator@U?$pair@$$CBV?$basic_string@DU?$char_traits@D@std@@V?$allocator@D@2@@std@@V12@@std@@@2@$0A@@std@@@std@@QAE?AV?$_Tree_iterator@V?$_Tree_val@V?$_Tmap_traits@V?$basic_string@DU?$char_traits@D@std@@V?$allocator@D@2@@std@@V12@U?$less@V?$basic_string@DU?$char_traits@D@std@@V?$allocator@D@2@@std@@@2@V?$allocator@U?$pair@$$CBV?$basic_string@DU?$char_traits@D@std@@V?$allocator@D@2@@std@@V12@@std@@@2@$0A@@std@@@std@@@2@XZ ; std::_Tree<std::_Tmap_traits<std::basic_string<char,std::char_traits<char>,std::allocator<char> >,std::basic_string<char,std::char_traits<char>,std::allocator<char> >,std::less<std::basic_string<char,std::char_traits<char>,std::allocator<char> > >,std::allocator<std::pair<std::basic_string<char,std::char_traits<char>,std::allocator<char> > const ,std::basic_string<char,std::char_traits<char>,std::allocator<char> > > >,0> >::begin
PUBLIC	??0?$basic_stringstream@DU?$char_traits@D@std@@V?$allocator@D@2@@std@@QAE@H@Z ; std::basic_stringstream<char,std::char_traits<char>,std::allocator<char> >::basic_stringstream<char,std::char_traits<char>,std::allocator<char> >
PUBLIC	?getConfigString@trace@j9@plugins@monitoring@ibmras@@YA?AV?$basic_string@DU?$char_traits@D@std@@V?$allocator@D@2@@std@@XZ ; ibmras::monitoring::plugins::j9::trace::getConfigString
xdata$x	SEGMENT
__unwindtable$?getConfigString@trace@j9@plugins@monitoring@ibmras@@YA?AV?$basic_string@DU?$char_traits@D@std@@V?$allocator@D@2@@std@@XZ DD 0ffffffffH
	DD	FLAT:__unwindfunclet$?getConfigString@trace@j9@plugins@monitoring@ibmras@@YA?AV?$basic_string@DU?$char_traits@D@std@@V?$allocator@D@2@@std@@XZ$1
	DD	00H
	DD	FLAT:__unwindfunclet$?getConfigString@trace@j9@plugins@monitoring@ibmras@@YA?AV?$basic_string@DU?$char_traits@D@std@@V?$allocator@D@2@@std@@XZ$0
__ehfuncinfo$?getConfigString@trace@j9@plugins@monitoring@ibmras@@YA?AV?$basic_string@DU?$char_traits@D@std@@V?$allocator@D@2@@std@@XZ DD 019930522H
	DD	02H
	DD	FLAT:__unwindtable$?getConfigString@trace@j9@plugins@monitoring@ibmras@@YA?AV?$basic_string@DU?$char_traits@D@std@@V?$allocator@D@2@@std@@XZ
	DD	2 DUP(00H)
	DD	2 DUP(00H)
	DD	00H
	DD	01H
; Function compile flags: /Odtp
xdata$x	ENDS
_TEXT	SEGMENT
tv154 = -196						; size = 4
$T122755 = -192						; size = 4
$T122750 = -188						; size = 4
_propsiter$106723 = -184				; size = 4
_str$ = -180						; size = 168
__$EHRec$ = -12						; size = 12
___$ReturnUdt$ = 8					; size = 4
?getConfigString@trace@j9@plugins@monitoring@ibmras@@YA?AV?$basic_string@DU?$char_traits@D@std@@V?$allocator@D@2@@std@@XZ PROC ; ibmras::monitoring::plugins::j9::trace::getConfigString
; File c:\workspaces\newagent2\runtime.tools\src\ibmras\monitoring\plugins\j9\trace\tracedataprovider.cpp
; Line 127
	push	ebp
	mov	ebp, esp
	push	-1
	push	__ehhandler$?getConfigString@trace@j9@plugins@monitoring@ibmras@@YA?AV?$basic_string@DU?$char_traits@D@std@@V?$allocator@D@2@@std@@XZ
	mov	eax, DWORD PTR fs:0
	push	eax
	sub	esp, 184				; 000000b8H
	mov	eax, DWORD PTR ___security_cookie
	xor	eax, ebp
	push	eax
	lea	eax, DWORD PTR __$EHRec$[ebp]
	mov	DWORD PTR fs:0, eax
	mov	DWORD PTR $T122755[ebp], 0
; Line 128
	push	1
	push	3
	lea	ecx, DWORD PTR _str$[ebp]
	call	??0?$basic_stringstream@DU?$char_traits@D@std@@V?$allocator@D@2@@std@@QAE@H@Z ; std::basic_stringstream<char,std::char_traits<char>,std::allocator<char> >::basic_stringstream<char,std::char_traits<char>,std::allocator<char> >
	mov	DWORD PTR __$EHRec$[ebp+8], 1
; Line 130
	lea	eax, DWORD PTR _propsiter$106723[ebp]
	push	eax
	mov	ecx, OFFSET ?config@trace@j9@plugins@monitoring@ibmras@@3V?$map@V?$basic_string@DU?$char_traits@D@std@@V?$allocator@D@2@@std@@V12@U?$less@V?$basic_string@DU?$char_traits@D@std@@V?$allocator@D@2@@std@@@2@V?$allocator@U?$pair@$$CBV?$basic_string@DU?$char_traits@D@std@@V?$allocator@D@2@@std@@V12@@std@@@2@@std@@A ; ibmras::monitoring::plugins::j9::trace::config
	call	?begin@?$_Tree@V?$_Tmap_traits@V?$basic_string@DU?$char_traits@D@std@@V?$allocator@D@2@@std@@V12@U?$less@V?$basic_string@DU?$char_traits@D@std@@V?$allocator@D@2@@std@@@2@V?$allocator@U?$pair@$$CBV?$basic_string@DU?$char_traits@D@std@@V?$allocator@D@2@@std@@V12@@std@@@2@$0A@@std@@@std@@QAE?AV?$_Tree_iterator@V?$_Tree_val@V?$_Tmap_traits@V?$basic_string@DU?$char_traits@D@std@@V?$allocator@D@2@@std@@V12@U?$less@V?$basic_string@DU?$char_traits@D@std@@V?$allocator@D@2@@std@@@2@V?$allocator@U?$pair@$$CBV?$basic_string@DU?$char_traits@D@std@@V?$allocator@D@2@@std@@V12@@std@@@2@$0A@@std@@@std@@@2@XZ ; std::_Tree<std::_Tmap_traits<std::basic_string<char,std::char_traits<char>,std::allocator<char> >,std::basic_string<char,std::char_traits<char>,std::allocator<char> >,std::less<std::basic_string<char,std::char_traits<char>,std::allocator<char> > >,std::allocator<std::pair<std::basic_string<char,std::char_traits<char>,std::allocator<char> > const ,std::basic_string<char,std::char_traits<char>,std::allocator<char> > > >,0> >::begin
	jmp	SHORT $LN3@getConfigS
$LN2@getConfigS:
	lea	ecx, DWORD PTR _propsiter$106723[ebp]
	call	??E?$_Tree_iterator@V?$_Tree_val@V?$_Tmap_traits@V?$basic_string@DU?$char_traits@D@std@@V?$allocator@D@2@@std@@V12@U?$less@V?$basic_string@DU?$char_traits@D@std@@V?$allocator@D@2@@std@@@2@V?$allocator@U?$pair@$$CBV?$basic_string@DU?$char_traits@D@std@@V?$allocator@D@2@@std@@V12@@std@@@2@$0A@@std@@@std@@@std@@QAEAAV01@XZ ; std::_Tree_iterator<std::_Tree_val<std::_Tmap_traits<std::basic_string<char,std::char_traits<char>,std::allocator<char> >,std::basic_string<char,std::char_traits<char>,std::allocator<char> >,std::less<std::basic_string<char,std::char_traits<char>,std::allocator<char> > >,std::allocator<std::pair<std::basic_string<char,std::char_traits<char>,std::allocator<char> > const ,std::basic_string<char,std::char_traits<char>,std::allocator<char> > > >,0> > >::operator++
$LN3@getConfigS:
	lea	ecx, DWORD PTR $T122750[ebp]
	push	ecx
	mov	ecx, OFFSET ?config@trace@j9@plugins@monitoring@ibmras@@3V?$map@V?$basic_string@DU?$char_traits@D@std@@V?$allocator@D@2@@std@@V12@U?$less@V?$basic_string@DU?$char_traits@D@std@@V?$allocator@D@2@@std@@@2@V?$allocator@U?$pair@$$CBV?$basic_string@DU?$char_traits@D@std@@V?$allocator@D@2@@std@@V12@@std@@@2@@std@@A ; ibmras::monitoring::plugins::j9::trace::config
	call	?end@?$_Tree@V?$_Tmap_traits@V?$basic_string@DU?$char_traits@D@std@@V?$allocator@D@2@@std@@V12@U?$less@V?$basic_string@DU?$char_traits@D@std@@V?$allocator@D@2@@std@@@2@V?$allocator@U?$pair@$$CBV?$basic_string@DU?$char_traits@D@std@@V?$allocator@D@2@@std@@V12@@std@@@2@$0A@@std@@@std@@QAE?AV?$_Tree_iterator@V?$_Tree_val@V?$_Tmap_traits@V?$basic_string@DU?$char_traits@D@std@@V?$allocator@D@2@@std@@V12@U?$less@V?$basic_string@DU?$char_traits@D@std@@V?$allocator@D@2@@std@@@2@V?$allocator@U?$pair@$$CBV?$basic_string@DU?$char_traits@D@std@@V?$allocator@D@2@@std@@V12@@std@@@2@$0A@@std@@@std@@@2@XZ ; std::_Tree<std::_Tmap_traits<std::basic_string<char,std::char_traits<char>,std::allocator<char> >,std::basic_string<char,std::char_traits<char>,std::allocator<char> >,std::less<std::basic_string<char,std::char_traits<char>,std::allocator<char> > >,std::allocator<std::pair<std::basic_string<char,std::char_traits<char>,std::allocator<char> > const ,std::basic_string<char,std::char_traits<char>,std::allocator<char> > > >,0> >::end
	push	eax
	lea	ecx, DWORD PTR _propsiter$106723[ebp]
	call	??9?$_Tree_const_iterator@V?$_Tree_val@V?$_Tmap_traits@V?$basic_string@DU?$char_traits@D@std@@V?$allocator@D@2@@std@@V12@U?$less@V?$basic_string@DU?$char_traits@D@std@@V?$allocator@D@2@@std@@@2@V?$allocator@U?$pair@$$CBV?$basic_string@DU?$char_traits@D@std@@V?$allocator@D@2@@std@@V12@@std@@@2@$0A@@std@@@std@@@std@@QBE_NABV01@@Z ; std::_Tree_const_iterator<std::_Tree_val<std::_Tmap_traits<std::basic_string<char,std::char_traits<char>,std::allocator<char> >,std::basic_string<char,std::char_traits<char>,std::allocator<char> >,std::less<std::basic_string<char,std::char_traits<char>,std::allocator<char> > >,std::allocator<std::pair<std::basic_string<char,std::char_traits<char>,std::allocator<char> > const ,std::basic_string<char,std::char_traits<char>,std::allocator<char> > > >,0> > >::operator!=
	movzx	edx, al
	test	edx, edx
	je	SHORT $LN1@getConfigS
; Line 131
	lea	eax, DWORD PTR _str$[ebp]
	test	eax, eax
	je	SHORT $LN6@getConfigS
	lea	ecx, DWORD PTR _str$[ebp]
	add	ecx, 16					; 00000010H
	mov	DWORD PTR tv154[ebp], ecx
	jmp	SHORT $LN7@getConfigS
$LN6@getConfigS:
	mov	DWORD PTR tv154[ebp], 0
$LN7@getConfigS:
	push	10					; 0000000aH
	lea	ecx, DWORD PTR _propsiter$106723[ebp]
	call	??C?$_Tree_iterator@V?$_Tree_val@V?$_Tmap_traits@V?$basic_string@DU?$char_traits@D@std@@V?$allocator@D@2@@std@@V12@U?$less@V?$basic_string@DU?$char_traits@D@std@@V?$allocator@D@2@@std@@@2@V?$allocator@U?$pair@$$CBV?$basic_string@DU?$char_traits@D@std@@V?$allocator@D@2@@std@@V12@@std@@@2@$0A@@std@@@std@@@std@@QBEPAU?$pair@$$CBV?$basic_string@DU?$char_traits@D@std@@V?$allocator@D@2@@std@@V12@@1@XZ ; std::_Tree_iterator<std::_Tree_val<std::_Tmap_traits<std::basic_string<char,std::char_traits<char>,std::allocator<char> >,std::basic_string<char,std::char_traits<char>,std::allocator<char> >,std::less<std::basic_string<char,std::char_traits<char>,std::allocator<char> > >,std::allocator<std::pair<std::basic_string<char,std::char_traits<char>,std::allocator<char> > const ,std::basic_string<char,std::char_traits<char>,std::allocator<char> > > >,0> > >::operator->
	add	eax, 28					; 0000001cH
	push	eax
	push	OFFSET $SG107074
	lea	ecx, DWORD PTR _propsiter$106723[ebp]
	call	??C?$_Tree_iterator@V?$_Tree_val@V?$_Tmap_traits@V?$basic_string@DU?$char_traits@D@std@@V?$allocator@D@2@@std@@V12@U?$less@V?$basic_string@DU?$char_traits@D@std@@V?$allocator@D@2@@std@@@2@V?$allocator@U?$pair@$$CBV?$basic_string@DU?$char_traits@D@std@@V?$allocator@D@2@@std@@V12@@std@@@2@$0A@@std@@@std@@@std@@QBEPAU?$pair@$$CBV?$basic_string@DU?$char_traits@D@std@@V?$allocator@D@2@@std@@V12@@1@XZ ; std::_Tree_iterator<std::_Tree_val<std::_Tmap_traits<std::basic_string<char,std::char_traits<char>,std::allocator<char> >,std::basic_string<char,std::char_traits<char>,std::allocator<char> >,std::less<std::basic_string<char,std::char_traits<char>,std::allocator<char> > >,std::allocator<std::pair<std::basic_string<char,std::char_traits<char>,std::allocator<char> > const ,std::basic_string<char,std::char_traits<char>,std::allocator<char> > > >,0> > >::operator->
	push	eax
	mov	edx, DWORD PTR tv154[ebp]
	push	edx
	call	??$?6DU?$char_traits@D@std@@V?$allocator@D@1@@std@@YAAAV?$basic_ostream@DU?$char_traits@D@std@@@0@AAV10@ABV?$basic_string@DU?$char_traits@D@std@@V?$allocator@D@2@@0@@Z ; std::operator<<<char,std::char_traits<char>,std::allocator<char> >
	add	esp, 8
	push	eax
	call	??$?6U?$char_traits@D@std@@@std@@YAAAV?$basic_ostream@DU?$char_traits@D@std@@@0@AAV10@PBD@Z ; std::operator<<<std::char_traits<char> >
	add	esp, 8
	push	eax
	call	??$?6DU?$char_traits@D@std@@V?$allocator@D@1@@std@@YAAAV?$basic_ostream@DU?$char_traits@D@std@@@0@AAV10@ABV?$basic_string@DU?$char_traits@D@std@@V?$allocator@D@2@@0@@Z ; std::operator<<<char,std::char_traits<char>,std::allocator<char> >
	add	esp, 8
	push	eax
	call	??$?6U?$char_traits@D@std@@@std@@YAAAV?$basic_ostream@DU?$char_traits@D@std@@@0@AAV10@D@Z ; std::operator<<<std::char_traits<char> >
	add	esp, 8
; Line 132
	jmp	$LN2@getConfigS
$LN1@getConfigS:
; Line 133
	mov	eax, DWORD PTR ___$ReturnUdt$[ebp]
	push	eax
	lea	ecx, DWORD PTR _str$[ebp]
	call	?str@?$basic_stringstream@DU?$char_traits@D@std@@V?$allocator@D@2@@std@@QBE?AV?$basic_string@DU?$char_traits@D@std@@V?$allocator@D@2@@2@XZ ; std::basic_stringstream<char,std::char_traits<char>,std::allocator<char> >::str
	mov	ecx, DWORD PTR $T122755[ebp]
	or	ecx, 1
	mov	DWORD PTR $T122755[ebp], ecx
	mov	BYTE PTR __$EHRec$[ebp+8], 0
	lea	ecx, DWORD PTR _str$[ebp]
	call	??_D?$basic_stringstream@DU?$char_traits@D@std@@V?$allocator@D@2@@std@@QAEXXZ
	mov	eax, DWORD PTR ___$ReturnUdt$[ebp]
; Line 134
	mov	ecx, DWORD PTR __$EHRec$[ebp]
	mov	DWORD PTR fs:0, ecx
	pop	ecx
	mov	esp, ebp
	pop	ebp
	ret	0
_TEXT	ENDS
text$x	SEGMENT
__unwindfunclet$?getConfigString@trace@j9@plugins@monitoring@ibmras@@YA?AV?$basic_string@DU?$char_traits@D@std@@V?$allocator@D@2@@std@@XZ$0:
	lea	ecx, DWORD PTR _str$[ebp]
	jmp	??_D?$basic_stringstream@DU?$char_traits@D@std@@V?$allocator@D@2@@std@@QAEXXZ
__unwindfunclet$?getConfigString@trace@j9@plugins@monitoring@ibmras@@YA?AV?$basic_string@DU?$char_traits@D@std@@V?$allocator@D@2@@std@@XZ$1:
	mov	eax, DWORD PTR $T122755[ebp]
	and	eax, 1
	je	$LN10@getConfigS
	and	DWORD PTR $T122755[ebp], -2		; fffffffeH
	mov	ecx, DWORD PTR ___$ReturnUdt$[ebp]
	jmp	??1?$basic_string@DU?$char_traits@D@std@@V?$allocator@D@2@@std@@QAE@XZ ; std::basic_string<char,std::char_traits<char>,std::allocator<char> >::~basic_string<char,std::char_traits<char>,std::allocator<char> >
$LN10@getConfigS:
	ret	0
__ehhandler$?getConfigString@trace@j9@plugins@monitoring@ibmras@@YA?AV?$basic_string@DU?$char_traits@D@std@@V?$allocator@D@2@@std@@XZ:
	mov	edx, DWORD PTR [esp+8]
	lea	eax, DWORD PTR [edx+12]
	mov	ecx, DWORD PTR [edx-188]
	xor	ecx, eax
	call	@__security_check_cookie@4
	mov	eax, OFFSET __ehfuncinfo$?getConfigString@trace@j9@plugins@monitoring@ibmras@@YA?AV?$basic_string@DU?$char_traits@D@std@@V?$allocator@D@2@@std@@XZ
	jmp	___CxxFrameHandler3
text$x	ENDS
?getConfigString@trace@j9@plugins@monitoring@ibmras@@YA?AV?$basic_string@DU?$char_traits@D@std@@V?$allocator@D@2@@std@@XZ ENDP ; ibmras::monitoring::plugins::j9::trace::getConfigString
PUBLIC	??1?$basic_stringstream@DU?$char_traits@D@std@@V?$allocator@D@2@@std@@UAE@XZ ; std::basic_stringstream<char,std::char_traits<char>,std::allocator<char> >::~basic_stringstream<char,std::char_traits<char>,std::allocator<char> >
EXTRN	__imp_??1?$basic_ios@DU?$char_traits@D@std@@@std@@UAE@XZ:PROC
; Function compile flags: /Odtp
;	COMDAT ??_D?$basic_stringstream@DU?$char_traits@D@std@@V?$allocator@D@2@@std@@QAEXXZ
_TEXT	SEGMENT
_this$ = -4						; size = 4
??_D?$basic_stringstream@DU?$char_traits@D@std@@V?$allocator@D@2@@std@@QAEXXZ PROC ; std::basic_stringstream<char,std::char_traits<char>,std::allocator<char> >::`vbase destructor', COMDAT
; _this$ = ecx
	push	ebp
	mov	ebp, esp
	push	ecx
	mov	DWORD PTR _this$[ebp], ecx
	mov	ecx, DWORD PTR _this$[ebp]
	add	ecx, 96					; 00000060H
	call	??1?$basic_stringstream@DU?$char_traits@D@std@@V?$allocator@D@2@@std@@UAE@XZ ; std::basic_stringstream<char,std::char_traits<char>,std::allocator<char> >::~basic_stringstream<char,std::char_traits<char>,std::allocator<char> >
	mov	ecx, DWORD PTR _this$[ebp]
	add	ecx, 96					; 00000060H
	call	DWORD PTR __imp_??1?$basic_ios@DU?$char_traits@D@std@@@std@@UAE@XZ
	mov	esp, ebp
	pop	ebp
	ret	0
??_D?$basic_stringstream@DU?$char_traits@D@std@@V?$allocator@D@2@@std@@QAEXXZ ENDP ; std::basic_stringstream<char,std::char_traits<char>,std::allocator<char> >::`vbase destructor'
_TEXT	ENDS
PUBLIC	?c_str@?$basic_string@DU?$char_traits@D@std@@V?$allocator@D@2@@std@@QBEPBDXZ ; std::basic_string<char,std::char_traits<char>,std::allocator<char> >::c_str
PUBLIC	?length@?$basic_string@DU?$char_traits@D@std@@V?$allocator@D@2@@std@@QBEIXZ ; std::basic_string<char,std::char_traits<char>,std::allocator<char> >::length
PUBLIC	__$ArrayPad$
PUBLIC	?getBucketCapacity@trace@j9@plugins@monitoring@ibmras@@YAIXZ ; ibmras::monitoring::plugins::j9::trace::getBucketCapacity
EXTRN	?debug@Logger@common@ibmras@@QAAXW4Level@logging@23@PBDZZ:PROC ; ibmras::common::Logger::debug
EXTRN	__imp__atoi:PROC
EXTRN	?getAgentProperty@Agent@agent@monitoring@ibmras@@QAE?AV?$basic_string@DU?$char_traits@D@std@@V?$allocator@D@2@@std@@ABV56@@Z:PROC ; ibmras::monitoring::agent::Agent::getAgentProperty
EXTRN	?getInstance@Agent@agent@monitoring@ibmras@@SAPAV1234@XZ:PROC ; ibmras::monitoring::agent::Agent::getInstance
xdata$x	SEGMENT
__unwindtable$?getBucketCapacity@trace@j9@plugins@monitoring@ibmras@@YAIXZ DD 0ffffffffH
	DD	FLAT:__unwindfunclet$?getBucketCapacity@trace@j9@plugins@monitoring@ibmras@@YAIXZ$0
	DD	00H
	DD	FLAT:__unwindfunclet$?getBucketCapacity@trace@j9@plugins@monitoring@ibmras@@YAIXZ$1
	DD	0ffffffffH
	DD	FLAT:__unwindfunclet$?getBucketCapacity@trace@j9@plugins@monitoring@ibmras@@YAIXZ$1
__ehfuncinfo$?getBucketCapacity@trace@j9@plugins@monitoring@ibmras@@YAIXZ DD 019930522H
	DD	03H
	DD	FLAT:__unwindtable$?getBucketCapacity@trace@j9@plugins@monitoring@ibmras@@YAIXZ
	DD	2 DUP(00H)
	DD	2 DUP(00H)
	DD	00H
	DD	01H
; Function compile flags: /Odtp
xdata$x	ENDS
_TEXT	SEGMENT
$T122765 = -84						; size = 4
_agent$ = -80						; size = 4
_capacity$ = -76					; size = 4
_userValue$ = -72					; size = 28
$T107082 = -44						; size = 28
__$ArrayPad$ = -16					; size = 4
__$EHRec$ = -12						; size = 12
?getBucketCapacity@trace@j9@plugins@monitoring@ibmras@@YAIXZ PROC ; ibmras::monitoring::plugins::j9::trace::getBucketCapacity
; Line 136
	push	ebp
	mov	ebp, esp
	push	-1
	push	__ehhandler$?getBucketCapacity@trace@j9@plugins@monitoring@ibmras@@YAIXZ
	mov	eax, DWORD PTR fs:0
	push	eax
	sub	esp, 72					; 00000048H
	mov	eax, DWORD PTR ___security_cookie
	xor	eax, ebp
	mov	DWORD PTR __$ArrayPad$[ebp], eax
	push	eax
	lea	eax, DWORD PTR __$EHRec$[ebp]
	mov	DWORD PTR fs:0, eax
; Line 138
	call	?getInstance@Agent@agent@monitoring@ibmras@@SAPAV1234@XZ ; ibmras::monitoring::agent::Agent::getInstance
	mov	DWORD PTR _agent$[ebp], eax
; Line 139
	push	OFFSET $SG107084
	lea	ecx, DWORD PTR $T107082[ebp]
	call	??0?$basic_string@DU?$char_traits@D@std@@V?$allocator@D@2@@std@@QAE@PBD@Z ; std::basic_string<char,std::char_traits<char>,std::allocator<char> >::basic_string<char,std::char_traits<char>,std::allocator<char> >
	mov	DWORD PTR __$EHRec$[ebp+8], 0
	lea	eax, DWORD PTR $T107082[ebp]
	push	eax
	lea	ecx, DWORD PTR _userValue$[ebp]
	push	ecx
	mov	ecx, DWORD PTR _agent$[ebp]
	call	?getAgentProperty@Agent@agent@monitoring@ibmras@@QAE?AV?$basic_string@DU?$char_traits@D@std@@V?$allocator@D@2@@std@@ABV56@@Z ; ibmras::monitoring::agent::Agent::getAgentProperty
	mov	BYTE PTR __$EHRec$[ebp+8], 2
	lea	ecx, DWORD PTR $T107082[ebp]
	call	??1?$basic_string@DU?$char_traits@D@std@@V?$allocator@D@2@@std@@QAE@XZ ; std::basic_string<char,std::char_traits<char>,std::allocator<char> >::~basic_string<char,std::char_traits<char>,std::allocator<char> >
; Line 140
	mov	DWORD PTR _capacity$[ebp], 0
; Line 141
	lea	ecx, DWORD PTR _userValue$[ebp]
	call	?length@?$basic_string@DU?$char_traits@D@std@@V?$allocator@D@2@@std@@QBEIXZ ; std::basic_string<char,std::char_traits<char>,std::allocator<char> >::length
	test	eax, eax
	jbe	SHORT $LN3@getBucketC
; Line 142
	lea	ecx, DWORD PTR _userValue$[ebp]
	call	?c_str@?$basic_string@DU?$char_traits@D@std@@V?$allocator@D@2@@std@@QBEPBDXZ ; std::basic_string<char,std::char_traits<char>,std::allocator<char> >::c_str
	push	eax
	call	DWORD PTR __imp__atoi
	add	esp, 4
	mov	DWORD PTR _capacity$[ebp], eax
$LN3@getBucketC:
; Line 144
	cmp	DWORD PTR _capacity$[ebp], 0
	ja	SHORT $LN2@getBucketC
; Line 145
	mov	DWORD PTR _capacity$[ebp], 4000000	; 003d0900H
$LN2@getBucketC:
; Line 148
	mov	edx, DWORD PTR ?logger@trace@j9@plugins@monitoring@ibmras@@3PAVLogger@common@5@A ; ibmras::monitoring::plugins::j9::trace::logger
	cmp	DWORD PTR [edx+8], 5
	jl	SHORT $LN1@getBucketC
	mov	eax, DWORD PTR _capacity$[ebp]
	push	eax
	push	OFFSET $SG107089
	push	5
	mov	ecx, DWORD PTR ?logger@trace@j9@plugins@monitoring@ibmras@@3PAVLogger@common@5@A ; ibmras::monitoring::plugins::j9::trace::logger
	push	ecx
	call	?debug@Logger@common@ibmras@@QAAXW4Level@logging@23@PBDZZ ; ibmras::common::Logger::debug
	add	esp, 16					; 00000010H
$LN1@getBucketC:
; Line 150
	mov	edx, DWORD PTR _capacity$[ebp]
	mov	DWORD PTR $T122765[ebp], edx
	mov	DWORD PTR __$EHRec$[ebp+8], -1
	lea	ecx, DWORD PTR _userValue$[ebp]
	call	??1?$basic_string@DU?$char_traits@D@std@@V?$allocator@D@2@@std@@QAE@XZ ; std::basic_string<char,std::char_traits<char>,std::allocator<char> >::~basic_string<char,std::char_traits<char>,std::allocator<char> >
	mov	eax, DWORD PTR $T122765[ebp]
; Line 152
	mov	ecx, DWORD PTR __$EHRec$[ebp]
	mov	DWORD PTR fs:0, ecx
	pop	ecx
	mov	ecx, DWORD PTR __$ArrayPad$[ebp]
	xor	ecx, ebp
	call	@__security_check_cookie@4
	mov	esp, ebp
	pop	ebp
	ret	0
_TEXT	ENDS
text$x	SEGMENT
__unwindfunclet$?getBucketCapacity@trace@j9@plugins@monitoring@ibmras@@YAIXZ$0:
	lea	ecx, DWORD PTR $T107082[ebp]
	jmp	??1?$basic_string@DU?$char_traits@D@std@@V?$allocator@D@2@@std@@QAE@XZ ; std::basic_string<char,std::char_traits<char>,std::allocator<char> >::~basic_string<char,std::char_traits<char>,std::allocator<char> >
__unwindfunclet$?getBucketCapacity@trace@j9@plugins@monitoring@ibmras@@YAIXZ$1:
	lea	ecx, DWORD PTR _userValue$[ebp]
	jmp	??1?$basic_string@DU?$char_traits@D@std@@V?$allocator@D@2@@std@@QAE@XZ ; std::basic_string<char,std::char_traits<char>,std::allocator<char> >::~basic_string<char,std::char_traits<char>,std::allocator<char> >
__ehhandler$?getBucketCapacity@trace@j9@plugins@monitoring@ibmras@@YAIXZ:
	mov	edx, DWORD PTR [esp+8]
	lea	eax, DWORD PTR [edx+12]
	mov	ecx, DWORD PTR [edx-76]
	xor	ecx, eax
	call	@__security_check_cookie@4
	mov	ecx, DWORD PTR [edx-4]
	xor	ecx, eax
	call	@__security_check_cookie@4
	mov	eax, OFFSET __ehfuncinfo$?getBucketCapacity@trace@j9@plugins@monitoring@ibmras@@YAIXZ
	jmp	___CxxFrameHandler3
text$x	ENDS
?getBucketCapacity@trace@j9@plugins@monitoring@ibmras@@YAIXZ ENDP ; ibmras::monitoring::plugins::j9::trace::getBucketCapacity
PUBLIC	?registerPushSource@trace@j9@plugins@monitoring@ibmras@@YAPAUpushsource@@P6AXPAUmonitordata@@@ZI@Z ; ibmras::monitoring::plugins::j9::trace::registerPushSource
EXTRN	??2@YAPAXI@Z:PROC				; operator new
EXTRN	_memset:PROC
; Function compile flags: /Odtp
_TEXT	SEGMENT
tv67 = -16						; size = 4
$T122774 = -12						; size = 4
$T122773 = -8						; size = 4
_src$ = -4						; size = 4
_callback$ = 8						; size = 4
_provID$ = 12						; size = 4
?registerPushSource@trace@j9@plugins@monitoring@ibmras@@YAPAUpushsource@@P6AXPAUmonitordata@@@ZI@Z PROC ; ibmras::monitoring::plugins::j9::trace::registerPushSource
; Line 166
	push	ebp
	mov	ebp, esp
	sub	esp, 16					; 00000010H
; Line 167
	mov	DWORD PTR $T122773[ebp], 20		; 00000014H
	mov	eax, DWORD PTR $T122773[ebp]
	push	eax
	call	??2@YAPAXI@Z				; operator new
	add	esp, 4
	mov	DWORD PTR $T122774[ebp], eax
	cmp	DWORD PTR $T122774[ebp], 0
	je	SHORT $LN3@registerPu
	mov	ecx, DWORD PTR $T122773[ebp]
	push	ecx
	push	0
	mov	edx, DWORD PTR $T122774[ebp]
	push	edx
	call	_memset
	add	esp, 12					; 0000000cH
	mov	eax, DWORD PTR $T122774[ebp]
	mov	DWORD PTR tv67[ebp], eax
	jmp	SHORT $LN4@registerPu
$LN3@registerPu:
	mov	DWORD PTR tv67[ebp], 0
$LN4@registerPu:
	mov	ecx, DWORD PTR tv67[ebp]
	mov	DWORD PTR _src$[ebp], ecx
; Line 168
	mov	edx, DWORD PTR _src$[ebp]
	mov	DWORD PTR [edx+8], OFFSET $SG107100
; Line 169
	mov	eax, DWORD PTR _src$[ebp]
	mov	DWORD PTR [eax+12], OFFSET $SG107101
; Line 174
	mov	ecx, DWORD PTR _src$[ebp]
	mov	DWORD PTR [ecx], 0
; Line 175
	mov	edx, DWORD PTR _src$[ebp]
	mov	DWORD PTR [edx+16], 0
; Line 176
	call	?getBucketCapacity@trace@j9@plugins@monitoring@ibmras@@YAIXZ ; ibmras::monitoring::plugins::j9::trace::getBucketCapacity
	mov	ecx, DWORD PTR _src$[ebp]
	mov	DWORD PTR [ecx+4], eax
; Line 178
	mov	edx, DWORD PTR _provID$[ebp]
	mov	DWORD PTR ?provID@trace@j9@plugins@monitoring@ibmras@@3IA, edx ; ibmras::monitoring::plugins::j9::trace::provID
; Line 179
	mov	eax, DWORD PTR _callback$[ebp]
	mov	DWORD PTR ?sendDataToAgent@trace@j9@plugins@monitoring@ibmras@@3P6AXPAUmonitordata@@@ZA, eax ; ibmras::monitoring::plugins::j9::trace::sendDataToAgent
; Line 180
	mov	eax, DWORD PTR _src$[ebp]
; Line 181
	mov	esp, ebp
	pop	ebp
	ret	0
?registerPushSource@trace@j9@plugins@monitoring@ibmras@@YAPAUpushsource@@P6AXPAUmonitordata@@@ZI@Z ENDP ; ibmras::monitoring::plugins::j9::trace::registerPushSource
_TEXT	ENDS
PUBLIC	?gcTracepointAvailableInThisVM@trace@j9@plugins@monitoring@ibmras@@YA_NH@Z ; ibmras::monitoring::plugins::j9::trace::gcTracepointAvailableInThisVM
EXTRN	?is27VMOrLater@Util@j9@plugins@monitoring@ibmras@@SA_NXZ:PROC ; ibmras::monitoring::plugins::j9::Util::is27VMOrLater
EXTRN	?is26VMOrLater@Util@j9@plugins@monitoring@ibmras@@SA_NXZ:PROC ; ibmras::monitoring::plugins::j9::Util::is26VMOrLater
EXTRN	?getServiceRefreshNumber@Util@j9@plugins@monitoring@ibmras@@SAHXZ:PROC ; ibmras::monitoring::plugins::j9::Util::getServiceRefreshNumber
EXTRN	?getJavaLevel@Util@j9@plugins@monitoring@ibmras@@SAHXZ:PROC ; ibmras::monitoring::plugins::j9::Util::getJavaLevel
; Function compile flags: /Odtp
_TEXT	SEGMENT
_tpNumber$ = 8						; size = 4
?gcTracepointAvailableInThisVM@trace@j9@plugins@monitoring@ibmras@@YA_NH@Z PROC ; ibmras::monitoring::plugins::j9::trace::gcTracepointAvailableInThisVM
; Line 183
	push	ebp
	mov	ebp, esp
; Line 187
	cmp	DWORD PTR _tpNumber$[ebp], 139		; 0000008bH
	jg	SHORT $LN13@gcTracepoi
	cmp	DWORD PTR _tpNumber$[ebp], 131		; 00000083H
	jl	SHORT $LN13@gcTracepoi
; Line 188
	call	?getJavaLevel@Util@j9@plugins@monitoring@ibmras@@SAHXZ ; ibmras::monitoring::plugins::j9::Util::getJavaLevel
	cmp	eax, 5
	jne	SHORT $LN12@gcTracepoi
; Line 189
	call	?getServiceRefreshNumber@Util@j9@plugins@monitoring@ibmras@@SAHXZ ; ibmras::monitoring::plugins::j9::Util::getServiceRefreshNumber
	cmp	eax, 9
	jge	SHORT $LN12@gcTracepoi
; Line 190
	xor	al, al
	jmp	$LN14@gcTracepoi
$LN12@gcTracepoi:
; Line 194
	jmp	SHORT $LN10@gcTracepoi
$LN13@gcTracepoi:
; Line 196
	cmp	DWORD PTR _tpNumber$[ebp], 383		; 0000017fH
	je	SHORT $LN8@gcTracepoi
	cmp	DWORD PTR _tpNumber$[ebp], 384		; 00000180H
	je	SHORT $LN8@gcTracepoi
	cmp	DWORD PTR _tpNumber$[ebp], 395		; 0000018bH
	je	SHORT $LN8@gcTracepoi
	cmp	DWORD PTR _tpNumber$[ebp], 345		; 00000159H
	jl	SHORT $LN7@gcTracepoi
	cmp	DWORD PTR _tpNumber$[ebp], 348		; 0000015cH
	jle	SHORT $LN8@gcTracepoi
$LN7@gcTracepoi:
	cmp	DWORD PTR _tpNumber$[ebp], 463		; 000001cfH
	jl	SHORT $LN10@gcTracepoi
	cmp	DWORD PTR _tpNumber$[ebp], 475		; 000001dbH
	jg	SHORT $LN10@gcTracepoi
$LN8@gcTracepoi:
; Line 197
	call	?is26VMOrLater@Util@j9@plugins@monitoring@ibmras@@SA_NXZ ; ibmras::monitoring::plugins::j9::Util::is26VMOrLater
	movzx	eax, al
	test	eax, eax
	jne	SHORT $LN10@gcTracepoi
; Line 198
	xor	al, al
	jmp	SHORT $LN14@gcTracepoi
$LN10@gcTracepoi:
; Line 201
	cmp	DWORD PTR _tpNumber$[ebp], 560		; 00000230H
	jne	SHORT $LN5@gcTracepoi
; Line 208
	call	?getJavaLevel@Util@j9@plugins@monitoring@ibmras@@SAHXZ ; ibmras::monitoring::plugins::j9::Util::getJavaLevel
	cmp	eax, 7
	jge	SHORT $LN2@gcTracepoi
	call	?is26VMOrLater@Util@j9@plugins@monitoring@ibmras@@SA_NXZ ; ibmras::monitoring::plugins::j9::Util::is26VMOrLater
	movzx	ecx, al
	test	ecx, ecx
	je	SHORT $LN3@gcTracepoi
$LN2@gcTracepoi:
	call	?getJavaLevel@Util@j9@plugins@monitoring@ibmras@@SAHXZ ; ibmras::monitoring::plugins::j9::Util::getJavaLevel
	cmp	eax, 7
	jne	SHORT $LN1@gcTracepoi
	call	?getServiceRefreshNumber@Util@j9@plugins@monitoring@ibmras@@SAHXZ ; ibmras::monitoring::plugins::j9::Util::getServiceRefreshNumber
	cmp	eax, 4
	jge	SHORT $LN1@gcTracepoi
	call	?is27VMOrLater@Util@j9@plugins@monitoring@ibmras@@SA_NXZ ; ibmras::monitoring::plugins::j9::Util::is27VMOrLater
	movzx	edx, al
	test	edx, edx
	je	SHORT $LN3@gcTracepoi
$LN1@gcTracepoi:
	call	?getJavaLevel@Util@j9@plugins@monitoring@ibmras@@SAHXZ ; ibmras::monitoring::plugins::j9::Util::getJavaLevel
	cmp	eax, 6
	jne	SHORT $LN5@gcTracepoi
	call	?getServiceRefreshNumber@Util@j9@plugins@monitoring@ibmras@@SAHXZ ; ibmras::monitoring::plugins::j9::Util::getServiceRefreshNumber
	cmp	eax, 5
	jge	SHORT $LN5@gcTracepoi
	call	?is26VMOrLater@Util@j9@plugins@monitoring@ibmras@@SA_NXZ ; ibmras::monitoring::plugins::j9::Util::is26VMOrLater
	movzx	eax, al
	test	eax, eax
	je	SHORT $LN5@gcTracepoi
$LN3@gcTracepoi:
; Line 209
	xor	al, al
	jmp	SHORT $LN14@gcTracepoi
$LN5@gcTracepoi:
; Line 212
	mov	al, 1
$LN14@gcTracepoi:
; Line 213
	pop	ebp
	ret	0
?gcTracepointAvailableInThisVM@trace@j9@plugins@monitoring@ibmras@@YA_NH@Z ENDP ; ibmras::monitoring::plugins::j9::trace::gcTracepointAvailableInThisVM
_TEXT	ENDS
PUBLIC	?j9ShrTracePointAvailableInThisVM@trace@j9@plugins@monitoring@ibmras@@YA_NXZ ; ibmras::monitoring::plugins::j9::trace::j9ShrTracePointAvailableInThisVM
; Function compile flags: /Odtp
_TEXT	SEGMENT
?j9ShrTracePointAvailableInThisVM@trace@j9@plugins@monitoring@ibmras@@YA_NXZ PROC ; ibmras::monitoring::plugins::j9::trace::j9ShrTracePointAvailableInThisVM
; Line 215
	push	ebp
	mov	ebp, esp
; Line 221
	call	?getJavaLevel@Util@j9@plugins@monitoring@ibmras@@SAHXZ ; ibmras::monitoring::plugins::j9::Util::getJavaLevel
	cmp	eax, 5
	jne	SHORT $LN3@j9ShrTrace
; Line 222
	xor	al, al
	jmp	SHORT $LN4@j9ShrTrace
$LN3@j9ShrTrace:
; Line 225
	call	?getJavaLevel@Util@j9@plugins@monitoring@ibmras@@SAHXZ ; ibmras::monitoring::plugins::j9::Util::getJavaLevel
	cmp	eax, 6
	jne	SHORT $LN2@j9ShrTrace
; Line 229
	call	?getServiceRefreshNumber@Util@j9@plugins@monitoring@ibmras@@SAHXZ ; ibmras::monitoring::plugins::j9::Util::getServiceRefreshNumber
	cmp	eax, 8
	jge	SHORT $LN2@j9ShrTrace
; Line 230
	xor	al, al
	jmp	SHORT $LN4@j9ShrTrace
$LN2@j9ShrTrace:
; Line 233
	mov	al, 1
$LN4@j9ShrTrace:
; Line 234
	pop	ebp
	ret	0
?j9ShrTracePointAvailableInThisVM@trace@j9@plugins@monitoring@ibmras@@YA_NXZ ENDP ; ibmras::monitoring::plugins::j9::trace::j9ShrTracePointAvailableInThisVM
_TEXT	ENDS
PUBLIC	?profilingTracepointAvailableInThisVM@trace@j9@plugins@monitoring@ibmras@@YA_NXZ ; ibmras::monitoring::plugins::j9::trace::profilingTracepointAvailableInThisVM
; Function compile flags: /Odtp
_TEXT	SEGMENT
?profilingTracepointAvailableInThisVM@trace@j9@plugins@monitoring@ibmras@@YA_NXZ PROC ; ibmras::monitoring::plugins::j9::trace::profilingTracepointAvailableInThisVM
; Line 236
	push	ebp
	mov	ebp, esp
; Line 243
	call	?getJavaLevel@Util@j9@plugins@monitoring@ibmras@@SAHXZ ; ibmras::monitoring::plugins::j9::Util::getJavaLevel
	cmp	eax, 5
	jne	SHORT $LN2@profilingT
; Line 247
	call	?getServiceRefreshNumber@Util@j9@plugins@monitoring@ibmras@@SAHXZ ; ibmras::monitoring::plugins::j9::Util::getServiceRefreshNumber
	cmp	eax, 8
	jge	SHORT $LN2@profilingT
; Line 248
	xor	al, al
	jmp	SHORT $LN3@profilingT
$LN2@profilingT:
; Line 252
	mov	al, 1
$LN3@profilingT:
; Line 253
	pop	ebp
	ret	0
?profilingTracepointAvailableInThisVM@trace@j9@plugins@monitoring@ibmras@@YA_NXZ ENDP ; ibmras::monitoring::plugins::j9::trace::profilingTracepointAvailableInThisVM
_TEXT	ENDS
PUBLIC	?isDumpStartedTPAvailabledInVM@trace@j9@plugins@monitoring@ibmras@@YA_NXZ ; ibmras::monitoring::plugins::j9::trace::isDumpStartedTPAvailabledInVM
; Function compile flags: /Odtp
_TEXT	SEGMENT
?isDumpStartedTPAvailabledInVM@trace@j9@plugins@monitoring@ibmras@@YA_NXZ PROC ; ibmras::monitoring::plugins::j9::trace::isDumpStartedTPAvailabledInVM
; Line 255
	push	ebp
	mov	ebp, esp
; Line 259
	call	?getJavaLevel@Util@j9@plugins@monitoring@ibmras@@SAHXZ ; ibmras::monitoring::plugins::j9::Util::getJavaLevel
	cmp	eax, 5
	jne	SHORT $LN4@isDumpStar
; Line 260
	call	?getServiceRefreshNumber@Util@j9@plugins@monitoring@ibmras@@SAHXZ ; ibmras::monitoring::plugins::j9::Util::getServiceRefreshNumber
	cmp	eax, 10					; 0000000aH
	jge	SHORT $LN4@isDumpStar
; Line 261
	xor	al, al
	jmp	SHORT $LN5@isDumpStar
$LN4@isDumpStar:
; Line 264
	call	?getJavaLevel@Util@j9@plugins@monitoring@ibmras@@SAHXZ ; ibmras::monitoring::plugins::j9::Util::getJavaLevel
	cmp	eax, 6
	jne	SHORT $LN2@isDumpStar
; Line 265
	call	?getServiceRefreshNumber@Util@j9@plugins@monitoring@ibmras@@SAHXZ ; ibmras::monitoring::plugins::j9::Util::getServiceRefreshNumber
	cmp	eax, 5
	jge	SHORT $LN2@isDumpStar
; Line 266
	xor	al, al
	jmp	SHORT $LN5@isDumpStar
$LN2@isDumpStar:
; Line 269
	mov	al, 1
$LN5@isDumpStar:
; Line 270
	pop	ebp
	ret	0
?isDumpStartedTPAvailabledInVM@trace@j9@plugins@monitoring@ibmras@@YA_NXZ ENDP ; ibmras::monitoring::plugins::j9::trace::isDumpStartedTPAvailabledInVM
_TEXT	ENDS
PUBLIC	??$?8DU?$char_traits@D@std@@V?$allocator@D@1@@std@@YA_NABV?$basic_string@DU?$char_traits@D@std@@V?$allocator@D@2@@0@PBD@Z ; std::operator==<char,std::char_traits<char>,std::allocator<char> >
PUBLIC	?isDumpTPavailable@trace@j9@plugins@monitoring@ibmras@@YA_NABV?$basic_string@DU?$char_traits@D@std@@V?$allocator@D@2@@std@@@Z ; ibmras::monitoring::plugins::j9::trace::isDumpTPavailable
EXTRN	?j9DmpTrcAvailable@Util@j9@plugins@monitoring@ibmras@@SA_NXZ:PROC ; ibmras::monitoring::plugins::j9::Util::j9DmpTrcAvailable
; Function compile flags: /Odtp
_TEXT	SEGMENT
_tpNumber$ = 8						; size = 4
?isDumpTPavailable@trace@j9@plugins@monitoring@ibmras@@YA_NABV?$basic_string@DU?$char_traits@D@std@@V?$allocator@D@2@@std@@@Z PROC ; ibmras::monitoring::plugins::j9::trace::isDumpTPavailable
; Line 272
	push	ebp
	mov	ebp, esp
; Line 273
	push	OFFSET $SG107155
	mov	eax, DWORD PTR _tpNumber$[ebp]
	push	eax
	call	??$?8DU?$char_traits@D@std@@V?$allocator@D@1@@std@@YA_NABV?$basic_string@DU?$char_traits@D@std@@V?$allocator@D@2@@0@PBD@Z ; std::operator==<char,std::char_traits<char>,std::allocator<char> >
	add	esp, 8
	movzx	ecx, al
	test	ecx, ecx
	je	SHORT $LN4@isDumpTPav
; Line 274
	mov	al, 1
	jmp	SHORT $LN5@isDumpTPav
$LN4@isDumpTPav:
; Line 276
	push	OFFSET $SG107157
	mov	edx, DWORD PTR _tpNumber$[ebp]
	push	edx
	call	??$?8DU?$char_traits@D@std@@V?$allocator@D@1@@std@@YA_NABV?$basic_string@DU?$char_traits@D@std@@V?$allocator@D@2@@0@PBD@Z ; std::operator==<char,std::char_traits<char>,std::allocator<char> >
	add	esp, 8
	movzx	eax, al
	test	eax, eax
	je	SHORT $LN3@isDumpTPav
; Line 277
	call	?isDumpStartedTPAvailabledInVM@trace@j9@plugins@monitoring@ibmras@@YA_NXZ ; ibmras::monitoring::plugins::j9::trace::isDumpStartedTPAvailabledInVM
	jmp	SHORT $LN5@isDumpTPav
$LN3@isDumpTPav:
; Line 280
	push	OFFSET $SG107160
	mov	ecx, DWORD PTR _tpNumber$[ebp]
	push	ecx
	call	??$?8DU?$char_traits@D@std@@V?$allocator@D@1@@std@@YA_NABV?$basic_string@DU?$char_traits@D@std@@V?$allocator@D@2@@0@PBD@Z ; std::operator==<char,std::char_traits<char>,std::allocator<char> >
	add	esp, 8
	movzx	edx, al
	test	edx, edx
	jne	SHORT $LN1@isDumpTPav
	push	OFFSET $SG107161
	mov	eax, DWORD PTR _tpNumber$[ebp]
	push	eax
	call	??$?8DU?$char_traits@D@std@@V?$allocator@D@1@@std@@YA_NABV?$basic_string@DU?$char_traits@D@std@@V?$allocator@D@2@@0@PBD@Z ; std::operator==<char,std::char_traits<char>,std::allocator<char> >
	add	esp, 8
	movzx	ecx, al
	test	ecx, ecx
	je	SHORT $LN2@isDumpTPav
$LN1@isDumpTPav:
; Line 281
	call	?j9DmpTrcAvailable@Util@j9@plugins@monitoring@ibmras@@SA_NXZ ; ibmras::monitoring::plugins::j9::Util::j9DmpTrcAvailable
	jmp	SHORT $LN5@isDumpTPav
$LN2@isDumpTPav:
; Line 283
	xor	al, al
$LN5@isDumpTPav:
; Line 284
	pop	ebp
	ret	0
?isDumpTPavailable@trace@j9@plugins@monitoring@ibmras@@YA_NABV?$basic_string@DU?$char_traits@D@std@@V?$allocator@D@2@@std@@@Z ENDP ; ibmras::monitoring::plugins::j9::trace::isDumpTPavailable
_TEXT	ENDS
PUBLIC	?JavaTracePointsAvailableInVM@trace@j9@plugins@monitoring@ibmras@@YA_NXZ ; ibmras::monitoring::plugins::j9::trace::JavaTracePointsAvailableInVM
; Function compile flags: /Odtp
_TEXT	SEGMENT
?JavaTracePointsAvailableInVM@trace@j9@plugins@monitoring@ibmras@@YA_NXZ PROC ; ibmras::monitoring::plugins::j9::trace::JavaTracePointsAvailableInVM
; Line 286
	push	ebp
	mov	ebp, esp
; Line 290
	call	?getJavaLevel@Util@j9@plugins@monitoring@ibmras@@SAHXZ ; ibmras::monitoring::plugins::j9::Util::getJavaLevel
	cmp	eax, 5
	jne	SHORT $LN2@JavaTraceP
; Line 291
	call	?getServiceRefreshNumber@Util@j9@plugins@monitoring@ibmras@@SAHXZ ; ibmras::monitoring::plugins::j9::Util::getServiceRefreshNumber
	cmp	eax, 10					; 0000000aH
	jge	SHORT $LN2@JavaTraceP
; Line 292
	xor	al, al
	jmp	SHORT $LN3@JavaTraceP
$LN2@JavaTraceP:
; Line 295
	mov	al, 1
$LN3@JavaTraceP:
; Line 296
	pop	ebp
	ret	0
?JavaTracePointsAvailableInVM@trace@j9@plugins@monitoring@ibmras@@YA_NXZ ENDP ; ibmras::monitoring::plugins::j9::trace::JavaTracePointsAvailableInVM
_TEXT	ENDS
PUBLIC	?isOkConsideringRealtime@trace@j9@plugins@monitoring@ibmras@@YA_NH@Z ; ibmras::monitoring::plugins::j9::trace::isOkConsideringRealtime
EXTRN	?isRealTimeVM@Util@j9@plugins@monitoring@ibmras@@SA_NXZ:PROC ; ibmras::monitoring::plugins::j9::Util::isRealTimeVM
; Function compile flags: /Odtp
_TEXT	SEGMENT
tv90 = -16						; size = 4
tv82 = -12						; size = 4
tv78 = -8						; size = 4
_answer$ = -1						; size = 1
_tp$ = 8						; size = 4
?isOkConsideringRealtime@trace@j9@plugins@monitoring@ibmras@@YA_NH@Z PROC ; ibmras::monitoring::plugins::j9::trace::isOkConsideringRealtime
; Line 298
	push	ebp
	mov	ebp, esp
	sub	esp, 16					; 00000010H
; Line 299
	mov	BYTE PTR _answer$[ebp], 0
; Line 300
	call	?isRealTimeVM@Util@j9@plugins@monitoring@ibmras@@SA_NXZ ; ibmras::monitoring::plugins::j9::Util::isRealTimeVM
	movzx	eax, al
	test	eax, eax
	je	$LN4@isOkConsid
; Line 301
	call	?is26VMOrLater@Util@j9@plugins@monitoring@ibmras@@SA_NXZ ; ibmras::monitoring::plugins::j9::Util::is26VMOrLater
	movzx	ecx, al
	test	ecx, ecx
	je	SHORT $LN3@isOkConsid
; Line 303
	cmp	DWORD PTR _tp$[ebp], 285		; 0000011dH
	je	SHORT $LN7@isOkConsid
	cmp	DWORD PTR _tp$[ebp], 286		; 0000011eH
	je	SHORT $LN7@isOkConsid
	cmp	DWORD PTR _tp$[ebp], 467		; 000001d3H
	je	SHORT $LN7@isOkConsid
	cmp	DWORD PTR _tp$[ebp], 468		; 000001d4H
	je	SHORT $LN7@isOkConsid
	cmp	DWORD PTR _tp$[ebp], 474		; 000001daH
	je	SHORT $LN7@isOkConsid
	cmp	DWORD PTR _tp$[ebp], 475		; 000001dbH
	je	SHORT $LN7@isOkConsid
	cmp	DWORD PTR _tp$[ebp], 54			; 00000036H
	jl	SHORT $LN8@isOkConsid
	cmp	DWORD PTR _tp$[ebp], 57			; 00000039H
	jle	SHORT $LN7@isOkConsid
$LN8@isOkConsid:
	mov	DWORD PTR tv78[ebp], 0
	jmp	SHORT $LN9@isOkConsid
$LN7@isOkConsid:
	mov	DWORD PTR tv78[ebp], 1
$LN9@isOkConsid:
	mov	dl, BYTE PTR tv78[ebp]
	mov	BYTE PTR _answer$[ebp], dl
; Line 304
	jmp	SHORT $LN2@isOkConsid
$LN3@isOkConsid:
; Line 307
	cmp	DWORD PTR _tp$[ebp], 279		; 00000117H
	jl	SHORT $LN10@isOkConsid
	cmp	DWORD PTR _tp$[ebp], 282		; 0000011aH
	jg	SHORT $LN10@isOkConsid
	mov	DWORD PTR tv82[ebp], 1
	jmp	SHORT $LN11@isOkConsid
$LN10@isOkConsid:
	mov	DWORD PTR tv82[ebp], 0
$LN11@isOkConsid:
	mov	al, BYTE PTR tv82[ebp]
	mov	BYTE PTR _answer$[ebp], al
$LN2@isOkConsid:
; Line 309
	jmp	SHORT $LN1@isOkConsid
$LN4@isOkConsid:
; Line 311
	cmp	DWORD PTR _tp$[ebp], 285		; 0000011dH
	je	SHORT $LN12@isOkConsid
	cmp	DWORD PTR _tp$[ebp], 286		; 0000011eH
	je	SHORT $LN12@isOkConsid
	cmp	DWORD PTR _tp$[ebp], 467		; 000001d3H
	je	SHORT $LN12@isOkConsid
	cmp	DWORD PTR _tp$[ebp], 468		; 000001d4H
	je	SHORT $LN12@isOkConsid
	cmp	DWORD PTR _tp$[ebp], 279		; 00000117H
	jl	SHORT $LN13@isOkConsid
	cmp	DWORD PTR _tp$[ebp], 282		; 0000011aH
	jle	SHORT $LN12@isOkConsid
$LN13@isOkConsid:
	mov	DWORD PTR tv90[ebp], 1
	jmp	SHORT $LN14@isOkConsid
$LN12@isOkConsid:
	mov	DWORD PTR tv90[ebp], 0
$LN14@isOkConsid:
	mov	cl, BYTE PTR tv90[ebp]
	mov	BYTE PTR _answer$[ebp], cl
$LN1@isOkConsid:
; Line 313
	mov	al, BYTE PTR _answer$[ebp]
; Line 314
	mov	esp, ebp
	pop	ebp
	ret	0
?isOkConsideringRealtime@trace@j9@plugins@monitoring@ibmras@@YA_NH@Z ENDP ; ibmras::monitoring::plugins::j9::trace::isOkConsideringRealtime
_TEXT	ENDS
PUBLIC	??$?9DU?$char_traits@D@std@@V?$allocator@D@1@@std@@YA_NABV?$basic_string@DU?$char_traits@D@std@@V?$allocator@D@2@@0@PBD@Z ; std::operator!=<char,std::char_traits<char>,std::allocator<char> >
PUBLIC	??A?$vector@V?$basic_string@DU?$char_traits@D@std@@V?$allocator@D@2@@std@@V?$allocator@V?$basic_string@DU?$char_traits@D@std@@V?$allocator@D@2@@std@@@2@@std@@QAEAAV?$basic_string@DU?$char_traits@D@std@@V?$allocator@D@2@@1@I@Z ; std::vector<std::basic_string<char,std::char_traits<char>,std::allocator<char> >,std::allocator<std::basic_string<char,std::char_traits<char>,std::allocator<char> > > >::operator[]
PUBLIC	??1?$vector@V?$basic_string@DU?$char_traits@D@std@@V?$allocator@D@2@@std@@V?$allocator@V?$basic_string@DU?$char_traits@D@std@@V?$allocator@D@2@@std@@@2@@std@@QAE@XZ ; std::vector<std::basic_string<char,std::char_traits<char>,std::allocator<char> >,std::allocator<std::basic_string<char,std::char_traits<char>,std::allocator<char> > > >::~vector<std::basic_string<char,std::char_traits<char>,std::allocator<char> >,std::allocator<std::basic_string<char,std::char_traits<char>,std::allocator<char> > > >
PUBLIC	?size@?$vector@V?$basic_string@DU?$char_traits@D@std@@V?$allocator@D@2@@std@@V?$allocator@V?$basic_string@DU?$char_traits@D@std@@V?$allocator@D@2@@std@@@2@@std@@QBEIXZ ; std::vector<std::basic_string<char,std::char_traits<char>,std::allocator<char> >,std::allocator<std::basic_string<char,std::char_traits<char>,std::allocator<char> > > >::size
PUBLIC	__$ArrayPad$
PUBLIC	?tracePointExistsInThisVM@trace@j9@plugins@monitoring@ibmras@@YA_NABV?$basic_string@DU?$char_traits@D@std@@V?$allocator@D@2@@std@@@Z ; ibmras::monitoring::plugins::j9::trace::tracePointExistsInThisVM
EXTRN	?equalsIgnoreCase@util@common@ibmras@@YA_NABV?$basic_string@DU?$char_traits@D@std@@V?$allocator@D@2@@std@@0@Z:PROC ; ibmras::common::util::equalsIgnoreCase
EXTRN	?vmHasLOATracePoints@Util@j9@plugins@monitoring@ibmras@@SA_NXZ:PROC ; ibmras::monitoring::plugins::j9::Util::vmHasLOATracePoints
EXTRN	?split@util@common@ibmras@@YA?AV?$vector@V?$basic_string@DU?$char_traits@D@std@@V?$allocator@D@2@@std@@V?$allocator@V?$basic_string@DU?$char_traits@D@std@@V?$allocator@D@2@@std@@@2@@std@@ABV?$basic_string@DU?$char_traits@D@std@@V?$allocator@D@2@@5@D@Z:PROC ; ibmras::common::util::split
xdata$x	SEGMENT
__ehfuncinfo$?tracePointExistsInThisVM@trace@j9@plugins@monitoring@ibmras@@YA_NABV?$basic_string@DU?$char_traits@D@std@@V?$allocator@D@2@@std@@@Z DD 019930522H
	DD	07H
	DD	FLAT:__unwindtable$?tracePointExistsInThisVM@trace@j9@plugins@monitoring@ibmras@@YA_NABV?$basic_string@DU?$char_traits@D@std@@V?$allocator@D@2@@std@@@Z
	DD	2 DUP(00H)
	DD	2 DUP(00H)
	DD	00H
	DD	01H
__unwindtable$?tracePointExistsInThisVM@trace@j9@plugins@monitoring@ibmras@@YA_NABV?$basic_string@DU?$char_traits@D@std@@V?$allocator@D@2@@std@@@Z DD 0ffffffffH
	DD	FLAT:__unwindfunclet$?tracePointExistsInThisVM@trace@j9@plugins@monitoring@ibmras@@YA_NABV?$basic_string@DU?$char_traits@D@std@@V?$allocator@D@2@@std@@@Z$0
	DD	00H
	DD	FLAT:__unwindfunclet$?tracePointExistsInThisVM@trace@j9@plugins@monitoring@ibmras@@YA_NABV?$basic_string@DU?$char_traits@D@std@@V?$allocator@D@2@@std@@@Z$1
	DD	01H
	DD	FLAT:__unwindfunclet$?tracePointExistsInThisVM@trace@j9@plugins@monitoring@ibmras@@YA_NABV?$basic_string@DU?$char_traits@D@std@@V?$allocator@D@2@@std@@@Z$2
	DD	02H
	DD	FLAT:__unwindfunclet$?tracePointExistsInThisVM@trace@j9@plugins@monitoring@ibmras@@YA_NABV?$basic_string@DU?$char_traits@D@std@@V?$allocator@D@2@@std@@@Z$3
	DD	03H
	DD	FLAT:__unwindfunclet$?tracePointExistsInThisVM@trace@j9@plugins@monitoring@ibmras@@YA_NABV?$basic_string@DU?$char_traits@D@std@@V?$allocator@D@2@@std@@@Z$4
	DD	02H
	DD	FLAT:__unwindfunclet$?tracePointExistsInThisVM@trace@j9@plugins@monitoring@ibmras@@YA_NABV?$basic_string@DU?$char_traits@D@std@@V?$allocator@D@2@@std@@@Z$4
	DD	05H
	DD	FLAT:__unwindfunclet$?tracePointExistsInThisVM@trace@j9@plugins@monitoring@ibmras@@YA_NABV?$basic_string@DU?$char_traits@D@std@@V?$allocator@D@2@@std@@@Z$5
; Function compile flags: /Odtp
xdata$x	ENDS
_TEXT	SEGMENT
tv397 = -248						; size = 4
tv303 = -244						; size = 4
tv296 = -240						; size = 4
tv244 = -236						; size = 4
tv233 = -232						; size = 4
tv226 = -228						; size = 4
tv219 = -224						; size = 4
tv207 = -220						; size = 4
tv180 = -216						; size = 4
tv170 = -212						; size = 4
tv163 = -208						; size = 4
$T122822 = -203						; size = 1
$T122819 = -202						; size = 1
$T122795 = -201						; size = 1
_agent$107562 = -200					; size = 4
_headless$107563 = -196					; size = 28
_isProfilingTracePoint$ = -166				; size = 1
_loaOK$ = -165						; size = 1
_number$ = -164						; size = 28
_tracePointExists$ = -136				; size = 1
_isJITTracePoint$ = -135				; size = 1
_isLOATracePoint$ = -134				; size = 1
_isj9ShrOK$ = -133					; size = 1
_tpNumber$ = -132					; size = 4
_component$ = -128					; size = 28
_isDumpTracePointOK$ = -97				; size = 1
_tracePoint$ = -96					; size = 16
_javaTracePointsOK$ = -80				; size = 1
_methodDictionaryAvailable$ = -79			; size = 1
_gcOK$ = -78						; size = 1
_isj9ShrTracePoint$ = -77				; size = 1
_isJavaTracePoint$ = -76				; size = 1
_profilingOK$ = -75					; size = 1
_jitOK$ = -74						; size = 1
_realtimeOK$ = -73					; size = 1
$T107567 = -72						; size = 28
$T107564 = -44						; size = 28
__$ArrayPad$ = -16					; size = 4
__$EHRec$ = -12						; size = 12
_tp$ = 8						; size = 4
?tracePointExistsInThisVM@trace@j9@plugins@monitoring@ibmras@@YA_NABV?$basic_string@DU?$char_traits@D@std@@V?$allocator@D@2@@std@@@Z PROC ; ibmras::monitoring::plugins::j9::trace::tracePointExistsInThisVM
; Line 316
	push	ebp
	mov	ebp, esp
	push	-1
	push	__ehhandler$?tracePointExistsInThisVM@trace@j9@plugins@monitoring@ibmras@@YA_NABV?$basic_string@DU?$char_traits@D@std@@V?$allocator@D@2@@std@@@Z
	mov	eax, DWORD PTR fs:0
	push	eax
	sub	esp, 236				; 000000ecH
	mov	eax, DWORD PTR ___security_cookie
	xor	eax, ebp
	mov	DWORD PTR __$ArrayPad$[ebp], eax
	push	eax
	lea	eax, DWORD PTR __$EHRec$[ebp]
	mov	DWORD PTR fs:0, eax
; Line 317
	push	46					; 0000002eH
	mov	eax, DWORD PTR _tp$[ebp]
	push	eax
	lea	ecx, DWORD PTR _tracePoint$[ebp]
	push	ecx
	call	?split@util@common@ibmras@@YA?AV?$vector@V?$basic_string@DU?$char_traits@D@std@@V?$allocator@D@2@@std@@V?$allocator@V?$basic_string@DU?$char_traits@D@std@@V?$allocator@D@2@@std@@@2@@std@@ABV?$basic_string@DU?$char_traits@D@std@@V?$allocator@D@2@@5@D@Z ; ibmras::common::util::split
	add	esp, 12					; 0000000cH
	mov	DWORD PTR __$EHRec$[ebp+8], 0
; Line 318
	lea	ecx, DWORD PTR _tracePoint$[ebp]
	call	?size@?$vector@V?$basic_string@DU?$char_traits@D@std@@V?$allocator@D@2@@std@@V?$allocator@V?$basic_string@DU?$char_traits@D@std@@V?$allocator@D@2@@std@@@2@@std@@QBEIXZ ; std::vector<std::basic_string<char,std::char_traits<char>,std::allocator<char> >,std::allocator<std::basic_string<char,std::char_traits<char>,std::allocator<char> > > >::size
	cmp	eax, 2
	je	SHORT $LN5@tracePoint
; Line 319
	mov	BYTE PTR $T122795[ebp], 0
	mov	DWORD PTR __$EHRec$[ebp+8], -1
	lea	ecx, DWORD PTR _tracePoint$[ebp]
	call	??1?$vector@V?$basic_string@DU?$char_traits@D@std@@V?$allocator@D@2@@std@@V?$allocator@V?$basic_string@DU?$char_traits@D@std@@V?$allocator@D@2@@std@@@2@@std@@QAE@XZ ; std::vector<std::basic_string<char,std::char_traits<char>,std::allocator<char> >,std::allocator<std::basic_string<char,std::char_traits<char>,std::allocator<char> > > >::~vector<std::basic_string<char,std::char_traits<char>,std::allocator<char> >,std::allocator<std::basic_string<char,std::char_traits<char>,std::allocator<char> > > >
	mov	al, BYTE PTR $T122795[ebp]
	jmp	$LN6@tracePoint
$LN5@tracePoint:
; Line 322
	push	0
	lea	ecx, DWORD PTR _tracePoint$[ebp]
	call	??A?$vector@V?$basic_string@DU?$char_traits@D@std@@V?$allocator@D@2@@std@@V?$allocator@V?$basic_string@DU?$char_traits@D@std@@V?$allocator@D@2@@std@@@2@@std@@QAEAAV?$basic_string@DU?$char_traits@D@std@@V?$allocator@D@2@@1@I@Z ; std::vector<std::basic_string<char,std::char_traits<char>,std::allocator<char> >,std::allocator<std::basic_string<char,std::char_traits<char>,std::allocator<char> > > >::operator[]
	push	eax
	lea	ecx, DWORD PTR _component$[ebp]
	call	??0?$basic_string@DU?$char_traits@D@std@@V?$allocator@D@2@@std@@QAE@ABV01@@Z ; std::basic_string<char,std::char_traits<char>,std::allocator<char> >::basic_string<char,std::char_traits<char>,std::allocator<char> >
	mov	BYTE PTR __$EHRec$[ebp+8], 1
; Line 323
	push	1
	lea	ecx, DWORD PTR _tracePoint$[ebp]
	call	??A?$vector@V?$basic_string@DU?$char_traits@D@std@@V?$allocator@D@2@@std@@V?$allocator@V?$basic_string@DU?$char_traits@D@std@@V?$allocator@D@2@@std@@@2@@std@@QAEAAV?$basic_string@DU?$char_traits@D@std@@V?$allocator@D@2@@1@I@Z ; std::vector<std::basic_string<char,std::char_traits<char>,std::allocator<char> >,std::allocator<std::basic_string<char,std::char_traits<char>,std::allocator<char> > > >::operator[]
	push	eax
	lea	ecx, DWORD PTR _number$[ebp]
	call	??0?$basic_string@DU?$char_traits@D@std@@V?$allocator@D@2@@std@@QAE@ABV01@@Z ; std::basic_string<char,std::char_traits<char>,std::allocator<char> >::basic_string<char,std::char_traits<char>,std::allocator<char> >
	mov	BYTE PTR __$EHRec$[ebp+8], 2
; Line 330
	push	OFFSET $SG107506
	lea	edx, DWORD PTR _component$[ebp]
	push	edx
	call	??$?8DU?$char_traits@D@std@@V?$allocator@D@1@@std@@YA_NABV?$basic_string@DU?$char_traits@D@std@@V?$allocator@D@2@@0@PBD@Z ; std::operator==<char,std::char_traits<char>,std::allocator<char> >
	add	esp, 8
	movzx	eax, al
	test	eax, eax
	je	$LN9@tracePoint
	push	OFFSET $SG107507
	lea	ecx, DWORD PTR _number$[ebp]
	push	ecx
	call	??$?8DU?$char_traits@D@std@@V?$allocator@D@1@@std@@YA_NABV?$basic_string@DU?$char_traits@D@std@@V?$allocator@D@2@@0@PBD@Z ; std::operator==<char,std::char_traits<char>,std::allocator<char> >
	add	esp, 8
	movzx	edx, al
	test	edx, edx
	jne	$LN8@tracePoint
	push	OFFSET $SG107508
	lea	eax, DWORD PTR _number$[ebp]
	push	eax
	call	??$?8DU?$char_traits@D@std@@V?$allocator@D@1@@std@@YA_NABV?$basic_string@DU?$char_traits@D@std@@V?$allocator@D@2@@0@PBD@Z ; std::operator==<char,std::char_traits<char>,std::allocator<char> >
	add	esp, 8
	movzx	ecx, al
	test	ecx, ecx
	jne	$LN8@tracePoint
	push	OFFSET $SG107509
	lea	edx, DWORD PTR _number$[ebp]
	push	edx
	call	??$?8DU?$char_traits@D@std@@V?$allocator@D@1@@std@@YA_NABV?$basic_string@DU?$char_traits@D@std@@V?$allocator@D@2@@0@PBD@Z ; std::operator==<char,std::char_traits<char>,std::allocator<char> >
	add	esp, 8
	movzx	eax, al
	test	eax, eax
	jne	$LN8@tracePoint
	push	OFFSET $SG107510
	lea	ecx, DWORD PTR _number$[ebp]
	push	ecx
	call	??$?8DU?$char_traits@D@std@@V?$allocator@D@1@@std@@YA_NABV?$basic_string@DU?$char_traits@D@std@@V?$allocator@D@2@@0@PBD@Z ; std::operator==<char,std::char_traits<char>,std::allocator<char> >
	add	esp, 8
	movzx	edx, al
	test	edx, edx
	jne	SHORT $LN8@tracePoint
	push	OFFSET $SG107511
	lea	eax, DWORD PTR _number$[ebp]
	push	eax
	call	??$?8DU?$char_traits@D@std@@V?$allocator@D@1@@std@@YA_NABV?$basic_string@DU?$char_traits@D@std@@V?$allocator@D@2@@0@PBD@Z ; std::operator==<char,std::char_traits<char>,std::allocator<char> >
	add	esp, 8
	movzx	ecx, al
	test	ecx, ecx
	jne	SHORT $LN8@tracePoint
	push	OFFSET $SG107512
	lea	edx, DWORD PTR _number$[ebp]
	push	edx
	call	??$?8DU?$char_traits@D@std@@V?$allocator@D@1@@std@@YA_NABV?$basic_string@DU?$char_traits@D@std@@V?$allocator@D@2@@0@PBD@Z ; std::operator==<char,std::char_traits<char>,std::allocator<char> >
	add	esp, 8
	movzx	eax, al
	test	eax, eax
	jne	SHORT $LN8@tracePoint
	push	OFFSET $SG107513
	lea	ecx, DWORD PTR _number$[ebp]
	push	ecx
	call	??$?8DU?$char_traits@D@std@@V?$allocator@D@1@@std@@YA_NABV?$basic_string@DU?$char_traits@D@std@@V?$allocator@D@2@@0@PBD@Z ; std::operator==<char,std::char_traits<char>,std::allocator<char> >
	add	esp, 8
	movzx	edx, al
	test	edx, edx
	jne	SHORT $LN8@tracePoint
	push	OFFSET $SG107514
	lea	eax, DWORD PTR _number$[ebp]
	push	eax
	call	??$?8DU?$char_traits@D@std@@V?$allocator@D@1@@std@@YA_NABV?$basic_string@DU?$char_traits@D@std@@V?$allocator@D@2@@0@PBD@Z ; std::operator==<char,std::char_traits<char>,std::allocator<char> >
	add	esp, 8
	movzx	ecx, al
	test	ecx, ecx
	je	SHORT $LN9@tracePoint
$LN8@tracePoint:
	mov	DWORD PTR tv163[ebp], 1
	jmp	SHORT $LN10@tracePoint
$LN9@tracePoint:
	mov	DWORD PTR tv163[ebp], 0
$LN10@tracePoint:
	mov	dl, BYTE PTR tv163[ebp]
	mov	BYTE PTR _isJITTracePoint$[ebp], dl
; Line 332
	movzx	eax, BYTE PTR _isJITTracePoint$[ebp]
	test	eax, eax
	je	SHORT $LN11@tracePoint
	call	?is27VMOrLater@Util@j9@plugins@monitoring@ibmras@@SA_NXZ ; ibmras::monitoring::plugins::j9::Util::is27VMOrLater
	movzx	ecx, al
	test	ecx, ecx
	jne	SHORT $LN11@tracePoint
	mov	DWORD PTR tv170[ebp], 0
	jmp	SHORT $LN12@tracePoint
$LN11@tracePoint:
	mov	DWORD PTR tv170[ebp], 1
$LN12@tracePoint:
	mov	dl, BYTE PTR tv170[ebp]
	mov	BYTE PTR _jitOK$[ebp], dl
; Line 334
	push	OFFSET $SG107517
	mov	eax, DWORD PTR _tp$[ebp]
	push	eax
	call	??$?8DU?$char_traits@D@std@@V?$allocator@D@1@@std@@YA_NABV?$basic_string@DU?$char_traits@D@std@@V?$allocator@D@2@@0@PBD@Z ; std::operator==<char,std::char_traits<char>,std::allocator<char> >
	add	esp, 8
	mov	BYTE PTR _isj9ShrTracePoint$[ebp], al
; Line 335
	movzx	ecx, BYTE PTR _isj9ShrTracePoint$[ebp]
	test	ecx, ecx
	je	SHORT $LN13@tracePoint
	call	?j9ShrTracePointAvailableInThisVM@trace@j9@plugins@monitoring@ibmras@@YA_NXZ ; ibmras::monitoring::plugins::j9::trace::j9ShrTracePointAvailableInThisVM
	movzx	edx, al
	test	edx, edx
	jne	SHORT $LN13@tracePoint
	mov	DWORD PTR tv180[ebp], 0
	jmp	SHORT $LN14@tracePoint
$LN13@tracePoint:
	mov	DWORD PTR tv180[ebp], 1
$LN14@tracePoint:
	mov	al, BYTE PTR tv180[ebp]
	mov	BYTE PTR _isj9ShrOK$[ebp], al
; Line 339
	push	OFFSET $SG107520
	lea	ecx, DWORD PTR _component$[ebp]
	push	ecx
	call	??$?8DU?$char_traits@D@std@@V?$allocator@D@1@@std@@YA_NABV?$basic_string@DU?$char_traits@D@std@@V?$allocator@D@2@@0@PBD@Z ; std::operator==<char,std::char_traits<char>,std::allocator<char> >
	add	esp, 8
	movzx	edx, al
	test	edx, edx
	je	SHORT $LN16@tracePoint
	push	OFFSET $SG107521
	lea	eax, DWORD PTR _number$[ebp]
	push	eax
	call	??$?8DU?$char_traits@D@std@@V?$allocator@D@1@@std@@YA_NABV?$basic_string@DU?$char_traits@D@std@@V?$allocator@D@2@@0@PBD@Z ; std::operator==<char,std::char_traits<char>,std::allocator<char> >
	add	esp, 8
	movzx	ecx, al
	test	ecx, ecx
	jne	SHORT $LN15@tracePoint
	push	OFFSET $SG107522
	lea	edx, DWORD PTR _number$[ebp]
	push	edx
	call	??$?8DU?$char_traits@D@std@@V?$allocator@D@1@@std@@YA_NABV?$basic_string@DU?$char_traits@D@std@@V?$allocator@D@2@@0@PBD@Z ; std::operator==<char,std::char_traits<char>,std::allocator<char> >
	add	esp, 8
	movzx	eax, al
	test	eax, eax
	jne	SHORT $LN15@tracePoint
	push	OFFSET $SG107523
	lea	ecx, DWORD PTR _number$[ebp]
	push	ecx
	call	??$?8DU?$char_traits@D@std@@V?$allocator@D@1@@std@@YA_NABV?$basic_string@DU?$char_traits@D@std@@V?$allocator@D@2@@0@PBD@Z ; std::operator==<char,std::char_traits<char>,std::allocator<char> >
	add	esp, 8
	movzx	edx, al
	test	edx, edx
	jne	SHORT $LN15@tracePoint
	push	OFFSET $SG107524
	lea	eax, DWORD PTR _number$[ebp]
	push	eax
	call	??$?8DU?$char_traits@D@std@@V?$allocator@D@1@@std@@YA_NABV?$basic_string@DU?$char_traits@D@std@@V?$allocator@D@2@@0@PBD@Z ; std::operator==<char,std::char_traits<char>,std::allocator<char> >
	add	esp, 8
	movzx	ecx, al
	test	ecx, ecx
	je	SHORT $LN16@tracePoint
$LN15@tracePoint:
	mov	DWORD PTR tv207[ebp], 1
	jmp	SHORT $LN17@tracePoint
$LN16@tracePoint:
	mov	DWORD PTR tv207[ebp], 0
$LN17@tracePoint:
	mov	dl, BYTE PTR tv207[ebp]
	mov	BYTE PTR _isProfilingTracePoint$[ebp], dl
; Line 341
	push	OFFSET $SG107526
	mov	eax, DWORD PTR _tp$[ebp]
	push	eax
	call	??$?8DU?$char_traits@D@std@@V?$allocator@D@1@@std@@YA_NABV?$basic_string@DU?$char_traits@D@std@@V?$allocator@D@2@@0@PBD@Z ; std::operator==<char,std::char_traits<char>,std::allocator<char> >
	add	esp, 8
	movzx	ecx, al
	test	ecx, ecx
	jne	SHORT $LN18@tracePoint
	push	OFFSET $SG107527
	mov	edx, DWORD PTR _tp$[ebp]
	push	edx
	call	??$?8DU?$char_traits@D@std@@V?$allocator@D@1@@std@@YA_NABV?$basic_string@DU?$char_traits@D@std@@V?$allocator@D@2@@0@PBD@Z ; std::operator==<char,std::char_traits<char>,std::allocator<char> >
	add	esp, 8
	movzx	eax, al
	test	eax, eax
	jne	SHORT $LN18@tracePoint
	mov	DWORD PTR tv219[ebp], 0
	jmp	SHORT $LN19@tracePoint
$LN18@tracePoint:
	mov	DWORD PTR tv219[ebp], 1
$LN19@tracePoint:
	mov	cl, BYTE PTR tv219[ebp]
	mov	BYTE PTR _isLOATracePoint$[ebp], cl
; Line 344
	movzx	edx, BYTE PTR _isProfilingTracePoint$[ebp]
	test	edx, edx
	je	SHORT $LN20@tracePoint
	call	?profilingTracepointAvailableInThisVM@trace@j9@plugins@monitoring@ibmras@@YA_NXZ ; ibmras::monitoring::plugins::j9::trace::profilingTracepointAvailableInThisVM
	movzx	eax, al
	test	eax, eax
	jne	SHORT $LN20@tracePoint
	mov	DWORD PTR tv226[ebp], 0
	jmp	SHORT $LN21@tracePoint
$LN20@tracePoint:
	mov	DWORD PTR tv226[ebp], 1
$LN21@tracePoint:
	mov	cl, BYTE PTR tv226[ebp]
	mov	BYTE PTR _profilingOK$[ebp], cl
; Line 346
	movzx	edx, BYTE PTR _isLOATracePoint$[ebp]
	test	edx, edx
	je	SHORT $LN22@tracePoint
	call	?vmHasLOATracePoints@Util@j9@plugins@monitoring@ibmras@@SA_NXZ ; ibmras::monitoring::plugins::j9::Util::vmHasLOATracePoints
	movzx	eax, al
	test	eax, eax
	jne	SHORT $LN22@tracePoint
	mov	DWORD PTR tv233[ebp], 0
	jmp	SHORT $LN23@tracePoint
$LN22@tracePoint:
	mov	DWORD PTR tv233[ebp], 1
$LN23@tracePoint:
	mov	cl, BYTE PTR tv233[ebp]
	mov	BYTE PTR _loaOK$[ebp], cl
; Line 349
	push	OFFSET $SG107541
	lea	edx, DWORD PTR _component$[ebp]
	push	edx
	call	??$?9DU?$char_traits@D@std@@V?$allocator@D@1@@std@@YA_NABV?$basic_string@DU?$char_traits@D@std@@V?$allocator@D@2@@0@PBD@Z ; std::operator!=<char,std::char_traits<char>,std::allocator<char> >
	add	esp, 8
	movzx	eax, al
	test	eax, eax
	jne	SHORT $LN24@tracePoint
	lea	ecx, DWORD PTR _number$[ebp]
	push	ecx
	call	?isDumpTPavailable@trace@j9@plugins@monitoring@ibmras@@YA_NABV?$basic_string@DU?$char_traits@D@std@@V?$allocator@D@2@@std@@@Z ; ibmras::monitoring::plugins::j9::trace::isDumpTPavailable
	add	esp, 4
	movzx	edx, al
	test	edx, edx
	jne	SHORT $LN24@tracePoint
	mov	DWORD PTR tv244[ebp], 0
	jmp	SHORT $LN25@tracePoint
$LN24@tracePoint:
	mov	DWORD PTR tv244[ebp], 1
$LN25@tracePoint:
	mov	al, BYTE PTR tv244[ebp]
	mov	BYTE PTR _isDumpTracePointOK$[ebp], al
; Line 354
	push	OFFSET $SG107543
	lea	ecx, DWORD PTR _component$[ebp]
	push	ecx
	call	??$?8DU?$char_traits@D@std@@V?$allocator@D@1@@std@@YA_NABV?$basic_string@DU?$char_traits@D@std@@V?$allocator@D@2@@0@PBD@Z ; std::operator==<char,std::char_traits<char>,std::allocator<char> >
	add	esp, 8
	movzx	edx, al
	test	edx, edx
	je	$LN27@tracePoint
	push	OFFSET $SG107544
	lea	eax, DWORD PTR _number$[ebp]
	push	eax
	call	??$?8DU?$char_traits@D@std@@V?$allocator@D@1@@std@@YA_NABV?$basic_string@DU?$char_traits@D@std@@V?$allocator@D@2@@0@PBD@Z ; std::operator==<char,std::char_traits<char>,std::allocator<char> >
	add	esp, 8
	movzx	ecx, al
	test	ecx, ecx
	jne	$LN26@tracePoint
	push	OFFSET $SG107545
	lea	edx, DWORD PTR _number$[ebp]
	push	edx
	call	??$?8DU?$char_traits@D@std@@V?$allocator@D@1@@std@@YA_NABV?$basic_string@DU?$char_traits@D@std@@V?$allocator@D@2@@0@PBD@Z ; std::operator==<char,std::char_traits<char>,std::allocator<char> >
	add	esp, 8
	movzx	eax, al
	test	eax, eax
	jne	$LN26@tracePoint
	push	OFFSET $SG107546
	lea	ecx, DWORD PTR _number$[ebp]
	push	ecx
	call	??$?8DU?$char_traits@D@std@@V?$allocator@D@1@@std@@YA_NABV?$basic_string@DU?$char_traits@D@std@@V?$allocator@D@2@@0@PBD@Z ; std::operator==<char,std::char_traits<char>,std::allocator<char> >
	add	esp, 8
	movzx	edx, al
	test	edx, edx
	jne	$LN26@tracePoint
	push	OFFSET $SG107547
	lea	eax, DWORD PTR _number$[ebp]
	push	eax
	call	??$?8DU?$char_traits@D@std@@V?$allocator@D@1@@std@@YA_NABV?$basic_string@DU?$char_traits@D@std@@V?$allocator@D@2@@0@PBD@Z ; std::operator==<char,std::char_traits<char>,std::allocator<char> >
	add	esp, 8
	movzx	ecx, al
	test	ecx, ecx
	jne	$LN26@tracePoint
	push	OFFSET $SG107548
	lea	edx, DWORD PTR _number$[ebp]
	push	edx
	call	??$?8DU?$char_traits@D@std@@V?$allocator@D@1@@std@@YA_NABV?$basic_string@DU?$char_traits@D@std@@V?$allocator@D@2@@0@PBD@Z ; std::operator==<char,std::char_traits<char>,std::allocator<char> >
	add	esp, 8
	movzx	eax, al
	test	eax, eax
	jne	SHORT $LN26@tracePoint
	push	OFFSET $SG107549
	lea	ecx, DWORD PTR _number$[ebp]
	push	ecx
	call	??$?8DU?$char_traits@D@std@@V?$allocator@D@1@@std@@YA_NABV?$basic_string@DU?$char_traits@D@std@@V?$allocator@D@2@@0@PBD@Z ; std::operator==<char,std::char_traits<char>,std::allocator<char> >
	add	esp, 8
	movzx	edx, al
	test	edx, edx
	jne	SHORT $LN26@tracePoint
	push	OFFSET $SG107550
	lea	eax, DWORD PTR _number$[ebp]
	push	eax
	call	??$?8DU?$char_traits@D@std@@V?$allocator@D@1@@std@@YA_NABV?$basic_string@DU?$char_traits@D@std@@V?$allocator@D@2@@0@PBD@Z ; std::operator==<char,std::char_traits<char>,std::allocator<char> >
	add	esp, 8
	movzx	ecx, al
	test	ecx, ecx
	jne	SHORT $LN26@tracePoint
	push	OFFSET $SG107551
	lea	edx, DWORD PTR _number$[ebp]
	push	edx
	call	??$?8DU?$char_traits@D@std@@V?$allocator@D@1@@std@@YA_NABV?$basic_string@DU?$char_traits@D@std@@V?$allocator@D@2@@0@PBD@Z ; std::operator==<char,std::char_traits<char>,std::allocator<char> >
	add	esp, 8
	movzx	eax, al
	test	eax, eax
	jne	SHORT $LN26@tracePoint
	push	OFFSET $SG107552
	lea	ecx, DWORD PTR _number$[ebp]
	push	ecx
	call	??$?8DU?$char_traits@D@std@@V?$allocator@D@1@@std@@YA_NABV?$basic_string@DU?$char_traits@D@std@@V?$allocator@D@2@@0@PBD@Z ; std::operator==<char,std::char_traits<char>,std::allocator<char> >
	add	esp, 8
	movzx	edx, al
	test	edx, edx
	je	SHORT $LN27@tracePoint
$LN26@tracePoint:
	mov	DWORD PTR tv296[ebp], 1
	jmp	SHORT $LN28@tracePoint
$LN27@tracePoint:
	mov	DWORD PTR tv296[ebp], 0
$LN28@tracePoint:
	mov	al, BYTE PTR tv296[ebp]
	mov	BYTE PTR _isJavaTracePoint$[ebp], al
; Line 357
	movzx	ecx, BYTE PTR _isJavaTracePoint$[ebp]
	test	ecx, ecx
	je	SHORT $LN29@tracePoint
	call	?JavaTracePointsAvailableInVM@trace@j9@plugins@monitoring@ibmras@@YA_NXZ ; ibmras::monitoring::plugins::j9::trace::JavaTracePointsAvailableInVM
	movzx	edx, al
	test	edx, edx
	jne	SHORT $LN29@tracePoint
	mov	DWORD PTR tv303[ebp], 0
	jmp	SHORT $LN30@tracePoint
$LN29@tracePoint:
	mov	DWORD PTR tv303[ebp], 1
$LN30@tracePoint:
	mov	al, BYTE PTR tv303[ebp]
	mov	BYTE PTR _javaTracePointsOK$[ebp], al
; Line 359
	mov	BYTE PTR _gcOK$[ebp], 1
; Line 360
	mov	BYTE PTR _realtimeOK$[ebp], 1
; Line 362
	lea	ecx, DWORD PTR _number$[ebp]
	call	?c_str@?$basic_string@DU?$char_traits@D@std@@V?$allocator@D@2@@std@@QBEPBDXZ ; std::basic_string<char,std::char_traits<char>,std::allocator<char> >::c_str
	push	eax
	call	DWORD PTR __imp__atoi
	add	esp, 4
	mov	DWORD PTR _tpNumber$[ebp], eax
; Line 364
	push	OFFSET $SG107558
	lea	ecx, DWORD PTR _component$[ebp]
	push	ecx
	call	??$?8DU?$char_traits@D@std@@V?$allocator@D@1@@std@@YA_NABV?$basic_string@DU?$char_traits@D@std@@V?$allocator@D@2@@0@PBD@Z ; std::operator==<char,std::char_traits<char>,std::allocator<char> >
	add	esp, 8
	movzx	edx, al
	test	edx, edx
	je	SHORT $LN4@tracePoint
; Line 365
	mov	eax, DWORD PTR _tpNumber$[ebp]
	push	eax
	call	?isOkConsideringRealtime@trace@j9@plugins@monitoring@ibmras@@YA_NH@Z ; ibmras::monitoring::plugins::j9::trace::isOkConsideringRealtime
	add	esp, 4
	mov	BYTE PTR _realtimeOK$[ebp], al
; Line 368
	mov	ecx, DWORD PTR _tpNumber$[ebp]
	push	ecx
	call	?gcTracepointAvailableInThisVM@trace@j9@plugins@monitoring@ibmras@@YA_NH@Z ; ibmras::monitoring::plugins::j9::trace::gcTracepointAvailableInThisVM
	add	esp, 4
	mov	BYTE PTR _gcOK$[ebp], al
$LN4@tracePoint:
; Line 372
	mov	BYTE PTR _methodDictionaryAvailable$[ebp], 0
; Line 373
	push	OFFSET $SG107561
	mov	edx, DWORD PTR _tp$[ebp]
	push	edx
	call	??$?8DU?$char_traits@D@std@@V?$allocator@D@1@@std@@YA_NABV?$basic_string@DU?$char_traits@D@std@@V?$allocator@D@2@@0@PBD@Z ; std::operator==<char,std::char_traits<char>,std::allocator<char> >
	add	esp, 8
	movzx	eax, al
	test	eax, eax
	je	$LN3@tracePoint
; Line 375
	call	?getInstance@Agent@agent@monitoring@ibmras@@SAPAV1234@XZ ; ibmras::monitoring::agent::Agent::getInstance
	mov	DWORD PTR _agent$107562[ebp], eax
; Line 377
	push	OFFSET $SG107566
	lea	ecx, DWORD PTR $T107564[ebp]
	call	??0?$basic_string@DU?$char_traits@D@std@@V?$allocator@D@2@@std@@QAE@PBD@Z ; std::basic_string<char,std::char_traits<char>,std::allocator<char> >::basic_string<char,std::char_traits<char>,std::allocator<char> >
	mov	BYTE PTR __$EHRec$[ebp+8], 3
	lea	ecx, DWORD PTR $T107564[ebp]
	push	ecx
	lea	edx, DWORD PTR _headless$107563[ebp]
	push	edx
	mov	ecx, DWORD PTR _agent$107562[ebp]
	call	?getAgentProperty@Agent@agent@monitoring@ibmras@@QAE?AV?$basic_string@DU?$char_traits@D@std@@V?$allocator@D@2@@std@@ABV56@@Z ; ibmras::monitoring::agent::Agent::getAgentProperty
	mov	BYTE PTR __$EHRec$[ebp+8], 5
	lea	ecx, DWORD PTR $T107564[ebp]
	call	??1?$basic_string@DU?$char_traits@D@std@@V?$allocator@D@2@@std@@QAE@XZ ; std::basic_string<char,std::char_traits<char>,std::allocator<char> >::~basic_string<char,std::char_traits<char>,std::allocator<char> >
; Line 378
	push	OFFSET $SG107570
	lea	ecx, DWORD PTR $T107567[ebp]
	call	??0?$basic_string@DU?$char_traits@D@std@@V?$allocator@D@2@@std@@QAE@PBD@Z ; std::basic_string<char,std::char_traits<char>,std::allocator<char> >::basic_string<char,std::char_traits<char>,std::allocator<char> >
	mov	BYTE PTR __$EHRec$[ebp+8], 6
	lea	eax, DWORD PTR $T107567[ebp]
	push	eax
	lea	ecx, DWORD PTR _headless$107563[ebp]
	push	ecx
	call	?equalsIgnoreCase@util@common@ibmras@@YA_NABV?$basic_string@DU?$char_traits@D@std@@V?$allocator@D@2@@std@@0@Z ; ibmras::common::util::equalsIgnoreCase
	add	esp, 8
	movzx	edx, al
	neg	edx
	sbb	edx, edx
	add	edx, 1
	mov	BYTE PTR $T122819[ebp], dl
	mov	BYTE PTR __$EHRec$[ebp+8], 5
	lea	ecx, DWORD PTR $T107567[ebp]
	call	??1?$basic_string@DU?$char_traits@D@std@@V?$allocator@D@2@@std@@QAE@XZ ; std::basic_string<char,std::char_traits<char>,std::allocator<char> >::~basic_string<char,std::char_traits<char>,std::allocator<char> >
	movzx	eax, BYTE PTR $T122819[ebp]
	test	eax, eax
	je	SHORT $LN2@tracePoint
; Line 379
	cmp	DWORD PTR ?vmData@trace@j9@plugins@monitoring@ibmras@@3UjvmFunctions@@A+20, 0
	je	SHORT $LN2@tracePoint
; Line 380
	mov	BYTE PTR _methodDictionaryAvailable$[ebp], 1
$LN2@tracePoint:
; Line 383
	mov	BYTE PTR __$EHRec$[ebp+8], 2
	lea	ecx, DWORD PTR _headless$107563[ebp]
	call	??1?$basic_string@DU?$char_traits@D@std@@V?$allocator@D@2@@std@@QAE@XZ ; std::basic_string<char,std::char_traits<char>,std::allocator<char> >::~basic_string<char,std::char_traits<char>,std::allocator<char> >
$LN3@tracePoint:
; Line 387
	movzx	ecx, BYTE PTR _realtimeOK$[ebp]
	test	ecx, ecx
	je	SHORT $LN31@tracePoint
	movzx	edx, BYTE PTR _profilingOK$[ebp]
	test	edx, edx
	je	SHORT $LN31@tracePoint
	movzx	eax, BYTE PTR _loaOK$[ebp]
	test	eax, eax
	je	SHORT $LN31@tracePoint
	movzx	ecx, BYTE PTR _methodDictionaryAvailable$[ebp]
	test	ecx, ecx
	jne	SHORT $LN31@tracePoint
	movzx	edx, BYTE PTR _gcOK$[ebp]
	test	edx, edx
	je	SHORT $LN31@tracePoint
	movzx	eax, BYTE PTR _isDumpTracePointOK$[ebp]
	test	eax, eax
	je	SHORT $LN31@tracePoint
	movzx	ecx, BYTE PTR _javaTracePointsOK$[ebp]
	test	ecx, ecx
	je	SHORT $LN31@tracePoint
	movzx	edx, BYTE PTR _jitOK$[ebp]
	test	edx, edx
	je	SHORT $LN31@tracePoint
	movzx	eax, BYTE PTR _isj9ShrOK$[ebp]
	test	eax, eax
	je	SHORT $LN31@tracePoint
	mov	DWORD PTR tv397[ebp], 1
	jmp	SHORT $LN32@tracePoint
$LN31@tracePoint:
	mov	DWORD PTR tv397[ebp], 0
$LN32@tracePoint:
	mov	cl, BYTE PTR tv397[ebp]
	mov	BYTE PTR _tracePointExists$[ebp], cl
; Line 389
	mov	dl, BYTE PTR _tracePointExists$[ebp]
	mov	BYTE PTR $T122822[ebp], dl
	mov	BYTE PTR __$EHRec$[ebp+8], 1
	lea	ecx, DWORD PTR _number$[ebp]
	call	??1?$basic_string@DU?$char_traits@D@std@@V?$allocator@D@2@@std@@QAE@XZ ; std::basic_string<char,std::char_traits<char>,std::allocator<char> >::~basic_string<char,std::char_traits<char>,std::allocator<char> >
	mov	BYTE PTR __$EHRec$[ebp+8], 0
	lea	ecx, DWORD PTR _component$[ebp]
	call	??1?$basic_string@DU?$char_traits@D@std@@V?$allocator@D@2@@std@@QAE@XZ ; std::basic_string<char,std::char_traits<char>,std::allocator<char> >::~basic_string<char,std::char_traits<char>,std::allocator<char> >
	mov	DWORD PTR __$EHRec$[ebp+8], -1
	lea	ecx, DWORD PTR _tracePoint$[ebp]
	call	??1?$vector@V?$basic_string@DU?$char_traits@D@std@@V?$allocator@D@2@@std@@V?$allocator@V?$basic_string@DU?$char_traits@D@std@@V?$allocator@D@2@@std@@@2@@std@@QAE@XZ ; std::vector<std::basic_string<char,std::char_traits<char>,std::allocator<char> >,std::allocator<std::basic_string<char,std::char_traits<char>,std::allocator<char> > > >::~vector<std::basic_string<char,std::char_traits<char>,std::allocator<char> >,std::allocator<std::basic_string<char,std::char_traits<char>,std::allocator<char> > > >
	mov	al, BYTE PTR $T122822[ebp]
$LN6@tracePoint:
; Line 390
	mov	ecx, DWORD PTR __$EHRec$[ebp]
	mov	DWORD PTR fs:0, ecx
	pop	ecx
	mov	ecx, DWORD PTR __$ArrayPad$[ebp]
	xor	ecx, ebp
	call	@__security_check_cookie@4
	mov	esp, ebp
	pop	ebp
	ret	0
_TEXT	ENDS
text$x	SEGMENT
__unwindfunclet$?tracePointExistsInThisVM@trace@j9@plugins@monitoring@ibmras@@YA_NABV?$basic_string@DU?$char_traits@D@std@@V?$allocator@D@2@@std@@@Z$0:
	lea	ecx, DWORD PTR _tracePoint$[ebp]
	jmp	??1?$vector@V?$basic_string@DU?$char_traits@D@std@@V?$allocator@D@2@@std@@V?$allocator@V?$basic_string@DU?$char_traits@D@std@@V?$allocator@D@2@@std@@@2@@std@@QAE@XZ ; std::vector<std::basic_string<char,std::char_traits<char>,std::allocator<char> >,std::allocator<std::basic_string<char,std::char_traits<char>,std::allocator<char> > > >::~vector<std::basic_string<char,std::char_traits<char>,std::allocator<char> >,std::allocator<std::basic_string<char,std::char_traits<char>,std::allocator<char> > > >
__unwindfunclet$?tracePointExistsInThisVM@trace@j9@plugins@monitoring@ibmras@@YA_NABV?$basic_string@DU?$char_traits@D@std@@V?$allocator@D@2@@std@@@Z$1:
	lea	ecx, DWORD PTR _component$[ebp]
	jmp	??1?$basic_string@DU?$char_traits@D@std@@V?$allocator@D@2@@std@@QAE@XZ ; std::basic_string<char,std::char_traits<char>,std::allocator<char> >::~basic_string<char,std::char_traits<char>,std::allocator<char> >
__unwindfunclet$?tracePointExistsInThisVM@trace@j9@plugins@monitoring@ibmras@@YA_NABV?$basic_string@DU?$char_traits@D@std@@V?$allocator@D@2@@std@@@Z$2:
	lea	ecx, DWORD PTR _number$[ebp]
	jmp	??1?$basic_string@DU?$char_traits@D@std@@V?$allocator@D@2@@std@@QAE@XZ ; std::basic_string<char,std::char_traits<char>,std::allocator<char> >::~basic_string<char,std::char_traits<char>,std::allocator<char> >
__unwindfunclet$?tracePointExistsInThisVM@trace@j9@plugins@monitoring@ibmras@@YA_NABV?$basic_string@DU?$char_traits@D@std@@V?$allocator@D@2@@std@@@Z$3:
	lea	ecx, DWORD PTR $T107564[ebp]
	jmp	??1?$basic_string@DU?$char_traits@D@std@@V?$allocator@D@2@@std@@QAE@XZ ; std::basic_string<char,std::char_traits<char>,std::allocator<char> >::~basic_string<char,std::char_traits<char>,std::allocator<char> >
__unwindfunclet$?tracePointExistsInThisVM@trace@j9@plugins@monitoring@ibmras@@YA_NABV?$basic_string@DU?$char_traits@D@std@@V?$allocator@D@2@@std@@@Z$4:
	lea	ecx, DWORD PTR _headless$107563[ebp]
	jmp	??1?$basic_string@DU?$char_traits@D@std@@V?$allocator@D@2@@std@@QAE@XZ ; std::basic_string<char,std::char_traits<char>,std::allocator<char> >::~basic_string<char,std::char_traits<char>,std::allocator<char> >
__unwindfunclet$?tracePointExistsInThisVM@trace@j9@plugins@monitoring@ibmras@@YA_NABV?$basic_string@DU?$char_traits@D@std@@V?$allocator@D@2@@std@@@Z$5:
	lea	ecx, DWORD PTR $T107567[ebp]
	jmp	??1?$basic_string@DU?$char_traits@D@std@@V?$allocator@D@2@@std@@QAE@XZ ; std::basic_string<char,std::char_traits<char>,std::allocator<char> >::~basic_string<char,std::char_traits<char>,std::allocator<char> >
__ehhandler$?tracePointExistsInThisVM@trace@j9@plugins@monitoring@ibmras@@YA_NABV?$basic_string@DU?$char_traits@D@std@@V?$allocator@D@2@@std@@@Z:
	mov	edx, DWORD PTR [esp+8]
	lea	eax, DWORD PTR [edx+12]
	mov	ecx, DWORD PTR [edx-240]
	xor	ecx, eax
	call	@__security_check_cookie@4
	mov	ecx, DWORD PTR [edx-4]
	xor	ecx, eax
	call	@__security_check_cookie@4
	mov	eax, OFFSET __ehfuncinfo$?tracePointExistsInThisVM@trace@j9@plugins@monitoring@ibmras@@YA_NABV?$basic_string@DU?$char_traits@D@std@@V?$allocator@D@2@@std@@@Z
	jmp	___CxxFrameHandler3
text$x	ENDS
?tracePointExistsInThisVM@trace@j9@plugins@monitoring@ibmras@@YA_NABV?$basic_string@DU?$char_traits@D@std@@V?$allocator@D@2@@std@@@Z ENDP ; ibmras::monitoring::plugins::j9::trace::tracePointExistsInThisVM
PUBLIC	??4?$basic_string@DU?$char_traits@D@std@@V?$allocator@D@2@@std@@QAEAAV01@PBD@Z ; std::basic_string<char,std::char_traits<char>,std::allocator<char> >::operator=
PUBLIC	??A?$map@V?$basic_string@DU?$char_traits@D@std@@V?$allocator@D@2@@std@@V12@U?$less@V?$basic_string@DU?$char_traits@D@std@@V?$allocator@D@2@@std@@@2@V?$allocator@U?$pair@$$CBV?$basic_string@DU?$char_traits@D@std@@V?$allocator@D@2@@std@@V12@@std@@@2@@std@@QAEAAV?$basic_string@DU?$char_traits@D@std@@V?$allocator@D@2@@1@$$QAV21@@Z ; std::map<std::basic_string<char,std::char_traits<char>,std::allocator<char> >,std::basic_string<char,std::char_traits<char>,std::allocator<char> >,std::less<std::basic_string<char,std::char_traits<char>,std::allocator<char> > >,std::allocator<std::pair<std::basic_string<char,std::char_traits<char>,std::allocator<char> > const ,std::basic_string<char,std::char_traits<char>,std::allocator<char> > > > >::operator[]
PUBLIC	??$?HDU?$char_traits@D@std@@V?$allocator@D@1@@std@@YA?AV?$basic_string@DU?$char_traits@D@std@@V?$allocator@D@2@@0@ABV10@PBD@Z ; std::operator+<char,std::char_traits<char>,std::allocator<char> >
PUBLIC	??0?$basic_string@DU?$char_traits@D@std@@V?$allocator@D@2@@std@@QAE@XZ ; std::basic_string<char,std::char_traits<char>,std::allocator<char> >::basic_string<char,std::char_traits<char>,std::allocator<char> >
PUBLIC	__$ArrayPad$
PUBLIC	?setCapabilities@trace@j9@plugins@monitoring@ibmras@@YAXXZ ; ibmras::monitoring::plugins::j9::trace::setCapabilities
xdata$x	SEGMENT
__ehfuncinfo$?setCapabilities@trace@j9@plugins@monitoring@ibmras@@YAXXZ DD 019930522H
	DD	05H
	DD	FLAT:__unwindtable$?setCapabilities@trace@j9@plugins@monitoring@ibmras@@YAXXZ
	DD	2 DUP(00H)
	DD	2 DUP(00H)
	DD	00H
	DD	01H
__unwindtable$?setCapabilities@trace@j9@plugins@monitoring@ibmras@@YAXXZ DD 0ffffffffH
	DD	FLAT:__unwindfunclet$?setCapabilities@trace@j9@plugins@monitoring@ibmras@@YAXXZ$0
	DD	00H
	DD	FLAT:__unwindfunclet$?setCapabilities@trace@j9@plugins@monitoring@ibmras@@YAXXZ$1
	DD	00H
	DD	FLAT:__unwindfunclet$?setCapabilities@trace@j9@plugins@monitoring@ibmras@@YAXXZ$2
	DD	00H
	DD	FLAT:__unwindfunclet$?setCapabilities@trace@j9@plugins@monitoring@ibmras@@YAXXZ$3
	DD	00H
	DD	FLAT:__unwindfunclet$?setCapabilities@trace@j9@plugins@monitoring@ibmras@@YAXXZ$4
; Function compile flags: /Odtp
xdata$x	ENDS
_TEXT	SEGMENT
tv152 = -184						; size = 4
tv128 = -180						; size = 4
tv149 = -176						; size = 4
tv153 = -172						; size = 4
tv147 = -168						; size = 4
tv65 = -164						; size = 4
$T122835 = -157						; size = 1
_capability$ = -156					; size = 28
$T107612 = -128						; size = 28
$T107609 = -100						; size = 28
$T107607 = -72						; size = 28
$T107604 = -44						; size = 28
__$ArrayPad$ = -16					; size = 4
__$EHRec$ = -12						; size = 12
?setCapabilities@trace@j9@plugins@monitoring@ibmras@@YAXXZ PROC ; ibmras::monitoring::plugins::j9::trace::setCapabilities
; Line 392
	push	ebp
	mov	ebp, esp
	push	-1
	push	__ehhandler$?setCapabilities@trace@j9@plugins@monitoring@ibmras@@YAXXZ
	mov	eax, DWORD PTR fs:0
	push	eax
	sub	esp, 172				; 000000acH
	mov	eax, DWORD PTR ___security_cookie
	xor	eax, ebp
	mov	DWORD PTR __$ArrayPad$[ebp], eax
	push	eax
	lea	eax, DWORD PTR __$EHRec$[ebp]
	mov	DWORD PTR fs:0, eax
; Line 393
	lea	ecx, DWORD PTR _capability$[ebp]
	call	??0?$basic_string@DU?$char_traits@D@std@@V?$allocator@D@2@@std@@QAE@XZ ; std::basic_string<char,std::char_traits<char>,std::allocator<char> >::basic_string<char,std::char_traits<char>,std::allocator<char> >
	mov	DWORD PTR __$EHRec$[ebp+8], 0
; Line 394
	cmp	DWORD PTR ?vmData@trace@j9@plugins@monitoring@ibmras@@3UjvmFunctions@@A+52, 0
	je	SHORT $LN3@setCapabil
; Line 395
	push	OFFSET $SG107605
	mov	eax, DWORD PTR _VERBOSE_GC_AVAILABLE
	push	eax
	push	OFFSET _CAPABILITY_PREFIX
	lea	ecx, DWORD PTR $T107604[ebp]
	push	ecx
	call	??$?HDU?$char_traits@D@std@@V?$allocator@D@1@@std@@YA?AV?$basic_string@DU?$char_traits@D@std@@V?$allocator@D@2@@0@ABV10@PBD@Z ; std::operator+<char,std::char_traits<char>,std::allocator<char> >
	add	esp, 12					; 0000000cH
	mov	DWORD PTR tv65[ebp], eax
	mov	edx, DWORD PTR tv65[ebp]
	mov	DWORD PTR tv147[ebp], edx
	mov	BYTE PTR __$EHRec$[ebp+8], 1
	mov	eax, DWORD PTR tv147[ebp]
	push	eax
	mov	ecx, OFFSET ?config@trace@j9@plugins@monitoring@ibmras@@3V?$map@V?$basic_string@DU?$char_traits@D@std@@V?$allocator@D@2@@std@@V12@U?$less@V?$basic_string@DU?$char_traits@D@std@@V?$allocator@D@2@@std@@@2@V?$allocator@U?$pair@$$CBV?$basic_string@DU?$char_traits@D@std@@V?$allocator@D@2@@std@@V12@@std@@@2@@std@@A ; ibmras::monitoring::plugins::j9::trace::config
	call	??A?$map@V?$basic_string@DU?$char_traits@D@std@@V?$allocator@D@2@@std@@V12@U?$less@V?$basic_string@DU?$char_traits@D@std@@V?$allocator@D@2@@std@@@2@V?$allocator@U?$pair@$$CBV?$basic_string@DU?$char_traits@D@std@@V?$allocator@D@2@@std@@V12@@std@@@2@@std@@QAEAAV?$basic_string@DU?$char_traits@D@std@@V?$allocator@D@2@@1@$$QAV21@@Z ; std::map<std::basic_string<char,std::char_traits<char>,std::allocator<char> >,std::basic_string<char,std::char_traits<char>,std::allocator<char> >,std::less<std::basic_string<char,std::char_traits<char>,std::allocator<char> > >,std::allocator<std::pair<std::basic_string<char,std::char_traits<char>,std::allocator<char> > const ,std::basic_string<char,std::char_traits<char>,std::allocator<char> > > > >::operator[]
	mov	ecx, eax
	call	??4?$basic_string@DU?$char_traits@D@std@@V?$allocator@D@2@@std@@QAEAAV01@PBD@Z ; std::basic_string<char,std::char_traits<char>,std::allocator<char> >::operator=
	mov	BYTE PTR __$EHRec$[ebp+8], 0
	lea	ecx, DWORD PTR $T107604[ebp]
	call	??1?$basic_string@DU?$char_traits@D@std@@V?$allocator@D@2@@std@@QAE@XZ ; std::basic_string<char,std::char_traits<char>,std::allocator<char> >::~basic_string<char,std::char_traits<char>,std::allocator<char> >
$LN3@setCapabil:
; Line 398
	push	395					; 0000018bH
	call	?gcTracepointAvailableInThisVM@trace@j9@plugins@monitoring@ibmras@@YA_NH@Z ; ibmras::monitoring::plugins::j9::trace::gcTracepointAvailableInThisVM
	add	esp, 4
	movzx	ecx, al
	test	ecx, ecx
	je	SHORT $LN2@setCapabil
; Line 399
	push	OFFSET $SG107608
	mov	edx, DWORD PTR _ALLOCATION_SAMPLING_AVAILABLE
	push	edx
	push	OFFSET _CAPABILITY_PREFIX
	lea	eax, DWORD PTR $T107607[ebp]
	push	eax
	call	??$?HDU?$char_traits@D@std@@V?$allocator@D@1@@std@@YA?AV?$basic_string@DU?$char_traits@D@std@@V?$allocator@D@2@@0@ABV10@PBD@Z ; std::operator+<char,std::char_traits<char>,std::allocator<char> >
	add	esp, 12					; 0000000cH
	mov	DWORD PTR tv153[ebp], eax
	mov	ecx, DWORD PTR tv153[ebp]
	mov	DWORD PTR tv149[ebp], ecx
	mov	BYTE PTR __$EHRec$[ebp+8], 2
	mov	edx, DWORD PTR tv149[ebp]
	push	edx
	mov	ecx, OFFSET ?config@trace@j9@plugins@monitoring@ibmras@@3V?$map@V?$basic_string@DU?$char_traits@D@std@@V?$allocator@D@2@@std@@V12@U?$less@V?$basic_string@DU?$char_traits@D@std@@V?$allocator@D@2@@std@@@2@V?$allocator@U?$pair@$$CBV?$basic_string@DU?$char_traits@D@std@@V?$allocator@D@2@@std@@V12@@std@@@2@@std@@A ; ibmras::monitoring::plugins::j9::trace::config
	call	??A?$map@V?$basic_string@DU?$char_traits@D@std@@V?$allocator@D@2@@std@@V12@U?$less@V?$basic_string@DU?$char_traits@D@std@@V?$allocator@D@2@@std@@@2@V?$allocator@U?$pair@$$CBV?$basic_string@DU?$char_traits@D@std@@V?$allocator@D@2@@std@@V12@@std@@@2@@std@@QAEAAV?$basic_string@DU?$char_traits@D@std@@V?$allocator@D@2@@1@$$QAV21@@Z ; std::map<std::basic_string<char,std::char_traits<char>,std::allocator<char> >,std::basic_string<char,std::char_traits<char>,std::allocator<char> >,std::less<std::basic_string<char,std::char_traits<char>,std::allocator<char> > >,std::allocator<std::pair<std::basic_string<char,std::char_traits<char>,std::allocator<char> > const ,std::basic_string<char,std::char_traits<char>,std::allocator<char> > > > >::operator[]
	mov	ecx, eax
	call	??4?$basic_string@DU?$char_traits@D@std@@V?$allocator@D@2@@std@@QAEAAV01@PBD@Z ; std::basic_string<char,std::char_traits<char>,std::allocator<char> >::operator=
	mov	BYTE PTR __$EHRec$[ebp+8], 0
	lea	ecx, DWORD PTR $T107607[ebp]
	call	??1?$basic_string@DU?$char_traits@D@std@@V?$allocator@D@2@@std@@QAE@XZ ; std::basic_string<char,std::char_traits<char>,std::allocator<char> >::~basic_string<char,std::char_traits<char>,std::allocator<char> >
$LN2@setCapabil:
; Line 401
	mov	eax, DWORD PTR _ALLOCATION_THRESHOLD_TRACEPOINT
	push	eax
	lea	ecx, DWORD PTR $T107609[ebp]
	call	??0?$basic_string@DU?$char_traits@D@std@@V?$allocator@D@2@@std@@QAE@PBD@Z ; std::basic_string<char,std::char_traits<char>,std::allocator<char> >::basic_string<char,std::char_traits<char>,std::allocator<char> >
	mov	BYTE PTR __$EHRec$[ebp+8], 3
	lea	ecx, DWORD PTR $T107609[ebp]
	push	ecx
	call	?tracePointExistsInThisVM@trace@j9@plugins@monitoring@ibmras@@YA_NABV?$basic_string@DU?$char_traits@D@std@@V?$allocator@D@2@@std@@@Z ; ibmras::monitoring::plugins::j9::trace::tracePointExistsInThisVM
	add	esp, 4
	mov	BYTE PTR $T122835[ebp], al
	mov	BYTE PTR __$EHRec$[ebp+8], 0
	lea	ecx, DWORD PTR $T107609[ebp]
	call	??1?$basic_string@DU?$char_traits@D@std@@V?$allocator@D@2@@std@@QAE@XZ ; std::basic_string<char,std::char_traits<char>,std::allocator<char> >::~basic_string<char,std::char_traits<char>,std::allocator<char> >
	movzx	edx, BYTE PTR $T122835[ebp]
	test	edx, edx
	je	SHORT $LN1@setCapabil
; Line 402
	push	OFFSET $SG107613
	mov	eax, DWORD PTR _ALLOCATION_THRESHOLD_AVAILABLE
	push	eax
	push	OFFSET _CAPABILITY_PREFIX
	lea	ecx, DWORD PTR $T107612[ebp]
	push	ecx
	call	??$?HDU?$char_traits@D@std@@V?$allocator@D@1@@std@@YA?AV?$basic_string@DU?$char_traits@D@std@@V?$allocator@D@2@@0@ABV10@PBD@Z ; std::operator+<char,std::char_traits<char>,std::allocator<char> >
	add	esp, 12					; 0000000cH
	mov	DWORD PTR tv128[ebp], eax
	mov	edx, DWORD PTR tv128[ebp]
	mov	DWORD PTR tv152[ebp], edx
	mov	BYTE PTR __$EHRec$[ebp+8], 4
	mov	eax, DWORD PTR tv152[ebp]
	push	eax
	mov	ecx, OFFSET ?config@trace@j9@plugins@monitoring@ibmras@@3V?$map@V?$basic_string@DU?$char_traits@D@std@@V?$allocator@D@2@@std@@V12@U?$less@V?$basic_string@DU?$char_traits@D@std@@V?$allocator@D@2@@std@@@2@V?$allocator@U?$pair@$$CBV?$basic_string@DU?$char_traits@D@std@@V?$allocator@D@2@@std@@V12@@std@@@2@@std@@A ; ibmras::monitoring::plugins::j9::trace::config
	call	??A?$map@V?$basic_string@DU?$char_traits@D@std@@V?$allocator@D@2@@std@@V12@U?$less@V?$basic_string@DU?$char_traits@D@std@@V?$allocator@D@2@@std@@@2@V?$allocator@U?$pair@$$CBV?$basic_string@DU?$char_traits@D@std@@V?$allocator@D@2@@std@@V12@@std@@@2@@std@@QAEAAV?$basic_string@DU?$char_traits@D@std@@V?$allocator@D@2@@1@$$QAV21@@Z ; std::map<std::basic_string<char,std::char_traits<char>,std::allocator<char> >,std::basic_string<char,std::char_traits<char>,std::allocator<char> >,std::less<std::basic_string<char,std::char_traits<char>,std::allocator<char> > >,std::allocator<std::pair<std::basic_string<char,std::char_traits<char>,std::allocator<char> > const ,std::basic_string<char,std::char_traits<char>,std::allocator<char> > > > >::operator[]
	mov	ecx, eax
	call	??4?$basic_string@DU?$char_traits@D@std@@V?$allocator@D@2@@std@@QAEAAV01@PBD@Z ; std::basic_string<char,std::char_traits<char>,std::allocator<char> >::operator=
	mov	BYTE PTR __$EHRec$[ebp+8], 0
	lea	ecx, DWORD PTR $T107612[ebp]
	call	??1?$basic_string@DU?$char_traits@D@std@@V?$allocator@D@2@@std@@QAE@XZ ; std::basic_string<char,std::char_traits<char>,std::allocator<char> >::~basic_string<char,std::char_traits<char>,std::allocator<char> >
$LN1@setCapabil:
; Line 404
	mov	DWORD PTR __$EHRec$[ebp+8], -1
	lea	ecx, DWORD PTR _capability$[ebp]
	call	??1?$basic_string@DU?$char_traits@D@std@@V?$allocator@D@2@@std@@QAE@XZ ; std::basic_string<char,std::char_traits<char>,std::allocator<char> >::~basic_string<char,std::char_traits<char>,std::allocator<char> >
	mov	ecx, DWORD PTR __$EHRec$[ebp]
	mov	DWORD PTR fs:0, ecx
	pop	ecx
	mov	ecx, DWORD PTR __$ArrayPad$[ebp]
	xor	ecx, ebp
	call	@__security_check_cookie@4
	mov	esp, ebp
	pop	ebp
	ret	0
_TEXT	ENDS
text$x	SEGMENT
__unwindfunclet$?setCapabilities@trace@j9@plugins@monitoring@ibmras@@YAXXZ$0:
	lea	ecx, DWORD PTR _capability$[ebp]
	jmp	??1?$basic_string@DU?$char_traits@D@std@@V?$allocator@D@2@@std@@QAE@XZ ; std::basic_string<char,std::char_traits<char>,std::allocator<char> >::~basic_string<char,std::char_traits<char>,std::allocator<char> >
__unwindfunclet$?setCapabilities@trace@j9@plugins@monitoring@ibmras@@YAXXZ$1:
	lea	ecx, DWORD PTR $T107604[ebp]
	jmp	??1?$basic_string@DU?$char_traits@D@std@@V?$allocator@D@2@@std@@QAE@XZ ; std::basic_string<char,std::char_traits<char>,std::allocator<char> >::~basic_string<char,std::char_traits<char>,std::allocator<char> >
__unwindfunclet$?setCapabilities@trace@j9@plugins@monitoring@ibmras@@YAXXZ$2:
	lea	ecx, DWORD PTR $T107607[ebp]
	jmp	??1?$basic_string@DU?$char_traits@D@std@@V?$allocator@D@2@@std@@QAE@XZ ; std::basic_string<char,std::char_traits<char>,std::allocator<char> >::~basic_string<char,std::char_traits<char>,std::allocator<char> >
__unwindfunclet$?setCapabilities@trace@j9@plugins@monitoring@ibmras@@YAXXZ$3:
	lea	ecx, DWORD PTR $T107609[ebp]
	jmp	??1?$basic_string@DU?$char_traits@D@std@@V?$allocator@D@2@@std@@QAE@XZ ; std::basic_string<char,std::char_traits<char>,std::allocator<char> >::~basic_string<char,std::char_traits<char>,std::allocator<char> >
__unwindfunclet$?setCapabilities@trace@j9@plugins@monitoring@ibmras@@YAXXZ$4:
	lea	ecx, DWORD PTR $T107612[ebp]
	jmp	??1?$basic_string@DU?$char_traits@D@std@@V?$allocator@D@2@@std@@QAE@XZ ; std::basic_string<char,std::char_traits<char>,std::allocator<char> >::~basic_string<char,std::char_traits<char>,std::allocator<char> >
__ehhandler$?setCapabilities@trace@j9@plugins@monitoring@ibmras@@YAXXZ:
	mov	edx, DWORD PTR [esp+8]
	lea	eax, DWORD PTR [edx+12]
	mov	ecx, DWORD PTR [edx-176]
	xor	ecx, eax
	call	@__security_check_cookie@4
	mov	ecx, DWORD PTR [edx-4]
	xor	ecx, eax
	call	@__security_check_cookie@4
	mov	eax, OFFSET __ehfuncinfo$?setCapabilities@trace@j9@plugins@monitoring@ibmras@@YAXXZ
	jmp	___CxxFrameHandler3
text$x	ENDS
?setCapabilities@trace@j9@plugins@monitoring@ibmras@@YAXXZ ENDP ; ibmras::monitoring::plugins::j9::trace::setCapabilities
PUBLIC	?setTraceOption@trace@j9@plugins@monitoring@ibmras@@YAXABV?$basic_string@DU?$char_traits@D@std@@V?$allocator@D@2@@std@@@Z ; ibmras::monitoring::plugins::j9::trace::setTraceOption
; Function compile flags: /Odtp
_TEXT	SEGMENT
_cmd$ = -4						; size = 4
_traceCommand$ = 8					; size = 4
?setTraceOption@trace@j9@plugins@monitoring@ibmras@@YAXABV?$basic_string@DU?$char_traits@D@std@@V?$allocator@D@2@@std@@@Z PROC ; ibmras::monitoring::plugins::j9::trace::setTraceOption
; Line 406
	push	ebp
	mov	ebp, esp
	push	ecx
; Line 411
	mov	ecx, DWORD PTR _traceCommand$[ebp]
	call	?c_str@?$basic_string@DU?$char_traits@D@std@@V?$allocator@D@2@@std@@QBEPBDXZ ; std::basic_string<char,std::char_traits<char>,std::allocator<char> >::c_str
	mov	DWORD PTR _cmd$[ebp], eax
; Line 414
	mov	eax, DWORD PTR _cmd$[ebp]
	push	eax
	mov	ecx, DWORD PTR ?vmData@trace@j9@plugins@monitoring@ibmras@@3UjvmFunctions@@A+64
	push	ecx
	call	DWORD PTR ?vmData@trace@j9@plugins@monitoring@ibmras@@3UjvmFunctions@@A
	add	esp, 8
; Line 418
	mov	esp, ebp
	pop	ebp
	ret	0
?setTraceOption@trace@j9@plugins@monitoring@ibmras@@YAXABV?$basic_string@DU?$char_traits@D@std@@V?$allocator@D@2@@std@@@Z ENDP ; ibmras::monitoring::plugins::j9::trace::setTraceOption
_TEXT	ENDS
PUBLIC	__$ArrayPad$
PUBLIC	?setNoDynamicProperties@trace@j9@plugins@monitoring@ibmras@@YAXXZ ; ibmras::monitoring::plugins::j9::trace::setNoDynamicProperties
EXTRN	?agentPropertyExists@Agent@agent@monitoring@ibmras@@QAE_NABV?$basic_string@DU?$char_traits@D@std@@V?$allocator@D@2@@std@@@Z:PROC ; ibmras::monitoring::agent::Agent::agentPropertyExists
xdata$x	SEGMENT
__unwindtable$?setNoDynamicProperties@trace@j9@plugins@monitoring@ibmras@@YAXXZ DD 0ffffffffH
	DD	FLAT:__unwindfunclet$?setNoDynamicProperties@trace@j9@plugins@monitoring@ibmras@@YAXXZ$0
	DD	0ffffffffH
	DD	FLAT:__unwindfunclet$?setNoDynamicProperties@trace@j9@plugins@monitoring@ibmras@@YAXXZ$1
__ehfuncinfo$?setNoDynamicProperties@trace@j9@plugins@monitoring@ibmras@@YAXXZ DD 019930522H
	DD	02H
	DD	FLAT:__unwindtable$?setNoDynamicProperties@trace@j9@plugins@monitoring@ibmras@@YAXXZ
	DD	2 DUP(00H)
	DD	2 DUP(00H)
	DD	00H
	DD	01H
; Function compile flags: /Odtp
xdata$x	ENDS
_TEXT	SEGMENT
$T122848 = -77						; size = 1
_agent$ = -76						; size = 4
$T107625 = -72						; size = 28
$T107621 = -44						; size = 28
__$ArrayPad$ = -16					; size = 4
__$EHRec$ = -12						; size = 12
?setNoDynamicProperties@trace@j9@plugins@monitoring@ibmras@@YAXXZ PROC ; ibmras::monitoring::plugins::j9::trace::setNoDynamicProperties
; Line 420
	push	ebp
	mov	ebp, esp
	push	-1
	push	__ehhandler$?setNoDynamicProperties@trace@j9@plugins@monitoring@ibmras@@YAXXZ
	mov	eax, DWORD PTR fs:0
	push	eax
	sub	esp, 68					; 00000044H
	mov	eax, DWORD PTR ___security_cookie
	xor	eax, ebp
	mov	DWORD PTR __$ArrayPad$[ebp], eax
	push	eax
	lea	eax, DWORD PTR __$EHRec$[ebp]
	mov	DWORD PTR fs:0, eax
; Line 422
	call	?getInstance@Agent@agent@monitoring@ibmras@@SAPAV1234@XZ ; ibmras::monitoring::agent::Agent::getInstance
	mov	DWORD PTR _agent$[ebp], eax
; Line 423
	push	OFFSET $SG107624
	lea	ecx, DWORD PTR $T107621[ebp]
	call	??0?$basic_string@DU?$char_traits@D@std@@V?$allocator@D@2@@std@@QAE@PBD@Z ; std::basic_string<char,std::char_traits<char>,std::allocator<char> >::basic_string<char,std::char_traits<char>,std::allocator<char> >
	mov	DWORD PTR __$EHRec$[ebp+8], 0
	lea	eax, DWORD PTR $T107621[ebp]
	push	eax
	mov	ecx, DWORD PTR _agent$[ebp]
	call	?agentPropertyExists@Agent@agent@monitoring@ibmras@@QAE_NABV?$basic_string@DU?$char_traits@D@std@@V?$allocator@D@2@@std@@@Z ; ibmras::monitoring::agent::Agent::agentPropertyExists
	movzx	ecx, al
	neg	ecx
	sbb	ecx, ecx
	add	ecx, 1
	mov	BYTE PTR $T122848[ebp], cl
	mov	DWORD PTR __$EHRec$[ebp+8], -1
	lea	ecx, DWORD PTR $T107621[ebp]
	call	??1?$basic_string@DU?$char_traits@D@std@@V?$allocator@D@2@@std@@QAE@XZ ; std::basic_string<char,std::char_traits<char>,std::allocator<char> >::~basic_string<char,std::char_traits<char>,std::allocator<char> >
	movzx	edx, BYTE PTR $T122848[ebp]
	test	edx, edx
	je	SHORT $LN2@setNoDynam
; Line 424
	push	OFFSET $SG107626
	lea	ecx, DWORD PTR $T107625[ebp]
	call	??0?$basic_string@DU?$char_traits@D@std@@V?$allocator@D@2@@std@@QAE@PBD@Z ; std::basic_string<char,std::char_traits<char>,std::allocator<char> >::basic_string<char,std::char_traits<char>,std::allocator<char> >
	mov	DWORD PTR __$EHRec$[ebp+8], 1
	lea	eax, DWORD PTR $T107625[ebp]
	push	eax
	call	?setTraceOption@trace@j9@plugins@monitoring@ibmras@@YAXABV?$basic_string@DU?$char_traits@D@std@@V?$allocator@D@2@@std@@@Z ; ibmras::monitoring::plugins::j9::trace::setTraceOption
	add	esp, 4
	mov	DWORD PTR __$EHRec$[ebp+8], -1
	lea	ecx, DWORD PTR $T107625[ebp]
	call	??1?$basic_string@DU?$char_traits@D@std@@V?$allocator@D@2@@std@@QAE@XZ ; std::basic_string<char,std::char_traits<char>,std::allocator<char> >::~basic_string<char,std::char_traits<char>,std::allocator<char> >
$LN2@setNoDynam:
; Line 426
	mov	ecx, DWORD PTR __$EHRec$[ebp]
	mov	DWORD PTR fs:0, ecx
	pop	ecx
	mov	ecx, DWORD PTR __$ArrayPad$[ebp]
	xor	ecx, ebp
	call	@__security_check_cookie@4
	mov	esp, ebp
	pop	ebp
	ret	0
_TEXT	ENDS
text$x	SEGMENT
__unwindfunclet$?setNoDynamicProperties@trace@j9@plugins@monitoring@ibmras@@YAXXZ$0:
	lea	ecx, DWORD PTR $T107621[ebp]
	jmp	??1?$basic_string@DU?$char_traits@D@std@@V?$allocator@D@2@@std@@QAE@XZ ; std::basic_string<char,std::char_traits<char>,std::allocator<char> >::~basic_string<char,std::char_traits<char>,std::allocator<char> >
__unwindfunclet$?setNoDynamicProperties@trace@j9@plugins@monitoring@ibmras@@YAXXZ$1:
	lea	ecx, DWORD PTR $T107625[ebp]
	jmp	??1?$basic_string@DU?$char_traits@D@std@@V?$allocator@D@2@@std@@QAE@XZ ; std::basic_string<char,std::char_traits<char>,std::allocator<char> >::~basic_string<char,std::char_traits<char>,std::allocator<char> >
__ehhandler$?setNoDynamicProperties@trace@j9@plugins@monitoring@ibmras@@YAXXZ:
	mov	edx, DWORD PTR [esp+8]
	lea	eax, DWORD PTR [edx+12]
	mov	ecx, DWORD PTR [edx-72]
	xor	ecx, eax
	call	@__security_check_cookie@4
	mov	ecx, DWORD PTR [edx-4]
	xor	ecx, eax
	call	@__security_check_cookie@4
	mov	eax, OFFSET __ehfuncinfo$?setNoDynamicProperties@trace@j9@plugins@monitoring@ibmras@@YAXXZ
	jmp	___CxxFrameHandler3
text$x	ENDS
?setNoDynamicProperties@trace@j9@plugins@monitoring@ibmras@@YAXXZ ENDP ; ibmras::monitoring::plugins::j9::trace::setNoDynamicProperties
PUBLIC	?publishConfig@trace@j9@plugins@monitoring@ibmras@@YAXXZ ; ibmras::monitoring::plugins::j9::trace::publishConfig
